
../../out/mipsel/2-muli-branch.elf:     file format elf32-tradlittlemips


Disassembly of section .init:

00400108 <_init>:
  400108:	27bdffe0 	addiu	sp,sp,-32
  40010c:	afbc0018 	sw	gp,24(sp)
  400110:	afbf001c 	sw	ra,28(sp)
  400114:	04110001 	bal	40011c <_init+0x14>
  400118:	00000000 	nop
  40011c:	3c1c0042 	lui	gp,0x42
  400120:	279c10c0 	addiu	gp,gp,4288
  400124:	8f998018 	lw	t9,-32744(gp)
  400128:	00000000 	nop
  40012c:	273903f4 	addiu	t9,t9,1012
  400130:	00000000 	nop
  400134:	0320f809 	jalr	t9
  400138:	00000000 	nop
  40013c:	04110001 	bal	400144 <_init+0x3c>
  400140:	00000000 	nop
  400144:	3c1c0042 	lui	gp,0x42
  400148:	279c10c0 	addiu	gp,gp,4288
  40014c:	8f99801c 	lw	t9,-32740(gp)
  400150:	00000000 	nop
  400154:	273980e0 	addiu	t9,t9,-32544
  400158:	00000000 	nop
  40015c:	0320f809 	jalr	t9
  400160:	00000000 	nop
  400164:	8fbc0018 	lw	gp,24(sp)
  400168:	8fbf001c 	lw	ra,28(sp)
  40016c:	03e00008 	jr	ra
  400170:	27bd0020 	addiu	sp,sp,32

Disassembly of section .text:

00400180 <exit>:
  400180:	3c1c0002 	lui	gp,0x2
  400184:	279c0f40 	addiu	gp,gp,3904
  400188:	0399e021 	addu	gp,gp,t9
  40018c:	27bdffe0 	addiu	sp,sp,-32
  400190:	8f998028 	lw	t9,-32728(gp)
  400194:	afa40020 	sw	a0,32(sp)
  400198:	afbf001c 	sw	ra,28(sp)
  40019c:	afbc0010 	sw	gp,16(sp)
  4001a0:	04110237 	bal	400a80 <__funcs_on_exit>
  4001a4:	00000000 	nop
  4001a8:	8fbc0010 	lw	gp,16(sp)
  4001ac:	00000000 	nop
  4001b0:	8f99802c 	lw	t9,-32724(gp)
  4001b4:	00000000 	nop
  4001b8:	04110233 	bal	400a88 <__libc_exit_fini>
  4001bc:	00000000 	nop
  4001c0:	8fbc0010 	lw	gp,16(sp)
  4001c4:	00000000 	nop
  4001c8:	8f998030 	lw	t9,-32720(gp)
  4001cc:	00000000 	nop
  4001d0:	0411112d 	bal	404688 <__stdio_exit>
  4001d4:	00000000 	nop
  4001d8:	8fbc0010 	lw	gp,16(sp)
  4001dc:	8fa40020 	lw	a0,32(sp)
  4001e0:	8f998034 	lw	t9,-32716(gp)
  4001e4:	00000000 	nop
  4001e8:	04110cfb 	bal	4035d8 <_Exit>
  4001ec:	00000000 	nop

004001f0 <__start>:
  4001f0:	04110004 	bal	400204 <__start+0x14>
  4001f4:	0000f025 	move	s8,zero
  4001f8:	fffdf138 	0xfffdf138
  4001fc:	fffdf170 	0xfffdf170
  400200:	ffbdef40 	0xffbdef40
  400204:	8ffc0000 	lw	gp,0(ra)
  400208:	03fce023 	subu	gp,ra,gp
  40020c:	03a02025 	move	a0,sp
  400210:	8fe50008 	lw	a1,8(ra)
  400214:	00bc2821 	addu	a1,a1,gp
  400218:	8ff90004 	lw	t9,4(ra)
  40021c:	033cc821 	addu	t9,t9,gp
  400220:	2401fff8 	li	at,-8
  400224:	03a1e824 	and	sp,sp,at
  400228:	0320f809 	jalr	t9
  40022c:	27bdfff0 	addiu	sp,sp,-16

00400230 <_start_c>:
  400230:	3c1c0042 	lui	gp,0x42
  400234:	279c10c0 	addiu	gp,gp,4288
  400238:	8f828024 	lw	v0,-32732(gp)
  40023c:	27bdffd8 	addiu	sp,sp,-40
  400240:	afa00014 	sw	zero,20(sp)
  400244:	afa20010 	sw	v0,16(sp)
  400248:	8c850000 	lw	a1,0(a0)
  40024c:	8f998038 	lw	t9,-32712(gp)
  400250:	24860004 	addiu	a2,a0,4
  400254:	8f87803c 	lw	a3,-32708(gp)
  400258:	8f848040 	lw	a0,-32704(gp)
  40025c:	afbf0024 	sw	ra,36(sp)
  400260:	afbc0018 	sw	gp,24(sp)
  400264:	041101e7 	bal	400a04 <__libc_start_main>
  400268:	00000000 	nop
  40026c:	8fbf0024 	lw	ra,36(sp)
  400270:	00000000 	nop
  400274:	03e00008 	jr	ra
  400278:	27bd0028 	addiu	sp,sp,40
  40027c:	00000000 	nop

00400280 <deregister_tm_clones>:
  400280:	3c040042 	lui	a0,0x42
  400284:	3c020042 	lui	v0,0x42
  400288:	248490d0 	addiu	a0,a0,-28464
  40028c:	244290d0 	addiu	v0,v0,-28464
  400290:	10440008 	beq	v0,a0,4002b4 <deregister_tm_clones+0x34>
  400294:	3c1c0042 	lui	gp,0x42
  400298:	279c10c0 	addiu	gp,gp,4288
  40029c:	8f998154 	lw	t9,-32428(gp)
  4002a0:	00000000 	nop
  4002a4:	13200003 	beqz	t9,4002b4 <deregister_tm_clones+0x34>
  4002a8:	00000000 	nop
  4002ac:	03200008 	jr	t9
  4002b0:	00000000 	nop
  4002b4:	03e00008 	jr	ra
  4002b8:	00000000 	nop

004002bc <register_tm_clones>:
  4002bc:	3c040042 	lui	a0,0x42
  4002c0:	3c020042 	lui	v0,0x42
  4002c4:	248490d0 	addiu	a0,a0,-28464
  4002c8:	244590d0 	addiu	a1,v0,-28464
  4002cc:	00a42823 	subu	a1,a1,a0
  4002d0:	00051083 	sra	v0,a1,0x2
  4002d4:	00052fc2 	srl	a1,a1,0x1f
  4002d8:	00a22821 	addu	a1,a1,v0
  4002dc:	00052843 	sra	a1,a1,0x1
  4002e0:	10a00008 	beqz	a1,400304 <register_tm_clones+0x48>
  4002e4:	3c1c0042 	lui	gp,0x42
  4002e8:	279c10c0 	addiu	gp,gp,4288
  4002ec:	8f998158 	lw	t9,-32424(gp)
  4002f0:	00000000 	nop
  4002f4:	13200003 	beqz	t9,400304 <register_tm_clones+0x48>
  4002f8:	00000000 	nop
  4002fc:	03200008 	jr	t9
  400300:	00000000 	nop
  400304:	03e00008 	jr	ra
  400308:	00000000 	nop

0040030c <__do_global_dtors_aux>:
  40030c:	27bdffd0 	addiu	sp,sp,-48
  400310:	afb30028 	sw	s3,40(sp)
  400314:	3c130042 	lui	s3,0x42
  400318:	3c1c0042 	lui	gp,0x42
  40031c:	92629230 	lbu	v0,-28112(s3)
  400320:	279c10c0 	addiu	gp,gp,4288
  400324:	afbf002c 	sw	ra,44(sp)
  400328:	afb20024 	sw	s2,36(sp)
  40032c:	afb10020 	sw	s1,32(sp)
  400330:	afb0001c 	sw	s0,28(sp)
  400334:	14400028 	bnez	v0,4003d8 <__do_global_dtors_aux+0xcc>
  400338:	afbc0010 	sw	gp,16(sp)
  40033c:	3c110042 	lui	s1,0x42
  400340:	3c020042 	lui	v0,0x42
  400344:	24429008 	addiu	v0,v0,-28664
  400348:	2631900c 	addiu	s1,s1,-28660
  40034c:	02228823 	subu	s1,s1,v0
  400350:	3c100042 	lui	s0,0x42
  400354:	8e029234 	lw	v0,-28108(s0)
  400358:	00118883 	sra	s1,s1,0x2
  40035c:	2631ffff 	addiu	s1,s1,-1
  400360:	3c040042 	lui	a0,0x42
  400364:	0051182b 	sltu	v1,v0,s1
  400368:	24929008 	addiu	s2,a0,-28664
  40036c:	1060000c 	beqz	v1,4003a0 <__do_global_dtors_aux+0x94>
  400370:	24420001 	addiu	v0,v0,1
  400374:	00021880 	sll	v1,v0,0x2
  400378:	02431821 	addu	v1,s2,v1
  40037c:	8c790000 	lw	t9,0(v1)
  400380:	00000000 	nop
  400384:	0320f809 	jalr	t9
  400388:	ae029234 	sw	v0,-28108(s0)
  40038c:	8e029234 	lw	v0,-28108(s0)
  400390:	00000000 	nop
  400394:	0051182b 	sltu	v1,v0,s1
  400398:	1460fff6 	bnez	v1,400374 <__do_global_dtors_aux+0x68>
  40039c:	24420001 	addiu	v0,v0,1
  4003a0:	0c1000a0 	jal	400280 <deregister_tm_clones>
  4003a4:	00000000 	nop
  4003a8:	8fbc0010 	lw	gp,16(sp)
  4003ac:	00000000 	nop
  4003b0:	8f82815c 	lw	v0,-32420(gp)
  4003b4:	00000000 	nop
  4003b8:	10400006 	beqz	v0,4003d4 <__do_global_dtors_aux+0xc8>
  4003bc:	24020001 	li	v0,1
  4003c0:	8f99815c 	lw	t9,-32420(gp)
  4003c4:	3c040041 	lui	a0,0x41
  4003c8:	0320f809 	jalr	t9
  4003cc:	24848f20 	addiu	a0,a0,-28896
  4003d0:	24020001 	li	v0,1
  4003d4:	a2629230 	sb	v0,-28112(s3)
  4003d8:	8fbf002c 	lw	ra,44(sp)
  4003dc:	8fb30028 	lw	s3,40(sp)
  4003e0:	8fb20024 	lw	s2,36(sp)
  4003e4:	8fb10020 	lw	s1,32(sp)
  4003e8:	8fb0001c 	lw	s0,28(sp)
  4003ec:	03e00008 	jr	ra
  4003f0:	27bd0030 	addiu	sp,sp,48

004003f4 <frame_dummy>:
  4003f4:	3c1c0042 	lui	gp,0x42
  4003f8:	279c10c0 	addiu	gp,gp,4288
  4003fc:	8f828150 	lw	v0,-32432(gp)
  400400:	27bdffe0 	addiu	sp,sp,-32
  400404:	afbf001c 	sw	ra,28(sp)
  400408:	10400008 	beqz	v0,40042c <frame_dummy+0x38>
  40040c:	afbc0010 	sw	gp,16(sp)
  400410:	8f998150 	lw	t9,-32432(gp)
  400414:	3c050042 	lui	a1,0x42
  400418:	3c040041 	lui	a0,0x41
  40041c:	24a59238 	addiu	a1,a1,-28104
  400420:	0320f809 	jalr	t9
  400424:	24848f20 	addiu	a0,a0,-28896
  400428:	8fbc0010 	lw	gp,16(sp)
  40042c:	8fbf001c 	lw	ra,28(sp)
  400430:	081000af 	j	4002bc <register_tm_clones>
  400434:	27bd0020 	addiu	sp,sp,32
	...

00400440 <add>:
  400440:	27bdfff8 	addiu	sp,sp,-8
  400444:	afbe0004 	sw	s8,4(sp)
  400448:	03a0f025 	move	s8,sp
  40044c:	afc40008 	sw	a0,8(s8)
  400450:	afc5000c 	sw	a1,12(s8)
  400454:	8fc30008 	lw	v1,8(s8)
  400458:	8fc2000c 	lw	v0,12(s8)
  40045c:	00000000 	nop
  400460:	00621021 	addu	v0,v1,v0
  400464:	03c0e825 	move	sp,s8
  400468:	8fbe0004 	lw	s8,4(sp)
  40046c:	27bd0008 	addiu	sp,sp,8
  400470:	03e00008 	jr	ra
  400474:	00000000 	nop

00400478 <sub>:
  400478:	27bdfff8 	addiu	sp,sp,-8
  40047c:	afbe0004 	sw	s8,4(sp)
  400480:	03a0f025 	move	s8,sp
  400484:	afc40008 	sw	a0,8(s8)
  400488:	afc5000c 	sw	a1,12(s8)
  40048c:	8fc30008 	lw	v1,8(s8)
  400490:	8fc2000c 	lw	v0,12(s8)
  400494:	00000000 	nop
  400498:	00621023 	subu	v0,v1,v0
  40049c:	03c0e825 	move	sp,s8
  4004a0:	8fbe0004 	lw	s8,4(sp)
  4004a4:	27bd0008 	addiu	sp,sp,8
  4004a8:	03e00008 	jr	ra
  4004ac:	00000000 	nop

004004b0 <mul>:
  4004b0:	27bdfff8 	addiu	sp,sp,-8
  4004b4:	afbe0004 	sw	s8,4(sp)
  4004b8:	03a0f025 	move	s8,sp
  4004bc:	afc40008 	sw	a0,8(s8)
  4004c0:	afc5000c 	sw	a1,12(s8)
  4004c4:	8fc30008 	lw	v1,8(s8)
  4004c8:	8fc2000c 	lw	v0,12(s8)
  4004cc:	00000000 	nop
  4004d0:	00620018 	mult	v1,v0
  4004d4:	00001012 	mflo	v0
  4004d8:	03c0e825 	move	sp,s8
  4004dc:	8fbe0004 	lw	s8,4(sp)
  4004e0:	27bd0008 	addiu	sp,sp,8
  4004e4:	03e00008 	jr	ra
  4004e8:	00000000 	nop

004004ec <div>:
  4004ec:	27bdfff8 	addiu	sp,sp,-8
  4004f0:	afbe0004 	sw	s8,4(sp)
  4004f4:	03a0f025 	move	s8,sp
  4004f8:	afc40008 	sw	a0,8(s8)
  4004fc:	afc5000c 	sw	a1,12(s8)
  400500:	8fc30008 	lw	v1,8(s8)
  400504:	8fc2000c 	lw	v0,12(s8)
  400508:	00000000 	nop
  40050c:	0062001a 	div	zero,v1,v0
  400510:	14400002 	bnez	v0,40051c <div+0x30>
  400514:	00000000 	nop
  400518:	0007000d 	break	0x7
  40051c:	00001010 	mfhi	v0
  400520:	00001012 	mflo	v0
  400524:	03c0e825 	move	sp,s8
  400528:	8fbe0004 	lw	s8,4(sp)
  40052c:	27bd0008 	addiu	sp,sp,8
  400530:	03e00008 	jr	ra
  400534:	00000000 	nop

00400538 <main>:
  400538:	27bdffd0 	addiu	sp,sp,-48
  40053c:	afbf002c 	sw	ra,44(sp)
  400540:	afbe0028 	sw	s8,40(sp)
  400544:	03a0f025 	move	s8,sp
  400548:	3c1c0042 	lui	gp,0x42
  40054c:	279c10c0 	addiu	gp,gp,4288
  400550:	afbc0010 	sw	gp,16(sp)
  400554:	afc40030 	sw	a0,48(s8)
  400558:	afc50034 	sw	a1,52(s8)
  40055c:	24020005 	li	v0,5
  400560:	afc2001c 	sw	v0,28(s8)
  400564:	24020006 	li	v0,6
  400568:	afc20020 	sw	v0,32(s8)
  40056c:	afc00018 	sw	zero,24(s8)
  400570:	8fc30030 	lw	v1,48(s8)
  400574:	3c028000 	lui	v0,0x8000
  400578:	34420003 	ori	v0,v0,0x3
  40057c:	00621024 	and	v0,v1,v0
  400580:	04410005 	bgez	v0,400598 <main+0x60>
  400584:	00000000 	nop
  400588:	2442ffff 	addiu	v0,v0,-1
  40058c:	2403fffc 	li	v1,-4
  400590:	00431025 	or	v0,v0,v1
  400594:	24420001 	addiu	v0,v0,1
  400598:	24030003 	li	v1,3
  40059c:	10430020 	beq	v0,v1,400620 <main+0xe8>
  4005a0:	00000000 	nop
  4005a4:	28430004 	slti	v1,v0,4
  4005a8:	10600022 	beqz	v1,400634 <main+0xfc>
  4005ac:	00000000 	nop
  4005b0:	24030002 	li	v1,2
  4005b4:	10430015 	beq	v0,v1,40060c <main+0xd4>
  4005b8:	00000000 	nop
  4005bc:	28430003 	slti	v1,v0,3
  4005c0:	1060001c 	beqz	v1,400634 <main+0xfc>
  4005c4:	00000000 	nop
  4005c8:	10400006 	beqz	v0,4005e4 <main+0xac>
  4005cc:	00000000 	nop
  4005d0:	24030001 	li	v1,1
  4005d4:	10430008 	beq	v0,v1,4005f8 <main+0xc0>
  4005d8:	00000000 	nop
  4005dc:	10000015 	b	400634 <main+0xfc>
  4005e0:	00000000 	nop
  4005e4:	3c020040 	lui	v0,0x40
  4005e8:	24420440 	addiu	v0,v0,1088
  4005ec:	afc20018 	sw	v0,24(s8)
  4005f0:	10000011 	b	400638 <main+0x100>
  4005f4:	00000000 	nop
  4005f8:	3c020040 	lui	v0,0x40
  4005fc:	24420478 	addiu	v0,v0,1144
  400600:	afc20018 	sw	v0,24(s8)
  400604:	1000000c 	b	400638 <main+0x100>
  400608:	00000000 	nop
  40060c:	3c020040 	lui	v0,0x40
  400610:	244204b0 	addiu	v0,v0,1200
  400614:	afc20018 	sw	v0,24(s8)
  400618:	10000007 	b	400638 <main+0x100>
  40061c:	00000000 	nop
  400620:	3c020040 	lui	v0,0x40
  400624:	244204ec 	addiu	v0,v0,1260
  400628:	afc20018 	sw	v0,24(s8)
  40062c:	10000002 	b	400638 <main+0x100>
  400630:	00000000 	nop
  400634:	00000000 	nop
  400638:	8fc20018 	lw	v0,24(s8)
  40063c:	00000000 	nop
  400640:	10400013 	beqz	v0,400690 <main+0x158>
  400644:	00000000 	nop
  400648:	8fc20018 	lw	v0,24(s8)
  40064c:	8fc50020 	lw	a1,32(s8)
  400650:	8fc4001c 	lw	a0,28(s8)
  400654:	0040c825 	move	t9,v0
  400658:	0320f809 	jalr	t9
  40065c:	00000000 	nop
  400660:	8fdc0010 	lw	gp,16(s8)
  400664:	00403825 	move	a3,v0
  400668:	8fc60018 	lw	a2,24(s8)
  40066c:	8fc50030 	lw	a1,48(s8)
  400670:	3c020041 	lui	v0,0x41
  400674:	244481a0 	addiu	a0,v0,-32352
  400678:	8f828044 	lw	v0,-32700(gp)
  40067c:	00000000 	nop
  400680:	0040c825 	move	t9,v0
  400684:	0411011e 	bal	400b00 <printf>
  400688:	00000000 	nop
  40068c:	8fdc0010 	lw	gp,16(s8)
  400690:	00001025 	move	v0,zero
  400694:	03c0e825 	move	sp,s8
  400698:	8fbf002c 	lw	ra,44(sp)
  40069c:	8fbe0028 	lw	s8,40(sp)
  4006a0:	27bd0030 	addiu	sp,sp,48
  4006a4:	03e00008 	jr	ra
  4006a8:	00000000 	nop
  4006ac:	00000000 	nop

004006b0 <dummy>:
  4006b0:	03e00008 	jr	ra
  4006b4:	00000000 	nop

004006b8 <__init_ssp>:
  4006b8:	03e00008 	jr	ra
  4006bc:	00000000 	nop

004006c0 <__init_libc>:
  4006c0:	3c1c0002 	lui	gp,0x2
  4006c4:	279c0a00 	addiu	gp,gp,2560
  4006c8:	0399e021 	addu	gp,gp,t9
  4006cc:	27bdff28 	addiu	sp,sp,-216
  4006d0:	8f998048 	lw	t9,-32696(gp)
  4006d4:	24060098 	li	a2,152
  4006d8:	afbc0010 	sw	gp,16(sp)
  4006dc:	afb100d0 	sw	s1,208(sp)
  4006e0:	afb000cc 	sw	s0,204(sp)
  4006e4:	00808825 	move	s1,a0
  4006e8:	afbf00d4 	sw	ra,212(sp)
  4006ec:	27a40018 	addiu	a0,sp,24
  4006f0:	00a08025 	move	s0,a1
  4006f4:	04110a2a 	bal	402fa0 <memset>
  4006f8:	00002825 	move	a1,zero
  4006fc:	8fbc0010 	lw	gp,16(sp)
  400700:	00402025 	move	a0,v0
  400704:	8f82804c 	lw	v0,-32692(gp)
  400708:	00000000 	nop
  40070c:	ac510000 	sw	s1,0(v0)
  400710:	00001025 	move	v0,zero
  400714:	00021880 	sll	v1,v0,0x2
  400718:	02231821 	addu	v1,s1,v1
  40071c:	8c630000 	lw	v1,0(v1)
  400720:	00000000 	nop
  400724:	1460fffb 	bnez	v1,400714 <__init_libc+0x54>
  400728:	24420001 	addiu	v0,v0,1
  40072c:	00021080 	sll	v0,v0,0x2
  400730:	02221021 	addu	v0,s1,v0
  400734:	8f918050 	lw	s1,-32688(gp)
  400738:	00000000 	nop
  40073c:	ae220008 	sw	v0,8(s1)
  400740:	8c430000 	lw	v1,0(v0)
  400744:	00000000 	nop
  400748:	1460004c 	bnez	v1,40087c <__init_libc+0x1bc>
  40074c:	00000000 	nop
  400750:	8f828054 	lw	v0,-32684(gp)
  400754:	8fa30058 	lw	v1,88(sp)
  400758:	00000000 	nop
  40075c:	ac430000 	sw	v1,0(v0)
  400760:	8fa20098 	lw	v0,152(sp)
  400764:	00000000 	nop
  400768:	10400004 	beqz	v0,40077c <__init_libc+0xbc>
  40076c:	00000000 	nop
  400770:	8f838058 	lw	v1,-32680(gp)
  400774:	00000000 	nop
  400778:	ac620000 	sw	v0,0(v1)
  40077c:	8fa20030 	lw	v0,48(sp)
  400780:	16000008 	bnez	s0,4007a4 <__init_libc+0xe4>
  400784:	ae22001c 	sw	v0,28(s1)
  400788:	8fb00094 	lw	s0,148(sp)
  40078c:	00000000 	nop
  400790:	16000004 	bnez	s0,4007a4 <__init_libc+0xe4>
  400794:	00000000 	nop
  400798:	8f90801c 	lw	s0,-32740(gp)
  40079c:	00000000 	nop
  4007a0:	261081b0 	addiu	s0,s0,-32336
  4007a4:	8f82805c 	lw	v0,-32676(gp)
  4007a8:	8f838060 	lw	v1,-32672(gp)
  4007ac:	ac500000 	sw	s0,0(v0)
  4007b0:	ac700000 	sw	s0,0(v1)
  4007b4:	2405002f 	li	a1,47
  4007b8:	26100001 	addiu	s0,s0,1
  4007bc:	8202ffff 	lb	v0,-1(s0)
  4007c0:	00000000 	nop
  4007c4:	14400035 	bnez	v0,40089c <__init_libc+0x1dc>
  4007c8:	00000000 	nop
  4007cc:	8f998064 	lw	t9,-32668(gp)
  4007d0:	00000000 	nop
  4007d4:	04110ac0 	bal	4032d8 <__init_tls>
  4007d8:	00000000 	nop
  4007dc:	8fbc0010 	lw	gp,16(sp)
  4007e0:	8fa4007c 	lw	a0,124(sp)
  4007e4:	8f998068 	lw	t9,-32664(gp)
  4007e8:	00000000 	nop
  4007ec:	0411ffb2 	bal	4006b8 <__init_ssp>
  4007f0:	00000000 	nop
  4007f4:	8fa40044 	lw	a0,68(sp)
  4007f8:	8fa30048 	lw	v1,72(sp)
  4007fc:	8fbc0010 	lw	gp,16(sp)
  400800:	1483000a 	bne	a0,v1,40082c <__init_libc+0x16c>
  400804:	24030001 	li	v1,1
  400808:	8fa4004c 	lw	a0,76(sp)
  40080c:	8fa30050 	lw	v1,80(sp)
  400810:	00000000 	nop
  400814:	14830005 	bne	a0,v1,40082c <__init_libc+0x16c>
  400818:	24030001 	li	v1,1
  40081c:	8fa30074 	lw	v1,116(sp)
  400820:	00000000 	nop
  400824:	10600037 	beqz	v1,400904 <__init_libc+0x244>
  400828:	24030001 	li	v1,1
  40082c:	afa300b8 	sw	v1,184(sp)
  400830:	24030002 	li	v1,2
  400834:	afa000b0 	sw	zero,176(sp)
  400838:	afa000b4 	sw	zero,180(sp)
  40083c:	afa000bc 	sw	zero,188(sp)
  400840:	afa000c4 	sw	zero,196(sp)
  400844:	afa300c0 	sw	v1,192(sp)
  400848:	27a400b0 	addiu	a0,sp,176
  40084c:	24050003 	li	a1,3
  400850:	00003025 	move	a2,zero
  400854:	2402105c 	li	v0,4188
  400858:	0000000c 	syscall
  40085c:	10e00003 	beqz	a3,40086c <__init_libc+0x1ac>
  400860:	00000000 	nop
  400864:	1c400003 	bgtz	v0,400874 <__init_libc+0x1b4>
  400868:	00000000 	nop
  40086c:	04410010 	bgez	v0,4008b0 <__init_libc+0x1f0>
  400870:	27a600b0 	addiu	a2,sp,176
  400874:	a0000000 	sb	zero,0(zero)
  400878:	0000000d 	break
  40087c:	2c650026 	sltiu	a1,v1,38
  400880:	10a00004 	beqz	a1,400894 <__init_libc+0x1d4>
  400884:	00031880 	sll	v1,v1,0x2
  400888:	8c450004 	lw	a1,4(v0)
  40088c:	00831821 	addu	v1,a0,v1
  400890:	ac650000 	sw	a1,0(v1)
  400894:	1000ffaa 	b	400740 <__init_libc+0x80>
  400898:	24420008 	addiu	v0,v0,8
  40089c:	14450002 	bne	v0,a1,4008a8 <__init_libc+0x1e8>
  4008a0:	00000000 	nop
  4008a4:	ac700000 	sw	s0,0(v1)
  4008a8:	1000ffc4 	b	4007bc <__init_libc+0xfc>
  4008ac:	26100001 	addiu	s0,s0,1
  4008b0:	8f84801c 	lw	a0,-32740(gp)
  4008b4:	27b000c8 	addiu	s0,sp,200
  4008b8:	248481b4 	addiu	a0,a0,-32332
  4008bc:	94c30006 	lhu	v1,6(a2)
  4008c0:	00000000 	nop
  4008c4:	30630020 	andi	v1,v1,0x20
  4008c8:	10600009 	beqz	v1,4008f0 <__init_libc+0x230>
  4008cc:	24052002 	li	a1,8194
  4008d0:	24020fa5 	li	v0,4005
  4008d4:	0000000c 	syscall
  4008d8:	10e00003 	beqz	a3,4008e8 <__init_libc+0x228>
  4008dc:	00000000 	nop
  4008e0:	1c40ffe4 	bgtz	v0,400874 <__init_libc+0x1b4>
  4008e4:	00000000 	nop
  4008e8:	0440ffe2 	bltz	v0,400874 <__init_libc+0x1b4>
  4008ec:	00000000 	nop
  4008f0:	24c60008 	addiu	a2,a2,8
  4008f4:	1606fff1 	bne	s0,a2,4008bc <__init_libc+0x1fc>
  4008f8:	00000000 	nop
  4008fc:	24020001 	li	v0,1
  400900:	a2220002 	sb	v0,2(s1)
  400904:	8fbf00d4 	lw	ra,212(sp)
  400908:	8fb100d0 	lw	s1,208(sp)
  40090c:	8fb000cc 	lw	s0,204(sp)
  400910:	03e00008 	jr	ra
  400914:	27bd00d8 	addiu	sp,sp,216

00400918 <__libc_start_init>:
  400918:	3c1c0002 	lui	gp,0x2
  40091c:	279c07a8 	addiu	gp,gp,1960
  400920:	0399e021 	addu	gp,gp,t9
  400924:	27bdffd8 	addiu	sp,sp,-40
  400928:	8f99803c 	lw	t9,-32708(gp)
  40092c:	afbc0010 	sw	gp,16(sp)
  400930:	afb10020 	sw	s1,32(sp)
  400934:	afb0001c 	sw	s0,28(sp)
  400938:	afbf0024 	sw	ra,36(sp)
  40093c:	0411fdf2 	bal	400108 <_init>
  400940:	00000000 	nop
  400944:	8fbc0010 	lw	gp,16(sp)
  400948:	00000000 	nop
  40094c:	8f908020 	lw	s0,-32736(gp)
  400950:	8f918020 	lw	s1,-32736(gp)
  400954:	00000000 	nop
  400958:	0211102b 	sltu	v0,s0,s1
  40095c:	14400006 	bnez	v0,400978 <__libc_start_init+0x60>
  400960:	00000000 	nop
  400964:	8fbf0024 	lw	ra,36(sp)
  400968:	8fb10020 	lw	s1,32(sp)
  40096c:	8fb0001c 	lw	s0,28(sp)
  400970:	03e00008 	jr	ra
  400974:	27bd0028 	addiu	sp,sp,40
  400978:	8e190000 	lw	t9,0(s0)
  40097c:	00000000 	nop
  400980:	0320f809 	jalr	t9
  400984:	26100004 	addiu	s0,s0,4
  400988:	1000fff4 	b	40095c <__libc_start_init+0x44>
  40098c:	0211102b 	sltu	v0,s0,s1

00400990 <libc_start_main_stage2>:
  400990:	3c1c0002 	lui	gp,0x2
  400994:	279c0730 	addiu	gp,gp,1840
  400998:	0399e021 	addu	gp,gp,t9
  40099c:	24a20001 	addiu	v0,a1,1
  4009a0:	27bdffd0 	addiu	sp,sp,-48
  4009a4:	00021080 	sll	v0,v0,0x2
  4009a8:	8f99806c 	lw	t9,-32660(gp)
  4009ac:	afb10024 	sw	s1,36(sp)
  4009b0:	00c08825 	move	s1,a2
  4009b4:	00c23021 	addu	a2,a2,v0
  4009b8:	afbc0010 	sw	gp,16(sp)
  4009bc:	afbf002c 	sw	ra,44(sp)
  4009c0:	afb20028 	sw	s2,40(sp)
  4009c4:	afb00020 	sw	s0,32(sp)
  4009c8:	afa60018 	sw	a2,24(sp)
  4009cc:	00809025 	move	s2,a0
  4009d0:	0411ffd1 	bal	400918 <__libc_start_init>
  4009d4:	00a08025 	move	s0,a1
  4009d8:	8fa60018 	lw	a2,24(sp)
  4009dc:	02002025 	move	a0,s0
  4009e0:	0240c825 	move	t9,s2
  4009e4:	0320f809 	jalr	t9
  4009e8:	02202825 	move	a1,s1
  4009ec:	8fbc0010 	lw	gp,16(sp)
  4009f0:	00000000 	nop
  4009f4:	8f998070 	lw	t9,-32656(gp)
  4009f8:	00000000 	nop
  4009fc:	0411fde0 	bal	400180 <exit>
  400a00:	00402025 	move	a0,v0

00400a04 <__libc_start_main>:
  400a04:	3c1c0002 	lui	gp,0x2
  400a08:	279c06bc 	addiu	gp,gp,1724
  400a0c:	0399e021 	addu	gp,gp,t9
  400a10:	27bdffd8 	addiu	sp,sp,-40
  400a14:	afb20020 	sw	s2,32(sp)
  400a18:	00809025 	move	s2,a0
  400a1c:	24a40001 	addiu	a0,a1,1
  400a20:	afb1001c 	sw	s1,28(sp)
  400a24:	8f998074 	lw	t9,-32652(gp)
  400a28:	00a08825 	move	s1,a1
  400a2c:	00042080 	sll	a0,a0,0x2
  400a30:	8cc50000 	lw	a1,0(a2)
  400a34:	afb00018 	sw	s0,24(sp)
  400a38:	afbf0024 	sw	ra,36(sp)
  400a3c:	afbc0010 	sw	gp,16(sp)
  400a40:	00c42021 	addu	a0,a2,a0
  400a44:	0411ff1e 	bal	4006c0 <__init_libc>
  400a48:	00c08025 	move	s0,a2
  400a4c:	8fbc0010 	lw	gp,16(sp)
  400a50:	02003025 	move	a2,s0
  400a54:	8f998018 	lw	t9,-32744(gp)
  400a58:	02202825 	move	a1,s1
  400a5c:	27390990 	addiu	t9,t9,2448
  400a60:	02402025 	move	a0,s2
  400a64:	8fbf0024 	lw	ra,36(sp)
  400a68:	8fb20020 	lw	s2,32(sp)
  400a6c:	8fb1001c 	lw	s1,28(sp)
  400a70:	8fb00018 	lw	s0,24(sp)
  400a74:	03200008 	jr	t9
  400a78:	27bd0028 	addiu	sp,sp,40
  400a7c:	00000000 	nop

00400a80 <__funcs_on_exit>:
  400a80:	03e00008 	jr	ra
  400a84:	00000000 	nop

00400a88 <__libc_exit_fini>:
  400a88:	3c1c0002 	lui	gp,0x2
  400a8c:	279c0638 	addiu	gp,gp,1592
  400a90:	0399e021 	addu	gp,gp,t9
  400a94:	27bdffd8 	addiu	sp,sp,-40
  400a98:	afb10020 	sw	s1,32(sp)
  400a9c:	afb0001c 	sw	s0,28(sp)
  400aa0:	8f918020 	lw	s1,-32736(gp)
  400aa4:	8f908020 	lw	s0,-32736(gp)
  400aa8:	afbc0010 	sw	gp,16(sp)
  400aac:	afbf0024 	sw	ra,36(sp)
  400ab0:	0230102b 	sltu	v0,s1,s0
  400ab4:	14400008 	bnez	v0,400ad8 <__libc_exit_fini+0x50>
  400ab8:	00000000 	nop
  400abc:	8fbf0024 	lw	ra,36(sp)
  400ac0:	8fb10020 	lw	s1,32(sp)
  400ac4:	8fb0001c 	lw	s0,28(sp)
  400ac8:	8f998024 	lw	t9,-32732(gp)
  400acc:	00000000 	nop
  400ad0:	10001d9f 	b	408150 <_fini>
  400ad4:	27bd0028 	addiu	sp,sp,40
  400ad8:	8e19fffc 	lw	t9,-4(s0)
  400adc:	00000000 	nop
  400ae0:	0320f809 	jalr	t9
  400ae4:	2610fffc 	addiu	s0,s0,-4
  400ae8:	8fbc0010 	lw	gp,16(sp)
  400aec:	1000fff1 	b	400ab4 <__libc_exit_fini+0x2c>
  400af0:	0230102b 	sltu	v0,s1,s0
	...

00400b00 <printf>:
  400b00:	3c1c0002 	lui	gp,0x2
  400b04:	279c05c0 	addiu	gp,gp,1472
  400b08:	0399e021 	addu	gp,gp,t9
  400b0c:	27bdffd8 	addiu	sp,sp,-40
  400b10:	8f998078 	lw	t9,-32648(gp)
  400b14:	afa5002c 	sw	a1,44(sp)
  400b18:	afa60030 	sw	a2,48(sp)
  400b1c:	00802825 	move	a1,a0
  400b20:	27a6002c 	addiu	a2,sp,44
  400b24:	8f84807c 	lw	a0,-32644(gp)
  400b28:	afbf0024 	sw	ra,36(sp)
  400b2c:	afbc0010 	sw	gp,16(sp)
  400b30:	afa70034 	sw	a3,52(sp)
  400b34:	afa60018 	sw	a2,24(sp)
  400b38:	04110892 	bal	402d84 <vfprintf>
  400b3c:	00000000 	nop
  400b40:	8fbf0024 	lw	ra,36(sp)
  400b44:	00000000 	nop
  400b48:	03e00008 	jr	ra
  400b4c:	27bd0028 	addiu	sp,sp,40

00400b50 <pop_arg>:
  400b50:	3c1c0002 	lui	gp,0x2
  400b54:	279c0570 	addiu	gp,gp,1392
  400b58:	0399e021 	addu	gp,gp,t9
  400b5c:	24a5fff7 	addiu	a1,a1,-9
  400b60:	2ca20012 	sltiu	v0,a1,18
  400b64:	10400043 	beqz	v0,400c74 <pop_arg+0x124>
  400b68:	00052880 	sll	a1,a1,0x2
  400b6c:	8f82801c 	lw	v0,-32740(gp)
  400b70:	00000000 	nop
  400b74:	244281c0 	addiu	v0,v0,-32320
  400b78:	00452821 	addu	a1,v0,a1
  400b7c:	8ca30000 	lw	v1,0(a1)
  400b80:	8cc20000 	lw	v0,0(a2)
  400b84:	007c1821 	addu	v1,v1,gp
  400b88:	00600008 	jr	v1
  400b8c:	00000000 	nop
  400b90:	24430004 	addiu	v1,v0,4
  400b94:	acc30000 	sw	v1,0(a2)
  400b98:	8c420000 	lw	v0,0(v0)
  400b9c:	03e00008 	jr	ra
  400ba0:	ac820000 	sw	v0,0(a0)
  400ba4:	24430004 	addiu	v1,v0,4
  400ba8:	84420000 	lh	v0,0(v0)
  400bac:	acc30000 	sw	v1,0(a2)
  400bb0:	ac820000 	sw	v0,0(a0)
  400bb4:	000217c3 	sra	v0,v0,0x1f
  400bb8:	03e00008 	jr	ra
  400bbc:	ac820004 	sw	v0,4(a0)
  400bc0:	24430004 	addiu	v1,v0,4
  400bc4:	94420000 	lhu	v0,0(v0)
  400bc8:	acc30000 	sw	v1,0(a2)
  400bcc:	ac820000 	sw	v0,0(a0)
  400bd0:	03e00008 	jr	ra
  400bd4:	ac800004 	sw	zero,4(a0)
  400bd8:	24430004 	addiu	v1,v0,4
  400bdc:	acc30000 	sw	v1,0(a2)
  400be0:	80420000 	lb	v0,0(v0)
  400be4:	1000fff3 	b	400bb4 <pop_arg+0x64>
  400be8:	ac820000 	sw	v0,0(a0)
  400bec:	24430004 	addiu	v1,v0,4
  400bf0:	acc30000 	sw	v1,0(a2)
  400bf4:	90420000 	lbu	v0,0(v0)
  400bf8:	1000fff5 	b	400bd0 <pop_arg+0x80>
  400bfc:	ac820000 	sw	v0,0(a0)
  400c00:	24430004 	addiu	v1,v0,4
  400c04:	acc30000 	sw	v1,0(a2)
  400c08:	8c420000 	lw	v0,0(v0)
  400c0c:	1000ffe9 	b	400bb4 <pop_arg+0x64>
  400c10:	ac820000 	sw	v0,0(a0)
  400c14:	24430004 	addiu	v1,v0,4
  400c18:	acc30000 	sw	v1,0(a2)
  400c1c:	8c420000 	lw	v0,0(v0)
  400c20:	1000ffeb 	b	400bd0 <pop_arg+0x80>
  400c24:	ac820000 	sw	v0,0(a0)
  400c28:	2403fff8 	li	v1,-8
  400c2c:	24420007 	addiu	v0,v0,7
  400c30:	00431024 	and	v0,v0,v1
  400c34:	24430008 	addiu	v1,v0,8
  400c38:	acc30000 	sw	v1,0(a2)
  400c3c:	8c430004 	lw	v1,4(v0)
  400c40:	8c420000 	lw	v0,0(v0)
  400c44:	ac830004 	sw	v1,4(a0)
  400c48:	03e00008 	jr	ra
  400c4c:	ac820000 	sw	v0,0(a0)
  400c50:	2403fff8 	li	v1,-8
  400c54:	24420007 	addiu	v0,v0,7
  400c58:	00431024 	and	v0,v0,v1
  400c5c:	24430008 	addiu	v1,v0,8
  400c60:	acc30000 	sw	v1,0(a2)
  400c64:	8c430004 	lw	v1,4(v0)
  400c68:	8c420000 	lw	v0,0(v0)
  400c6c:	ac830004 	sw	v1,4(a0)
  400c70:	ac820000 	sw	v0,0(a0)
  400c74:	03e00008 	jr	ra
  400c78:	00000000 	nop

00400c7c <fmt_u>:
  400c7c:	3c1c0002 	lui	gp,0x2
  400c80:	279c0444 	addiu	gp,gp,1092
  400c84:	0399e021 	addu	gp,gp,t9
  400c88:	27bdffd8 	addiu	sp,sp,-40
  400c8c:	afb00020 	sw	s0,32(sp)
  400c90:	afbc0010 	sw	gp,16(sp)
  400c94:	afbf0024 	sw	ra,36(sp)
  400c98:	00c08025 	move	s0,a2
  400c9c:	14a00008 	bnez	a1,400cc0 <fmt_u+0x44>
  400ca0:	2406000a 	li	a2,10
  400ca4:	2403000a 	li	v1,10
  400ca8:	14800018 	bnez	a0,400d0c <fmt_u+0x90>
  400cac:	02001025 	move	v0,s0
  400cb0:	8fbf0024 	lw	ra,36(sp)
  400cb4:	8fb00020 	lw	s0,32(sp)
  400cb8:	03e00008 	jr	ra
  400cbc:	27bd0028 	addiu	sp,sp,40
  400cc0:	8f998080 	lw	t9,-32640(gp)
  400cc4:	00003825 	move	a3,zero
  400cc8:	afa4001c 	sw	a0,28(sp)
  400ccc:	04111420 	bal	405d50 <__umoddi3>
  400cd0:	afa50018 	sw	a1,24(sp)
  400cd4:	8fbc0010 	lw	gp,16(sp)
  400cd8:	8fa4001c 	lw	a0,28(sp)
  400cdc:	8f998084 	lw	t9,-32636(gp)
  400ce0:	8fa50018 	lw	a1,24(sp)
  400ce4:	24420030 	addiu	v0,v0,48
  400ce8:	2406000a 	li	a2,10
  400cec:	00003825 	move	a3,zero
  400cf0:	0411129f 	bal	405770 <__udivdi3>
  400cf4:	a202ffff 	sb	v0,-1(s0)
  400cf8:	2610ffff 	addiu	s0,s0,-1
  400cfc:	8fbc0010 	lw	gp,16(sp)
  400d00:	00602825 	move	a1,v1
  400d04:	1000ffe5 	b	400c9c <fmt_u+0x20>
  400d08:	00402025 	move	a0,v0
  400d0c:	14600002 	bnez	v1,400d18 <fmt_u+0x9c>
  400d10:	0083001b 	divu	zero,a0,v1
  400d14:	0007000d 	break	0x7
  400d18:	2610ffff 	addiu	s0,s0,-1
  400d1c:	00001010 	mfhi	v0
  400d20:	24420030 	addiu	v0,v0,48
  400d24:	00002012 	mflo	a0
  400d28:	1000ffdf 	b	400ca8 <fmt_u+0x2c>
  400d2c:	a2020000 	sb	v0,0(s0)

00400d30 <getint>:
  400d30:	3c070ccc 	lui	a3,0xccc
  400d34:	3c087fff 	lui	t0,0x7fff
  400d38:	00001025 	move	v0,zero
  400d3c:	34e7cccd 	ori	a3,a3,0xcccd
  400d40:	2409fff6 	li	t1,-10
  400d44:	3508ffff 	ori	t0,t0,0xffff
  400d48:	8c860000 	lw	a2,0(a0)
  400d4c:	00000000 	nop
  400d50:	80c30000 	lb	v1,0(a2)
  400d54:	00000000 	nop
  400d58:	2463ffd0 	addiu	v1,v1,-48
  400d5c:	2c65000a 	sltiu	a1,v1,10
  400d60:	14a00003 	bnez	a1,400d70 <getint+0x40>
  400d64:	0047282b 	sltu	a1,v0,a3
  400d68:	03e00008 	jr	ra
  400d6c:	00000000 	nop
  400d70:	10a0000c 	beqz	a1,400da4 <getint+0x74>
  400d74:	00490018 	mult	v0,t1
  400d78:	00002812 	mflo	a1
  400d7c:	00a82821 	addu	a1,a1,t0
  400d80:	00a3282a 	slt	a1,a1,v1
  400d84:	14a00007 	bnez	a1,400da4 <getint+0x74>
  400d88:	00022880 	sll	a1,v0,0x2
  400d8c:	00a21021 	addu	v0,a1,v0
  400d90:	00021040 	sll	v0,v0,0x1
  400d94:	00621021 	addu	v0,v1,v0
  400d98:	24c60001 	addiu	a2,a2,1
  400d9c:	1000ffea 	b	400d48 <getint+0x18>
  400da0:	ac860000 	sw	a2,0(a0)
  400da4:	1000fffc 	b	400d98 <getint+0x68>
  400da8:	2402ffff 	li	v0,-1

00400dac <out>:
  400dac:	3c1c0002 	lui	gp,0x2
  400db0:	279c0314 	addiu	gp,gp,788
  400db4:	0399e021 	addu	gp,gp,t9
  400db8:	00801025 	move	v0,a0
  400dbc:	8c430000 	lw	v1,0(v0)
  400dc0:	00a02025 	move	a0,a1
  400dc4:	30630020 	andi	v1,v1,0x20
  400dc8:	14600005 	bnez	v1,400de0 <out+0x34>
  400dcc:	00c02825 	move	a1,a2
  400dd0:	8f998088 	lw	t9,-32632(gp)
  400dd4:	00000000 	nop
  400dd8:	10000b21 	b	403a60 <__fwritex>
  400ddc:	00403025 	move	a2,v0
  400de0:	03e00008 	jr	ra
  400de4:	00000000 	nop

00400de8 <pad>:
  400de8:	3c1c0002 	lui	gp,0x2
  400dec:	279c02d8 	addiu	gp,gp,728
  400df0:	0399e021 	addu	gp,gp,t9
  400df4:	27bdfed0 	addiu	sp,sp,-304
  400df8:	3c030001 	lui	v1,0x1
  400dfc:	8fa20140 	lw	v0,320(sp)
  400e00:	24632000 	addiu	v1,v1,8192
  400e04:	afbc0010 	sw	gp,16(sp)
  400e08:	00431024 	and	v0,v0,v1
  400e0c:	afbf012c 	sw	ra,300(sp)
  400e10:	afb40128 	sw	s4,296(sp)
  400e14:	afb30124 	sw	s3,292(sp)
  400e18:	afb20120 	sw	s2,288(sp)
  400e1c:	afb1011c 	sw	s1,284(sp)
  400e20:	afb00118 	sw	s0,280(sp)
  400e24:	1440001a 	bnez	v0,400e90 <pad+0xa8>
  400e28:	00e6102a 	slt	v0,a3,a2
  400e2c:	10400018 	beqz	v0,400e90 <pad+0xa8>
  400e30:	00c78023 	subu	s0,a2,a3
  400e34:	2e020101 	sltiu	v0,s0,257
  400e38:	00809025 	move	s2,a0
  400e3c:	0200a025 	move	s4,s0
  400e40:	14400002 	bnez	v0,400e4c <pad+0x64>
  400e44:	02003025 	move	a2,s0
  400e48:	24060100 	li	a2,256
  400e4c:	8f998048 	lw	t9,-32696(gp)
  400e50:	27b30018 	addiu	s3,sp,24
  400e54:	04110852 	bal	402fa0 <memset>
  400e58:	02602025 	move	a0,s3
  400e5c:	8fbc0010 	lw	gp,16(sp)
  400e60:	00000000 	nop
  400e64:	8f918018 	lw	s1,-32744(gp)
  400e68:	00000000 	nop
  400e6c:	26310dac 	addiu	s1,s1,3500
  400e70:	2a020100 	slti	v0,s0,256
  400e74:	1040000e 	beqz	v0,400eb0 <pad+0xc8>
  400e78:	24060100 	li	a2,256
  400e7c:	328600ff 	andi	a2,s4,0xff
  400e80:	02602825 	move	a1,s3
  400e84:	0220c825 	move	t9,s1
  400e88:	0411ffc8 	bal	400dac <out>
  400e8c:	02402025 	move	a0,s2
  400e90:	8fbf012c 	lw	ra,300(sp)
  400e94:	8fb40128 	lw	s4,296(sp)
  400e98:	8fb30124 	lw	s3,292(sp)
  400e9c:	8fb20120 	lw	s2,288(sp)
  400ea0:	8fb1011c 	lw	s1,284(sp)
  400ea4:	8fb00118 	lw	s0,280(sp)
  400ea8:	03e00008 	jr	ra
  400eac:	27bd0130 	addiu	sp,sp,304
  400eb0:	02602825 	move	a1,s3
  400eb4:	0220c825 	move	t9,s1
  400eb8:	0411ffbc 	bal	400dac <out>
  400ebc:	02402025 	move	a0,s2
  400ec0:	1000ffeb 	b	400e70 <pad+0x88>
  400ec4:	2610ff00 	addiu	s0,s0,-256

00400ec8 <printf_core>:
  400ec8:	3c1c0002 	lui	gp,0x2
  400ecc:	279c01f8 	addiu	gp,gp,504
  400ed0:	0399e021 	addu	gp,gp,t9
  400ed4:	8f828018 	lw	v0,-32744(gp)
  400ed8:	27bdfcf0 	addiu	sp,sp,-784
  400edc:	afa202a0 	sw	v0,672(sp)
  400ee0:	8f82801c 	lw	v0,-32740(gp)
  400ee4:	afbc0018 	sw	gp,24(sp)
  400ee8:	afa202c0 	sw	v0,704(sp)
  400eec:	8f82801c 	lw	v0,-32740(gp)
  400ef0:	afb202f0 	sw	s2,752(sp)
  400ef4:	8c438564 	lw	v1,-31388(v0)
  400ef8:	8c428560 	lw	v0,-31392(v0)
  400efc:	afa302cc 	sw	v1,716(sp)
  400f00:	afa202c8 	sw	v0,712(sp)
  400f04:	8f82801c 	lw	v0,-32740(gp)
  400f08:	afb002e8 	sw	s0,744(sp)
  400f0c:	8c43855c 	lw	v1,-31396(v0)
  400f10:	8c428558 	lw	v0,-31400(v0)
  400f14:	afa302d4 	sw	v1,724(sp)
  400f18:	afa202d0 	sw	v0,720(sp)
  400f1c:	8f82801c 	lw	v0,-32740(gp)
  400f20:	afbf030c 	sw	ra,780(sp)
  400f24:	8c43852c 	lw	v1,-31444(v0)
  400f28:	afa202b4 	sw	v0,692(sp)
  400f2c:	8c428528 	lw	v0,-31448(v0)
  400f30:	afbe0308 	sw	s8,776(sp)
  400f34:	afb70304 	sw	s7,772(sp)
  400f38:	afb60300 	sw	s6,768(sp)
  400f3c:	afb502fc 	sw	s5,764(sp)
  400f40:	afb402f8 	sw	s4,760(sp)
  400f44:	afb302f4 	sw	s3,756(sp)
  400f48:	afb102ec 	sw	s1,748(sp)
  400f4c:	afa60318 	sw	a2,792(sp)
  400f50:	afa7031c 	sw	a3,796(sp)
  400f54:	afa50280 	sw	a1,640(sp)
  400f58:	afa0028c 	sw	zero,652(sp)
  400f5c:	afa00290 	sw	zero,656(sp)
  400f60:	afa202d8 	sw	v0,728(sp)
  400f64:	00809025 	move	s2,a0
  400f68:	00008025 	move	s0,zero
  400f6c:	afa302dc 	sw	v1,732(sp)
  400f70:	8fa2028c 	lw	v0,652(sp)
  400f74:	8fb40280 	lw	s4,640(sp)
  400f78:	00501021 	addu	v0,v0,s0
  400f7c:	afa2028c 	sw	v0,652(sp)
  400f80:	82820000 	lb	v0,0(s4)
  400f84:	00000000 	nop
  400f88:	10400750 	beqz	v0,402ccc <printf_core+0x1e04>
  400f8c:	24030025 	li	v1,37
  400f90:	8fb00280 	lw	s0,640(sp)
  400f94:	00000000 	nop
  400f98:	82020000 	lb	v0,0(s0)
  400f9c:	00000000 	nop
  400fa0:	10400004 	beqz	v0,400fb4 <printf_core+0xec>
  400fa4:	00000000 	nop
  400fa8:	14430004 	bne	v0,v1,400fbc <printf_core+0xf4>
  400fac:	26100001 	addiu	s0,s0,1
  400fb0:	2610ffff 	addiu	s0,s0,-1
  400fb4:	10000005 	b	400fcc <printf_core+0x104>
  400fb8:	24030025 	li	v1,37
  400fbc:	1000fff4 	b	400f90 <printf_core+0xc8>
  400fc0:	afb00280 	sw	s0,640(sp)
  400fc4:	26100001 	addiu	s0,s0,1
  400fc8:	afa20280 	sw	v0,640(sp)
  400fcc:	8fa20280 	lw	v0,640(sp)
  400fd0:	00000000 	nop
  400fd4:	80440000 	lb	a0,0(v0)
  400fd8:	00000000 	nop
  400fdc:	14830005 	bne	a0,v1,400ff4 <printf_core+0x12c>
  400fe0:	00000000 	nop
  400fe4:	80440001 	lb	a0,1(v0)
  400fe8:	00000000 	nop
  400fec:	1083fff5 	beq	a0,v1,400fc4 <printf_core+0xfc>
  400ff0:	24420002 	addiu	v0,v0,2
  400ff4:	8fa3028c 	lw	v1,652(sp)
  400ff8:	3c027fff 	lui	v0,0x7fff
  400ffc:	3442ffff 	ori	v0,v0,0xffff
  401000:	00431023 	subu	v0,v0,v1
  401004:	02148023 	subu	s0,s0,s4
  401008:	afa202a8 	sw	v0,680(sp)
  40100c:	0050102a 	slt	v0,v0,s0
  401010:	14400271 	bnez	v0,4019d8 <printf_core+0xb10>
  401014:	00000000 	nop
  401018:	12400007 	beqz	s2,401038 <printf_core+0x170>
  40101c:	02003025 	move	a2,s0
  401020:	8fa202a0 	lw	v0,672(sp)
  401024:	02802825 	move	a1,s4
  401028:	24590dac 	addiu	t9,v0,3500
  40102c:	0411ff5f 	bal	400dac <out>
  401030:	02402025 	move	a0,s2
  401034:	8fbc0018 	lw	gp,24(sp)
  401038:	1600ffcd 	bnez	s0,400f70 <printf_core+0xa8>
  40103c:	00000000 	nop
  401040:	8fa20280 	lw	v0,640(sp)
  401044:	00000000 	nop
  401048:	804a0001 	lb	t2,1(v0)
  40104c:	00000000 	nop
  401050:	254affd0 	addiu	t2,t2,-48
  401054:	2d43000a 	sltiu	v1,t2,10
  401058:	1060007e 	beqz	v1,401254 <printf_core+0x38c>
  40105c:	24030024 	li	v1,36
  401060:	80440002 	lb	a0,2(v0)
  401064:	00000000 	nop
  401068:	1483007a 	bne	a0,v1,401254 <printf_core+0x38c>
  40106c:	24030001 	li	v1,1
  401070:	24420003 	addiu	v0,v0,3
  401074:	afa30290 	sw	v1,656(sp)
  401078:	3c050001 	lui	a1,0x1
  40107c:	afa20280 	sw	v0,640(sp)
  401080:	00008825 	move	s1,zero
  401084:	24a52889 	addiu	a1,a1,10377
  401088:	24070001 	li	a3,1
  40108c:	8fa20280 	lw	v0,640(sp)
  401090:	00000000 	nop
  401094:	80460000 	lb	a2,0(v0)
  401098:	00000000 	nop
  40109c:	24c3ffe0 	addiu	v1,a2,-32
  4010a0:	2c640020 	sltiu	a0,v1,32
  4010a4:	10800004 	beqz	a0,4010b8 <printf_core+0x1f0>
  4010a8:	00652006 	srlv	a0,a1,v1
  4010ac:	30840001 	andi	a0,a0,0x1
  4010b0:	1480006b 	bnez	a0,401260 <printf_core+0x398>
  4010b4:	00671804 	sllv	v1,a3,v1
  4010b8:	2403002a 	li	v1,42
  4010bc:	14c30085 	bne	a2,v1,4012d4 <printf_core+0x40c>
  4010c0:	00000000 	nop
  4010c4:	80430001 	lb	v1,1(v0)
  4010c8:	00000000 	nop
  4010cc:	2464ffd0 	addiu	a0,v1,-48
  4010d0:	2c84000a 	sltiu	a0,a0,10
  4010d4:	10800066 	beqz	a0,401270 <printf_core+0x3a8>
  4010d8:	24040024 	li	a0,36
  4010dc:	80450002 	lb	a1,2(v0)
  4010e0:	00000000 	nop
  4010e4:	14a40062 	bne	a1,a0,401270 <printf_core+0x3a8>
  4010e8:	00031880 	sll	v1,v1,0x2
  4010ec:	8fa40320 	lw	a0,800(sp)
  4010f0:	00000000 	nop
  4010f4:	00831821 	addu	v1,a0,v1
  4010f8:	2404000a 	li	a0,10
  4010fc:	ac64ff40 	sw	a0,-192(v1)
  401100:	80430001 	lb	v1,1(v0)
  401104:	8fa4031c 	lw	a0,796(sp)
  401108:	000318c0 	sll	v1,v1,0x3
  40110c:	00831821 	addu	v1,a0,v1
  401110:	24420003 	addiu	v0,v0,3
  401114:	8c63fe80 	lw	v1,-384(v1)
  401118:	afa20280 	sw	v0,640(sp)
  40111c:	24020001 	li	v0,1
  401120:	afa30288 	sw	v1,648(sp)
  401124:	afa20290 	sw	v0,656(sp)
  401128:	8fa20288 	lw	v0,648(sp)
  40112c:	00000000 	nop
  401130:	04410003 	bgez	v0,401140 <printf_core+0x278>
  401134:	00021023 	negu	v0,v0
  401138:	36312000 	ori	s1,s1,0x2000
  40113c:	afa20288 	sw	v0,648(sp)
  401140:	8fa20280 	lw	v0,640(sp)
  401144:	2403002e 	li	v1,46
  401148:	80440000 	lb	a0,0(v0)
  40114c:	00000000 	nop
  401150:	14830084 	bne	a0,v1,401364 <printf_core+0x49c>
  401154:	2403002a 	li	v1,42
  401158:	80440001 	lb	a0,1(v0)
  40115c:	00000000 	nop
  401160:	14830076 	bne	a0,v1,40133c <printf_core+0x474>
  401164:	00000000 	nop
  401168:	80430002 	lb	v1,2(v0)
  40116c:	00000000 	nop
  401170:	2464ffd0 	addiu	a0,v1,-48
  401174:	2c84000a 	sltiu	a0,a0,10
  401178:	10800061 	beqz	a0,401300 <printf_core+0x438>
  40117c:	24040024 	li	a0,36
  401180:	80450003 	lb	a1,3(v0)
  401184:	00000000 	nop
  401188:	14a4005d 	bne	a1,a0,401300 <printf_core+0x438>
  40118c:	00031880 	sll	v1,v1,0x2
  401190:	8fa40320 	lw	a0,800(sp)
  401194:	00000000 	nop
  401198:	00831821 	addu	v1,a0,v1
  40119c:	2404000a 	li	a0,10
  4011a0:	ac64ff40 	sw	a0,-192(v1)
  4011a4:	80430002 	lb	v1,2(v0)
  4011a8:	8fa4031c 	lw	a0,796(sp)
  4011ac:	000318c0 	sll	v1,v1,0x3
  4011b0:	00831821 	addu	v1,a0,v1
  4011b4:	8c7efe80 	lw	s8,-384(v1)
  4011b8:	24420004 	addiu	v0,v0,4
  4011bc:	001e9827 	nor	s3,zero,s8
  4011c0:	afa20280 	sw	v0,640(sp)
  4011c4:	00139fc2 	srl	s3,s3,0x1f
  4011c8:	8fa202c0 	lw	v0,704(sp)
  4011cc:	00003825 	move	a3,zero
  4011d0:	2404003a 	li	a0,58
  4011d4:	24438354 	addiu	v1,v0,-31916
  4011d8:	8fa50280 	lw	a1,640(sp)
  4011dc:	00000000 	nop
  4011e0:	80a20000 	lb	v0,0(a1)
  4011e4:	00000000 	nop
  4011e8:	2442ffbf 	addiu	v0,v0,-65
  4011ec:	2c42003a 	sltiu	v0,v0,58
  4011f0:	10400023 	beqz	v0,401280 <printf_core+0x3b8>
  4011f4:	00e40018 	mult	a3,a0
  4011f8:	24a20001 	addiu	v0,a1,1
  4011fc:	afa20280 	sw	v0,640(sp)
  401200:	80a50000 	lb	a1,0(a1)
  401204:	00001012 	mflo	v0
  401208:	00431021 	addu	v0,v0,v1
  40120c:	00451021 	addu	v0,v0,a1
  401210:	9045ffbf 	lbu	a1,-65(v0)
  401214:	00000000 	nop
  401218:	24a2ffff 	addiu	v0,a1,-1
  40121c:	2c420008 	sltiu	v0,v0,8
  401220:	14400053 	bnez	v0,401370 <printf_core+0x4a8>
  401224:	00000000 	nop
  401228:	10a00015 	beqz	a1,401280 <printf_core+0x3b8>
  40122c:	00000000 	nop
  401230:	2402001b 	li	v0,27
  401234:	14a20050 	bne	a1,v0,401378 <printf_core+0x4b0>
  401238:	00000000 	nop
  40123c:	05410010 	bgez	t2,401280 <printf_core+0x3b8>
  401240:	00000000 	nop
  401244:	16400070 	bnez	s2,401408 <printf_core+0x540>
  401248:	00000000 	nop
  40124c:	1000ff48 	b	400f70 <printf_core+0xa8>
  401250:	00000000 	nop
  401254:	24420001 	addiu	v0,v0,1
  401258:	1000ff87 	b	401078 <printf_core+0x1b0>
  40125c:	240affff 	li	t2,-1
  401260:	24420001 	addiu	v0,v0,1
  401264:	02238825 	or	s1,s1,v1
  401268:	1000ff88 	b	40108c <printf_core+0x1c4>
  40126c:	afa20280 	sw	v0,640(sp)
  401270:	8fa30290 	lw	v1,656(sp)
  401274:	00000000 	nop
  401278:	10600009 	beqz	v1,4012a0 <printf_core+0x3d8>
  40127c:	00000000 	nop
  401280:	8f99808c 	lw	t9,-32628(gp)
  401284:	00000000 	nop
  401288:	041108a5 	bal	403520 <__errno_location>
  40128c:	00000000 	nop
  401290:	24030016 	li	v1,22
  401294:	ac430000 	sw	v1,0(v0)
  401298:	100006b8 	b	402d7c <printf_core+0x1eb4>
  40129c:	2402ffff 	li	v0,-1
  4012a0:	12400009 	beqz	s2,4012c8 <printf_core+0x400>
  4012a4:	afa00288 	sw	zero,648(sp)
  4012a8:	8fa30318 	lw	v1,792(sp)
  4012ac:	8fa50318 	lw	a1,792(sp)
  4012b0:	8c630000 	lw	v1,0(v1)
  4012b4:	00000000 	nop
  4012b8:	24640004 	addiu	a0,v1,4
  4012bc:	8c630000 	lw	v1,0(v1)
  4012c0:	aca40000 	sw	a0,0(a1)
  4012c4:	afa30288 	sw	v1,648(sp)
  4012c8:	24420001 	addiu	v0,v0,1
  4012cc:	1000ff96 	b	401128 <printf_core+0x260>
  4012d0:	afa20280 	sw	v0,640(sp)
  4012d4:	8f998018 	lw	t9,-32744(gp)
  4012d8:	00000000 	nop
  4012dc:	27390d30 	addiu	t9,t9,3376
  4012e0:	0411fe93 	bal	400d30 <getint>
  4012e4:	27a40280 	addiu	a0,sp,640
  4012e8:	afa20288 	sw	v0,648(sp)
  4012ec:	8fbc0018 	lw	gp,24(sp)
  4012f0:	0441ff93 	bgez	v0,401140 <printf_core+0x278>
  4012f4:	00000000 	nop
  4012f8:	100001b7 	b	4019d8 <printf_core+0xb10>
  4012fc:	00000000 	nop
  401300:	8fa30290 	lw	v1,656(sp)
  401304:	00000000 	nop
  401308:	1460ffdd 	bnez	v1,401280 <printf_core+0x3b8>
  40130c:	00000000 	nop
  401310:	12400008 	beqz	s2,401334 <printf_core+0x46c>
  401314:	0000f025 	move	s8,zero
  401318:	8fa30318 	lw	v1,792(sp)
  40131c:	8fa50318 	lw	a1,792(sp)
  401320:	8c630000 	lw	v1,0(v1)
  401324:	00000000 	nop
  401328:	24640004 	addiu	a0,v1,4
  40132c:	8c7e0000 	lw	s8,0(v1)
  401330:	aca40000 	sw	a0,0(a1)
  401334:	1000ffa1 	b	4011bc <printf_core+0x2f4>
  401338:	24420002 	addiu	v0,v0,2
  40133c:	8f998018 	lw	t9,-32744(gp)
  401340:	24420001 	addiu	v0,v0,1
  401344:	afa20280 	sw	v0,640(sp)
  401348:	27390d30 	addiu	t9,t9,3376
  40134c:	0411fe78 	bal	400d30 <getint>
  401350:	27a40280 	addiu	a0,sp,640
  401354:	0040f025 	move	s8,v0
  401358:	8fbc0018 	lw	gp,24(sp)
  40135c:	1000ff9a 	b	4011c8 <printf_core+0x300>
  401360:	24130001 	li	s3,1
  401364:	00009825 	move	s3,zero
  401368:	1000ff97 	b	4011c8 <printf_core+0x300>
  40136c:	241effff 	li	s8,-1
  401370:	1000ff99 	b	4011d8 <printf_core+0x310>
  401374:	00a03825 	move	a3,a1
  401378:	0540000d 	bltz	t2,4013b0 <printf_core+0x4e8>
  40137c:	000a1080 	sll	v0,t2,0x2
  401380:	8fa30320 	lw	v1,800(sp)
  401384:	00000000 	nop
  401388:	00621021 	addu	v0,v1,v0
  40138c:	ac450000 	sw	a1,0(v0)
  401390:	8fa2031c 	lw	v0,796(sp)
  401394:	000a50c0 	sll	t2,t2,0x3
  401398:	004a5021 	addu	t2,v0,t2
  40139c:	8d420000 	lw	v0,0(t2)
  4013a0:	8d430004 	lw	v1,4(t2)
  4013a4:	afa20270 	sw	v0,624(sp)
  4013a8:	1000ffa6 	b	401244 <printf_core+0x37c>
  4013ac:	afa30274 	sw	v1,628(sp)
  4013b0:	1640000f 	bnez	s2,4013f0 <printf_core+0x528>
  4013b4:	00000000 	nop
  4013b8:	afa0028c 	sw	zero,652(sp)
  4013bc:	8fbf030c 	lw	ra,780(sp)
  4013c0:	8fa2028c 	lw	v0,652(sp)
  4013c4:	8fbe0308 	lw	s8,776(sp)
  4013c8:	8fb70304 	lw	s7,772(sp)
  4013cc:	8fb60300 	lw	s6,768(sp)
  4013d0:	8fb502fc 	lw	s5,764(sp)
  4013d4:	8fb402f8 	lw	s4,760(sp)
  4013d8:	8fb302f4 	lw	s3,756(sp)
  4013dc:	8fb202f0 	lw	s2,752(sp)
  4013e0:	8fb102ec 	lw	s1,748(sp)
  4013e4:	8fb002e8 	lw	s0,744(sp)
  4013e8:	03e00008 	jr	ra
  4013ec:	27bd0310 	addiu	sp,sp,784
  4013f0:	8f998018 	lw	t9,-32744(gp)
  4013f4:	8fa60318 	lw	a2,792(sp)
  4013f8:	27390b50 	addiu	t9,t9,2896
  4013fc:	0411fdd4 	bal	400b50 <pop_arg>
  401400:	27a40270 	addiu	a0,sp,624
  401404:	8fbc0018 	lw	gp,24(sp)
  401408:	8fa20280 	lw	v0,640(sp)
  40140c:	00000000 	nop
  401410:	8055ffff 	lb	s5,-1(v0)
  401414:	10e00008 	beqz	a3,401438 <printf_core+0x570>
  401418:	32222000 	andi	v0,s1,0x2000
  40141c:	32a2000f 	andi	v0,s5,0xf
  401420:	24030003 	li	v1,3
  401424:	14430004 	bne	v0,v1,401438 <printf_core+0x570>
  401428:	32222000 	andi	v0,s1,0x2000
  40142c:	2402ffdf 	li	v0,-33
  401430:	02a2a824 	and	s5,s5,v0
  401434:	32222000 	andi	v0,s1,0x2000
  401438:	10400005 	beqz	v0,401450 <printf_core+0x588>
  40143c:	26a2ffbf 	addiu	v0,s5,-65
  401440:	3c02fffe 	lui	v0,0xfffe
  401444:	3442ffff 	ori	v0,v0,0xffff
  401448:	02228824 	and	s1,s1,v0
  40144c:	26a2ffbf 	addiu	v0,s5,-65
  401450:	2c430038 	sltiu	v1,v0,56
  401454:	10600617 	beqz	v1,402cb4 <printf_core+0x1dec>
  401458:	00021880 	sll	v1,v0,0x2
  40145c:	8f82801c 	lw	v0,-32740(gp)
  401460:	00000000 	nop
  401464:	24428244 	addiu	v0,v0,-32188
  401468:	00431021 	addu	v0,v0,v1
  40146c:	8c420000 	lw	v0,0(v0)
  401470:	00000000 	nop
  401474:	005c1021 	addu	v0,v0,gp
  401478:	00400008 	jr	v0
  40147c:	00000000 	nop
  401480:	2ce20008 	sltiu	v0,a3,8
  401484:	1040014f 	beqz	v0,4019c4 <printf_core+0xafc>
  401488:	00073880 	sll	a3,a3,0x2
  40148c:	8f82801c 	lw	v0,-32740(gp)
  401490:	00000000 	nop
  401494:	24428324 	addiu	v0,v0,-31964
  401498:	00473821 	addu	a3,v0,a3
  40149c:	8ce20000 	lw	v0,0(a3)
  4014a0:	00000000 	nop
  4014a4:	005c1021 	addu	v0,v0,gp
  4014a8:	00400008 	jr	v0
  4014ac:	00000000 	nop
  4014b0:	8fa20270 	lw	v0,624(sp)
  4014b4:	8fa3028c 	lw	v1,652(sp)
  4014b8:	1000fead 	b	400f70 <printf_core+0xa8>
  4014bc:	a4430000 	sh	v1,0(v0)
  4014c0:	8fa20270 	lw	v0,624(sp)
  4014c4:	8fa3028c 	lw	v1,652(sp)
  4014c8:	1000fea9 	b	400f70 <printf_core+0xa8>
  4014cc:	a0430000 	sb	v1,0(v0)
  4014d0:	8fa20270 	lw	v0,624(sp)
  4014d4:	8fa3028c 	lw	v1,652(sp)
  4014d8:	1000fea5 	b	400f70 <printf_core+0xa8>
  4014dc:	ac430000 	sw	v1,0(v0)
  4014e0:	8fa3028c 	lw	v1,652(sp)
  4014e4:	8fa20270 	lw	v0,624(sp)
  4014e8:	00000000 	nop
  4014ec:	ac430000 	sw	v1,0(v0)
  4014f0:	00031fc3 	sra	v1,v1,0x1f
  4014f4:	1000fe9e 	b	400f70 <printf_core+0xa8>
  4014f8:	ac430004 	sw	v1,4(v0)
  4014fc:	2fc20008 	sltiu	v0,s8,8
  401500:	10400002 	beqz	v0,40150c <printf_core+0x644>
  401504:	03c04025 	move	t0,s8
  401508:	24080008 	li	t0,8
  40150c:	0100f025 	move	s8,t0
  401510:	36310008 	ori	s1,s1,0x8
  401514:	24150078 	li	s5,120
  401518:	8fa30270 	lw	v1,624(sp)
  40151c:	8fa70274 	lw	a3,628(sp)
  401520:	8f85801c 	lw	a1,-32740(gp)
  401524:	32a90020 	andi	t1,s5,0x20
  401528:	00601025 	move	v0,v1
  40152c:	00e02025 	move	a0,a3
  401530:	27b40240 	addiu	s4,sp,576
  401534:	24a58344 	addiu	a1,a1,-31932
  401538:	00443025 	or	a2,v0,a0
  40153c:	14c00068 	bnez	a2,4016e0 <printf_core+0x818>
  401540:	00000000 	nop
  401544:	8f96801c 	lw	s6,-32740(gp)
  401548:	00671825 	or	v1,v1,a3
  40154c:	10600006 	beqz	v1,401568 <printf_core+0x6a0>
  401550:	26d68208 	addiu	s6,s6,-32248
  401554:	32220008 	andi	v0,s1,0x8
  401558:	10400003 	beqz	v0,401568 <printf_core+0x6a0>
  40155c:	0015a903 	sra	s5,s5,0x4
  401560:	02d5b021 	addu	s6,s6,s5
  401564:	24100002 	li	s0,2
  401568:	12600006 	beqz	s3,401584 <printf_core+0x6bc>
  40156c:	00000000 	nop
  401570:	07c00119 	bltz	s8,4019d8 <printf_core+0xb10>
  401574:	00000000 	nop
  401578:	3c02fffe 	lui	v0,0xfffe
  40157c:	3442ffff 	ori	v0,v0,0xffff
  401580:	02228824 	and	s1,s1,v0
  401584:	8fa30270 	lw	v1,624(sp)
  401588:	8fa20274 	lw	v0,628(sp)
  40158c:	00000000 	nop
  401590:	00621825 	or	v1,v1,v0
  401594:	14600003 	bnez	v1,4015a4 <printf_core+0x6dc>
  401598:	27b50240 	addiu	s5,sp,576
  40159c:	13c005c9 	beqz	s8,402cc4 <printf_core+0x1dfc>
  4015a0:	00000000 	nop
  4015a4:	2c630001 	sltiu	v1,v1,1
  4015a8:	02b41023 	subu	v0,s5,s4
  4015ac:	00431021 	addu	v0,v0,v1
  4015b0:	03c2182a 	slt	v1,s8,v0
  4015b4:	10600002 	beqz	v1,4015c0 <printf_core+0x6f8>
  4015b8:	00000000 	nop
  4015bc:	0040f025 	move	s8,v0
  4015c0:	02b4a823 	subu	s5,s5,s4
  4015c4:	02be182a 	slt	v1,s5,s8
  4015c8:	10600002 	beqz	v1,4015d4 <printf_core+0x70c>
  4015cc:	02a01025 	move	v0,s5
  4015d0:	03c01025 	move	v0,s8
  4015d4:	3c037fff 	lui	v1,0x7fff
  4015d8:	3463ffff 	ori	v1,v1,0xffff
  4015dc:	00701823 	subu	v1,v1,s0
  4015e0:	0062182a 	slt	v1,v1,v0
  4015e4:	146000fc 	bnez	v1,4019d8 <printf_core+0xb10>
  4015e8:	0050f021 	addu	s8,v0,s0
  4015ec:	8fa30288 	lw	v1,648(sp)
  4015f0:	00000000 	nop
  4015f4:	03c3182a 	slt	v1,s8,v1
  4015f8:	10600002 	beqz	v1,401604 <printf_core+0x73c>
  4015fc:	03c0b825 	move	s7,s8
  401600:	8fb70288 	lw	s7,648(sp)
  401604:	afa20288 	sw	v0,648(sp)
  401608:	8fa202a8 	lw	v0,680(sp)
  40160c:	00000000 	nop
  401610:	0057182a 	slt	v1,v0,s7
  401614:	146000f0 	bnez	v1,4019d8 <printf_core+0xb10>
  401618:	02e03025 	move	a2,s7
  40161c:	8f938018 	lw	s3,-32744(gp)
  401620:	03c03825 	move	a3,s8
  401624:	26730de8 	addiu	s3,s3,3560
  401628:	afb10010 	sw	s1,16(sp)
  40162c:	24050020 	li	a1,32
  401630:	0260c825 	move	t9,s3
  401634:	0411fdec 	bal	400de8 <pad>
  401638:	02402025 	move	a0,s2
  40163c:	8fa202a0 	lw	v0,672(sp)
  401640:	02003025 	move	a2,s0
  401644:	24500dac 	addiu	s0,v0,3500
  401648:	0200c825 	move	t9,s0
  40164c:	02c02825 	move	a1,s6
  401650:	0411fdd6 	bal	400dac <out>
  401654:	02402025 	move	a0,s2
  401658:	3c030001 	lui	v1,0x1
  40165c:	02231826 	xor	v1,s1,v1
  401660:	afa30010 	sw	v1,16(sp)
  401664:	03c03825 	move	a3,s8
  401668:	02e03025 	move	a2,s7
  40166c:	24050030 	li	a1,48
  401670:	0260c825 	move	t9,s3
  401674:	0411fddc 	bal	400de8 <pad>
  401678:	02402025 	move	a0,s2
  40167c:	8fa20288 	lw	v0,648(sp)
  401680:	02a03825 	move	a3,s5
  401684:	00403025 	move	a2,v0
  401688:	24050030 	li	a1,48
  40168c:	02402025 	move	a0,s2
  401690:	0260c825 	move	t9,s3
  401694:	afa00010 	sw	zero,16(sp)
  401698:	0411fdd3 	bal	400de8 <pad>
  40169c:	3a312000 	xori	s1,s1,0x2000
  4016a0:	0200c825 	move	t9,s0
  4016a4:	02a03025 	move	a2,s5
  4016a8:	02802825 	move	a1,s4
  4016ac:	0411fdbf 	bal	400dac <out>
  4016b0:	02402025 	move	a0,s2
  4016b4:	afb10010 	sw	s1,16(sp)
  4016b8:	03c03825 	move	a3,s8
  4016bc:	02e03025 	move	a2,s7
  4016c0:	24050020 	li	a1,32
  4016c4:	02402025 	move	a0,s2
  4016c8:	0260c825 	move	t9,s3
  4016cc:	0411fdc6 	bal	400de8 <pad>
  4016d0:	02e08025 	move	s0,s7
  4016d4:	8fbc0018 	lw	gp,24(sp)
  4016d8:	1000fe25 	b	400f70 <printf_core+0xa8>
  4016dc:	00000000 	nop
  4016e0:	3046000f 	andi	a2,v0,0xf
  4016e4:	00a63021 	addu	a2,a1,a2
  4016e8:	90c60000 	lbu	a2,0(a2)
  4016ec:	2694ffff 	addiu	s4,s4,-1
  4016f0:	01263025 	or	a2,t1,a2
  4016f4:	a2860000 	sb	a2,0(s4)
  4016f8:	00021102 	srl	v0,v0,0x4
  4016fc:	00043700 	sll	a2,a0,0x1c
  401700:	00c21025 	or	v0,a2,v0
  401704:	1000ff8c 	b	401538 <printf_core+0x670>
  401708:	00042102 	srl	a0,a0,0x4
  40170c:	27b40240 	addiu	s4,sp,576
  401710:	8fa20270 	lw	v0,624(sp)
  401714:	8fa40274 	lw	a0,628(sp)
  401718:	02801825 	move	v1,s4
  40171c:	00442825 	or	a1,v0,a0
  401720:	14a0000b 	bnez	a1,401750 <printf_core+0x888>
  401724:	00000000 	nop
  401728:	8f96801c 	lw	s6,-32740(gp)
  40172c:	32220008 	andi	v0,s1,0x8
  401730:	1040ff8d 	beqz	v0,401568 <printf_core+0x6a0>
  401734:	26d68208 	addiu	s6,s6,-32248
  401738:	00741023 	subu	v0,v1,s4
  40173c:	005e182a 	slt	v1,v0,s8
  401740:	1460ff89 	bnez	v1,401568 <printf_core+0x6a0>
  401744:	00000000 	nop
  401748:	1000ff87 	b	401568 <printf_core+0x6a0>
  40174c:	245e0001 	addiu	s8,v0,1
  401750:	30450007 	andi	a1,v0,0x7
  401754:	24a50030 	addiu	a1,a1,48
  401758:	000210c2 	srl	v0,v0,0x3
  40175c:	a285ffff 	sb	a1,-1(s4)
  401760:	00042f40 	sll	a1,a0,0x1d
  401764:	2694ffff 	addiu	s4,s4,-1
  401768:	00a21025 	or	v0,a1,v0
  40176c:	1000ffeb 	b	40171c <printf_core+0x854>
  401770:	000420c2 	srl	a0,a0,0x3
  401774:	8fa20274 	lw	v0,628(sp)
  401778:	8fa30270 	lw	v1,624(sp)
  40177c:	04410013 	bgez	v0,4017cc <printf_core+0x904>
  401780:	00032023 	negu	a0,v1
  401784:	00021023 	negu	v0,v0
  401788:	0003182b 	sltu	v1,zero,v1
  40178c:	00431023 	subu	v0,v0,v1
  401790:	afa40270 	sw	a0,624(sp)
  401794:	afa20274 	sw	v0,628(sp)
  401798:	24100001 	li	s0,1
  40179c:	8f96801c 	lw	s6,-32740(gp)
  4017a0:	00000000 	nop
  4017a4:	26d68208 	addiu	s6,s6,-32248
  4017a8:	8f998018 	lw	t9,-32744(gp)
  4017ac:	8fa40270 	lw	a0,624(sp)
  4017b0:	8fa50274 	lw	a1,628(sp)
  4017b4:	27390c7c 	addiu	t9,t9,3196
  4017b8:	0411fd30 	bal	400c7c <fmt_u>
  4017bc:	27a60240 	addiu	a2,sp,576
  4017c0:	8fbc0018 	lw	gp,24(sp)
  4017c4:	1000ff68 	b	401568 <printf_core+0x6a0>
  4017c8:	0040a025 	move	s4,v0
  4017cc:	32220800 	andi	v0,s1,0x800
  4017d0:	14400007 	bnez	v0,4017f0 <printf_core+0x928>
  4017d4:	32220001 	andi	v0,s1,0x1
  4017d8:	1040fff0 	beqz	v0,40179c <printf_core+0x8d4>
  4017dc:	00000000 	nop
  4017e0:	8f96801c 	lw	s6,-32740(gp)
  4017e4:	24100001 	li	s0,1
  4017e8:	1000ffef 	b	4017a8 <printf_core+0x8e0>
  4017ec:	26d6820a 	addiu	s6,s6,-32246
  4017f0:	8f96801c 	lw	s6,-32740(gp)
  4017f4:	24100001 	li	s0,1
  4017f8:	1000ffeb 	b	4017a8 <printf_core+0x8e0>
  4017fc:	26d68209 	addiu	s6,s6,-32247
  401800:	8fa20270 	lw	v0,624(sp)
  401804:	8f96801c 	lw	s6,-32740(gp)
  401808:	a3a2023f 	sb	v0,575(sp)
  40180c:	3c02fffe 	lui	v0,0xfffe
  401810:	3442ffff 	ori	v0,v0,0xffff
  401814:	02228824 	and	s1,s1,v0
  401818:	26d68208 	addiu	s6,s6,-32248
  40181c:	241e0001 	li	s8,1
  401820:	27b50240 	addiu	s5,sp,576
  401824:	1000ff66 	b	4015c0 <printf_core+0x6f8>
  401828:	27b4023f 	addiu	s4,sp,575
  40182c:	8f99808c 	lw	t9,-32628(gp)
  401830:	00000000 	nop
  401834:	0411073a 	bal	403520 <__errno_location>
  401838:	00000000 	nop
  40183c:	8fbc0018 	lw	gp,24(sp)
  401840:	8c440000 	lw	a0,0(v0)
  401844:	8f998090 	lw	t9,-32624(gp)
  401848:	00000000 	nop
  40184c:	04110751 	bal	403594 <strerror>
  401850:	00000000 	nop
  401854:	8fbc0018 	lw	gp,24(sp)
  401858:	0040a025 	move	s4,v0
  40185c:	07c10003 	bgez	s8,40186c <printf_core+0x9a4>
  401860:	03c02825 	move	a1,s8
  401864:	3c057fff 	lui	a1,0x7fff
  401868:	34a5ffff 	ori	a1,a1,0xffff
  40186c:	8f998094 	lw	t9,-32620(gp)
  401870:	00000000 	nop
  401874:	04110612 	bal	4030c0 <strnlen>
  401878:	02802025 	move	a0,s4
  40187c:	8fbc0018 	lw	gp,24(sp)
  401880:	07c10005 	bgez	s8,401898 <printf_core+0x9d0>
  401884:	0282a821 	addu	s5,s4,v0
  401888:	82a30000 	lb	v1,0(s5)
  40188c:	00000000 	nop
  401890:	14600051 	bnez	v1,4019d8 <printf_core+0xb10>
  401894:	00000000 	nop
  401898:	8f96801c 	lw	s6,-32740(gp)
  40189c:	0040f025 	move	s8,v0
  4018a0:	3c02fffe 	lui	v0,0xfffe
  4018a4:	3442ffff 	ori	v0,v0,0xffff
  4018a8:	02228824 	and	s1,s1,v0
  4018ac:	1000ff44 	b	4015c0 <printf_core+0x6f8>
  4018b0:	26d68208 	addiu	s6,s6,-32248
  4018b4:	8fb40270 	lw	s4,624(sp)
  4018b8:	00000000 	nop
  4018bc:	1680ffe7 	bnez	s4,40185c <printf_core+0x994>
  4018c0:	00000000 	nop
  4018c4:	8f94801c 	lw	s4,-32740(gp)
  4018c8:	1000ffe4 	b	40185c <printf_core+0x994>
  4018cc:	26948214 	addiu	s4,s4,-32236
  4018d0:	8fa20270 	lw	v0,624(sp)
  4018d4:	afa00268 	sw	zero,616(sp)
  4018d8:	afa20264 	sw	v0,612(sp)
  4018dc:	27a20264 	addiu	v0,sp,612
  4018e0:	afa20270 	sw	v0,624(sp)
  4018e4:	241effff 	li	s8,-1
  4018e8:	8fb40270 	lw	s4,624(sp)
  4018ec:	00008025 	move	s0,zero
  4018f0:	27b3027c 	addiu	s3,sp,636
  4018f4:	021e102b 	sltu	v0,s0,s8
  4018f8:	10400010 	beqz	v0,40193c <printf_core+0xa74>
  4018fc:	00000000 	nop
  401900:	8e850000 	lw	a1,0(s4)
  401904:	00000000 	nop
  401908:	10a0000c 	beqz	a1,40193c <printf_core+0xa74>
  40190c:	00000000 	nop
  401910:	8f998098 	lw	t9,-32616(gp)
  401914:	00000000 	nop
  401918:	0411075d 	bal	403690 <wctomb>
  40191c:	02602025 	move	a0,s3
  401920:	8fbc0018 	lw	gp,24(sp)
  401924:	0440fe5c 	bltz	v0,401298 <printf_core+0x3d0>
  401928:	26940004 	addiu	s4,s4,4
  40192c:	03d01823 	subu	v1,s8,s0
  401930:	0062182b 	sltu	v1,v1,v0
  401934:	1060002e 	beqz	v1,4019f0 <printf_core+0xb28>
  401938:	00000000 	nop
  40193c:	06000026 	bltz	s0,4019d8 <printf_core+0xb10>
  401940:	00000000 	nop
  401944:	8f938018 	lw	s3,-32744(gp)
  401948:	8fa60288 	lw	a2,648(sp)
  40194c:	26730de8 	addiu	s3,s3,3560
  401950:	afb10010 	sw	s1,16(sp)
  401954:	02003825 	move	a3,s0
  401958:	24050020 	li	a1,32
  40195c:	0260c825 	move	t9,s3
  401960:	0411fd21 	bal	400de8 <pad>
  401964:	02402025 	move	a0,s2
  401968:	8fa202a0 	lw	v0,672(sp)
  40196c:	8fbc0018 	lw	gp,24(sp)
  401970:	8fb70270 	lw	s7,624(sp)
  401974:	0000b025 	move	s6,zero
  401978:	27b4027c 	addiu	s4,sp,636
  40197c:	24550dac 	addiu	s5,v0,3500
  401980:	02d0102b 	sltu	v0,s6,s0
  401984:	1440001c 	bnez	v0,4019f8 <printf_core+0xb30>
  401988:	00000000 	nop
  40198c:	8fa60288 	lw	a2,648(sp)
  401990:	3a312000 	xori	s1,s1,0x2000
  401994:	afb10010 	sw	s1,16(sp)
  401998:	02003825 	move	a3,s0
  40199c:	24050020 	li	a1,32
  4019a0:	0260c825 	move	t9,s3
  4019a4:	0411fd10 	bal	400de8 <pad>
  4019a8:	02402025 	move	a0,s2
  4019ac:	8fa20288 	lw	v0,648(sp)
  4019b0:	8fbc0018 	lw	gp,24(sp)
  4019b4:	0202102a 	slt	v0,s0,v0
  4019b8:	10400002 	beqz	v0,4019c4 <printf_core+0xafc>
  4019bc:	00000000 	nop
  4019c0:	8fb00288 	lw	s0,648(sp)
  4019c4:	8fa202a8 	lw	v0,680(sp)
  4019c8:	00000000 	nop
  4019cc:	0050102a 	slt	v0,v0,s0
  4019d0:	1040fd67 	beqz	v0,400f70 <printf_core+0xa8>
  4019d4:	00000000 	nop
  4019d8:	8f99808c 	lw	t9,-32628(gp)
  4019dc:	00000000 	nop
  4019e0:	041106cf 	bal	403520 <__errno_location>
  4019e4:	00000000 	nop
  4019e8:	1000fe2a 	b	401294 <printf_core+0x3cc>
  4019ec:	2403004f 	li	v1,79
  4019f0:	1000ffc0 	b	4018f4 <printf_core+0xa2c>
  4019f4:	02028021 	addu	s0,s0,v0
  4019f8:	8ee50000 	lw	a1,0(s7)
  4019fc:	00000000 	nop
  401a00:	10a0ffe2 	beqz	a1,40198c <printf_core+0xac4>
  401a04:	00000000 	nop
  401a08:	8f998098 	lw	t9,-32616(gp)
  401a0c:	00000000 	nop
  401a10:	0411071f 	bal	403690 <wctomb>
  401a14:	02802025 	move	a0,s4
  401a18:	02c2b021 	addu	s6,s6,v0
  401a1c:	00403025 	move	a2,v0
  401a20:	0216102b 	sltu	v0,s0,s6
  401a24:	1440ffd9 	bnez	v0,40198c <printf_core+0xac4>
  401a28:	26f70004 	addiu	s7,s7,4
  401a2c:	02802825 	move	a1,s4
  401a30:	02a0c825 	move	t9,s5
  401a34:	0320f809 	jalr	t9
  401a38:	02402025 	move	a0,s2
  401a3c:	8fbc0018 	lw	gp,24(sp)
  401a40:	1000ffd0 	b	401984 <printf_core+0xabc>
  401a44:	02d0102b 	sltu	v0,s6,s0
  401a48:	12600003 	beqz	s3,401a58 <printf_core+0xb90>
  401a4c:	00000000 	nop
  401a50:	07c0ffe1 	bltz	s8,4019d8 <printf_core+0xb10>
  401a54:	00000000 	nop
  401a58:	8fa30274 	lw	v1,628(sp)
  401a5c:	8fa40270 	lw	a0,624(sp)
  401a60:	000317c2 	srl	v0,v1,0x1f
  401a64:	afa00278 	sw	zero,632(sp)
  401a68:	1040010f 	beqz	v0,401ea8 <printf_core+0xfe0>
  401a6c:	afa2029c 	sw	v0,668(sp)
  401a70:	3c028000 	lui	v0,0x8000
  401a74:	00431826 	xor	v1,v0,v1
  401a78:	8f82801c 	lw	v0,-32740(gp)
  401a7c:	00000000 	nop
  401a80:	2442821c 	addiu	v0,v0,-32228
  401a84:	afa20298 	sw	v0,664(sp)
  401a88:	3c027fff 	lui	v0,0x7fff
  401a8c:	3442ffff 	ori	v0,v0,0xffff
  401a90:	00621024 	and	v0,v1,v0
  401a94:	3c057ff0 	lui	a1,0x7ff0
  401a98:	0045102b 	sltu	v0,v0,a1
  401a9c:	10400114 	beqz	v0,401ef0 <printf_core+0x1028>
  401aa0:	27a60278 	addiu	a2,sp,632
  401aa4:	8f99809c 	lw	t9,-32612(gp)
  401aa8:	00000000 	nop
  401aac:	041106f0 	bal	403670 <frexpl>
  401ab0:	00602825 	move	a1,v1
  401ab4:	8fbc0018 	lw	gp,24(sp)
  401ab8:	00403025 	move	a2,v0
  401abc:	8f9980a0 	lw	t9,-32608(gp)
  401ac0:	00603825 	move	a3,v1
  401ac4:	00402025 	move	a0,v0
  401ac8:	041111fd 	bal	4062c0 <__adddf3>
  401acc:	00602825 	move	a1,v1
  401ad0:	8fbc0018 	lw	gp,24(sp)
  401ad4:	0060b025 	move	s6,v1
  401ad8:	8f9980a4 	lw	t9,-32604(gp)
  401adc:	00003025 	move	a2,zero
  401ae0:	00003825 	move	a3,zero
  401ae4:	00402025 	move	a0,v0
  401ae8:	02c02825 	move	a1,s6
  401aec:	0040b825 	move	s7,v0
  401af0:	00409825 	move	s3,v0
  401af4:	04111456 	bal	406c50 <__eqdf2>
  401af8:	0060a025 	move	s4,v1
  401afc:	8fbc0018 	lw	gp,24(sp)
  401b00:	1440013e 	bnez	v0,401ffc <printf_core+0x1134>
  401b04:	00000000 	nop
  401b08:	36a20020 	ori	v0,s5,0x20
  401b0c:	afa202a4 	sw	v0,676(sp)
  401b10:	36a30020 	ori	v1,s5,0x20
  401b14:	24020061 	li	v0,97
  401b18:	1462015d 	bne	v1,v0,402090 <printf_core+0x11c8>
  401b1c:	32a20020 	andi	v0,s5,0x20
  401b20:	10400005 	beqz	v0,401b38 <printf_core+0xc70>
  401b24:	afa202b0 	sw	v0,688(sp)
  401b28:	8fa20298 	lw	v0,664(sp)
  401b2c:	00000000 	nop
  401b30:	24420009 	addiu	v0,v0,9
  401b34:	afa20298 	sw	v0,664(sp)
  401b38:	8fa2029c 	lw	v0,668(sp)
  401b3c:	00000000 	nop
  401b40:	24420002 	addiu	v0,v0,2
  401b44:	afa20294 	sw	v0,660(sp)
  401b48:	2fc2000c 	sltiu	v0,s8,12
  401b4c:	10400022 	beqz	v0,401bd8 <printf_core+0xd10>
  401b50:	2409ffff 	li	t1,-1
  401b54:	8fa202b4 	lw	v0,692(sp)
  401b58:	2414000c 	li	s4,12
  401b5c:	8c538528 	lw	s3,-31448(v0)
  401b60:	8c50852c 	lw	s0,-31444(v0)
  401b64:	029ea023 	subu	s4,s4,s8
  401b68:	02605025 	move	t2,s3
  401b6c:	02005825 	move	t3,s0
  401b70:	2694ffff 	addiu	s4,s4,-1
  401b74:	16890126 	bne	s4,t1,402010 <printf_core+0x1148>
  401b78:	01403025 	move	a2,t2
  401b7c:	8fa20298 	lw	v0,664(sp)
  401b80:	00000000 	nop
  401b84:	80430000 	lb	v1,0(v0)
  401b88:	2402002d 	li	v0,45
  401b8c:	1462012e 	bne	v1,v0,402048 <printf_core+0x1180>
  401b90:	02603025 	move	a2,s3
  401b94:	3c148000 	lui	s4,0x8000
  401b98:	8f9980a8 	lw	t9,-32600(gp)
  401b9c:	02961026 	xor	v0,s4,s6
  401ba0:	02003825 	move	a3,s0
  401ba4:	02e02025 	move	a0,s7
  401ba8:	041115dd 	bal	407320 <__subdf3>
  401bac:	00402825 	move	a1,v0
  401bb0:	8fbc0018 	lw	gp,24(sp)
  401bb4:	02602025 	move	a0,s3
  401bb8:	8f9980a0 	lw	t9,-32608(gp)
  401bbc:	00403025 	move	a2,v0
  401bc0:	00603825 	move	a3,v1
  401bc4:	041111be 	bal	4062c0 <__adddf3>
  401bc8:	02002825 	move	a1,s0
  401bcc:	8fbc0018 	lw	gp,24(sp)
  401bd0:	00409825 	move	s3,v0
  401bd4:	0283a026 	xor	s4,s4,v1
  401bd8:	8fa20278 	lw	v0,632(sp)
  401bdc:	8f998018 	lw	t9,-32744(gp)
  401be0:	000227c3 	sra	a0,v0,0x1f
  401be4:	00821026 	xor	v0,a0,v0
  401be8:	00442023 	subu	a0,v0,a0
  401bec:	27b00264 	addiu	s0,sp,612
  401bf0:	02003025 	move	a2,s0
  401bf4:	27390c7c 	addiu	t9,t9,3196
  401bf8:	0411fc20 	bal	400c7c <fmt_u>
  401bfc:	00042fc3 	sra	a1,a0,0x1f
  401c00:	8fbc0018 	lw	gp,24(sp)
  401c04:	14500004 	bne	v0,s0,401c18 <printf_core+0xd50>
  401c08:	00000000 	nop
  401c0c:	24020030 	li	v0,48
  401c10:	a3a20263 	sb	v0,611(sp)
  401c14:	27a20263 	addiu	v0,sp,611
  401c18:	8fa40278 	lw	a0,632(sp)
  401c1c:	00000000 	nop
  401c20:	04800002 	bltz	a0,401c2c <printf_core+0xd64>
  401c24:	2403002d 	li	v1,45
  401c28:	2403002b 	li	v1,43
  401c2c:	26b5000f 	addiu	s5,s5,15
  401c30:	a043ffff 	sb	v1,-1(v0)
  401c34:	2456fffe 	addiu	s6,v0,-2
  401c38:	a055fffe 	sb	s5,-2(v0)
  401c3c:	8f82801c 	lw	v0,-32740(gp)
  401c40:	27b70240 	addiu	s7,sp,576
  401c44:	24428344 	addiu	v0,v0,-31932
  401c48:	afa2029c 	sw	v0,668(sp)
  401c4c:	32220008 	andi	v0,s1,0x8
  401c50:	afb702b8 	sw	s7,696(sp)
  401c54:	afb702a4 	sw	s7,676(sp)
  401c58:	afa202bc 	sw	v0,700(sp)
  401c5c:	8f9980ac 	lw	t9,-32596(gp)
  401c60:	02802825 	move	a1,s4
  401c64:	02602025 	move	a0,s3
  401c68:	afb302e0 	sw	s3,736(sp)
  401c6c:	0411182c 	bal	407d20 <__fixdfsi>
  401c70:	afb402c4 	sw	s4,708(sp)
  401c74:	00402025 	move	a0,v0
  401c78:	8fa2029c 	lw	v0,668(sp)
  401c7c:	8fbc0018 	lw	gp,24(sp)
  401c80:	00821021 	addu	v0,a0,v0
  401c84:	90420000 	lbu	v0,0(v0)
  401c88:	8fa302b0 	lw	v1,688(sp)
  401c8c:	8f9980b0 	lw	t9,-32592(gp)
  401c90:	00621025 	or	v0,v1,v0
  401c94:	0411186a 	bal	407e40 <__floatsidf>
  401c98:	a2e20000 	sb	v0,0(s7)
  401c9c:	8fbc0018 	lw	gp,24(sp)
  401ca0:	02602025 	move	a0,s3
  401ca4:	8f9980a8 	lw	t9,-32600(gp)
  401ca8:	02802825 	move	a1,s4
  401cac:	00403025 	move	a2,v0
  401cb0:	0411159b 	bal	407320 <__subdf3>
  401cb4:	00603825 	move	a3,v1
  401cb8:	8fbc0018 	lw	gp,24(sp)
  401cbc:	8fa602d8 	lw	a2,728(sp)
  401cc0:	8f9980b4 	lw	t9,-32588(gp)
  401cc4:	8fa702dc 	lw	a3,732(sp)
  401cc8:	00402025 	move	a0,v0
  401ccc:	0411140c 	bal	406d00 <__muldf3>
  401cd0:	00602825 	move	a1,v1
  401cd4:	00405025 	move	t2,v0
  401cd8:	00409825 	move	s3,v0
  401cdc:	8fa202a4 	lw	v0,676(sp)
  401ce0:	26f50001 	addiu	s5,s7,1
  401ce4:	02a21023 	subu	v0,s5,v0
  401ce8:	24040001 	li	a0,1
  401cec:	8fbc0018 	lw	gp,24(sp)
  401cf0:	14440016 	bne	v0,a0,401d4c <printf_core+0xe84>
  401cf4:	0060a025 	move	s4,v1
  401cf8:	8f9980a4 	lw	t9,-32604(gp)
  401cfc:	afaa02e0 	sw	t2,736(sp)
  401d00:	afa302c4 	sw	v1,708(sp)
  401d04:	01402025 	move	a0,t2
  401d08:	00602825 	move	a1,v1
  401d0c:	00003025 	move	a2,zero
  401d10:	041113cf 	bal	406c50 <__eqdf2>
  401d14:	00003825 	move	a3,zero
  401d18:	8fbc0018 	lw	gp,24(sp)
  401d1c:	02801825 	move	v1,s4
  401d20:	14400007 	bnez	v0,401d40 <printf_core+0xe78>
  401d24:	02605025 	move	t2,s3
  401d28:	1fc00006 	bgtz	s8,401d44 <printf_core+0xe7c>
  401d2c:	2402002e 	li	v0,46
  401d30:	8fa202bc 	lw	v0,700(sp)
  401d34:	00000000 	nop
  401d38:	1040000e 	beqz	v0,401d74 <printf_core+0xeac>
  401d3c:	3c027fff 	lui	v0,0x7fff
  401d40:	2402002e 	li	v0,46
  401d44:	26f50002 	addiu	s5,s7,2
  401d48:	a2e20001 	sb	v0,1(s7)
  401d4c:	8f9980a4 	lw	t9,-32604(gp)
  401d50:	00003025 	move	a2,zero
  401d54:	00003825 	move	a3,zero
  401d58:	01402025 	move	a0,t2
  401d5c:	041113bc 	bal	406c50 <__eqdf2>
  401d60:	00602825 	move	a1,v1
  401d64:	8fbc0018 	lw	gp,24(sp)
  401d68:	1440ffbc 	bnez	v0,401c5c <printf_core+0xd94>
  401d6c:	02a0b825 	move	s7,s5
  401d70:	3c027fff 	lui	v0,0x7fff
  401d74:	8fa30294 	lw	v1,660(sp)
  401d78:	02168023 	subu	s0,s0,s6
  401d7c:	3442fffd 	ori	v0,v0,0xfffd
  401d80:	00501023 	subu	v0,v0,s0
  401d84:	00431023 	subu	v0,v0,v1
  401d88:	005e102a 	slt	v0,v0,s8
  401d8c:	1440ff12 	bnez	v0,4019d8 <printf_core+0xb10>
  401d90:	00000000 	nop
  401d94:	27a30240 	addiu	v1,sp,576
  401d98:	13c000bb 	beqz	s8,402088 <printf_core+0x11c0>
  401d9c:	02a3a023 	subu	s4,s5,v1
  401da0:	2682ffff 	addiu	v0,s4,-1
  401da4:	03c2102a 	slt	v0,s8,v0
  401da8:	14400003 	bnez	v0,401db8 <printf_core+0xef0>
  401dac:	0214a821 	addu	s5,s0,s4
  401db0:	27c80002 	addiu	t0,s8,2
  401db4:	0110a821 	addu	s5,t0,s0
  401db8:	8f938018 	lw	s3,-32744(gp)
  401dbc:	8fa20294 	lw	v0,660(sp)
  401dc0:	26730de8 	addiu	s3,s3,3560
  401dc4:	0055f021 	addu	s8,v0,s5
  401dc8:	8fa60288 	lw	a2,648(sp)
  401dcc:	03c03825 	move	a3,s8
  401dd0:	afb10010 	sw	s1,16(sp)
  401dd4:	24050020 	li	a1,32
  401dd8:	0260c825 	move	t9,s3
  401ddc:	0411fc02 	bal	400de8 <pad>
  401de0:	02402025 	move	a0,s2
  401de4:	8fa202a0 	lw	v0,672(sp)
  401de8:	8fa60294 	lw	a2,660(sp)
  401dec:	24570dac 	addiu	s7,v0,3500
  401df0:	8fa50298 	lw	a1,664(sp)
  401df4:	02e0c825 	move	t9,s7
  401df8:	0411fbec 	bal	400dac <out>
  401dfc:	02402025 	move	a0,s2
  401e00:	3c040001 	lui	a0,0x1
  401e04:	02242026 	xor	a0,s1,a0
  401e08:	8fa60288 	lw	a2,648(sp)
  401e0c:	03c03825 	move	a3,s8
  401e10:	afa40010 	sw	a0,16(sp)
  401e14:	24050030 	li	a1,48
  401e18:	0260c825 	move	t9,s3
  401e1c:	0411fbf2 	bal	400de8 <pad>
  401e20:	02402025 	move	a0,s2
  401e24:	8fa502b8 	lw	a1,696(sp)
  401e28:	02803025 	move	a2,s4
  401e2c:	02e0c825 	move	t9,s7
  401e30:	0411fbde 	bal	400dac <out>
  401e34:	02402025 	move	a0,s2
  401e38:	02b03023 	subu	a2,s5,s0
  401e3c:	00003825 	move	a3,zero
  401e40:	00d43023 	subu	a2,a2,s4
  401e44:	24050030 	li	a1,48
  401e48:	02402025 	move	a0,s2
  401e4c:	0260c825 	move	t9,s3
  401e50:	0411fbe5 	bal	400de8 <pad>
  401e54:	afa00010 	sw	zero,16(sp)
  401e58:	02003025 	move	a2,s0
  401e5c:	02c02825 	move	a1,s6
  401e60:	02402025 	move	a0,s2
  401e64:	02e0c825 	move	t9,s7
  401e68:	0411fbd0 	bal	400dac <out>
  401e6c:	3a312000 	xori	s1,s1,0x2000
  401e70:	8fa60288 	lw	a2,648(sp)
  401e74:	afb10010 	sw	s1,16(sp)
  401e78:	03c03825 	move	a3,s8
  401e7c:	24050020 	li	a1,32
  401e80:	0260c825 	move	t9,s3
  401e84:	0411fbd8 	bal	400de8 <pad>
  401e88:	02402025 	move	a0,s2
  401e8c:	8fb00288 	lw	s0,648(sp)
  401e90:	8fbc0018 	lw	gp,24(sp)
  401e94:	021e182a 	slt	v1,s0,s8
  401e98:	1060feca 	beqz	v1,4019c4 <printf_core+0xafc>
  401e9c:	00000000 	nop
  401ea0:	1000fec8 	b	4019c4 <printf_core+0xafc>
  401ea4:	03c08025 	move	s0,s8
  401ea8:	32220800 	andi	v0,s1,0x800
  401eac:	14400007 	bnez	v0,401ecc <printf_core+0x1004>
  401eb0:	24020001 	li	v0,1
  401eb4:	32220001 	andi	v0,s1,0x1
  401eb8:	14400008 	bnez	v0,401edc <printf_core+0x1014>
  401ebc:	00000000 	nop
  401ec0:	8f82801c 	lw	v0,-32740(gp)
  401ec4:	1000feef 	b	401a84 <printf_core+0xbbc>
  401ec8:	2442821d 	addiu	v0,v0,-32227
  401ecc:	afa2029c 	sw	v0,668(sp)
  401ed0:	8f82801c 	lw	v0,-32740(gp)
  401ed4:	1000feeb 	b	401a84 <printf_core+0xbbc>
  401ed8:	2442821f 	addiu	v0,v0,-32225
  401edc:	24020001 	li	v0,1
  401ee0:	afa2029c 	sw	v0,668(sp)
  401ee4:	8f82801c 	lw	v0,-32740(gp)
  401ee8:	1000fee6 	b	401a84 <printf_core+0xbbc>
  401eec:	24428222 	addiu	v0,v0,-32222
  401ef0:	32b50020 	andi	s5,s5,0x20
  401ef4:	16a0003b 	bnez	s5,401fe4 <printf_core+0x111c>
  401ef8:	00000000 	nop
  401efc:	8f90801c 	lw	s0,-32740(gp)
  401f00:	00000000 	nop
  401f04:	26108234 	addiu	s0,s0,-32204
  401f08:	8f9980a4 	lw	t9,-32604(gp)
  401f0c:	00803025 	move	a2,a0
  401f10:	00603825 	move	a3,v1
  401f14:	0411134e 	bal	406c50 <__eqdf2>
  401f18:	00602825 	move	a1,v1
  401f1c:	8fbc0018 	lw	gp,24(sp)
  401f20:	10400006 	beqz	v0,401f3c <printf_core+0x1074>
  401f24:	00000000 	nop
  401f28:	16a00031 	bnez	s5,401ff0 <printf_core+0x1128>
  401f2c:	00000000 	nop
  401f30:	8f90801c 	lw	s0,-32740(gp)
  401f34:	00000000 	nop
  401f38:	2610823c 	addiu	s0,s0,-32196
  401f3c:	8fa2029c 	lw	v0,668(sp)
  401f40:	8f948018 	lw	s4,-32744(gp)
  401f44:	24530003 	addiu	s3,v0,3
  401f48:	3c02fffe 	lui	v0,0xfffe
  401f4c:	3442ffff 	ori	v0,v0,0xffff
  401f50:	02221024 	and	v0,s1,v0
  401f54:	8fa60288 	lw	a2,648(sp)
  401f58:	26940de8 	addiu	s4,s4,3560
  401f5c:	02603825 	move	a3,s3
  401f60:	afa20010 	sw	v0,16(sp)
  401f64:	24050020 	li	a1,32
  401f68:	0280c825 	move	t9,s4
  401f6c:	0411fb9e 	bal	400de8 <pad>
  401f70:	02402025 	move	a0,s2
  401f74:	8fa202a0 	lw	v0,672(sp)
  401f78:	8fa6029c 	lw	a2,668(sp)
  401f7c:	24550dac 	addiu	s5,v0,3500
  401f80:	8fa50298 	lw	a1,664(sp)
  401f84:	02a0c825 	move	t9,s5
  401f88:	0411fb88 	bal	400dac <out>
  401f8c:	02402025 	move	a0,s2
  401f90:	24060003 	li	a2,3
  401f94:	02002825 	move	a1,s0
  401f98:	02402025 	move	a0,s2
  401f9c:	02a0c825 	move	t9,s5
  401fa0:	0411fb82 	bal	400dac <out>
  401fa4:	3a312000 	xori	s1,s1,0x2000
  401fa8:	8fa60288 	lw	a2,648(sp)
  401fac:	afb10010 	sw	s1,16(sp)
  401fb0:	02603825 	move	a3,s3
  401fb4:	24050020 	li	a1,32
  401fb8:	02402025 	move	a0,s2
  401fbc:	0280c825 	move	t9,s4
  401fc0:	0320f809 	jalr	t9
  401fc4:	00000000 	nop
  401fc8:	8fb00288 	lw	s0,648(sp)
  401fcc:	8fbc0018 	lw	gp,24(sp)
  401fd0:	0213102a 	slt	v0,s0,s3
  401fd4:	1040fe7b 	beqz	v0,4019c4 <printf_core+0xafc>
  401fd8:	00000000 	nop
  401fdc:	1000fe79 	b	4019c4 <printf_core+0xafc>
  401fe0:	02608025 	move	s0,s3
  401fe4:	8f90801c 	lw	s0,-32740(gp)
  401fe8:	1000ffc7 	b	401f08 <printf_core+0x1040>
  401fec:	26108230 	addiu	s0,s0,-32208
  401ff0:	8f90801c 	lw	s0,-32740(gp)
  401ff4:	1000ffd1 	b	401f3c <printf_core+0x1074>
  401ff8:	26108238 	addiu	s0,s0,-32200
  401ffc:	8fa20278 	lw	v0,632(sp)
  402000:	00000000 	nop
  402004:	2442ffff 	addiu	v0,v0,-1
  402008:	1000febf 	b	401b08 <printf_core+0xc40>
  40200c:	afa20278 	sw	v0,632(sp)
  402010:	8f9980b4 	lw	t9,-32588(gp)
  402014:	afaa02a4 	sw	t2,676(sp)
  402018:	01603825 	move	a3,t3
  40201c:	afab029c 	sw	t3,668(sp)
  402020:	02602025 	move	a0,s3
  402024:	04111336 	bal	406d00 <__muldf3>
  402028:	02002825 	move	a1,s0
  40202c:	00608025 	move	s0,v1
  402030:	8fbc0018 	lw	gp,24(sp)
  402034:	8faa02a4 	lw	t2,676(sp)
  402038:	8fab029c 	lw	t3,668(sp)
  40203c:	00409825 	move	s3,v0
  402040:	1000fecb 	b	401b70 <printf_core+0xca8>
  402044:	2409ffff 	li	t1,-1
  402048:	8f9980a0 	lw	t9,-32608(gp)
  40204c:	02003825 	move	a3,s0
  402050:	02e02025 	move	a0,s7
  402054:	0411109a 	bal	4062c0 <__adddf3>
  402058:	02c02825 	move	a1,s6
  40205c:	8fbc0018 	lw	gp,24(sp)
  402060:	02603025 	move	a2,s3
  402064:	8f9980a8 	lw	t9,-32600(gp)
  402068:	02003825 	move	a3,s0
  40206c:	00402025 	move	a0,v0
  402070:	041114ab 	bal	407320 <__subdf3>
  402074:	00602825 	move	a1,v1
  402078:	0060a025 	move	s4,v1
  40207c:	8fbc0018 	lw	gp,24(sp)
  402080:	1000fed5 	b	401bd8 <printf_core+0xd10>
  402084:	00409825 	move	s3,v0
  402088:	1000ff4b 	b	401db8 <printf_core+0xef0>
  40208c:	0214a821 	addu	s5,s0,s4
  402090:	07c10002 	bgez	s8,40209c <printf_core+0x11d4>
  402094:	00000000 	nop
  402098:	241e0006 	li	s8,6
  40209c:	8f9980a4 	lw	t9,-32604(gp)
  4020a0:	00003025 	move	a2,zero
  4020a4:	00003825 	move	a3,zero
  4020a8:	02e02025 	move	a0,s7
  4020ac:	041112e8 	bal	406c50 <__eqdf2>
  4020b0:	02c02825 	move	a1,s6
  4020b4:	8fbc0018 	lw	gp,24(sp)
  4020b8:	1040000c 	beqz	v0,4020ec <printf_core+0x1224>
  4020bc:	02e02025 	move	a0,s7
  4020c0:	8f9980b4 	lw	t9,-32588(gp)
  4020c4:	8fa602d0 	lw	a2,720(sp)
  4020c8:	8fa702d4 	lw	a3,724(sp)
  4020cc:	0411130c 	bal	406d00 <__muldf3>
  4020d0:	02c02825 	move	a1,s6
  4020d4:	00409825 	move	s3,v0
  4020d8:	8fa20278 	lw	v0,632(sp)
  4020dc:	8fbc0018 	lw	gp,24(sp)
  4020e0:	2442ffe4 	addiu	v0,v0,-28
  4020e4:	0060a025 	move	s4,v1
  4020e8:	afa20278 	sw	v0,632(sp)
  4020ec:	8fb60278 	lw	s6,632(sp)
  4020f0:	27a20140 	addiu	v0,sp,320
  4020f4:	06c10003 	bgez	s6,402104 <printf_core+0x123c>
  4020f8:	afa20294 	sw	v0,660(sp)
  4020fc:	27a20020 	addiu	v0,sp,32
  402100:	afa20294 	sw	v0,660(sp)
  402104:	8fb70294 	lw	s7,660(sp)
  402108:	8f9980b8 	lw	t9,-32584(gp)
  40210c:	02802825 	move	a1,s4
  402110:	02602025 	move	a0,s3
  402114:	afb302b8 	sw	s3,696(sp)
  402118:	04111725 	bal	407db0 <__fixunsdfsi>
  40211c:	afb402b0 	sw	s4,688(sp)
  402120:	8fbc0018 	lw	gp,24(sp)
  402124:	00402025 	move	a0,v0
  402128:	8f9980bc 	lw	t9,-32580(gp)
  40212c:	00000000 	nop
  402130:	0411178b 	bal	407f60 <__floatunsidf>
  402134:	aee20000 	sw	v0,0(s7)
  402138:	8fbc0018 	lw	gp,24(sp)
  40213c:	02602025 	move	a0,s3
  402140:	8f9980a8 	lw	t9,-32600(gp)
  402144:	02802825 	move	a1,s4
  402148:	00403025 	move	a2,v0
  40214c:	04111474 	bal	407320 <__subdf3>
  402150:	00603825 	move	a3,v1
  402154:	8fbc0018 	lw	gp,24(sp)
  402158:	8fa602c8 	lw	a2,712(sp)
  40215c:	8f9980b4 	lw	t9,-32588(gp)
  402160:	8fa702cc 	lw	a3,716(sp)
  402164:	00402025 	move	a0,v0
  402168:	041112e5 	bal	406d00 <__muldf3>
  40216c:	00602825 	move	a1,v1
  402170:	8fbc0018 	lw	gp,24(sp)
  402174:	00003025 	move	a2,zero
  402178:	8f9980a4 	lw	t9,-32604(gp)
  40217c:	00003825 	move	a3,zero
  402180:	00402025 	move	a0,v0
  402184:	00602825 	move	a1,v1
  402188:	00409825 	move	s3,v0
  40218c:	041112b0 	bal	406c50 <__eqdf2>
  402190:	0060a025 	move	s4,v1
  402194:	8fbc0018 	lw	gp,24(sp)
  402198:	1440ffdb 	bnez	v0,402108 <printf_core+0x1240>
  40219c:	26f70004 	addiu	s7,s7,4
  4021a0:	8faa0294 	lw	t2,660(sp)
  4021a4:	1ec00073 	bgtz	s6,402374 <printf_core+0x14ac>
  4021a8:	00000000 	nop
  4021ac:	10400002 	beqz	v0,4021b8 <printf_core+0x12f0>
  4021b0:	27c20019 	addiu	v0,s8,25
  4021b4:	afb60278 	sw	s6,632(sp)
  4021b8:	24030009 	li	v1,9
  4021bc:	14600002 	bnez	v1,4021c8 <printf_core+0x1300>
  4021c0:	0043001b 	divu	zero,v0,v1
  4021c4:	0007000d 	break	0x7
  4021c8:	3c0b3b9a 	lui	t3,0x3b9a
  4021cc:	8fa20278 	lw	v0,632(sp)
  4021d0:	00001825 	move	v1,zero
  4021d4:	240e0001 	li	t6,1
  4021d8:	356bca00 	ori	t3,t3,0xca00
  4021dc:	240f0066 	li	t7,102
  4021e0:	00003012 	mflo	a2
  4021e4:	24c60001 	addiu	a2,a2,1
  4021e8:	00066880 	sll	t5,a2,0x2
  4021ec:	0440009a 	bltz	v0,402458 <printf_core+0x1590>
  4021f0:	00000000 	nop
  4021f4:	10600002 	beqz	v1,402200 <printf_core+0x1338>
  4021f8:	00000000 	nop
  4021fc:	afa20278 	sw	v0,632(sp)
  402200:	0157102b 	sltu	v0,t2,s7
  402204:	1040000b 	beqz	v0,402234 <printf_core+0x136c>
  402208:	0000b025 	move	s6,zero
  40220c:	8fa20294 	lw	v0,660(sp)
  402210:	8d440000 	lw	a0,0(t2)
  402214:	004ab023 	subu	s6,v0,t2
  402218:	00161083 	sra	v0,s6,0x2
  40221c:	0002b0c0 	sll	s6,v0,0x3
  402220:	02c2b021 	addu	s6,s6,v0
  402224:	2402000a 	li	v0,10
  402228:	0082182b 	sltu	v1,a0,v0
  40222c:	106000b7 	beqz	v1,40250c <printf_core+0x1644>
  402230:	00021880 	sll	v1,v0,0x2
  402234:	8fa202a4 	lw	v0,676(sp)
  402238:	8fa502a4 	lw	a1,676(sp)
  40223c:	38420066 	xori	v0,v0,0x66
  402240:	0002102b 	sltu	v0,zero,v0
  402244:	00560018 	mult	v0,s6
  402248:	24040067 	li	a0,103
  40224c:	00001825 	move	v1,zero
  402250:	00001012 	mflo	v0
  402254:	14a40002 	bne	a1,a0,402260 <printf_core+0x1398>
  402258:	03c21023 	subu	v0,s8,v0
  40225c:	001e182b 	sltu	v1,zero,s8
  402260:	00431023 	subu	v0,v0,v1
  402264:	8fa30294 	lw	v1,660(sp)
  402268:	00000000 	nop
  40226c:	02e31823 	subu	v1,s7,v1
  402270:	00031883 	sra	v1,v1,0x2
  402274:	2463ffff 	addiu	v1,v1,-1
  402278:	000320c0 	sll	a0,v1,0x3
  40227c:	00831821 	addu	v1,a0,v1
  402280:	0043182a 	slt	v1,v0,v1
  402284:	106000dd 	beqz	v1,4025fc <printf_core+0x1734>
  402288:	0157a02b 	sltu	s4,t2,s7
  40228c:	24422400 	addiu	v0,v0,9216
  402290:	24030009 	li	v1,9
  402294:	14600002 	bnez	v1,4022a0 <printf_core+0x13d8>
  402298:	0043001a 	div	zero,v0,v1
  40229c:	0007000d 	break	0x7
  4022a0:	8fa30294 	lw	v1,660(sp)
  4022a4:	2414000a 	li	s4,10
  4022a8:	24040009 	li	a0,9
  4022ac:	00009812 	mflo	s3
  4022b0:	00139880 	sll	s3,s3,0x2
  4022b4:	2673f004 	addiu	s3,s3,-4092
  4022b8:	00001010 	mfhi	v0
  4022bc:	00739821 	addu	s3,v1,s3
  4022c0:	24420001 	addiu	v0,v0,1
  4022c4:	14440095 	bne	v0,a0,40251c <printf_core+0x1654>
  4022c8:	00141880 	sll	v1,s4,0x2
  4022cc:	8e680000 	lw	t0,0(s3)
  4022d0:	00000000 	nop
  4022d4:	16800002 	bnez	s4,4022e0 <printf_core+0x1418>
  4022d8:	0114001b 	divu	zero,t0,s4
  4022dc:	0007000d 	break	0x7
  4022e0:	00002810 	mfhi	a1
  4022e4:	00001012 	mflo	v0
  4022e8:	14a00003 	bnez	a1,4022f8 <printf_core+0x1430>
  4022ec:	26630004 	addiu	v1,s3,4
  4022f0:	12e300bc 	beq	s7,v1,4025e4 <printf_core+0x171c>
  4022f4:	00000000 	nop
  4022f8:	30420001 	andi	v0,v0,0x1
  4022fc:	1440000c 	bnez	v0,402330 <printf_core+0x1468>
  402300:	3c023b9a 	lui	v0,0x3b9a
  402304:	3442ca00 	ori	v0,v0,0xca00
  402308:	16820088 	bne	s4,v0,40252c <printf_core+0x1664>
  40230c:	00000000 	nop
  402310:	0153102b 	sltu	v0,t2,s3
  402314:	10400085 	beqz	v0,40252c <printf_core+0x1664>
  402318:	00000000 	nop
  40231c:	8e62fffc 	lw	v0,-4(s3)
  402320:	00000000 	nop
  402324:	30420001 	andi	v0,v0,0x1
  402328:	10400080 	beqz	v0,40252c <printf_core+0x1664>
  40232c:	00000000 	nop
  402330:	8f82801c 	lw	v0,-32740(gp)
  402334:	24040001 	li	a0,1
  402338:	8c42853c 	lw	v0,-31428(v0)
  40233c:	00141843 	sra	v1,s4,0x1
  402340:	00a3302b 	sltu	a2,a1,v1
  402344:	14c0007e 	bnez	a2,402540 <printf_core+0x1678>
  402348:	00000000 	nop
  40234c:	14a30004 	bne	a1,v1,402360 <printf_core+0x1498>
  402350:	00000000 	nop
  402354:	26630004 	addiu	v1,s3,4
  402358:	12e3014e 	beq	s7,v1,402894 <printf_core+0x19cc>
  40235c:	00000000 	nop
  402360:	8f83801c 	lw	v1,-32740(gp)
  402364:	00000000 	nop
  402368:	8c638544 	lw	v1,-31420(v1)
  40236c:	10000077 	b	40254c <printf_core+0x1684>
  402370:	00000000 	nop
  402374:	2ac2001e 	slti	v0,s6,30
  402378:	14400002 	bnez	v0,402384 <printf_core+0x14bc>
  40237c:	02c0a025 	move	s4,s6
  402380:	2414001d 	li	s4,29
  402384:	26f3fffc 	addiu	s3,s7,-4
  402388:	00003825 	move	a3,zero
  40238c:	026a102b 	sltu	v0,s3,t2
  402390:	1040000f 	beqz	v0,4023d0 <printf_core+0x1508>
  402394:	02803025 	move	a2,s4
  402398:	10e00004 	beqz	a3,4023ac <printf_core+0x14e4>
  40239c:	0157102b 	sltu	v0,t2,s7
  4023a0:	ad47fffc 	sw	a3,-4(t2)
  4023a4:	254afffc 	addiu	t2,t2,-4
  4023a8:	0157102b 	sltu	v0,t2,s7
  4023ac:	10400005 	beqz	v0,4023c4 <printf_core+0x14fc>
  4023b0:	00000000 	nop
  4023b4:	8ee2fffc 	lw	v0,-4(s7)
  4023b8:	00000000 	nop
  4023bc:	10400024 	beqz	v0,402450 <printf_core+0x1588>
  4023c0:	00000000 	nop
  4023c4:	02d4b023 	subu	s6,s6,s4
  4023c8:	1000ff76 	b	4021a4 <printf_core+0x12dc>
  4023cc:	24020001 	li	v0,1
  4023d0:	8f9980c0 	lw	t9,-32576(gp)
  4023d4:	8e640000 	lw	a0,0(s3)
  4023d8:	afaa02bc 	sw	t2,700(sp)
  4023dc:	afa702b0 	sw	a3,688(sp)
  4023e0:	041109df 	bal	404b60 <__ashldi3>
  4023e4:	00002825 	move	a1,zero
  4023e8:	8fa702b0 	lw	a3,688(sp)
  4023ec:	8fbc0018 	lw	gp,24(sp)
  4023f0:	00472021 	addu	a0,v0,a3
  4023f4:	0082102b 	sltu	v0,a0,v0
  4023f8:	00432821 	addu	a1,v0,v1
  4023fc:	3c063b9a 	lui	a2,0x3b9a
  402400:	8f998080 	lw	t9,-32640(gp)
  402404:	34c6ca00 	ori	a2,a2,0xca00
  402408:	00003825 	move	a3,zero
  40240c:	afa402b8 	sw	a0,696(sp)
  402410:	04110e4f 	bal	405d50 <__umoddi3>
  402414:	afa502b0 	sw	a1,688(sp)
  402418:	8fbc0018 	lw	gp,24(sp)
  40241c:	8fa402b8 	lw	a0,696(sp)
  402420:	8f998084 	lw	t9,-32636(gp)
  402424:	8fa502b0 	lw	a1,688(sp)
  402428:	3c063b9a 	lui	a2,0x3b9a
  40242c:	ae620000 	sw	v0,0(s3)
  402430:	00003825 	move	a3,zero
  402434:	04110cce 	bal	405770 <__udivdi3>
  402438:	34c6ca00 	ori	a2,a2,0xca00
  40243c:	00403825 	move	a3,v0
  402440:	8fbc0018 	lw	gp,24(sp)
  402444:	8faa02bc 	lw	t2,700(sp)
  402448:	1000ffd0 	b	40238c <printf_core+0x14c4>
  40244c:	2673fffc 	addiu	s3,s3,-4
  402450:	1000ffd5 	b	4023a8 <printf_core+0x14e0>
  402454:	26f7fffc 	addiu	s7,s7,-4
  402458:	2843fff7 	slti	v1,v0,-9
  40245c:	14600002 	bnez	v1,402468 <printf_core+0x15a0>
  402460:	24040009 	li	a0,9
  402464:	00022023 	negu	a0,v0
  402468:	008e6004 	sllv	t4,t6,a0
  40246c:	258cffff 	addiu	t4,t4,-1
  402470:	008bc007 	srav	t8,t3,a0
  402474:	01402825 	move	a1,t2
  402478:	00001825 	move	v1,zero
  40247c:	00b7382b 	sltu	a3,a1,s7
  402480:	14e00018 	bnez	a3,4024e4 <printf_core+0x161c>
  402484:	00000000 	nop
  402488:	8d450000 	lw	a1,0(t2)
  40248c:	00000000 	nop
  402490:	14a00002 	bnez	a1,40249c <printf_core+0x15d4>
  402494:	00000000 	nop
  402498:	254a0004 	addiu	t2,t2,4
  40249c:	10600003 	beqz	v1,4024ac <printf_core+0x15e4>
  4024a0:	00000000 	nop
  4024a4:	aee30000 	sw	v1,0(s7)
  4024a8:	26f70004 	addiu	s7,s7,4
  4024ac:	8fa302a4 	lw	v1,676(sp)
  4024b0:	8fa50294 	lw	a1,660(sp)
  4024b4:	106f0003 	beq	v1,t7,4024c4 <printf_core+0x15fc>
  4024b8:	02e51823 	subu	v1,s7,a1
  4024bc:	01402825 	move	a1,t2
  4024c0:	02e51823 	subu	v1,s7,a1
  4024c4:	00031883 	sra	v1,v1,0x2
  4024c8:	00c3182a 	slt	v1,a2,v1
  4024cc:	10600002 	beqz	v1,4024d8 <printf_core+0x1610>
  4024d0:	00000000 	nop
  4024d4:	00adb821 	addu	s7,a1,t5
  4024d8:	00441021 	addu	v0,v0,a0
  4024dc:	1000ff43 	b	4021ec <printf_core+0x1324>
  4024e0:	24030001 	li	v1,1
  4024e4:	8ca70000 	lw	a3,0(a1)
  4024e8:	24a50004 	addiu	a1,a1,4
  4024ec:	0087c806 	srlv	t9,a3,a0
  4024f0:	01873824 	and	a3,t4,a3
  4024f4:	00f80018 	mult	a3,t8
  4024f8:	03231821 	addu	v1,t9,v1
  4024fc:	aca3fffc 	sw	v1,-4(a1)
  402500:	00001812 	mflo	v1
  402504:	1000ffde 	b	402480 <printf_core+0x15b8>
  402508:	00b7382b 	sltu	a3,a1,s7
  40250c:	00621021 	addu	v0,v1,v0
  402510:	00021040 	sll	v0,v0,0x1
  402514:	1000ff44 	b	402228 <printf_core+0x1360>
  402518:	26d60001 	addiu	s6,s6,1
  40251c:	0074a021 	addu	s4,v1,s4
  402520:	0014a040 	sll	s4,s4,0x1
  402524:	1000ff67 	b	4022c4 <printf_core+0x13fc>
  402528:	24420001 	addiu	v0,v0,1
  40252c:	8f82801c 	lw	v0,-32740(gp)
  402530:	00000000 	nop
  402534:	8c428534 	lw	v0,-31436(v0)
  402538:	1000ff80 	b	40233c <printf_core+0x1474>
  40253c:	00002025 	move	a0,zero
  402540:	8f83801c 	lw	v1,-32740(gp)
  402544:	00000000 	nop
  402548:	8c638554 	lw	v1,-31404(v1)
  40254c:	8fa6029c 	lw	a2,668(sp)
  402550:	00000000 	nop
  402554:	10c00009 	beqz	a2,40257c <printf_core+0x16b4>
  402558:	00000000 	nop
  40255c:	8fa60298 	lw	a2,664(sp)
  402560:	00000000 	nop
  402564:	80c70000 	lb	a3,0(a2)
  402568:	2406002d 	li	a2,45
  40256c:	14e60003 	bne	a3,a2,40257c <printf_core+0x16b4>
  402570:	3c068000 	lui	a2,0x8000
  402574:	00c21026 	xor	v0,a2,v0
  402578:	00c31826 	xor	v1,a2,v1
  40257c:	01054023 	subu	t0,t0,a1
  402580:	8f9980a0 	lw	t9,-32608(gp)
  402584:	00005825 	move	t3,zero
  402588:	afaa02c4 	sw	t2,708(sp)
  40258c:	afa802bc 	sw	t0,700(sp)
  402590:	01603025 	move	a2,t3
  402594:	00603825 	move	a3,v1
  402598:	afa402b8 	sw	a0,696(sp)
  40259c:	00402825 	move	a1,v0
  4025a0:	04110f47 	bal	4062c0 <__adddf3>
  4025a4:	afa202b0 	sw	v0,688(sp)
  4025a8:	8fbc0018 	lw	gp,24(sp)
  4025ac:	8fac02b8 	lw	t4,696(sp)
  4025b0:	8fab02b0 	lw	t3,688(sp)
  4025b4:	8f9980a4 	lw	t9,-32604(gp)
  4025b8:	00403025 	move	a2,v0
  4025bc:	00603825 	move	a3,v1
  4025c0:	01802025 	move	a0,t4
  4025c4:	041111a2 	bal	406c50 <__eqdf2>
  4025c8:	01602825 	move	a1,t3
  4025cc:	8fbc0018 	lw	gp,24(sp)
  4025d0:	8fa802bc 	lw	t0,700(sp)
  4025d4:	8faa02c4 	lw	t2,708(sp)
  4025d8:	144000b3 	bnez	v0,4028a8 <printf_core+0x19e0>
  4025dc:	0288a021 	addu	s4,s4,t0
  4025e0:	ae680000 	sw	t0,0(s3)
  4025e4:	26730004 	addiu	s3,s3,4
  4025e8:	0277102b 	sltu	v0,s3,s7
  4025ec:	10400003 	beqz	v0,4025fc <printf_core+0x1734>
  4025f0:	0157a02b 	sltu	s4,t2,s7
  4025f4:	0260b825 	move	s7,s3
  4025f8:	0157a02b 	sltu	s4,t2,s7
  4025fc:	12800005 	beqz	s4,402614 <printf_core+0x174c>
  402600:	00000000 	nop
  402604:	8ee2fffc 	lw	v0,-4(s7)
  402608:	00000000 	nop
  40260c:	104000c7 	beqz	v0,40292c <printf_core+0x1a64>
  402610:	00000000 	nop
  402614:	8fa302a4 	lw	v1,676(sp)
  402618:	24020067 	li	v0,103
  40261c:	14620027 	bne	v1,v0,4026bc <printf_core+0x17f4>
  402620:	3c027fff 	lui	v0,0x7fff
  402624:	17c00003 	bnez	s8,402634 <printf_core+0x176c>
  402628:	02de102a 	slt	v0,s6,s8
  40262c:	241e0001 	li	s8,1
  402630:	02de102a 	slt	v0,s6,s8
  402634:	104000bf 	beqz	v0,402934 <printf_core+0x1a6c>
  402638:	2ac2fffc 	slti	v0,s6,-4
  40263c:	144000bd 	bnez	v0,402934 <printf_core+0x1a6c>
  402640:	26c20001 	addiu	v0,s6,1
  402644:	26b5ffff 	addiu	s5,s5,-1
  402648:	03c2f023 	subu	s8,s8,v0
  40264c:	32220008 	andi	v0,s1,0x8
  402650:	1440001a 	bnez	v0,4026bc <printf_core+0x17f4>
  402654:	3c027fff 	lui	v0,0x7fff
  402658:	12800005 	beqz	s4,402670 <printf_core+0x17a8>
  40265c:	24050009 	li	a1,9
  402660:	8ee2fffc 	lw	v0,-4(s7)
  402664:	00000000 	nop
  402668:	144000c0 	bnez	v0,40296c <printf_core+0x1aa4>
  40266c:	00000000 	nop
  402670:	8fa20294 	lw	v0,660(sp)
  402674:	24060066 	li	a2,102
  402678:	02e21023 	subu	v0,s7,v0
  40267c:	00021083 	sra	v0,v0,0x2
  402680:	2444ffff 	addiu	a0,v0,-1
  402684:	000410c0 	sll	v0,a0,0x3
  402688:	00441021 	addu	v0,v0,a0
  40268c:	36a40020 	ori	a0,s5,0x20
  402690:	148600b9 	bne	a0,a2,402978 <printf_core+0x1ab0>
  402694:	00000000 	nop
  402698:	00451023 	subu	v0,v0,a1
  40269c:	04410003 	bgez	v0,4026ac <printf_core+0x17e4>
  4026a0:	005e202a 	slt	a0,v0,s8
  4026a4:	00001025 	move	v0,zero
  4026a8:	005e202a 	slt	a0,v0,s8
  4026ac:	10800002 	beqz	a0,4026b8 <printf_core+0x17f0>
  4026b0:	00000000 	nop
  4026b4:	0040f025 	move	s8,v0
  4026b8:	3c027fff 	lui	v0,0x7fff
  4026bc:	3442fffe 	ori	v0,v0,0xfffe
  4026c0:	03c2202a 	slt	a0,s8,v0
  4026c4:	1080fcc4 	beqz	a0,4019d8 <printf_core+0xb10>
  4026c8:	00000000 	nop
  4026cc:	32230008 	andi	v1,s1,0x8
  4026d0:	afa302b8 	sw	v1,696(sp)
  4026d4:	03c31825 	or	v1,s8,v1
  4026d8:	0003982b 	sltu	s3,zero,v1
  4026dc:	27c40001 	addiu	a0,s8,1
  4026e0:	02643821 	addu	a3,s3,a0
  4026e4:	afa302b0 	sw	v1,688(sp)
  4026e8:	24530001 	addiu	s3,v0,1
  4026ec:	36a30020 	ori	v1,s5,0x20
  4026f0:	24020066 	li	v0,102
  4026f4:	afa302bc 	sw	v1,700(sp)
  4026f8:	146200a1 	bne	v1,v0,402980 <printf_core+0x1ab8>
  4026fc:	02679823 	subu	s3,s3,a3
  402700:	0276982a 	slt	s3,s3,s6
  402704:	1660fcb4 	bnez	s3,4019d8 <printf_core+0xb10>
  402708:	00000000 	nop
  40270c:	1ac00002 	blez	s6,402718 <printf_core+0x1850>
  402710:	00000000 	nop
  402714:	00f63821 	addu	a3,a3,s6
  402718:	8fa2029c 	lw	v0,668(sp)
  40271c:	00000000 	nop
  402720:	10400007 	beqz	v0,402740 <printf_core+0x1878>
  402724:	00000000 	nop
  402728:	3c027fff 	lui	v0,0x7fff
  40272c:	3442fffe 	ori	v0,v0,0xfffe
  402730:	0047102a 	slt	v0,v0,a3
  402734:	1440fca8 	bnez	v0,4019d8 <printf_core+0xb10>
  402738:	00000000 	nop
  40273c:	8fa2029c 	lw	v0,668(sp)
  402740:	8fa60288 	lw	a2,648(sp)
  402744:	00479821 	addu	s3,v0,a3
  402748:	8f828018 	lw	v0,-32744(gp)
  40274c:	afaa02c4 	sw	t2,708(sp)
  402750:	24420de8 	addiu	v0,v0,3560
  402754:	02603825 	move	a3,s3
  402758:	0040c825 	move	t9,v0
  40275c:	24050020 	li	a1,32
  402760:	02402025 	move	a0,s2
  402764:	afa202a4 	sw	v0,676(sp)
  402768:	0411f99f 	bal	400de8 <pad>
  40276c:	afb10010 	sw	s1,16(sp)
  402770:	8fa202a0 	lw	v0,672(sp)
  402774:	8fa50298 	lw	a1,664(sp)
  402778:	24420dac 	addiu	v0,v0,3500
  40277c:	8fa6029c 	lw	a2,668(sp)
  402780:	0040c825 	move	t9,v0
  402784:	02402025 	move	a0,s2
  402788:	0411f988 	bal	400dac <out>
  40278c:	afa20298 	sw	v0,664(sp)
  402790:	3c020001 	lui	v0,0x1
  402794:	02221026 	xor	v0,s1,v0
  402798:	8fa60288 	lw	a2,648(sp)
  40279c:	8fb902a4 	lw	t9,676(sp)
  4027a0:	afa20010 	sw	v0,16(sp)
  4027a4:	02603825 	move	a3,s3
  4027a8:	24050030 	li	a1,48
  4027ac:	0320f809 	jalr	t9
  4027b0:	02402025 	move	a0,s2
  4027b4:	8fa302bc 	lw	v1,700(sp)
  4027b8:	24020066 	li	v0,102
  4027bc:	8fbc0018 	lw	gp,24(sp)
  4027c0:	8faa02c4 	lw	t2,708(sp)
  4027c4:	146200e0 	bne	v1,v0,402b48 <printf_core+0x1c80>
  4027c8:	00000000 	nop
  4027cc:	8fb40294 	lw	s4,660(sp)
  4027d0:	00000000 	nop
  4027d4:	0154102b 	sltu	v0,t2,s4
  4027d8:	10400002 	beqz	v0,4027e4 <printf_core+0x191c>
  4027dc:	00000000 	nop
  4027e0:	0140a025 	move	s4,t2
  4027e4:	8f968018 	lw	s6,-32744(gp)
  4027e8:	27a20249 	addiu	v0,sp,585
  4027ec:	afa2029c 	sw	v0,668(sp)
  4027f0:	26c20c7c 	addiu	v0,s6,3196
  4027f4:	0280a825 	move	s5,s4
  4027f8:	afa202b8 	sw	v0,696(sp)
  4027fc:	27b60240 	addiu	s6,sp,576
  402800:	8fa20294 	lw	v0,660(sp)
  402804:	00000000 	nop
  402808:	0055102b 	sltu	v0,v0,s5
  40280c:	1040007f 	beqz	v0,402a0c <printf_core+0x1b44>
  402810:	00000000 	nop
  402814:	8fa20294 	lw	v0,660(sp)
  402818:	00000000 	nop
  40281c:	24430001 	addiu	v1,v0,1
  402820:	2682fffd 	addiu	v0,s4,-3
  402824:	0062182b 	sltu	v1,v1,v0
  402828:	14600007 	bnez	v1,402848 <printf_core+0x1980>
  40282c:	00001025 	move	v0,zero
  402830:	8fa20294 	lw	v0,660(sp)
  402834:	00000000 	nop
  402838:	24420004 	addiu	v0,v0,4
  40283c:	00541023 	subu	v0,v0,s4
  402840:	00021082 	srl	v0,v0,0x2
  402844:	00021080 	sll	v0,v0,0x2
  402848:	0282a021 	addu	s4,s4,v0
  40284c:	8fa202b0 	lw	v0,688(sp)
  402850:	00000000 	nop
  402854:	10400008 	beqz	v0,402878 <printf_core+0x19b0>
  402858:	24060001 	li	a2,1
  40285c:	8f85801c 	lw	a1,-32740(gp)
  402860:	8fb90298 	lw	t9,664(sp)
  402864:	24a58240 	addiu	a1,a1,-32192
  402868:	0320f809 	jalr	t9
  40286c:	02402025 	move	a0,s2
  402870:	8fbc0018 	lw	gp,24(sp)
  402874:	03c08025 	move	s0,s8
  402878:	8f958018 	lw	s5,-32744(gp)
  40287c:	27a20249 	addiu	v0,sp,585
  402880:	afa20294 	sw	v0,660(sp)
  402884:	26b50c7c 	addiu	s5,s5,3196
  402888:	27b60240 	addiu	s6,sp,576
  40288c:	10000098 	b	402af0 <printf_core+0x1c28>
  402890:	241e0030 	li	s8,48
  402894:	8f83801c 	lw	v1,-32740(gp)
  402898:	00000000 	nop
  40289c:	8c63854c 	lw	v1,-31412(v1)
  4028a0:	1000ff2a 	b	40254c <printf_core+0x1684>
  4028a4:	00000000 	nop
  4028a8:	3c033b9a 	lui	v1,0x3b9a
  4028ac:	ae740000 	sw	s4,0(s3)
  4028b0:	3463ca00 	ori	v1,v1,0xca00
  4028b4:	8e620000 	lw	v0,0(s3)
  4028b8:	00000000 	nop
  4028bc:	0043102b 	sltu	v0,v0,v1
  4028c0:	1040000f 	beqz	v0,402900 <printf_core+0x1a38>
  4028c4:	00000000 	nop
  4028c8:	8fa20294 	lw	v0,660(sp)
  4028cc:	8d440000 	lw	a0,0(t2)
  4028d0:	004ab023 	subu	s6,v0,t2
  4028d4:	00161083 	sra	v0,s6,0x2
  4028d8:	0002b0c0 	sll	s6,v0,0x3
  4028dc:	02c2b021 	addu	s6,s6,v0
  4028e0:	2402000a 	li	v0,10
  4028e4:	0082182b 	sltu	v1,a0,v0
  4028e8:	1460ff3e 	bnez	v1,4025e4 <printf_core+0x171c>
  4028ec:	00021880 	sll	v1,v0,0x2
  4028f0:	00621021 	addu	v0,v1,v0
  4028f4:	00021040 	sll	v0,v0,0x1
  4028f8:	1000fffa 	b	4028e4 <printf_core+0x1a1c>
  4028fc:	26d60001 	addiu	s6,s6,1
  402900:	2673fffc 	addiu	s3,s3,-4
  402904:	026a102b 	sltu	v0,s3,t2
  402908:	10400003 	beqz	v0,402918 <printf_core+0x1a50>
  40290c:	ae600004 	sw	zero,4(s3)
  402910:	ad40fffc 	sw	zero,-4(t2)
  402914:	254afffc 	addiu	t2,t2,-4
  402918:	8e620000 	lw	v0,0(s3)
  40291c:	00000000 	nop
  402920:	24420001 	addiu	v0,v0,1
  402924:	1000ffe3 	b	4028b4 <printf_core+0x19ec>
  402928:	ae620000 	sw	v0,0(s3)
  40292c:	1000ff32 	b	4025f8 <printf_core+0x1730>
  402930:	26f7fffc 	addiu	s7,s7,-4
  402934:	26b5fffe 	addiu	s5,s5,-2
  402938:	1000ff44 	b	40264c <printf_core+0x1784>
  40293c:	27deffff 	addiu	s8,s8,-1
  402940:	00c42021 	addu	a0,a2,a0
  402944:	00042040 	sll	a0,a0,0x1
  402948:	24a50001 	addiu	a1,a1,1
  40294c:	14800002 	bnez	a0,402958 <printf_core+0x1a90>
  402950:	0044001b 	divu	zero,v0,a0
  402954:	0007000d 	break	0x7
  402958:	00003010 	mfhi	a2
  40295c:	10c0fff8 	beqz	a2,402940 <printf_core+0x1a78>
  402960:	00043080 	sll	a2,a0,0x2
  402964:	1000ff42 	b	402670 <printf_core+0x17a8>
  402968:	00000000 	nop
  40296c:	00002825 	move	a1,zero
  402970:	1000fff6 	b	40294c <printf_core+0x1a84>
  402974:	2404000a 	li	a0,10
  402978:	1000ff47 	b	402698 <printf_core+0x17d0>
  40297c:	02c21021 	addu	v0,s6,v0
  402980:	001617c3 	sra	v0,s6,0x1f
  402984:	8f998018 	lw	t9,-32744(gp)
  402988:	00562026 	xor	a0,v0,s6
  40298c:	27a60264 	addiu	a2,sp,612
  402990:	00822023 	subu	a0,a0,v0
  402994:	afa702c4 	sw	a3,708(sp)
  402998:	afaa02ac 	sw	t2,684(sp)
  40299c:	afa602a4 	sw	a2,676(sp)
  4029a0:	27390c7c 	addiu	t9,t9,3196
  4029a4:	0411f8b5 	bal	400c7c <fmt_u>
  4029a8:	00042fc3 	sra	a1,a0,0x1f
  4029ac:	8fbc0018 	lw	gp,24(sp)
  4029b0:	8fa602a4 	lw	a2,676(sp)
  4029b4:	8faa02ac 	lw	t2,684(sp)
  4029b8:	8fa702c4 	lw	a3,708(sp)
  4029bc:	24050030 	li	a1,48
  4029c0:	00c22023 	subu	a0,a2,v0
  4029c4:	28840002 	slti	a0,a0,2
  4029c8:	1480000d 	bnez	a0,402a00 <printf_core+0x1b38>
  4029cc:	00000000 	nop
  4029d0:	06c00002 	bltz	s6,4029dc <printf_core+0x1b14>
  4029d4:	2404002d 	li	a0,45
  4029d8:	2404002b 	li	a0,43
  4029dc:	2443fffe 	addiu	v1,v0,-2
  4029e0:	00c33023 	subu	a2,a2,v1
  4029e4:	0266982a 	slt	s3,s3,a2
  4029e8:	a044ffff 	sb	a0,-1(v0)
  4029ec:	afa302ac 	sw	v1,684(sp)
  4029f0:	1660fbf9 	bnez	s3,4019d8 <printf_core+0xb10>
  4029f4:	a055fffe 	sb	s5,-2(v0)
  4029f8:	1000ff47 	b	402718 <printf_core+0x1850>
  4029fc:	00e63821 	addu	a3,a3,a2
  402a00:	2442ffff 	addiu	v0,v0,-1
  402a04:	1000ffee 	b	4029c0 <printf_core+0x1af8>
  402a08:	a0450000 	sb	a1,0(v0)
  402a0c:	8fa6029c 	lw	a2,668(sp)
  402a10:	8ea40000 	lw	a0,0(s5)
  402a14:	8fb902b8 	lw	t9,696(sp)
  402a18:	00000000 	nop
  402a1c:	0320f809 	jalr	t9
  402a20:	00002825 	move	a1,zero
  402a24:	1695000b 	bne	s4,s5,402a54 <printf_core+0x1b8c>
  402a28:	00402825 	move	a1,v0
  402a2c:	8fa2029c 	lw	v0,668(sp)
  402a30:	00000000 	nop
  402a34:	14a20010 	bne	a1,v0,402a78 <printf_core+0x1bb0>
  402a38:	00000000 	nop
  402a3c:	24020030 	li	v0,48
  402a40:	a3a20248 	sb	v0,584(sp)
  402a44:	1000000b 	b	402a74 <printf_core+0x1bac>
  402a48:	27a50248 	addiu	a1,sp,584
  402a4c:	24030030 	li	v1,48
  402a50:	a0430000 	sb	v1,0(v0)
  402a54:	02c2202b 	sltu	a0,s6,v0
  402a58:	1480fffc 	bnez	a0,402a4c <printf_core+0x1b84>
  402a5c:	2442ffff 	addiu	v0,v0,-1
  402a60:	00b6102b 	sltu	v0,a1,s6
  402a64:	14400002 	bnez	v0,402a70 <printf_core+0x1ba8>
  402a68:	00002025 	move	a0,zero
  402a6c:	02c52023 	subu	a0,s6,a1
  402a70:	00a42821 	addu	a1,a1,a0
  402a74:	8fa2029c 	lw	v0,668(sp)
  402a78:	8fb90298 	lw	t9,664(sp)
  402a7c:	00453023 	subu	a2,v0,a1
  402a80:	0320f809 	jalr	t9
  402a84:	02402025 	move	a0,s2
  402a88:	8fbc0018 	lw	gp,24(sp)
  402a8c:	1000ff5c 	b	402800 <printf_core+0x1938>
  402a90:	26b50004 	addiu	s5,s5,4
  402a94:	8fa60294 	lw	a2,660(sp)
  402a98:	8e840000 	lw	a0,0(s4)
  402a9c:	02a0c825 	move	t9,s5
  402aa0:	0411f876 	bal	400c7c <fmt_u>
  402aa4:	00002825 	move	a1,zero
  402aa8:	00401825 	move	v1,v0
  402aac:	02c3202b 	sltu	a0,s6,v1
  402ab0:	14800023 	bnez	a0,402b40 <printf_core+0x1c78>
  402ab4:	2463ffff 	addiu	v1,v1,-1
  402ab8:	0056182b 	sltu	v1,v0,s6
  402abc:	14600002 	bnez	v1,402ac8 <printf_core+0x1c00>
  402ac0:	00002825 	move	a1,zero
  402ac4:	02c22823 	subu	a1,s6,v0
  402ac8:	2a03000a 	slti	v1,s0,10
  402acc:	14600002 	bnez	v1,402ad8 <printf_core+0x1c10>
  402ad0:	02003025 	move	a2,s0
  402ad4:	24060009 	li	a2,9
  402ad8:	8fb90298 	lw	t9,664(sp)
  402adc:	00452821 	addu	a1,v0,a1
  402ae0:	02402025 	move	a0,s2
  402ae4:	26940004 	addiu	s4,s4,4
  402ae8:	0320f809 	jalr	t9
  402aec:	2610fff7 	addiu	s0,s0,-9
  402af0:	0297102b 	sltu	v0,s4,s7
  402af4:	10400003 	beqz	v0,402b04 <printf_core+0x1c3c>
  402af8:	00000000 	nop
  402afc:	1e00ffe5 	bgtz	s0,402a94 <printf_core+0x1bcc>
  402b00:	00000000 	nop
  402b04:	8fb902a4 	lw	t9,676(sp)
  402b08:	afa00010 	sw	zero,16(sp)
  402b0c:	24070009 	li	a3,9
  402b10:	26060009 	addiu	a2,s0,9
  402b14:	24050030 	li	a1,48
  402b18:	0320f809 	jalr	t9
  402b1c:	02402025 	move	a0,s2
  402b20:	3a312000 	xori	s1,s1,0x2000
  402b24:	8fa60288 	lw	a2,648(sp)
  402b28:	8fb902a4 	lw	t9,676(sp)
  402b2c:	afb10010 	sw	s1,16(sp)
  402b30:	02603825 	move	a3,s3
  402b34:	24050020 	li	a1,32
  402b38:	1000fd21 	b	401fc0 <printf_core+0x10f8>
  402b3c:	02402025 	move	a0,s2
  402b40:	1000ffda 	b	402aac <printf_core+0x1be4>
  402b44:	a07e0000 	sb	s8,0(v1)
  402b48:	16800002 	bnez	s4,402b54 <printf_core+0x1c8c>
  402b4c:	00000000 	nop
  402b50:	25570004 	addiu	s7,t2,4
  402b54:	8f958018 	lw	s5,-32744(gp)
  402b58:	8f96801c 	lw	s6,-32740(gp)
  402b5c:	26a20c7c 	addiu	v0,s5,3196
  402b60:	afa20294 	sw	v0,660(sp)
  402b64:	26c28240 	addiu	v0,s6,-32192
  402b68:	01408025 	move	s0,t2
  402b6c:	27b40249 	addiu	s4,sp,585
  402b70:	afa2029c 	sw	v0,668(sp)
  402b74:	0217102b 	sltu	v0,s0,s7
  402b78:	10400003 	beqz	v0,402b88 <printf_core+0x1cc0>
  402b7c:	00000000 	nop
  402b80:	07c10011 	bgez	s8,402bc8 <printf_core+0x1d00>
  402b84:	00000000 	nop
  402b88:	8fb902a4 	lw	t9,676(sp)
  402b8c:	27c60012 	addiu	a2,s8,18
  402b90:	02402025 	move	a0,s2
  402b94:	afa00010 	sw	zero,16(sp)
  402b98:	24070012 	li	a3,18
  402b9c:	0320f809 	jalr	t9
  402ba0:	24050030 	li	a1,48
  402ba4:	8fa202ac 	lw	v0,684(sp)
  402ba8:	27a60264 	addiu	a2,sp,612
  402bac:	8fb90298 	lw	t9,664(sp)
  402bb0:	00c23023 	subu	a2,a2,v0
  402bb4:	00402825 	move	a1,v0
  402bb8:	0320f809 	jalr	t9
  402bbc:	02402025 	move	a0,s2
  402bc0:	1000ffd8 	b	402b24 <printf_core+0x1c5c>
  402bc4:	3a312000 	xori	s1,s1,0x2000
  402bc8:	8e040000 	lw	a0,0(s0)
  402bcc:	8fb90294 	lw	t9,660(sp)
  402bd0:	afaa02b0 	sw	t2,688(sp)
  402bd4:	00002825 	move	a1,zero
  402bd8:	0320f809 	jalr	t9
  402bdc:	02803025 	move	a2,s4
  402be0:	8faa02b0 	lw	t2,688(sp)
  402be4:	14540004 	bne	v0,s4,402bf8 <printf_core+0x1d30>
  402be8:	00402825 	move	a1,v0
  402bec:	24020030 	li	v0,48
  402bf0:	a3a20248 	sb	v0,584(sp)
  402bf4:	27a50248 	addiu	a1,sp,584
  402bf8:	1150001b 	beq	t2,s0,402c68 <printf_core+0x1da0>
  402bfc:	00a01025 	move	v0,a1
  402c00:	27a30240 	addiu	v1,sp,576
  402c04:	24060030 	li	a2,48
  402c08:	0062202b 	sltu	a0,v1,v0
  402c0c:	14800014 	bnez	a0,402c60 <printf_core+0x1d98>
  402c10:	2442ffff 	addiu	v0,v0,-1
  402c14:	00a3102b 	sltu	v0,a1,v1
  402c18:	14400002 	bnez	v0,402c24 <printf_core+0x1d5c>
  402c1c:	00002025 	move	a0,zero
  402c20:	00652023 	subu	a0,v1,a1
  402c24:	00a4b021 	addu	s6,a1,a0
  402c28:	0296a823 	subu	s5,s4,s6
  402c2c:	02be182a 	slt	v1,s5,s8
  402c30:	10600002 	beqz	v1,402c3c <printf_core+0x1d74>
  402c34:	03c03025 	move	a2,s8
  402c38:	02a03025 	move	a2,s5
  402c3c:	8fb90298 	lw	t9,664(sp)
  402c40:	afaa02b0 	sw	t2,688(sp)
  402c44:	02c02825 	move	a1,s6
  402c48:	0320f809 	jalr	t9
  402c4c:	02402025 	move	a0,s2
  402c50:	03d5f023 	subu	s8,s8,s5
  402c54:	8faa02b0 	lw	t2,688(sp)
  402c58:	1000ffc6 	b	402b74 <printf_core+0x1cac>
  402c5c:	26100004 	addiu	s0,s0,4
  402c60:	1000ffe9 	b	402c08 <printf_core+0x1d40>
  402c64:	a0460000 	sb	a2,0(v0)
  402c68:	8fb90298 	lw	t9,664(sp)
  402c6c:	afaa02b0 	sw	t2,688(sp)
  402c70:	24060001 	li	a2,1
  402c74:	02402025 	move	a0,s2
  402c78:	0320f809 	jalr	t9
  402c7c:	24b60001 	addiu	s6,a1,1
  402c80:	8fa202b8 	lw	v0,696(sp)
  402c84:	8faa02b0 	lw	t2,688(sp)
  402c88:	03c21025 	or	v0,s8,v0
  402c8c:	1040ffe6 	beqz	v0,402c28 <printf_core+0x1d60>
  402c90:	00000000 	nop
  402c94:	8fa5029c 	lw	a1,668(sp)
  402c98:	8fb90298 	lw	t9,664(sp)
  402c9c:	24060001 	li	a2,1
  402ca0:	0320f809 	jalr	t9
  402ca4:	02402025 	move	a0,s2
  402ca8:	8faa02b0 	lw	t2,688(sp)
  402cac:	1000ffdf 	b	402c2c <printf_core+0x1d64>
  402cb0:	0296a823 	subu	s5,s4,s6
  402cb4:	8f96801c 	lw	s6,-32740(gp)
  402cb8:	27b50240 	addiu	s5,sp,576
  402cbc:	1000fa40 	b	4015c0 <printf_core+0x6f8>
  402cc0:	26d68208 	addiu	s6,s6,-32248
  402cc4:	1000fa3e 	b	4015c0 <printf_core+0x6f8>
  402cc8:	02a0a025 	move	s4,s5
  402ccc:	1640f9bb 	bnez	s2,4013bc <printf_core+0x4f4>
  402cd0:	00000000 	nop
  402cd4:	8fa20290 	lw	v0,656(sp)
  402cd8:	00000000 	nop
  402cdc:	1040f9b6 	beqz	v0,4013b8 <printf_core+0x4f0>
  402ce0:	00000000 	nop
  402ce4:	8f998018 	lw	t9,-32744(gp)
  402ce8:	2407000a 	li	a3,10
  402cec:	27390b50 	addiu	t9,t9,2896
  402cf0:	8fa20290 	lw	v0,656(sp)
  402cf4:	8fa30320 	lw	v1,800(sp)
  402cf8:	00021080 	sll	v0,v0,0x2
  402cfc:	00621021 	addu	v0,v1,v0
  402d00:	8c450000 	lw	a1,0(v0)
  402d04:	00000000 	nop
  402d08:	14a00010 	bnez	a1,402d4c <printf_core+0x1e84>
  402d0c:	2403000a 	li	v1,10
  402d10:	8fa20290 	lw	v0,656(sp)
  402d14:	8fa40320 	lw	a0,800(sp)
  402d18:	00021080 	sll	v0,v0,0x2
  402d1c:	00821021 	addu	v0,a0,v0
  402d20:	8c420000 	lw	v0,0(v0)
  402d24:	00000000 	nop
  402d28:	1440f955 	bnez	v0,401280 <printf_core+0x3b8>
  402d2c:	00000000 	nop
  402d30:	8fa20290 	lw	v0,656(sp)
  402d34:	00000000 	nop
  402d38:	24420001 	addiu	v0,v0,1
  402d3c:	1443fff4 	bne	v0,v1,402d10 <printf_core+0x1e48>
  402d40:	afa20290 	sw	v0,656(sp)
  402d44:	1000000d 	b	402d7c <printf_core+0x1eb4>
  402d48:	24020001 	li	v0,1
  402d4c:	8fa20290 	lw	v0,656(sp)
  402d50:	8fa60318 	lw	a2,792(sp)
  402d54:	000220c0 	sll	a0,v0,0x3
  402d58:	8fa2031c 	lw	v0,796(sp)
  402d5c:	0411f77c 	bal	400b50 <pop_arg>
  402d60:	00442021 	addu	a0,v0,a0
  402d64:	8fa20290 	lw	v0,656(sp)
  402d68:	8fbc0018 	lw	gp,24(sp)
  402d6c:	24420001 	addiu	v0,v0,1
  402d70:	1447ffdf 	bne	v0,a3,402cf0 <printf_core+0x1e28>
  402d74:	afa20290 	sw	v0,656(sp)
  402d78:	24020001 	li	v0,1
  402d7c:	1000f98f 	b	4013bc <printf_core+0x4f4>
  402d80:	afa2028c 	sw	v0,652(sp)

00402d84 <vfprintf>:
  402d84:	3c1c0002 	lui	gp,0x2
  402d88:	279ce33c 	addiu	gp,gp,-7364
  402d8c:	0399e021 	addu	gp,gp,t9
  402d90:	27bdfee0 	addiu	sp,sp,-288
  402d94:	8f998048 	lw	t9,-32696(gp)
  402d98:	afb70114 	sw	s7,276(sp)
  402d9c:	27b700c0 	addiu	s7,sp,192
  402da0:	afbc0018 	sw	gp,24(sp)
  402da4:	afbf011c 	sw	ra,284(sp)
  402da8:	afbe0118 	sw	s8,280(sp)
  402dac:	afb5010c 	sw	s5,268(sp)
  402db0:	afb40108 	sw	s4,264(sp)
  402db4:	afb100fc 	sw	s1,252(sp)
  402db8:	afb000f8 	sw	s0,248(sp)
  402dbc:	00c08825 	move	s1,a2
  402dc0:	00a0a825 	move	s5,a1
  402dc4:	24060028 	li	a2,40
  402dc8:	00002825 	move	a1,zero
  402dcc:	afb60110 	sw	s6,272(sp)
  402dd0:	afb30104 	sw	s3,260(sp)
  402dd4:	afb20100 	sw	s2,256(sp)
  402dd8:	00808025 	move	s0,a0
  402ddc:	04110070 	bal	402fa0 <memset>
  402de0:	02e02025 	move	a0,s7
  402de4:	8fbc0018 	lw	gp,24(sp)
  402de8:	27a70070 	addiu	a3,sp,112
  402dec:	8f948018 	lw	s4,-32744(gp)
  402df0:	27be00e8 	addiu	s8,sp,232
  402df4:	26940ec8 	addiu	s4,s4,3784
  402df8:	afb100e8 	sw	s1,232(sp)
  402dfc:	afb70010 	sw	s7,16(sp)
  402e00:	afa700f0 	sw	a3,240(sp)
  402e04:	03c03025 	move	a2,s8
  402e08:	02a02825 	move	a1,s5
  402e0c:	0280c825 	move	t9,s4
  402e10:	0411f82d 	bal	400ec8 <printf_core>
  402e14:	00002025 	move	a0,zero
  402e18:	8fbc0018 	lw	gp,24(sp)
  402e1c:	0440004c 	bltz	v0,402f50 <vfprintf+0x1cc>
  402e20:	2411ffff 	li	s1,-1
  402e24:	8e02004c 	lw	v0,76(s0)
  402e28:	8fa700f0 	lw	a3,240(sp)
  402e2c:	04400008 	bltz	v0,402e50 <vfprintf+0xcc>
  402e30:	00009825 	move	s3,zero
  402e34:	8f9980c4 	lw	t9,-32572(gp)
  402e38:	00000000 	nop
  402e3c:	0411022b 	bal	4036ec <__lockfile>
  402e40:	02002025 	move	a0,s0
  402e44:	8fbc0018 	lw	gp,24(sp)
  402e48:	8fa700f0 	lw	a3,240(sp)
  402e4c:	00409825 	move	s3,v0
  402e50:	8e020000 	lw	v0,0(s0)
  402e54:	8e030048 	lw	v1,72(s0)
  402e58:	00000000 	nop
  402e5c:	1c600004 	bgtz	v1,402e70 <vfprintf+0xec>
  402e60:	30560020 	andi	s6,v0,0x20
  402e64:	2403ffdf 	li	v1,-33
  402e68:	00431024 	and	v0,v0,v1
  402e6c:	ae020000 	sw	v0,0(s0)
  402e70:	8e020030 	lw	v0,48(s0)
  402e74:	00000000 	nop
  402e78:	14400042 	bnez	v0,402f84 <vfprintf+0x200>
  402e7c:	27a20020 	addiu	v0,sp,32
  402e80:	8e12002c 	lw	s2,44(s0)
  402e84:	ae02002c 	sw	v0,44(s0)
  402e88:	24020050 	li	v0,80
  402e8c:	ae020030 	sw	v0,48(s0)
  402e90:	ae000010 	sw	zero,16(s0)
  402e94:	ae00001c 	sw	zero,28(s0)
  402e98:	ae000014 	sw	zero,20(s0)
  402e9c:	8f9980c8 	lw	t9,-32568(gp)
  402ea0:	afa700f0 	sw	a3,240(sp)
  402ea4:	041102ce 	bal	4039e0 <__towrite>
  402ea8:	02002025 	move	a0,s0
  402eac:	8fbc0018 	lw	gp,24(sp)
  402eb0:	1440000a 	bnez	v0,402edc <vfprintf+0x158>
  402eb4:	2411ffff 	li	s1,-1
  402eb8:	8fa700f0 	lw	a3,240(sp)
  402ebc:	afb70010 	sw	s7,16(sp)
  402ec0:	03c03025 	move	a2,s8
  402ec4:	02a02825 	move	a1,s5
  402ec8:	0280c825 	move	t9,s4
  402ecc:	0411f7fe 	bal	400ec8 <printf_core>
  402ed0:	02002025 	move	a0,s0
  402ed4:	8fbc0018 	lw	gp,24(sp)
  402ed8:	00408825 	move	s1,v0
  402edc:	1240000f 	beqz	s2,402f1c <vfprintf+0x198>
  402ee0:	00003025 	move	a2,zero
  402ee4:	8e190024 	lw	t9,36(s0)
  402ee8:	00002825 	move	a1,zero
  402eec:	0320f809 	jalr	t9
  402ef0:	02002025 	move	a0,s0
  402ef4:	8e020014 	lw	v0,20(s0)
  402ef8:	8fbc0018 	lw	gp,24(sp)
  402efc:	14400002 	bnez	v0,402f08 <vfprintf+0x184>
  402f00:	00000000 	nop
  402f04:	2411ffff 	li	s1,-1
  402f08:	ae12002c 	sw	s2,44(s0)
  402f0c:	ae000030 	sw	zero,48(s0)
  402f10:	ae000010 	sw	zero,16(s0)
  402f14:	ae00001c 	sw	zero,28(s0)
  402f18:	ae000014 	sw	zero,20(s0)
  402f1c:	8e020000 	lw	v0,0(s0)
  402f20:	00000000 	nop
  402f24:	30430020 	andi	v1,v0,0x20
  402f28:	10600002 	beqz	v1,402f34 <vfprintf+0x1b0>
  402f2c:	00000000 	nop
  402f30:	2411ffff 	li	s1,-1
  402f34:	02c2b025 	or	s6,s6,v0
  402f38:	12600005 	beqz	s3,402f50 <vfprintf+0x1cc>
  402f3c:	ae160000 	sw	s6,0(s0)
  402f40:	8f9980cc 	lw	t9,-32564(gp)
  402f44:	00000000 	nop
  402f48:	04110236 	bal	403824 <__unlockfile>
  402f4c:	02002025 	move	a0,s0
  402f50:	8fbf011c 	lw	ra,284(sp)
  402f54:	8fbe0118 	lw	s8,280(sp)
  402f58:	8fb70114 	lw	s7,276(sp)
  402f5c:	8fb60110 	lw	s6,272(sp)
  402f60:	8fb5010c 	lw	s5,268(sp)
  402f64:	8fb40108 	lw	s4,264(sp)
  402f68:	8fb30104 	lw	s3,260(sp)
  402f6c:	8fb20100 	lw	s2,256(sp)
  402f70:	8fb000f8 	lw	s0,248(sp)
  402f74:	02201025 	move	v0,s1
  402f78:	8fb100fc 	lw	s1,252(sp)
  402f7c:	03e00008 	jr	ra
  402f80:	27bd0120 	addiu	sp,sp,288
  402f84:	8e120010 	lw	s2,16(s0)
  402f88:	00000000 	nop
  402f8c:	1240ffc3 	beqz	s2,402e9c <vfprintf+0x118>
  402f90:	00000000 	nop
  402f94:	1000ffc9 	b	402ebc <vfprintf+0x138>
  402f98:	00009025 	move	s2,zero
  402f9c:	00000000 	nop

00402fa0 <memset>:
  402fa0:	10c00045 	beqz	a2,4030b8 <memset+0x118>
  402fa4:	00801025 	move	v0,a0
  402fa8:	30a300ff 	andi	v1,a1,0xff
  402fac:	00862021 	addu	a0,a0,a2
  402fb0:	2cc70003 	sltiu	a3,a2,3
  402fb4:	a0430000 	sb	v1,0(v0)
  402fb8:	14e0003f 	bnez	a3,4030b8 <memset+0x118>
  402fbc:	a083ffff 	sb	v1,-1(a0)
  402fc0:	2cc70007 	sltiu	a3,a2,7
  402fc4:	a0430001 	sb	v1,1(v0)
  402fc8:	a0430002 	sb	v1,2(v0)
  402fcc:	a083fffe 	sb	v1,-2(a0)
  402fd0:	14e00039 	bnez	a3,4030b8 <memset+0x118>
  402fd4:	a083fffd 	sb	v1,-3(a0)
  402fd8:	2cc70009 	sltiu	a3,a2,9
  402fdc:	a0430003 	sb	v1,3(v0)
  402fe0:	14e00035 	bnez	a3,4030b8 <memset+0x118>
  402fe4:	a083fffc 	sb	v1,-4(a0)
  402fe8:	30a500ff 	andi	a1,a1,0xff
  402fec:	00021823 	negu	v1,v0
  402ff0:	30630003 	andi	v1,v1,0x3
  402ff4:	00053a00 	sll	a3,a1,0x8
  402ff8:	00e53821 	addu	a3,a3,a1
  402ffc:	00c33023 	subu	a2,a2,v1
  403000:	2404fffc 	li	a0,-4
  403004:	00c43024 	and	a2,a2,a0
  403008:	00431821 	addu	v1,v0,v1
  40300c:	00072400 	sll	a0,a3,0x10
  403010:	00e43821 	addu	a3,a3,a0
  403014:	2cc50009 	sltiu	a1,a2,9
  403018:	00662021 	addu	a0,v1,a2
  40301c:	ac670000 	sw	a3,0(v1)
  403020:	14a00025 	bnez	a1,4030b8 <memset+0x118>
  403024:	ac87fffc 	sw	a3,-4(a0)
  403028:	2cc50019 	sltiu	a1,a2,25
  40302c:	ac670004 	sw	a3,4(v1)
  403030:	ac670008 	sw	a3,8(v1)
  403034:	ac87fff4 	sw	a3,-12(a0)
  403038:	14a0001f 	bnez	a1,4030b8 <memset+0x118>
  40303c:	ac87fff8 	sw	a3,-8(a0)
  403040:	30650004 	andi	a1,v1,0x4
  403044:	24a50018 	addiu	a1,a1,24
  403048:	00c53023 	subu	a2,a2,a1
  40304c:	2cc80020 	sltiu	t0,a2,32
  403050:	ac67000c 	sw	a3,12(v1)
  403054:	ac670010 	sw	a3,16(v1)
  403058:	ac670014 	sw	a3,20(v1)
  40305c:	ac670018 	sw	a3,24(v1)
  403060:	00651821 	addu	v1,v1,a1
  403064:	ac87ffe4 	sw	a3,-28(a0)
  403068:	ac87ffe8 	sw	a3,-24(a0)
  40306c:	ac87ffec 	sw	a3,-20(a0)
  403070:	15000011 	bnez	t0,4030b8 <memset+0x118>
  403074:	ac87fff0 	sw	a3,-16(a0)
  403078:	24c5ffe0 	addiu	a1,a2,-32
  40307c:	00052942 	srl	a1,a1,0x5
  403080:	24a50001 	addiu	a1,a1,1
  403084:	00052940 	sll	a1,a1,0x5
  403088:	00652821 	addu	a1,v1,a1
  40308c:	ac670000 	sw	a3,0(v1)
  403090:	ac670004 	sw	a3,4(v1)
  403094:	ac670008 	sw	a3,8(v1)
  403098:	ac67000c 	sw	a3,12(v1)
  40309c:	ac670010 	sw	a3,16(v1)
  4030a0:	ac670014 	sw	a3,20(v1)
  4030a4:	ac670018 	sw	a3,24(v1)
  4030a8:	ac67001c 	sw	a3,28(v1)
  4030ac:	24630020 	addiu	v1,v1,32
  4030b0:	1465fff6 	bne	v1,a1,40308c <memset+0xec>
  4030b4:	00000000 	nop
  4030b8:	03e00008 	jr	ra
  4030bc:	00000000 	nop

004030c0 <strnlen>:
  4030c0:	3c1c0002 	lui	gp,0x2
  4030c4:	279ce000 	addiu	gp,gp,-8192
  4030c8:	0399e021 	addu	gp,gp,t9
  4030cc:	27bdffd8 	addiu	sp,sp,-40
  4030d0:	8f9980d0 	lw	t9,-32560(gp)
  4030d4:	00a03025 	move	a2,a1
  4030d8:	afb10020 	sw	s1,32(sp)
  4030dc:	afb0001c 	sw	s0,28(sp)
  4030e0:	afbc0010 	sw	gp,16(sp)
  4030e4:	afbf0024 	sw	ra,36(sp)
  4030e8:	00a08025 	move	s0,a1
  4030ec:	00002825 	move	a1,zero
  4030f0:	041102e7 	bal	403c90 <memchr>
  4030f4:	00808825 	move	s1,a0
  4030f8:	10400006 	beqz	v0,403114 <strnlen+0x54>
  4030fc:	00511023 	subu	v0,v0,s1
  403100:	8fbf0024 	lw	ra,36(sp)
  403104:	8fb0001c 	lw	s0,28(sp)
  403108:	8fb10020 	lw	s1,32(sp)
  40310c:	03e00008 	jr	ra
  403110:	27bd0028 	addiu	sp,sp,40
  403114:	8fbf0024 	lw	ra,36(sp)
  403118:	8fb10020 	lw	s1,32(sp)
  40311c:	02001025 	move	v0,s0
  403120:	8fb0001c 	lw	s0,28(sp)
  403124:	03e00008 	jr	ra
  403128:	27bd0028 	addiu	sp,sp,40
  40312c:	00000000 	nop

00403130 <__init_tp>:
  403130:	3c1c0002 	lui	gp,0x2
  403134:	279cdf90 	addiu	gp,gp,-8304
  403138:	0399e021 	addu	gp,gp,t9
  40313c:	27bdffe0 	addiu	sp,sp,-32
  403140:	8f9980d4 	lw	t9,-32556(gp)
  403144:	afbc0010 	sw	gp,16(sp)
  403148:	afb00018 	sw	s0,24(sp)
  40314c:	afbf001c 	sw	ra,28(sp)
  403150:	00808025 	move	s0,a0
  403154:	ac840000 	sw	a0,0(a0)
  403158:	0411043d 	bal	404250 <__set_thread_area>
  40315c:	24847070 	addiu	a0,a0,28784
  403160:	8fbc0010 	lw	gp,16(sp)
  403164:	0440001b 	bltz	v0,4031d4 <__init_tp+0xa4>
  403168:	2404ffff 	li	a0,-1
  40316c:	8f858050 	lw	a1,-32688(gp)
  403170:	14400004 	bnez	v0,403184 <__init_tp+0x54>
  403174:	24030002 	li	v1,2
  403178:	24030001 	li	v1,1
  40317c:	a0a30000 	sb	v1,0(a1)
  403180:	24030002 	li	v1,2
  403184:	8f8480d8 	lw	a0,-32552(gp)
  403188:	ae030018 	sw	v1,24(s0)
  40318c:	2402109c 	li	v0,4252
  403190:	0000000c 	syscall
  403194:	10e00004 	beqz	a3,4031a8 <__init_tp+0x78>
  403198:	00000000 	nop
  40319c:	18400002 	blez	v0,4031a8 <__init_tp+0x78>
  4031a0:	00000000 	nop
  4031a4:	00021023 	negu	v0,v0
  4031a8:	ae020010 	sw	v0,16(s0)
  4031ac:	26020044 	addiu	v0,s0,68
  4031b0:	ae020044 	sw	v0,68(s0)
  4031b4:	8f828058 	lw	v0,-32680(gp)
  4031b8:	24a50020 	addiu	a1,a1,32
  4031bc:	8c420000 	lw	v0,0(v0)
  4031c0:	ae050058 	sw	a1,88(s0)
  4031c4:	ae02000c 	sw	v0,12(s0)
  4031c8:	ae100004 	sw	s0,4(s0)
  4031cc:	ae100008 	sw	s0,8(s0)
  4031d0:	00002025 	move	a0,zero
  4031d4:	8fbf001c 	lw	ra,28(sp)
  4031d8:	8fb00018 	lw	s0,24(sp)
  4031dc:	00801025 	move	v0,a0
  4031e0:	03e00008 	jr	ra
  4031e4:	27bd0020 	addiu	sp,sp,32

004031e8 <__copy_tls>:
  4031e8:	3c1c0002 	lui	gp,0x2
  4031ec:	279cded8 	addiu	gp,gp,-8488
  4031f0:	0399e021 	addu	gp,gp,t9
  4031f4:	27bdffc8 	addiu	sp,sp,-56
  4031f8:	afb30024 	sw	s3,36(sp)
  4031fc:	8f938050 	lw	s3,-32688(gp)
  403200:	afb00018 	sw	s0,24(sp)
  403204:	8e700018 	lw	s0,24(s3)
  403208:	8e620010 	lw	v0,16(s3)
  40320c:	00108027 	nor	s0,zero,s0
  403210:	afb1001c 	sw	s1,28(sp)
  403214:	00108080 	sll	s0,s0,0x2
  403218:	8e710014 	lw	s1,20(s3)
  40321c:	02028021 	addu	s0,s0,v0
  403220:	2402ff90 	li	v0,-112
  403224:	2631ffff 	addiu	s1,s1,-1
  403228:	00441023 	subu	v0,v0,a0
  40322c:	02228824 	and	s1,s1,v0
  403230:	afb20020 	sw	s2,32(sp)
  403234:	00908021 	addu	s0,a0,s0
  403238:	00918821 	addu	s1,a0,s1
  40323c:	8e72000c 	lw	s2,12(s3)
  403240:	afb60030 	sw	s6,48(sp)
  403244:	afb5002c 	sw	s5,44(sp)
  403248:	afb40028 	sw	s4,40(sp)
  40324c:	afbc0010 	sw	gp,16(sp)
  403250:	afbf0034 	sw	ra,52(sp)
  403254:	26350070 	addiu	s5,s1,112
  403258:	26140004 	addiu	s4,s0,4
  40325c:	34168000 	li	s6,0x8000
  403260:	1640000f 	bnez	s2,4032a0 <__copy_tls+0xb8>
  403264:	00000000 	nop
  403268:	8e620018 	lw	v0,24(s3)
  40326c:	8fbf0034 	lw	ra,52(sp)
  403270:	ae020000 	sw	v0,0(s0)
  403274:	8fb60030 	lw	s6,48(sp)
  403278:	ae30006c 	sw	s0,108(s1)
  40327c:	8fb5002c 	lw	s5,44(sp)
  403280:	8fb40028 	lw	s4,40(sp)
  403284:	8fb30024 	lw	s3,36(sp)
  403288:	8fb20020 	lw	s2,32(sp)
  40328c:	8fb00018 	lw	s0,24(sp)
  403290:	02201025 	move	v0,s1
  403294:	8fb1001c 	lw	s1,28(sp)
  403298:	03e00008 	jr	ra
  40329c:	27bd0038 	addiu	sp,sp,56
  4032a0:	8e420014 	lw	v0,20(s2)
  4032a4:	8f9980dc 	lw	t9,-32548(gp)
  4032a8:	02a21021 	addu	v0,s5,v0
  4032ac:	00561021 	addu	v0,v0,s6
  4032b0:	ae820000 	sw	v0,0(s4)
  4032b4:	8e440014 	lw	a0,20(s2)
  4032b8:	8e460008 	lw	a2,8(s2)
  4032bc:	8e450004 	lw	a1,4(s2)
  4032c0:	041102b3 	bal	403d90 <memcpy>
  4032c4:	02a42021 	addu	a0,s5,a0
  4032c8:	8fbc0010 	lw	gp,16(sp)
  4032cc:	8e520000 	lw	s2,0(s2)
  4032d0:	1000ffe3 	b	403260 <__copy_tls+0x78>
  4032d4:	26940004 	addiu	s4,s4,4

004032d8 <__init_tls>:
  4032d8:	3c1c0002 	lui	gp,0x2
  4032dc:	279cdde8 	addiu	gp,gp,-8728
  4032e0:	0399e021 	addu	gp,gp,t9
  4032e4:	8f8c80e0 	lw	t4,-32544(gp)
  4032e8:	8c8e000c 	lw	t6,12(a0)
  4032ec:	27bdffe0 	addiu	sp,sp,-32
  4032f0:	3c0a6474 	lui	t2,0x6474
  4032f4:	3c0b0080 	lui	t3,0x80
  4032f8:	8c890014 	lw	t1,20(a0)
  4032fc:	8d870000 	lw	a3,0(t4)
  403300:	240f0000 	li	t7,0
  403304:	01c01825 	move	v1,t6
  403308:	afbf001c 	sw	ra,28(sp)
  40330c:	afbc0010 	sw	gp,16(sp)
  403310:	afb00018 	sw	s0,24(sp)
  403314:	00006825 	move	t5,zero
  403318:	00002825 	move	a1,zero
  40331c:	00003025 	move	a2,zero
  403320:	24180006 	li	t8,6
  403324:	24190002 	li	t9,2
  403328:	241f0007 	li	ra,7
  40332c:	354ae551 	ori	t2,t2,0xe551
  403330:	256b0001 	addiu	t3,t3,1
  403334:	1520004d 	bnez	t1,40346c <__init_tls+0x194>
  403338:	00000000 	nop
  40333c:	11a00002 	beqz	t5,403348 <__init_tls+0x70>
  403340:	00000000 	nop
  403344:	ad870000 	sw	a3,0(t4)
  403348:	8f8380e4 	lw	v1,-32540(gp)
  40334c:	8f878050 	lw	a3,-32688(gp)
  403350:	10c0000f 	beqz	a2,403390 <__init_tls+0xb8>
  403354:	246396d0 	addiu	v1,v1,-26928
  403358:	8cc40008 	lw	a0,8(a2)
  40335c:	ace3000c 	sw	v1,12(a3)
  403360:	00852821 	addu	a1,a0,a1
  403364:	8cc40010 	lw	a0,16(a2)
  403368:	ac650004 	sw	a1,4(v1)
  40336c:	ac640008 	sw	a0,8(v1)
  403370:	8cc40014 	lw	a0,20(a2)
  403374:	00000000 	nop
  403378:	ac64000c 	sw	a0,12(v1)
  40337c:	8cc4001c 	lw	a0,28(a2)
  403380:	00000000 	nop
  403384:	ac640010 	sw	a0,16(v1)
  403388:	24040001 	li	a0,1
  40338c:	ace40018 	sw	a0,24(a3)
  403390:	8c69000c 	lw	t1,12(v1)
  403394:	8c650004 	lw	a1,4(v1)
  403398:	8c680010 	lw	t0,16(v1)
  40339c:	01252021 	addu	a0,t1,a1
  4033a0:	2506ffff 	addiu	a2,t0,-1
  4033a4:	00042023 	negu	a0,a0
  4033a8:	00862024 	and	a0,a0,a2
  4033ac:	00892021 	addu	a0,a0,t1
  4033b0:	00a63024 	and	a2,a1,a2
  4033b4:	2d080004 	sltiu	t0,t0,4
  4033b8:	ac64000c 	sw	a0,12(v1)
  4033bc:	11000003 	beqz	t0,4033cc <__init_tls+0xf4>
  4033c0:	ac660014 	sw	a2,20(v1)
  4033c4:	24050004 	li	a1,4
  4033c8:	ac650010 	sw	a1,16(v1)
  4033cc:	8c630010 	lw	v1,16(v1)
  4033d0:	00000000 	nop
  4033d4:	2465007b 	addiu	a1,v1,123
  4033d8:	00a62821 	addu	a1,a1,a2
  4033dc:	ace30014 	sw	v1,20(a3)
  4033e0:	00a42821 	addu	a1,a1,a0
  4033e4:	2403fffc 	li	v1,-4
  4033e8:	00a32824 	and	a1,a1,v1
  4033ec:	2ca300b5 	sltiu	v1,a1,181
  4033f0:	14600044 	bnez	v1,403504 <__init_tls+0x22c>
  4033f4:	ace50010 	sw	a1,16(a3)
  4033f8:	00002025 	move	a0,zero
  4033fc:	24060003 	li	a2,3
  403400:	24070802 	li	a3,2050
  403404:	2408ffff 	li	t0,-1
  403408:	00004825 	move	t1,zero
  40340c:	27bdffe0 	addiu	sp,sp,-32
  403410:	afa80010 	sw	t0,16(sp)
  403414:	afa90014 	sw	t1,20(sp)
  403418:	24021072 	li	v0,4210
  40341c:	0000000c 	syscall
  403420:	10e00036 	beqz	a3,4034fc <__init_tls+0x224>
  403424:	27bd0020 	addiu	sp,sp,32
  403428:	18400034 	blez	v0,4034fc <__init_tls+0x224>
  40342c:	00000000 	nop
  403430:	00022023 	negu	a0,v0
  403434:	8f9980e8 	lw	t9,-32536(gp)
  403438:	00000000 	nop
  40343c:	0411ff6a 	bal	4031e8 <__copy_tls>
  403440:	00000000 	nop
  403444:	8fbc0010 	lw	gp,16(sp)
  403448:	00000000 	nop
  40344c:	8f9980ec 	lw	t9,-32532(gp)
  403450:	00000000 	nop
  403454:	0411ff36 	bal	403130 <__init_tp>
  403458:	00402025 	move	a0,v0
  40345c:	0441002c 	bgez	v0,403510 <__init_tls+0x238>
  403460:	00000000 	nop
  403464:	a0000000 	sb	zero,0(zero)
  403468:	0000000d 	break
  40346c:	8c680000 	lw	t0,0(v1)
  403470:	00000000 	nop
  403474:	15180008 	bne	t0,t8,403498 <__init_tls+0x1c0>
  403478:	00000000 	nop
  40347c:	8c650008 	lw	a1,8(v1)
  403480:	00000000 	nop
  403484:	01c52823 	subu	a1,t6,a1
  403488:	8c880010 	lw	t0,16(a0)
  40348c:	2529ffff 	addiu	t1,t1,-1
  403490:	1000ffa8 	b	403334 <__init_tls+0x5c>
  403494:	00681821 	addu	v1,v1,t0
  403498:	11190011 	beq	t0,t9,4034e0 <__init_tls+0x208>
  40349c:	00000000 	nop
  4034a0:	111f0014 	beq	t0,ra,4034f4 <__init_tls+0x21c>
  4034a4:	00000000 	nop
  4034a8:	150afff7 	bne	t0,t2,403488 <__init_tls+0x1b0>
  4034ac:	00000000 	nop
  4034b0:	8c680014 	lw	t0,20(v1)
  4034b4:	00000000 	nop
  4034b8:	00e8802b 	sltu	s0,a3,t0
  4034bc:	1200fff2 	beqz	s0,403488 <__init_tls+0x1b0>
  4034c0:	00000000 	nop
  4034c4:	01003825 	move	a3,t0
  4034c8:	010b402b 	sltu	t0,t0,t3
  4034cc:	15000002 	bnez	t0,4034d8 <__init_tls+0x200>
  4034d0:	00000000 	nop
  4034d4:	3c070080 	lui	a3,0x80
  4034d8:	1000ffeb 	b	403488 <__init_tls+0x1b0>
  4034dc:	240d0001 	li	t5,1
  4034e0:	11e0ffe9 	beqz	t7,403488 <__init_tls+0x1b0>
  4034e4:	00000000 	nop
  4034e8:	8c650008 	lw	a1,8(v1)
  4034ec:	1000ffe6 	b	403488 <__init_tls+0x1b0>
  4034f0:	01e52823 	subu	a1,t7,a1
  4034f4:	1000ffe4 	b	403488 <__init_tls+0x1b0>
  4034f8:	00603025 	move	a2,v1
  4034fc:	1000ffcd 	b	403434 <__init_tls+0x15c>
  403500:	00402025 	move	a0,v0
  403504:	8f8480e4 	lw	a0,-32540(gp)
  403508:	1000ffca 	b	403434 <__init_tls+0x15c>
  40350c:	248496e8 	addiu	a0,a0,-26904
  403510:	8fbf001c 	lw	ra,28(sp)
  403514:	8fb00018 	lw	s0,24(sp)
  403518:	03e00008 	jr	ra
  40351c:	27bd0020 	addiu	sp,sp,32

00403520 <__errno_location>:
  403520:	7c03e83b 	0x7c03e83b
  403524:	03e00008 	jr	ra
  403528:	24628fa4 	addiu	v0,v1,-28764
  40352c:	00000000 	nop

00403530 <__strerror_l>:
  403530:	3c1c0002 	lui	gp,0x2
  403534:	279cdb90 	addiu	gp,gp,-9328
  403538:	0399e021 	addu	gp,gp,t9
  40353c:	2402006d 	li	v0,109
  403540:	10820012 	beq	a0,v0,40358c <__strerror_l+0x5c>
  403544:	2402046d 	li	v0,1133
  403548:	1482000e 	bne	a0,v0,403584 <__strerror_l+0x54>
  40354c:	2c8200a7 	sltiu	v0,a0,167
  403550:	2404006d 	li	a0,109
  403554:	8f82801c 	lw	v0,-32740(gp)
  403558:	00042040 	sll	a0,a0,0x1
  40355c:	24428568 	addiu	v0,v0,-31384
  403560:	00822021 	addu	a0,a0,v0
  403564:	8f82801c 	lw	v0,-32740(gp)
  403568:	94840000 	lhu	a0,0(a0)
  40356c:	244286b8 	addiu	v0,v0,-31048
  403570:	8ca50014 	lw	a1,20(a1)
  403574:	8f9980f0 	lw	t9,-32528(gp)
  403578:	00000000 	nop
  40357c:	1000002a 	b	403628 <__lctrans>
  403580:	00442021 	addu	a0,v0,a0
  403584:	1440fff3 	bnez	v0,403554 <__strerror_l+0x24>
  403588:	00000000 	nop
  40358c:	1000fff1 	b	403554 <__strerror_l+0x24>
  403590:	00002025 	move	a0,zero

00403594 <strerror>:
  403594:	3c1c0002 	lui	gp,0x2
  403598:	279cdb2c 	addiu	gp,gp,-9428
  40359c:	0399e021 	addu	gp,gp,t9
  4035a0:	7c03e83b 	0x7c03e83b
  4035a4:	8f9980f4 	lw	t9,-32524(gp)
  4035a8:	8c658fe8 	lw	a1,-28696(v1)
  4035ac:	1000ffe0 	b	403530 <__strerror_l>
  4035b0:	00000000 	nop
	...

004035c0 <__syscall1.isra.0>:
  4035c0:	00803825 	move	a3,a0
  4035c4:	00a02025 	move	a0,a1
  4035c8:	00071021 	addu	v0,zero,a3
  4035cc:	0000000c 	syscall
  4035d0:	03e00008 	jr	ra
  4035d4:	00000000 	nop

004035d8 <_Exit>:
  4035d8:	3c1c0002 	lui	gp,0x2
  4035dc:	279cdae8 	addiu	gp,gp,-9496
  4035e0:	0399e021 	addu	gp,gp,t9
  4035e4:	8f868018 	lw	a2,-32744(gp)
  4035e8:	27bdffe0 	addiu	sp,sp,-32
  4035ec:	00802825 	move	a1,a0
  4035f0:	24041096 	li	a0,4246
  4035f4:	afbc0010 	sw	gp,16(sp)
  4035f8:	afbf001c 	sw	ra,28(sp)
  4035fc:	24c635c0 	addiu	a2,a2,13760
  403600:	00c0c825 	move	t9,a2
  403604:	0411ffee 	bal	4035c0 <__syscall1.isra.0>
  403608:	00000000 	nop
  40360c:	1000fffc 	b	403600 <_Exit+0x28>
  403610:	24040fa1 	li	a0,4001
	...

00403620 <__lctrans_impl>:
  403620:	03e00008 	jr	ra
  403624:	00801025 	move	v0,a0

00403628 <__lctrans>:
  403628:	3c1c0002 	lui	gp,0x2
  40362c:	279cda98 	addiu	gp,gp,-9576
  403630:	0399e021 	addu	gp,gp,t9
  403634:	8f9980f8 	lw	t9,-32520(gp)
  403638:	00000000 	nop
  40363c:	1000fff8 	b	403620 <__lctrans_impl>
  403640:	00000000 	nop

00403644 <__lctrans_cur>:
  403644:	3c1c0002 	lui	gp,0x2
  403648:	279cda7c 	addiu	gp,gp,-9604
  40364c:	0399e021 	addu	gp,gp,t9
  403650:	7c03e83b 	0x7c03e83b
  403654:	8c628fe8 	lw	v0,-28696(v1)
  403658:	8f9980f8 	lw	t9,-32520(gp)
  40365c:	8c450014 	lw	a1,20(v0)
  403660:	1000ffef 	b	403620 <__lctrans_impl>
  403664:	00000000 	nop
	...

00403670 <frexpl>:
  403670:	3c1c0002 	lui	gp,0x2
  403674:	279cda50 	addiu	gp,gp,-9648
  403678:	0399e021 	addu	gp,gp,t9
  40367c:	8f9980fc 	lw	t9,-32516(gp)
  403680:	00000000 	nop
  403684:	1000033a 	b	404370 <frexp>
  403688:	00000000 	nop
  40368c:	00000000 	nop

00403690 <wctomb>:
  403690:	3c1c0002 	lui	gp,0x2
  403694:	279cda30 	addiu	gp,gp,-9680
  403698:	0399e021 	addu	gp,gp,t9
  40369c:	10800005 	beqz	a0,4036b4 <wctomb+0x24>
  4036a0:	00000000 	nop
  4036a4:	8f998100 	lw	t9,-32512(gp)
  4036a8:	00000000 	nop
  4036ac:	1000036c 	b	404460 <wcrtomb>
  4036b0:	00003025 	move	a2,zero
  4036b4:	03e00008 	jr	ra
  4036b8:	00001025 	move	v0,zero
  4036bc:	00000000 	nop

004036c0 <a_cas>:
  4036c0:	0000000f 	0xf
  4036c4:	c0820000 	lwc0	c0_entrylo,0(a0)
  4036c8:	00000000 	nop
  4036cc:	14a20004 	bne	a1,v0,4036e0 <a_cas+0x20>
  4036d0:	00c01825 	move	v1,a2
  4036d4:	e0830000 	swc0	$3,0(a0)
  4036d8:	1060fffa 	beqz	v1,4036c4 <a_cas+0x4>
  4036dc:	00000000 	nop
  4036e0:	0000000f 	0xf
  4036e4:	03e00008 	jr	ra
  4036e8:	00000000 	nop

004036ec <__lockfile>:
  4036ec:	3c1c0002 	lui	gp,0x2
  4036f0:	279cd9d4 	addiu	gp,gp,-9772
  4036f4:	0399e021 	addu	gp,gp,t9
  4036f8:	7c03e83b 	0x7c03e83b
  4036fc:	8c82004c 	lw	v0,76(a0)
  403700:	8c668fa0 	lw	a2,-28768(v1)
  403704:	3c03bfff 	lui	v1,0xbfff
  403708:	3463ffff 	ori	v1,v1,0xffff
  40370c:	00431824 	and	v1,v0,v1
  403710:	10660042 	beq	v1,a2,40381c <__lockfile+0x130>
  403714:	00000000 	nop
  403718:	27bdffd0 	addiu	sp,sp,-48
  40371c:	afb1001c 	sw	s1,28(sp)
  403720:	8f918018 	lw	s1,-32744(gp)
  403724:	afb00018 	sw	s0,24(sp)
  403728:	263136c0 	addiu	s1,s1,14016
  40372c:	2490004c 	addiu	s0,a0,76
  403730:	afbc0010 	sw	gp,16(sp)
  403734:	afbf002c 	sw	ra,44(sp)
  403738:	afb40028 	sw	s4,40(sp)
  40373c:	afb30024 	sw	s3,36(sp)
  403740:	afb20020 	sw	s2,32(sp)
  403744:	00002825 	move	a1,zero
  403748:	0220c825 	move	t9,s1
  40374c:	0411ffdc 	bal	4036c0 <a_cas>
  403750:	02002025 	move	a0,s0
  403754:	1040000a 	beqz	v0,403780 <__lockfile+0x94>
  403758:	3c134000 	lui	s3,0x4000
  40375c:	00d39025 	or	s2,a2,s3
  403760:	2414ffa7 	li	s4,-89
  403764:	00002825 	move	a1,zero
  403768:	02403025 	move	a2,s2
  40376c:	0220c825 	move	t9,s1
  403770:	0411ffd3 	bal	4036c0 <a_cas>
  403774:	02002025 	move	a0,s0
  403778:	1440000a 	bnez	v0,4037a4 <__lockfile+0xb8>
  40377c:	00402825 	move	a1,v0
  403780:	8fbf002c 	lw	ra,44(sp)
  403784:	8fb40028 	lw	s4,40(sp)
  403788:	8fb30024 	lw	s3,36(sp)
  40378c:	8fb20020 	lw	s2,32(sp)
  403790:	8fb1001c 	lw	s1,28(sp)
  403794:	8fb00018 	lw	s0,24(sp)
  403798:	24020001 	li	v0,1
  40379c:	03e00008 	jr	ra
  4037a0:	27bd0030 	addiu	sp,sp,48
  4037a4:	00b31824 	and	v1,a1,s3
  4037a8:	1060000a 	beqz	v1,4037d4 <__lockfile+0xe8>
  4037ac:	00b33025 	or	a2,a1,s3
  4037b0:	02002025 	move	a0,s0
  4037b4:	24050080 	li	a1,128
  4037b8:	00003825 	move	a3,zero
  4037bc:	2402108e 	li	v0,4238
  4037c0:	0000000c 	syscall
  4037c4:	14e0000a 	bnez	a3,4037f0 <__lockfile+0x104>
  4037c8:	00401825 	move	v1,v0
  4037cc:	1000000b 	b	4037fc <__lockfile+0x110>
  4037d0:	00000000 	nop
  4037d4:	0220c825 	move	t9,s1
  4037d8:	0411ffb9 	bal	4036c0 <a_cas>
  4037dc:	00000000 	nop
  4037e0:	1445ffe1 	bne	v0,a1,403768 <__lockfile+0x7c>
  4037e4:	00002825 	move	a1,zero
  4037e8:	1000fff2 	b	4037b4 <__lockfile+0xc8>
  4037ec:	02002025 	move	a0,s0
  4037f0:	18400002 	blez	v0,4037fc <__lockfile+0x110>
  4037f4:	00000000 	nop
  4037f8:	00021823 	negu	v1,v0
  4037fc:	1474ffd9 	bne	v1,s4,403764 <__lockfile+0x78>
  403800:	00003825 	move	a3,zero
  403804:	02002025 	move	a0,s0
  403808:	00002825 	move	a1,zero
  40380c:	2402108e 	li	v0,4238
  403810:	0000000c 	syscall
  403814:	1000ffd4 	b	403768 <__lockfile+0x7c>
  403818:	00002825 	move	a1,zero
  40381c:	03e00008 	jr	ra
  403820:	00001025 	move	v0,zero

00403824 <__unlockfile>:
  403824:	2484004c 	addiu	a0,a0,76
  403828:	0000000f 	0xf
  40382c:	00003025 	move	a2,zero
  403830:	c0850000 	lwc0	$5,0(a0)
  403834:	00c01825 	move	v1,a2
  403838:	e0830000 	swc0	$3,0(a0)
  40383c:	1060fffc 	beqz	v1,403830 <__unlockfile+0xc>
  403840:	00000000 	nop
  403844:	0000000f 	0xf
  403848:	3c034000 	lui	v1,0x4000
  40384c:	00a31824 	and	v1,a1,v1
  403850:	10600011 	beqz	v1,403898 <__unlockfile+0x74>
  403854:	00000000 	nop
  403858:	24050081 	li	a1,129
  40385c:	24060001 	li	a2,1
  403860:	2402108e 	li	v0,4238
  403864:	0000000c 	syscall
  403868:	10e00004 	beqz	a3,40387c <__unlockfile+0x58>
  40386c:	00401825 	move	v1,v0
  403870:	18400003 	blez	v0,403880 <__unlockfile+0x5c>
  403874:	2405ffa7 	li	a1,-89
  403878:	00021823 	negu	v1,v0
  40387c:	2405ffa7 	li	a1,-89
  403880:	14650005 	bne	v1,a1,403898 <__unlockfile+0x74>
  403884:	00000000 	nop
  403888:	24050001 	li	a1,1
  40388c:	24060001 	li	a2,1
  403890:	2402108e 	li	v0,4238
  403894:	0000000c 	syscall
  403898:	03e00008 	jr	ra
  40389c:	00000000 	nop

004038a0 <__aio_close>:
  4038a0:	03e00008 	jr	ra
  4038a4:	00801025 	move	v0,a0

004038a8 <__stdio_close>:
  4038a8:	3c1c0002 	lui	gp,0x2
  4038ac:	279cd818 	addiu	gp,gp,-10216
  4038b0:	0399e021 	addu	gp,gp,t9
  4038b4:	27bdffe0 	addiu	sp,sp,-32
  4038b8:	8f998104 	lw	t9,-32508(gp)
  4038bc:	8c84003c 	lw	a0,60(a0)
  4038c0:	afbc0010 	sw	gp,16(sp)
  4038c4:	afbf001c 	sw	ra,28(sp)
  4038c8:	0411fff5 	bal	4038a0 <__aio_close>
  4038cc:	00000000 	nop
  4038d0:	00402025 	move	a0,v0
  4038d4:	8fbc0010 	lw	gp,16(sp)
  4038d8:	24020fa6 	li	v0,4006
  4038dc:	0000000c 	syscall
  4038e0:	10e00009 	beqz	a3,403908 <__stdio_close+0x60>
  4038e4:	00000000 	nop
  4038e8:	18400007 	blez	v0,403908 <__stdio_close+0x60>
  4038ec:	00000000 	nop
  4038f0:	00022023 	negu	a0,v0
  4038f4:	8fbf001c 	lw	ra,28(sp)
  4038f8:	8f998108 	lw	t9,-32504(gp)
  4038fc:	00000000 	nop
  403900:	10000283 	b	404310 <__syscall_ret>
  403904:	27bd0020 	addiu	sp,sp,32
  403908:	1000fffa 	b	4038f4 <__stdio_close+0x4c>
  40390c:	00402025 	move	a0,v0

00403910 <__stdio_seek>:
  403910:	3c1c0002 	lui	gp,0x2
  403914:	279cd7b0 	addiu	gp,gp,-10320
  403918:	0399e021 	addu	gp,gp,t9
  40391c:	8c84003c 	lw	a0,60(a0)
  403920:	8f99810c 	lw	t9,-32500(gp)
  403924:	00000000 	nop
  403928:	10000255 	b	404280 <lseek>
  40392c:	00000000 	nop

00403930 <__stdout_write>:
  403930:	3c1c0002 	lui	gp,0x2
  403934:	279cd790 	addiu	gp,gp,-10352
  403938:	0399e021 	addu	gp,gp,t9
  40393c:	8c830000 	lw	v1,0(a0)
  403940:	27bdffd0 	addiu	sp,sp,-48
  403944:	8f998110 	lw	t9,-32496(gp)
  403948:	30630040 	andi	v1,v1,0x40
  40394c:	afbc0010 	sw	gp,16(sp)
  403950:	afbf002c 	sw	ra,44(sp)
  403954:	afb20028 	sw	s2,40(sp)
  403958:	afb10024 	sw	s1,36(sp)
  40395c:	afb00020 	sw	s0,32(sp)
  403960:	0080f825 	move	ra,a0
  403964:	00a08825 	move	s1,a1
  403968:	00c09025 	move	s2,a2
  40396c:	ac990024 	sw	t9,36(a0)
  403970:	1460000f 	bnez	v1,4039b0 <__stdout_write+0x80>
  403974:	03208025 	move	s0,t9
  403978:	3c054008 	lui	a1,0x4008
  40397c:	8c84003c 	lw	a0,60(a0)
  403980:	24a57468 	addiu	a1,a1,29800
  403984:	27a60018 	addiu	a2,sp,24
  403988:	24020fd6 	li	v0,4054
  40398c:	0000000c 	syscall
  403990:	10e00003 	beqz	a3,4039a0 <__stdout_write+0x70>
  403994:	00000000 	nop
  403998:	1c400003 	bgtz	v0,4039a8 <__stdout_write+0x78>
  40399c:	00000000 	nop
  4039a0:	10400004 	beqz	v0,4039b4 <__stdout_write+0x84>
  4039a4:	02403025 	move	a2,s2
  4039a8:	2402ffff 	li	v0,-1
  4039ac:	afe20050 	sw	v0,80(ra)
  4039b0:	02403025 	move	a2,s2
  4039b4:	03e02025 	move	a0,ra
  4039b8:	0200c825 	move	t9,s0
  4039bc:	04110360 	bal	404740 <__stdio_write>
  4039c0:	02202825 	move	a1,s1
  4039c4:	8fbf002c 	lw	ra,44(sp)
  4039c8:	8fb20028 	lw	s2,40(sp)
  4039cc:	8fb10024 	lw	s1,36(sp)
  4039d0:	8fb00020 	lw	s0,32(sp)
  4039d4:	03e00008 	jr	ra
  4039d8:	27bd0030 	addiu	sp,sp,48
  4039dc:	00000000 	nop

004039e0 <__towrite>:
  4039e0:	8c830048 	lw	v1,72(a0)
  4039e4:	00000000 	nop
  4039e8:	2462ffff 	addiu	v0,v1,-1
  4039ec:	00431025 	or	v0,v0,v1
  4039f0:	ac820048 	sw	v0,72(a0)
  4039f4:	8c820000 	lw	v0,0(a0)
  4039f8:	00000000 	nop
  4039fc:	30430008 	andi	v1,v0,0x8
  403a00:	10600005 	beqz	v1,403a18 <__towrite+0x38>
  403a04:	00000000 	nop
  403a08:	34420020 	ori	v0,v0,0x20
  403a0c:	ac820000 	sw	v0,0(a0)
  403a10:	03e00008 	jr	ra
  403a14:	2402ffff 	li	v0,-1
  403a18:	8c82002c 	lw	v0,44(a0)
  403a1c:	8c830030 	lw	v1,48(a0)
  403a20:	ac82001c 	sw	v0,28(a0)
  403a24:	ac820014 	sw	v0,20(a0)
  403a28:	00431021 	addu	v0,v0,v1
  403a2c:	ac820010 	sw	v0,16(a0)
  403a30:	ac800008 	sw	zero,8(a0)
  403a34:	ac800004 	sw	zero,4(a0)
  403a38:	03e00008 	jr	ra
  403a3c:	00001025 	move	v0,zero

00403a40 <__towrite_needs_stdio_exit>:
  403a40:	3c1c0002 	lui	gp,0x2
  403a44:	279cd680 	addiu	gp,gp,-10624
  403a48:	0399e021 	addu	gp,gp,t9
  403a4c:	8f998030 	lw	t9,-32720(gp)
  403a50:	00000000 	nop
  403a54:	1000030c 	b	404688 <__stdio_exit>
  403a58:	00000000 	nop
  403a5c:	00000000 	nop

00403a60 <__fwritex>:
  403a60:	3c1c0002 	lui	gp,0x2
  403a64:	279cd660 	addiu	gp,gp,-10656
  403a68:	0399e021 	addu	gp,gp,t9
  403a6c:	27bdffd0 	addiu	sp,sp,-48
  403a70:	8cc20010 	lw	v0,16(a2)
  403a74:	afbc0010 	sw	gp,16(sp)
  403a78:	afb30028 	sw	s3,40(sp)
  403a7c:	afb20024 	sw	s2,36(sp)
  403a80:	afb0001c 	sw	s0,28(sp)
  403a84:	afbf002c 	sw	ra,44(sp)
  403a88:	afb10020 	sw	s1,32(sp)
  403a8c:	00809825 	move	s3,a0
  403a90:	00a09025 	move	s2,a1
  403a94:	10400013 	beqz	v0,403ae4 <__fwritex+0x84>
  403a98:	00c08025 	move	s0,a2
  403a9c:	8e020010 	lw	v0,16(s0)
  403aa0:	8e030014 	lw	v1,20(s0)
  403aa4:	00000000 	nop
  403aa8:	00431023 	subu	v0,v0,v1
  403aac:	0052102b 	sltu	v0,v0,s2
  403ab0:	10400015 	beqz	v0,403b08 <__fwritex+0xa8>
  403ab4:	02408825 	move	s1,s2
  403ab8:	8fbf002c 	lw	ra,44(sp)
  403abc:	8fb10020 	lw	s1,32(sp)
  403ac0:	8e190024 	lw	t9,36(s0)
  403ac4:	02403025 	move	a2,s2
  403ac8:	02602825 	move	a1,s3
  403acc:	8fb20024 	lw	s2,36(sp)
  403ad0:	8fb30028 	lw	s3,40(sp)
  403ad4:	02002025 	move	a0,s0
  403ad8:	8fb0001c 	lw	s0,28(sp)
  403adc:	03200008 	jr	t9
  403ae0:	27bd0030 	addiu	sp,sp,48
  403ae4:	8f9980c8 	lw	t9,-32568(gp)
  403ae8:	00000000 	nop
  403aec:	0411ffbc 	bal	4039e0 <__towrite>
  403af0:	00c02025 	move	a0,a2
  403af4:	8fbc0010 	lw	gp,16(sp)
  403af8:	1040ffe8 	beqz	v0,403a9c <__fwritex+0x3c>
  403afc:	00001025 	move	v0,zero
  403b00:	1000000e 	b	403b3c <__fwritex+0xdc>
  403b04:	00000000 	nop
  403b08:	8e020050 	lw	v0,80(s0)
  403b0c:	00000000 	nop
  403b10:	04410012 	bgez	v0,403b5c <__fwritex+0xfc>
  403b14:	2403000a 	li	v1,10
  403b18:	8f9980dc 	lw	t9,-32548(gp)
  403b1c:	8e040014 	lw	a0,20(s0)
  403b20:	02203025 	move	a2,s1
  403b24:	0411009a 	bal	403d90 <memcpy>
  403b28:	02602825 	move	a1,s3
  403b2c:	8e060014 	lw	a2,20(s0)
  403b30:	02401025 	move	v0,s2
  403b34:	00d18821 	addu	s1,a2,s1
  403b38:	ae110014 	sw	s1,20(s0)
  403b3c:	8fbf002c 	lw	ra,44(sp)
  403b40:	8fb30028 	lw	s3,40(sp)
  403b44:	8fb20024 	lw	s2,36(sp)
  403b48:	8fb10020 	lw	s1,32(sp)
  403b4c:	8fb0001c 	lw	s0,28(sp)
  403b50:	03e00008 	jr	ra
  403b54:	27bd0030 	addiu	sp,sp,48
  403b58:	00408825 	move	s1,v0
  403b5c:	12200010 	beqz	s1,403ba0 <__fwritex+0x140>
  403b60:	2622ffff 	addiu	v0,s1,-1
  403b64:	02622021 	addu	a0,s3,v0
  403b68:	90840000 	lbu	a0,0(a0)
  403b6c:	00000000 	nop
  403b70:	1483fff9 	bne	a0,v1,403b58 <__fwritex+0xf8>
  403b74:	02203025 	move	a2,s1
  403b78:	8e190024 	lw	t9,36(s0)
  403b7c:	02602825 	move	a1,s3
  403b80:	0320f809 	jalr	t9
  403b84:	02002025 	move	a0,s0
  403b88:	0051182b 	sltu	v1,v0,s1
  403b8c:	8fbc0010 	lw	gp,16(sp)
  403b90:	1460ffea 	bnez	v1,403b3c <__fwritex+0xdc>
  403b94:	02719821 	addu	s3,s3,s1
  403b98:	1000ffdf 	b	403b18 <__fwritex+0xb8>
  403b9c:	02518823 	subu	s1,s2,s1
  403ba0:	1000ffdd 	b	403b18 <__fwritex+0xb8>
  403ba4:	02408825 	move	s1,s2

00403ba8 <fwrite>:
  403ba8:	3c1c0002 	lui	gp,0x2
  403bac:	279cd518 	addiu	gp,gp,-10984
  403bb0:	0399e021 	addu	gp,gp,t9
  403bb4:	00a60018 	mult	a1,a2
  403bb8:	27bdffc8 	addiu	sp,sp,-56
  403bbc:	afbc0010 	sw	gp,16(sp)
  403bc0:	afb50030 	sw	s5,48(sp)
  403bc4:	afb30028 	sw	s3,40(sp)
  403bc8:	afb20024 	sw	s2,36(sp)
  403bcc:	afb10020 	sw	s1,32(sp)
  403bd0:	afb0001c 	sw	s0,28(sp)
  403bd4:	afbf0034 	sw	ra,52(sp)
  403bd8:	afb4002c 	sw	s4,44(sp)
  403bdc:	00809025 	move	s2,a0
  403be0:	00a08825 	move	s1,a1
  403be4:	00e09825 	move	s3,a3
  403be8:	0000a812 	mflo	s5
  403bec:	10a00002 	beqz	a1,403bf8 <fwrite+0x50>
  403bf0:	00008025 	move	s0,zero
  403bf4:	00c08025 	move	s0,a2
  403bf8:	8e62004c 	lw	v0,76(s3)
  403bfc:	00000000 	nop
  403c00:	04400007 	bltz	v0,403c20 <fwrite+0x78>
  403c04:	0000a025 	move	s4,zero
  403c08:	8f9980c4 	lw	t9,-32572(gp)
  403c0c:	00000000 	nop
  403c10:	0411feb6 	bal	4036ec <__lockfile>
  403c14:	02602025 	move	a0,s3
  403c18:	8fbc0010 	lw	gp,16(sp)
  403c1c:	0040a025 	move	s4,v0
  403c20:	8f998088 	lw	t9,-32632(gp)
  403c24:	02402025 	move	a0,s2
  403c28:	02603025 	move	a2,s3
  403c2c:	0411ff8c 	bal	403a60 <__fwritex>
  403c30:	02a02825 	move	a1,s5
  403c34:	8fbc0010 	lw	gp,16(sp)
  403c38:	12800005 	beqz	s4,403c50 <fwrite+0xa8>
  403c3c:	00409025 	move	s2,v0
  403c40:	8f9980cc 	lw	t9,-32564(gp)
  403c44:	00000000 	nop
  403c48:	0411fef6 	bal	403824 <__unlockfile>
  403c4c:	02602025 	move	a0,s3
  403c50:	12b20005 	beq	s5,s2,403c68 <fwrite+0xc0>
  403c54:	00000000 	nop
  403c58:	16200002 	bnez	s1,403c64 <fwrite+0xbc>
  403c5c:	0251001b 	divu	zero,s2,s1
  403c60:	0007000d 	break	0x7
  403c64:	00008012 	mflo	s0
  403c68:	8fbf0034 	lw	ra,52(sp)
  403c6c:	8fb50030 	lw	s5,48(sp)
  403c70:	8fb4002c 	lw	s4,44(sp)
  403c74:	8fb30028 	lw	s3,40(sp)
  403c78:	8fb20024 	lw	s2,36(sp)
  403c7c:	8fb10020 	lw	s1,32(sp)
  403c80:	02001025 	move	v0,s0
  403c84:	8fb0001c 	lw	s0,28(sp)
  403c88:	03e00008 	jr	ra
  403c8c:	27bd0038 	addiu	sp,sp,56

00403c90 <memchr>:
  403c90:	30820003 	andi	v0,a0,0x3
  403c94:	1440000b 	bnez	v0,403cc4 <memchr+0x34>
  403c98:	30a500ff 	andi	a1,a1,0xff
  403c9c:	1000000d 	b	403cd4 <memchr+0x44>
  403ca0:	00000000 	nop
  403ca4:	90820000 	lbu	v0,0(a0)
  403ca8:	00000000 	nop
  403cac:	10450028 	beq	v0,a1,403d50 <memchr+0xc0>
  403cb0:	00801025 	move	v0,a0
  403cb4:	24840001 	addiu	a0,a0,1
  403cb8:	30820003 	andi	v0,a0,0x3
  403cbc:	10400005 	beqz	v0,403cd4 <memchr+0x44>
  403cc0:	24c6ffff 	addiu	a2,a2,-1
  403cc4:	14c0fff7 	bnez	a2,403ca4 <memchr+0x14>
  403cc8:	00000000 	nop
  403ccc:	03e00008 	jr	ra
  403cd0:	00001025 	move	v0,zero
  403cd4:	10c0fffd 	beqz	a2,403ccc <memchr+0x3c>
  403cd8:	00000000 	nop
  403cdc:	90820000 	lbu	v0,0(a0)
  403ce0:	00000000 	nop
  403ce4:	1045001a 	beq	v0,a1,403d50 <memchr+0xc0>
  403ce8:	00801025 	move	v0,a0
  403cec:	00053a00 	sll	a3,a1,0x8
  403cf0:	00e53821 	addu	a3,a3,a1
  403cf4:	00071c00 	sll	v1,a3,0x10
  403cf8:	2cc20004 	sltiu	v0,a2,4
  403cfc:	14400013 	bnez	v0,403d4c <memchr+0xbc>
  403d00:	00e33821 	addu	a3,a3,v1
  403d04:	3c09fefe 	lui	t1,0xfefe
  403d08:	3c088080 	lui	t0,0x8080
  403d0c:	3529feff 	ori	t1,t1,0xfeff
  403d10:	10000004 	b	403d24 <memchr+0x94>
  403d14:	35088080 	ori	t0,t0,0x8080
  403d18:	2cc20004 	sltiu	v0,a2,4
  403d1c:	14400018 	bnez	v0,403d80 <memchr+0xf0>
  403d20:	24840004 	addiu	a0,a0,4
  403d24:	8c820000 	lw	v0,0(a0)
  403d28:	00000000 	nop
  403d2c:	00e21026 	xor	v0,a3,v0
  403d30:	00491821 	addu	v1,v0,t1
  403d34:	00021027 	nor	v0,zero,v0
  403d38:	00621024 	and	v0,v1,v0
  403d3c:	00481024 	and	v0,v0,t0
  403d40:	1040fff5 	beqz	v0,403d18 <memchr+0x88>
  403d44:	24c6fffc 	addiu	a2,a2,-4
  403d48:	24c60004 	addiu	a2,a2,4
  403d4c:	00801025 	move	v0,a0
  403d50:	10000003 	b	403d60 <memchr+0xd0>
  403d54:	00862021 	addu	a0,a0,a2
  403d58:	10440007 	beq	v0,a0,403d78 <memchr+0xe8>
  403d5c:	00000000 	nop
  403d60:	90430000 	lbu	v1,0(v0)
  403d64:	00000000 	nop
  403d68:	1465fffb 	bne	v1,a1,403d58 <memchr+0xc8>
  403d6c:	24420001 	addiu	v0,v0,1
  403d70:	03e00008 	jr	ra
  403d74:	2442ffff 	addiu	v0,v0,-1
  403d78:	03e00008 	jr	ra
  403d7c:	00001025 	move	v0,zero
  403d80:	14c0fff2 	bnez	a2,403d4c <memchr+0xbc>
  403d84:	00001025 	move	v0,zero
  403d88:	03e00008 	jr	ra
  403d8c:	00000000 	nop

00403d90 <memcpy>:
  403d90:	30a30003 	andi	v1,a1,0x3
  403d94:	10600125 	beqz	v1,40422c <memcpy+0x49c>
  403d98:	00801025 	move	v0,a0
  403d9c:	10c0009d 	beqz	a2,404014 <memcpy+0x284>
  403da0:	00801825 	move	v1,a0
  403da4:	10000003 	b	403db4 <memcpy+0x24>
  403da8:	24a50001 	addiu	a1,a1,1
  403dac:	10c00099 	beqz	a2,404014 <memcpy+0x284>
  403db0:	24a50001 	addiu	a1,a1,1
  403db4:	90a8ffff 	lbu	t0,-1(a1)
  403db8:	30a70003 	andi	a3,a1,0x3
  403dbc:	24630001 	addiu	v1,v1,1
  403dc0:	24c6ffff 	addiu	a2,a2,-1
  403dc4:	14e0fff9 	bnez	a3,403dac <memcpy+0x1c>
  403dc8:	a068ffff 	sb	t0,-1(v1)
  403dcc:	30640003 	andi	a0,v1,0x3
  403dd0:	10800092 	beqz	a0,40401c <memcpy+0x28c>
  403dd4:	2cc70020 	sltiu	a3,a2,32
  403dd8:	27bdfff8 	addiu	sp,sp,-8
  403ddc:	afb10004 	sw	s1,4(sp)
  403de0:	14e00033 	bnez	a3,403eb0 <memcpy+0x120>
  403de4:	afb00000 	sw	s0,0(sp)
  403de8:	24080002 	li	t0,2
  403dec:	90a90000 	lbu	t1,0(a1)
  403df0:	8ca70000 	lw	a3,0(a1)
  403df4:	108800e3 	beq	a0,t0,404184 <memcpy+0x3f4>
  403df8:	24d9ffec 	addiu	t9,a2,-20
  403dfc:	24080003 	li	t0,3
  403e00:	108800b9 	beq	a0,t0,4040e8 <memcpy+0x358>
  403e04:	0019c902 	srl	t9,t9,0x4
  403e08:	90a80001 	lbu	t0,1(a1)
  403e0c:	90a40002 	lbu	a0,2(a1)
  403e10:	0019c100 	sll	t8,t9,0x4
  403e14:	24a50003 	addiu	a1,a1,3
  403e18:	24700003 	addiu	s0,v1,3
  403e1c:	27180013 	addiu	t8,t8,19
  403e20:	a0690000 	sb	t1,0(v1)
  403e24:	a0680001 	sb	t0,1(v1)
  403e28:	a0640002 	sb	a0,2(v1)
  403e2c:	0078c021 	addu	t8,v1,t8
  403e30:	00a05025 	move	t2,a1
  403e34:	02001825 	move	v1,s0
  403e38:	8d490001 	lw	t1,1(t2)
  403e3c:	8d480005 	lw	t0,5(t2)
  403e40:	8d440009 	lw	a0,9(t2)
  403e44:	00075e02 	srl	t3,a3,0x18
  403e48:	8d47000d 	lw	a3,13(t2)
  403e4c:	00097a00 	sll	t7,t1,0x8
  403e50:	00087200 	sll	t6,t0,0x8
  403e54:	00046a00 	sll	t5,a0,0x8
  403e58:	00094e02 	srl	t1,t1,0x18
  403e5c:	00084602 	srl	t0,t0,0x18
  403e60:	00042602 	srl	a0,a0,0x18
  403e64:	00076200 	sll	t4,a3,0x8
  403e68:	016f5825 	or	t3,t3,t7
  403e6c:	012e4825 	or	t1,t1,t6
  403e70:	010d4025 	or	t0,t0,t5
  403e74:	008c2025 	or	a0,a0,t4
  403e78:	ac6b0000 	sw	t3,0(v1)
  403e7c:	ac690004 	sw	t1,4(v1)
  403e80:	ac680008 	sw	t0,8(v1)
  403e84:	ac64000c 	sw	a0,12(v1)
  403e88:	24630010 	addiu	v1,v1,16
  403e8c:	1478ffea 	bne	v1,t8,403e38 <memcpy+0xa8>
  403e90:	254a0010 	addiu	t2,t2,16
  403e94:	27240001 	addiu	a0,t9,1
  403e98:	00042100 	sll	a0,a0,0x4
  403e9c:	24c6ffed 	addiu	a2,a2,-19
  403ea0:	0019c900 	sll	t9,t9,0x4
  403ea4:	00d93023 	subu	a2,a2,t9
  403ea8:	02041821 	addu	v1,s0,a0
  403eac:	00a42821 	addu	a1,a1,a0
  403eb0:	30c40010 	andi	a0,a2,0x10
  403eb4:	30c90008 	andi	t1,a2,0x8
  403eb8:	30c80004 	andi	t0,a2,0x4
  403ebc:	30c70002 	andi	a3,a2,0x2
  403ec0:	108000de 	beqz	a0,40423c <memcpy+0x4ac>
  403ec4:	30c60001 	andi	a2,a2,0x1
  403ec8:	90b10000 	lbu	s1,0(a1)
  403ecc:	90a4000e 	lbu	a0,14(a1)
  403ed0:	a0710000 	sb	s1,0(v1)
  403ed4:	90b10001 	lbu	s1,1(a1)
  403ed8:	90b00006 	lbu	s0,6(a1)
  403edc:	a0710001 	sb	s1,1(v1)
  403ee0:	90b10002 	lbu	s1,2(a1)
  403ee4:	90b90007 	lbu	t9,7(a1)
  403ee8:	a0710002 	sb	s1,2(v1)
  403eec:	90b10003 	lbu	s1,3(a1)
  403ef0:	90b80008 	lbu	t8,8(a1)
  403ef4:	a0710003 	sb	s1,3(v1)
  403ef8:	90b10004 	lbu	s1,4(a1)
  403efc:	90af0009 	lbu	t7,9(a1)
  403f00:	90ae000a 	lbu	t6,10(a1)
  403f04:	90ad000b 	lbu	t5,11(a1)
  403f08:	90ac000c 	lbu	t4,12(a1)
  403f0c:	90ab000d 	lbu	t3,13(a1)
  403f10:	90aa000f 	lbu	t2,15(a1)
  403f14:	a0710004 	sb	s1,4(v1)
  403f18:	90b10005 	lbu	s1,5(a1)
  403f1c:	a064000e 	sb	a0,14(v1)
  403f20:	a0710005 	sb	s1,5(v1)
  403f24:	a0700006 	sb	s0,6(v1)
  403f28:	a0790007 	sb	t9,7(v1)
  403f2c:	a0780008 	sb	t8,8(v1)
  403f30:	a06f0009 	sb	t7,9(v1)
  403f34:	a06e000a 	sb	t6,10(v1)
  403f38:	a06d000b 	sb	t5,11(v1)
  403f3c:	a06c000c 	sb	t4,12(v1)
  403f40:	a06b000d 	sb	t3,13(v1)
  403f44:	24a50010 	addiu	a1,a1,16
  403f48:	24640010 	addiu	a0,v1,16
  403f4c:	a06a000f 	sb	t2,15(v1)
  403f50:	11200013 	beqz	t1,403fa0 <memcpy+0x210>
  403f54:	00801825 	move	v1,a0
  403f58:	90a30006 	lbu	v1,6(a1)
  403f5c:	90af0000 	lbu	t7,0(a1)
  403f60:	90ae0001 	lbu	t6,1(a1)
  403f64:	90ad0002 	lbu	t5,2(a1)
  403f68:	90ac0003 	lbu	t4,3(a1)
  403f6c:	90ab0004 	lbu	t3,4(a1)
  403f70:	90aa0005 	lbu	t2,5(a1)
  403f74:	90a90007 	lbu	t1,7(a1)
  403f78:	a0830006 	sb	v1,6(a0)
  403f7c:	a08f0000 	sb	t7,0(a0)
  403f80:	a08e0001 	sb	t6,1(a0)
  403f84:	a08d0002 	sb	t5,2(a0)
  403f88:	a08c0003 	sb	t4,3(a0)
  403f8c:	a08b0004 	sb	t3,4(a0)
  403f90:	a08a0005 	sb	t2,5(a0)
  403f94:	24a50008 	addiu	a1,a1,8
  403f98:	24830008 	addiu	v1,a0,8
  403f9c:	a0890007 	sb	t1,7(a0)
  403fa0:	1100000b 	beqz	t0,403fd0 <memcpy+0x240>
  403fa4:	00602025 	move	a0,v1
  403fa8:	90a40002 	lbu	a0,2(a1)
  403fac:	90aa0000 	lbu	t2,0(a1)
  403fb0:	90a90001 	lbu	t1,1(a1)
  403fb4:	90a80003 	lbu	t0,3(a1)
  403fb8:	a0640002 	sb	a0,2(v1)
  403fbc:	a06a0000 	sb	t2,0(v1)
  403fc0:	a0690001 	sb	t1,1(v1)
  403fc4:	24a50004 	addiu	a1,a1,4
  403fc8:	24640004 	addiu	a0,v1,4
  403fcc:	a0680003 	sb	t0,3(v1)
  403fd0:	10e00007 	beqz	a3,403ff0 <memcpy+0x260>
  403fd4:	00801825 	move	v1,a0
  403fd8:	90a30000 	lbu	v1,0(a1)
  403fdc:	90a70001 	lbu	a3,1(a1)
  403fe0:	a0830000 	sb	v1,0(a0)
  403fe4:	24a50002 	addiu	a1,a1,2
  403fe8:	24830002 	addiu	v1,a0,2
  403fec:	a0870001 	sb	a3,1(a0)
  403ff0:	10c00004 	beqz	a2,404004 <memcpy+0x274>
  403ff4:	00000000 	nop
  403ff8:	90a40000 	lbu	a0,0(a1)
  403ffc:	00000000 	nop
  404000:	a0640000 	sb	a0,0(v1)
  404004:	8fb10004 	lw	s1,4(sp)
  404008:	8fb00000 	lw	s0,0(sp)
  40400c:	03e00008 	jr	ra
  404010:	27bd0008 	addiu	sp,sp,8
  404014:	03e00008 	jr	ra
  404018:	00000000 	nop
  40401c:	2cc40010 	sltiu	a0,a2,16
  404020:	14800084 	bnez	a0,404234 <memcpy+0x4a4>
  404024:	24ccfff0 	addiu	t4,a2,-16
  404028:	000c6102 	srl	t4,t4,0x4
  40402c:	258c0001 	addiu	t4,t4,1
  404030:	000c6100 	sll	t4,t4,0x4
  404034:	006c5821 	addu	t3,v1,t4
  404038:	00a03825 	move	a3,a1
  40403c:	8cea0004 	lw	t2,4(a3)
  404040:	8ce80008 	lw	t0,8(a3)
  404044:	8ce4000c 	lw	a0,12(a3)
  404048:	8ce90000 	lw	t1,0(a3)
  40404c:	ac6a0004 	sw	t2,4(v1)
  404050:	ac690000 	sw	t1,0(v1)
  404054:	ac680008 	sw	t0,8(v1)
  404058:	ac64000c 	sw	a0,12(v1)
  40405c:	24630010 	addiu	v1,v1,16
  404060:	1563fff6 	bne	t3,v1,40403c <memcpy+0x2ac>
  404064:	24e70010 	addiu	a3,a3,16
  404068:	30c6000f 	andi	a2,a2,0xf
  40406c:	00ac2821 	addu	a1,a1,t4
  404070:	30c70008 	andi	a3,a2,0x8
  404074:	30c40004 	andi	a0,a2,0x4
  404078:	30c30002 	andi	v1,a2,0x2
  40407c:	10e00007 	beqz	a3,40409c <memcpy+0x30c>
  404080:	30c60001 	andi	a2,a2,0x1
  404084:	8ca80004 	lw	t0,4(a1)
  404088:	8ca70000 	lw	a3,0(a1)
  40408c:	ad680004 	sw	t0,4(t3)
  404090:	ad670000 	sw	a3,0(t3)
  404094:	24a50008 	addiu	a1,a1,8
  404098:	256b0008 	addiu	t3,t3,8
  40409c:	10800005 	beqz	a0,4040b4 <memcpy+0x324>
  4040a0:	00000000 	nop
  4040a4:	8ca40000 	lw	a0,0(a1)
  4040a8:	256b0004 	addiu	t3,t3,4
  4040ac:	24a50004 	addiu	a1,a1,4
  4040b0:	ad64fffc 	sw	a0,-4(t3)
  4040b4:	10600007 	beqz	v1,4040d4 <memcpy+0x344>
  4040b8:	01601825 	move	v1,t3
  4040bc:	90a30000 	lbu	v1,0(a1)
  4040c0:	90a40001 	lbu	a0,1(a1)
  4040c4:	a1630000 	sb	v1,0(t3)
  4040c8:	24a50002 	addiu	a1,a1,2
  4040cc:	25630002 	addiu	v1,t3,2
  4040d0:	a1640001 	sb	a0,1(t3)
  4040d4:	10c0ffcf 	beqz	a2,404014 <memcpy+0x284>
  4040d8:	00000000 	nop
  4040dc:	90a40000 	lbu	a0,0(a1)
  4040e0:	03e00008 	jr	ra
  4040e4:	a0640000 	sb	a0,0(v1)
  4040e8:	0019c100 	sll	t8,t9,0x4
  4040ec:	24a50001 	addiu	a1,a1,1
  4040f0:	24700001 	addiu	s0,v1,1
  4040f4:	27180011 	addiu	t8,t8,17
  4040f8:	a0690000 	sb	t1,0(v1)
  4040fc:	0078c021 	addu	t8,v1,t8
  404100:	00a02025 	move	a0,a1
  404104:	02001825 	move	v1,s0
  404108:	8c8a0003 	lw	t2,3(a0)
  40410c:	8c890007 	lw	t1,7(a0)
  404110:	8c88000b 	lw	t0,11(a0)
  404114:	00075a02 	srl	t3,a3,0x8
  404118:	8c87000f 	lw	a3,15(a0)
  40411c:	000a7e00 	sll	t7,t2,0x18
  404120:	00097600 	sll	t6,t1,0x18
  404124:	00086e00 	sll	t5,t0,0x18
  404128:	000a5202 	srl	t2,t2,0x8
  40412c:	00094a02 	srl	t1,t1,0x8
  404130:	00084202 	srl	t0,t0,0x8
  404134:	00076600 	sll	t4,a3,0x18
  404138:	016f5825 	or	t3,t3,t7
  40413c:	014e5025 	or	t2,t2,t6
  404140:	012d4825 	or	t1,t1,t5
  404144:	010c4025 	or	t0,t0,t4
  404148:	ac6b0000 	sw	t3,0(v1)
  40414c:	ac6a0004 	sw	t2,4(v1)
  404150:	ac690008 	sw	t1,8(v1)
  404154:	ac68000c 	sw	t0,12(v1)
  404158:	24630010 	addiu	v1,v1,16
  40415c:	1478ffea 	bne	v1,t8,404108 <memcpy+0x378>
  404160:	24840010 	addiu	a0,a0,16
  404164:	27240001 	addiu	a0,t9,1
  404168:	00042100 	sll	a0,a0,0x4
  40416c:	24c6ffef 	addiu	a2,a2,-17
  404170:	0019c900 	sll	t9,t9,0x4
  404174:	00d93023 	subu	a2,a2,t9
  404178:	02041821 	addu	v1,s0,a0
  40417c:	1000ff4c 	b	403eb0 <memcpy+0x120>
  404180:	00a42821 	addu	a1,a1,a0
  404184:	0019c902 	srl	t9,t9,0x4
  404188:	90a40001 	lbu	a0,1(a1)
  40418c:	0019c100 	sll	t8,t9,0x4
  404190:	24a50002 	addiu	a1,a1,2
  404194:	24700002 	addiu	s0,v1,2
  404198:	27180012 	addiu	t8,t8,18
  40419c:	a0690000 	sb	t1,0(v1)
  4041a0:	a0640001 	sb	a0,1(v1)
  4041a4:	0078c021 	addu	t8,v1,t8
  4041a8:	00a05025 	move	t2,a1
  4041ac:	02001825 	move	v1,s0
  4041b0:	8d490002 	lw	t1,2(t2)
  4041b4:	8d440006 	lw	a0,6(t2)
  4041b8:	8d48000a 	lw	t0,10(t2)
  4041bc:	00075c02 	srl	t3,a3,0x10
  4041c0:	8d47000e 	lw	a3,14(t2)
  4041c4:	00097c00 	sll	t7,t1,0x10
  4041c8:	00047400 	sll	t6,a0,0x10
  4041cc:	00086c00 	sll	t5,t0,0x10
  4041d0:	00094c02 	srl	t1,t1,0x10
  4041d4:	00042402 	srl	a0,a0,0x10
  4041d8:	00084402 	srl	t0,t0,0x10
  4041dc:	00076400 	sll	t4,a3,0x10
  4041e0:	016f5825 	or	t3,t3,t7
  4041e4:	012e4825 	or	t1,t1,t6
  4041e8:	008d2025 	or	a0,a0,t5
  4041ec:	010c4025 	or	t0,t0,t4
  4041f0:	ac6b0000 	sw	t3,0(v1)
  4041f4:	ac690004 	sw	t1,4(v1)
  4041f8:	ac640008 	sw	a0,8(v1)
  4041fc:	ac68000c 	sw	t0,12(v1)
  404200:	24630010 	addiu	v1,v1,16
  404204:	1478ffea 	bne	v1,t8,4041b0 <memcpy+0x420>
  404208:	254a0010 	addiu	t2,t2,16
  40420c:	27240001 	addiu	a0,t9,1
  404210:	00042100 	sll	a0,a0,0x4
  404214:	24c6ffee 	addiu	a2,a2,-18
  404218:	0019c900 	sll	t9,t9,0x4
  40421c:	00d93023 	subu	a2,a2,t9
  404220:	02041821 	addu	v1,s0,a0
  404224:	1000ff22 	b	403eb0 <memcpy+0x120>
  404228:	00a42821 	addu	a1,a1,a0
  40422c:	1000fee7 	b	403dcc <memcpy+0x3c>
  404230:	00801825 	move	v1,a0
  404234:	1000ff8e 	b	404070 <memcpy+0x2e0>
  404238:	00605825 	move	t3,v1
  40423c:	1000ff44 	b	403f50 <memcpy+0x1c0>
  404240:	00602025 	move	a0,v1
	...

00404250 <__set_thread_area>:
  404250:	240210bb 	li	v0,4283
  404254:	0000000c 	syscall
  404258:	10e00004 	beqz	a3,40426c <__set_thread_area+0x1c>
  40425c:	00000000 	nop
  404260:	18400002 	blez	v0,40426c <__set_thread_area+0x1c>
  404264:	00000000 	nop
  404268:	00021023 	negu	v0,v0
  40426c:	03e00008 	jr	ra
  404270:	00000000 	nop
	...

00404280 <lseek>:
  404280:	3c1c0002 	lui	gp,0x2
  404284:	279cce40 	addiu	gp,gp,-12736
  404288:	0399e021 	addu	gp,gp,t9
  40428c:	27bdffd8 	addiu	sp,sp,-40
  404290:	afbc0010 	sw	gp,16(sp)
  404294:	00e02825 	move	a1,a3
  404298:	8fa80038 	lw	t0,56(sp)
  40429c:	afbf0024 	sw	ra,36(sp)
  4042a0:	27a70018 	addiu	a3,sp,24
  4042a4:	27bdffe0 	addiu	sp,sp,-32
  4042a8:	afa80010 	sw	t0,16(sp)
  4042ac:	2402102c 	li	v0,4140
  4042b0:	0000000c 	syscall
  4042b4:	27bd0020 	addiu	sp,sp,32
  4042b8:	10e00004 	beqz	a3,4042cc <lseek+0x4c>
  4042bc:	00402025 	move	a0,v0
  4042c0:	18400002 	blez	v0,4042cc <lseek+0x4c>
  4042c4:	00000000 	nop
  4042c8:	00022023 	negu	a0,v0
  4042cc:	8f998108 	lw	t9,-32504(gp)
  4042d0:	00000000 	nop
  4042d4:	0411000e 	bal	404310 <__syscall_ret>
  4042d8:	00000000 	nop
  4042dc:	2404ffff 	li	a0,-1
  4042e0:	14400003 	bnez	v0,4042f0 <lseek+0x70>
  4042e4:	2405ffff 	li	a1,-1
  4042e8:	8fa40018 	lw	a0,24(sp)
  4042ec:	8fa5001c 	lw	a1,28(sp)
  4042f0:	8fbf0024 	lw	ra,36(sp)
  4042f4:	00801025 	move	v0,a0
  4042f8:	00a01825 	move	v1,a1
  4042fc:	03e00008 	jr	ra
  404300:	27bd0028 	addiu	sp,sp,40
	...

00404310 <__syscall_ret>:
  404310:	3c1c0002 	lui	gp,0x2
  404314:	279ccdb0 	addiu	gp,gp,-12880
  404318:	0399e021 	addu	gp,gp,t9
  40431c:	2c82f001 	sltiu	v0,a0,-4095
  404320:	10400003 	beqz	v0,404330 <__syscall_ret+0x20>
  404324:	00801025 	move	v0,a0
  404328:	03e00008 	jr	ra
  40432c:	00000000 	nop
  404330:	27bdffd8 	addiu	sp,sp,-40
  404334:	8f99808c 	lw	t9,-32628(gp)
  404338:	afbf0024 	sw	ra,36(sp)
  40433c:	afbc0010 	sw	gp,16(sp)
  404340:	afa40018 	sw	a0,24(sp)
  404344:	0411fc76 	bal	403520 <__errno_location>
  404348:	00000000 	nop
  40434c:	8fa40018 	lw	a0,24(sp)
  404350:	8fbf0024 	lw	ra,36(sp)
  404354:	00042023 	negu	a0,a0
  404358:	ac440000 	sw	a0,0(v0)
  40435c:	2404ffff 	li	a0,-1
  404360:	00801025 	move	v0,a0
  404364:	03e00008 	jr	ra
  404368:	27bd0028 	addiu	sp,sp,40
  40436c:	00000000 	nop

00404370 <frexp>:
  404370:	3c1c0002 	lui	gp,0x2
  404374:	279ccd50 	addiu	gp,gp,-12976
  404378:	0399e021 	addu	gp,gp,t9
  40437c:	27bdffd8 	addiu	sp,sp,-40
  404380:	00051502 	srl	v0,a1,0x14
  404384:	304207ff 	andi	v0,v0,0x7ff
  404388:	afbc0010 	sw	gp,16(sp)
  40438c:	afb20020 	sw	s2,32(sp)
  404390:	afb1001c 	sw	s1,28(sp)
  404394:	afb00018 	sw	s0,24(sp)
  404398:	afbf0024 	sw	ra,36(sp)
  40439c:	00808825 	move	s1,a0
  4043a0:	00a08025 	move	s0,a1
  4043a4:	14400024 	bnez	v0,404438 <frexp+0xc8>
  4043a8:	00c09025 	move	s2,a2
  4043ac:	8f9980a4 	lw	t9,-32604(gp)
  4043b0:	00003025 	move	a2,zero
  4043b4:	04110a26 	bal	406c50 <__eqdf2>
  4043b8:	00003825 	move	a3,zero
  4043bc:	8fbc0010 	lw	gp,16(sp)
  4043c0:	1040001b 	beqz	v0,404430 <frexp+0xc0>
  4043c4:	02202025 	move	a0,s1
  4043c8:	8f82801c 	lw	v0,-32740(gp)
  4043cc:	8f9980b4 	lw	t9,-32588(gp)
  4043d0:	8c468dd8 	lw	a2,-29224(v0)
  4043d4:	8c478ddc 	lw	a3,-29220(v0)
  4043d8:	04110a49 	bal	406d00 <__muldf3>
  4043dc:	02002825 	move	a1,s0
  4043e0:	8fbc0010 	lw	gp,16(sp)
  4043e4:	02403025 	move	a2,s2
  4043e8:	8f998018 	lw	t9,-32744(gp)
  4043ec:	00402025 	move	a0,v0
  4043f0:	27394370 	addiu	t9,t9,17264
  4043f4:	0411ffde 	bal	404370 <frexp>
  4043f8:	00602825 	move	a1,v1
  4043fc:	00408825 	move	s1,v0
  404400:	8e420000 	lw	v0,0(s2)
  404404:	00608025 	move	s0,v1
  404408:	2442ffc0 	addiu	v0,v0,-64
  40440c:	ae420000 	sw	v0,0(s2)
  404410:	8fbf0024 	lw	ra,36(sp)
  404414:	8fb20020 	lw	s2,32(sp)
  404418:	02201025 	move	v0,s1
  40441c:	02001825 	move	v1,s0
  404420:	8fb1001c 	lw	s1,28(sp)
  404424:	8fb00018 	lw	s0,24(sp)
  404428:	03e00008 	jr	ra
  40442c:	27bd0028 	addiu	sp,sp,40
  404430:	1000fff7 	b	404410 <frexp+0xa0>
  404434:	ae400000 	sw	zero,0(s2)
  404438:	240407ff 	li	a0,2047
  40443c:	1044fff4 	beq	v0,a0,404410 <frexp+0xa0>
  404440:	2442fc02 	addiu	v0,v0,-1022
  404444:	acc20000 	sw	v0,0(a2)
  404448:	3c02800f 	lui	v0,0x800f
  40444c:	3442ffff 	ori	v0,v0,0xffff
  404450:	00a21824 	and	v1,a1,v0
  404454:	3c103fe0 	lui	s0,0x3fe0
  404458:	1000ffed 	b	404410 <frexp+0xa0>
  40445c:	02038025 	or	s0,s0,v1

00404460 <wcrtomb>:
  404460:	3c1c0002 	lui	gp,0x2
  404464:	279ccc60 	addiu	gp,gp,-13216
  404468:	0399e021 	addu	gp,gp,t9
  40446c:	10800005 	beqz	a0,404484 <wcrtomb+0x24>
  404470:	24020001 	li	v0,1
  404474:	2ca20080 	sltiu	v0,a1,128
  404478:	1040000a 	beqz	v0,4044a4 <wcrtomb+0x44>
  40447c:	24020001 	li	v0,1
  404480:	a0850000 	sb	a1,0(a0)
  404484:	03e00008 	jr	ra
  404488:	00000000 	nop
  40448c:	a0850000 	sb	a1,0(a0)
  404490:	24020001 	li	v0,1
  404494:	8fbf001c 	lw	ra,28(sp)
  404498:	00000000 	nop
  40449c:	03e00008 	jr	ra
  4044a0:	27bd0020 	addiu	sp,sp,32
  4044a4:	7c03e83b 	0x7c03e83b
  4044a8:	8c628fe8 	lw	v0,-28696(v1)
  4044ac:	27bdffe0 	addiu	sp,sp,-32
  4044b0:	8c420000 	lw	v0,0(v0)
  4044b4:	afbc0010 	sw	gp,16(sp)
  4044b8:	afbf001c 	sw	ra,28(sp)
  4044bc:	1440000f 	bnez	v0,4044fc <wcrtomb+0x9c>
  4044c0:	2ca20800 	sltiu	v0,a1,2048
  4044c4:	3c02ffff 	lui	v0,0xffff
  4044c8:	24422080 	addiu	v0,v0,8320
  4044cc:	00a21021 	addu	v0,a1,v0
  4044d0:	2c420080 	sltiu	v0,v0,128
  4044d4:	1440ffed 	bnez	v0,40448c <wcrtomb+0x2c>
  4044d8:	00000000 	nop
  4044dc:	8f99808c 	lw	t9,-32628(gp)
  4044e0:	00000000 	nop
  4044e4:	0411fc0e 	bal	403520 <__errno_location>
  4044e8:	00000000 	nop
  4044ec:	24030058 	li	v1,88
  4044f0:	ac430000 	sw	v1,0(v0)
  4044f4:	1000ffe7 	b	404494 <wcrtomb+0x34>
  4044f8:	2402ffff 	li	v0,-1
  4044fc:	1040000a 	beqz	v0,404528 <wcrtomb+0xc8>
  404500:	00051183 	sra	v0,a1,0x6
  404504:	2403ffc0 	li	v1,-64
  404508:	00431025 	or	v0,v0,v1
  40450c:	a0820000 	sb	v0,0(a0)
  404510:	30a5003f 	andi	a1,a1,0x3f
  404514:	2402ff80 	li	v0,-128
  404518:	00a22825 	or	a1,a1,v0
  40451c:	a0850001 	sb	a1,1(a0)
  404520:	1000ffdc 	b	404494 <wcrtomb+0x34>
  404524:	24020002 	li	v0,2
  404528:	3402d800 	li	v0,0xd800
  40452c:	00a2102b 	sltu	v0,a1,v0
  404530:	14400008 	bnez	v0,404554 <wcrtomb+0xf4>
  404534:	00051303 	sra	v0,a1,0xc
  404538:	3c02ffff 	lui	v0,0xffff
  40453c:	24432000 	addiu	v1,v0,8192
  404540:	00a31821 	addu	v1,a1,v1
  404544:	2c632000 	sltiu	v1,v1,8192
  404548:	1060000f 	beqz	v1,404588 <wcrtomb+0x128>
  40454c:	3c030010 	lui	v1,0x10
  404550:	00051303 	sra	v0,a1,0xc
  404554:	2403ffe0 	li	v1,-32
  404558:	00431025 	or	v0,v0,v1
  40455c:	a0820000 	sb	v0,0(a0)
  404560:	00051183 	sra	v0,a1,0x6
  404564:	2403ff80 	li	v1,-128
  404568:	3042003f 	andi	v0,v0,0x3f
  40456c:	30a5003f 	andi	a1,a1,0x3f
  404570:	00431025 	or	v0,v0,v1
  404574:	00a32825 	or	a1,a1,v1
  404578:	a0820001 	sb	v0,1(a0)
  40457c:	a0850002 	sb	a1,2(a0)
  404580:	1000ffc4 	b	404494 <wcrtomb+0x34>
  404584:	24020003 	li	v0,3
  404588:	00a21021 	addu	v0,a1,v0
  40458c:	0043102b 	sltu	v0,v0,v1
  404590:	1040ffd2 	beqz	v0,4044dc <wcrtomb+0x7c>
  404594:	2403fff0 	li	v1,-16
  404598:	00051483 	sra	v0,a1,0x12
  40459c:	00431025 	or	v0,v0,v1
  4045a0:	a0820000 	sb	v0,0(a0)
  4045a4:	00051303 	sra	v0,a1,0xc
  4045a8:	2403ff80 	li	v1,-128
  4045ac:	3042003f 	andi	v0,v0,0x3f
  4045b0:	00431025 	or	v0,v0,v1
  4045b4:	a0820001 	sb	v0,1(a0)
  4045b8:	00051183 	sra	v0,a1,0x6
  4045bc:	3042003f 	andi	v0,v0,0x3f
  4045c0:	30a5003f 	andi	a1,a1,0x3f
  4045c4:	00431025 	or	v0,v0,v1
  4045c8:	00a32825 	or	a1,a1,v1
  4045cc:	a0820002 	sb	v0,2(a0)
  4045d0:	a0850003 	sb	a1,3(a0)
  4045d4:	1000ffaf 	b	404494 <wcrtomb+0x34>
  4045d8:	24020004 	li	v0,4
  4045dc:	00000000 	nop

004045e0 <close_file>:
  4045e0:	3c1c0002 	lui	gp,0x2
  4045e4:	279ccae0 	addiu	gp,gp,-13600
  4045e8:	0399e021 	addu	gp,gp,t9
  4045ec:	10800024 	beqz	a0,404680 <close_file+0xa0>
  4045f0:	00000000 	nop
  4045f4:	27bdffd8 	addiu	sp,sp,-40
  4045f8:	8c82004c 	lw	v0,76(a0)
  4045fc:	afbc0018 	sw	gp,24(sp)
  404600:	afb00020 	sw	s0,32(sp)
  404604:	afbf0024 	sw	ra,36(sp)
  404608:	04400005 	bltz	v0,404620 <close_file+0x40>
  40460c:	00808025 	move	s0,a0
  404610:	8f9980c4 	lw	t9,-32572(gp)
  404614:	00000000 	nop
  404618:	0411fc34 	bal	4036ec <__lockfile>
  40461c:	00000000 	nop
  404620:	8e030014 	lw	v1,20(s0)
  404624:	8e02001c 	lw	v0,28(s0)
  404628:	00000000 	nop
  40462c:	10620005 	beq	v1,v0,404644 <close_file+0x64>
  404630:	00003025 	move	a2,zero
  404634:	8e190024 	lw	t9,36(s0)
  404638:	00002825 	move	a1,zero
  40463c:	0320f809 	jalr	t9
  404640:	02002025 	move	a0,s0
  404644:	8e060004 	lw	a2,4(s0)
  404648:	8e020008 	lw	v0,8(s0)
  40464c:	00000000 	nop
  404650:	10c20007 	beq	a2,v0,404670 <close_file+0x90>
  404654:	00c23023 	subu	a2,a2,v0
  404658:	24020001 	li	v0,1
  40465c:	afa20010 	sw	v0,16(sp)
  404660:	8e190028 	lw	t9,40(s0)
  404664:	00063fc3 	sra	a3,a2,0x1f
  404668:	0320f809 	jalr	t9
  40466c:	02002025 	move	a0,s0
  404670:	8fbf0024 	lw	ra,36(sp)
  404674:	8fb00020 	lw	s0,32(sp)
  404678:	03e00008 	jr	ra
  40467c:	27bd0028 	addiu	sp,sp,40
  404680:	03e00008 	jr	ra
  404684:	00000000 	nop

00404688 <__stdio_exit>:
  404688:	3c1c0002 	lui	gp,0x2
  40468c:	279cca38 	addiu	gp,gp,-13768
  404690:	0399e021 	addu	gp,gp,t9
  404694:	27bdffd8 	addiu	sp,sp,-40
  404698:	8f998114 	lw	t9,-32492(gp)
  40469c:	afbc0010 	sw	gp,16(sp)
  4046a0:	afb10020 	sw	s1,32(sp)
  4046a4:	afb0001c 	sw	s0,28(sp)
  4046a8:	afbf0024 	sw	ra,36(sp)
  4046ac:	0411007c 	bal	4048a0 <__ofl_lock>
  4046b0:	00000000 	nop
  4046b4:	8fbc0010 	lw	gp,16(sp)
  4046b8:	8c510000 	lw	s1,0(v0)
  4046bc:	8f908018 	lw	s0,-32744(gp)
  4046c0:	00000000 	nop
  4046c4:	261045e0 	addiu	s0,s0,17888
  4046c8:	16200016 	bnez	s1,404724 <__stdio_exit+0x9c>
  4046cc:	0200c825 	move	t9,s0
  4046d0:	8f828118 	lw	v0,-32488(gp)
  4046d4:	00000000 	nop
  4046d8:	8c440000 	lw	a0,0(v0)
  4046dc:	0411ffc0 	bal	4045e0 <close_file>
  4046e0:	00000000 	nop
  4046e4:	8fbc0010 	lw	gp,16(sp)
  4046e8:	0200c825 	move	t9,s0
  4046ec:	8f82811c 	lw	v0,-32484(gp)
  4046f0:	00000000 	nop
  4046f4:	8c440000 	lw	a0,0(v0)
  4046f8:	0411ffb9 	bal	4045e0 <close_file>
  4046fc:	00000000 	nop
  404700:	8fbc0010 	lw	gp,16(sp)
  404704:	8fbf0024 	lw	ra,36(sp)
  404708:	8f828118 	lw	v0,-32488(gp)
  40470c:	8fb10020 	lw	s1,32(sp)
  404710:	8c440000 	lw	a0,0(v0)
  404714:	0200c825 	move	t9,s0
  404718:	8fb0001c 	lw	s0,28(sp)
  40471c:	1000ffb0 	b	4045e0 <close_file>
  404720:	27bd0028 	addiu	sp,sp,40
  404724:	0411ffae 	bal	4045e0 <close_file>
  404728:	02202025 	move	a0,s1
  40472c:	8fbc0010 	lw	gp,16(sp)
  404730:	8e310038 	lw	s1,56(s1)
  404734:	1000ffe4 	b	4046c8 <__stdio_exit+0x40>
  404738:	00000000 	nop
  40473c:	00000000 	nop

00404740 <__stdio_write>:
  404740:	3c1c0002 	lui	gp,0x2
  404744:	279cc980 	addiu	gp,gp,-13952
  404748:	0399e021 	addu	gp,gp,t9
  40474c:	27bdffb8 	addiu	sp,sp,-72
  404750:	8c83001c 	lw	v1,28(a0)
  404754:	afb30038 	sw	s3,56(sp)
  404758:	8c930014 	lw	s3,20(a0)
  40475c:	afb4003c 	sw	s4,60(sp)
  404760:	02639823 	subu	s3,s3,v1
  404764:	8f948108 	lw	s4,-32504(gp)
  404768:	afb50040 	sw	s5,64(sp)
  40476c:	afb20034 	sw	s2,52(sp)
  404770:	afb10030 	sw	s1,48(sp)
  404774:	afb0002c 	sw	s0,44(sp)
  404778:	afbc0010 	sw	gp,16(sp)
  40477c:	afb3001c 	sw	s3,28(sp)
  404780:	afbf0044 	sw	ra,68(sp)
  404784:	00808025 	move	s0,a0
  404788:	00c09025 	move	s2,a2
  40478c:	afa30018 	sw	v1,24(sp)
  404790:	afa50020 	sw	a1,32(sp)
  404794:	afa60024 	sw	a2,36(sp)
  404798:	02669821 	addu	s3,s3,a2
  40479c:	24150002 	li	s5,2
  4047a0:	27b10018 	addiu	s1,sp,24
  4047a4:	8e04003c 	lw	a0,60(s0)
  4047a8:	02202825 	move	a1,s1
  4047ac:	02a03025 	move	a2,s5
  4047b0:	24021032 	li	v0,4146
  4047b4:	0000000c 	syscall
  4047b8:	10e00004 	beqz	a3,4047cc <__stdio_write+0x8c>
  4047bc:	00402025 	move	a0,v0
  4047c0:	18400002 	blez	v0,4047cc <__stdio_write+0x8c>
  4047c4:	00000000 	nop
  4047c8:	00022023 	negu	a0,v0
  4047cc:	0280c825 	move	t9,s4
  4047d0:	0411fecf 	bal	404310 <__syscall_ret>
  4047d4:	00000000 	nop
  4047d8:	14530011 	bne	v0,s3,404820 <__stdio_write+0xe0>
  4047dc:	00401825 	move	v1,v0
  4047e0:	8e02002c 	lw	v0,44(s0)
  4047e4:	8e030030 	lw	v1,48(s0)
  4047e8:	ae02001c 	sw	v0,28(s0)
  4047ec:	00431821 	addu	v1,v0,v1
  4047f0:	ae030010 	sw	v1,16(s0)
  4047f4:	ae020014 	sw	v0,20(s0)
  4047f8:	8fbf0044 	lw	ra,68(sp)
  4047fc:	8fb50040 	lw	s5,64(sp)
  404800:	8fb4003c 	lw	s4,60(sp)
  404804:	8fb30038 	lw	s3,56(sp)
  404808:	8fb10030 	lw	s1,48(sp)
  40480c:	8fb0002c 	lw	s0,44(sp)
  404810:	02401025 	move	v0,s2
  404814:	8fb20034 	lw	s2,52(sp)
  404818:	03e00008 	jr	ra
  40481c:	27bd0048 	addiu	sp,sp,72
  404820:	0441000c 	bgez	v0,404854 <__stdio_write+0x114>
  404824:	00000000 	nop
  404828:	8e020000 	lw	v0,0(s0)
  40482c:	ae000010 	sw	zero,16(s0)
  404830:	34420020 	ori	v0,v0,0x20
  404834:	ae020000 	sw	v0,0(s0)
  404838:	24020002 	li	v0,2
  40483c:	ae00001c 	sw	zero,28(s0)
  404840:	12a20015 	beq	s5,v0,404898 <__stdio_write+0x158>
  404844:	ae000014 	sw	zero,20(s0)
  404848:	8e220004 	lw	v0,4(s1)
  40484c:	1000ffea 	b	4047f8 <__stdio_write+0xb8>
  404850:	02429023 	subu	s2,s2,v0
  404854:	8e240004 	lw	a0,4(s1)
  404858:	00000000 	nop
  40485c:	0082282b 	sltu	a1,a0,v0
  404860:	10a00004 	beqz	a1,404874 <__stdio_write+0x134>
  404864:	02629823 	subu	s3,s3,v0
  404868:	00441823 	subu	v1,v0,a0
  40486c:	26310008 	addiu	s1,s1,8
  404870:	26b5ffff 	addiu	s5,s5,-1
  404874:	8e240000 	lw	a0,0(s1)
  404878:	00000000 	nop
  40487c:	00832021 	addu	a0,a0,v1
  404880:	ae240000 	sw	a0,0(s1)
  404884:	8e240004 	lw	a0,4(s1)
  404888:	00000000 	nop
  40488c:	00831823 	subu	v1,a0,v1
  404890:	1000ffc4 	b	4047a4 <__stdio_write+0x64>
  404894:	ae230004 	sw	v1,4(s1)
  404898:	1000ffd7 	b	4047f8 <__stdio_write+0xb8>
  40489c:	00009025 	move	s2,zero

004048a0 <__ofl_lock>:
  4048a0:	3c1c0002 	lui	gp,0x2
  4048a4:	279cc820 	addiu	gp,gp,-14304
  4048a8:	0399e021 	addu	gp,gp,t9
  4048ac:	8f8480e4 	lw	a0,-32540(gp)
  4048b0:	27bdffe0 	addiu	sp,sp,-32
  4048b4:	8f998120 	lw	t9,-32480(gp)
  4048b8:	afbf001c 	sw	ra,28(sp)
  4048bc:	afbc0010 	sw	gp,16(sp)
  4048c0:	04110024 	bal	404954 <__lock>
  4048c4:	248497b0 	addiu	a0,a0,-26704
  4048c8:	8fbc0010 	lw	gp,16(sp)
  4048cc:	8fbf001c 	lw	ra,28(sp)
  4048d0:	8f8280e4 	lw	v0,-32540(gp)
  4048d4:	27bd0020 	addiu	sp,sp,32
  4048d8:	03e00008 	jr	ra
  4048dc:	244297b4 	addiu	v0,v0,-26700

004048e0 <__ofl_unlock>:
  4048e0:	3c1c0002 	lui	gp,0x2
  4048e4:	279cc7e0 	addiu	gp,gp,-14368
  4048e8:	0399e021 	addu	gp,gp,t9
  4048ec:	8f8480e4 	lw	a0,-32540(gp)
  4048f0:	8f998124 	lw	t9,-32476(gp)
  4048f4:	00000000 	nop
  4048f8:	10000070 	b	404abc <__unlock>
  4048fc:	248497b0 	addiu	a0,a0,-26704

00404900 <a_cas>:
  404900:	0000000f 	0xf
  404904:	c0820000 	lwc0	c0_entrylo,0(a0)
  404908:	00000000 	nop
  40490c:	14a20004 	bne	a1,v0,404920 <a_cas+0x20>
  404910:	00c01825 	move	v1,a2
  404914:	e0830000 	swc0	$3,0(a0)
  404918:	1060fffa 	beqz	v1,404904 <a_cas+0x4>
  40491c:	00000000 	nop
  404920:	0000000f 	0xf
  404924:	03e00008 	jr	ra
  404928:	00000000 	nop

0040492c <a_fetch_add>:
  40492c:	0000000f 	0xf
  404930:	c0820000 	lwc0	c0_entrylo,0(a0)
  404934:	00000000 	nop
  404938:	00451821 	addu	v1,v0,a1
  40493c:	e0830000 	swc0	$3,0(a0)
  404940:	1060fffb 	beqz	v1,404930 <a_fetch_add+0x4>
  404944:	00000000 	nop
  404948:	0000000f 	0xf
  40494c:	03e00008 	jr	ra
  404950:	00000000 	nop

00404954 <__lock>:
  404954:	3c1c0002 	lui	gp,0x2
  404958:	279cc76c 	addiu	gp,gp,-14484
  40495c:	0399e021 	addu	gp,gp,t9
  404960:	27bdffd0 	addiu	sp,sp,-48
  404964:	8f888050 	lw	t0,-32688(gp)
  404968:	afbc0010 	sw	gp,16(sp)
  40496c:	afbf002c 	sw	ra,44(sp)
  404970:	afb40028 	sw	s4,40(sp)
  404974:	afb30024 	sw	s3,36(sp)
  404978:	afb20020 	sw	s2,32(sp)
  40497c:	afb1001c 	sw	s1,28(sp)
  404980:	afb00018 	sw	s0,24(sp)
  404984:	91070003 	lbu	a3,3(t0)
  404988:	00000000 	nop
  40498c:	00073e00 	sll	a3,a3,0x18
  404990:	00073e03 	sra	a3,a3,0x18
  404994:	10e00041 	beqz	a3,404a9c <__lock+0x148>
  404998:	00000000 	nop
  40499c:	8f918018 	lw	s1,-32744(gp)
  4049a0:	3c068000 	lui	a2,0x8000
  4049a4:	26314900 	addiu	s1,s1,18688
  4049a8:	24c60001 	addiu	a2,a2,1
  4049ac:	0220c825 	move	t9,s1
  4049b0:	0411ffd3 	bal	404900 <a_cas>
  4049b4:	00002825 	move	a1,zero
  4049b8:	04e10002 	bgez	a3,4049c4 <__lock+0x70>
  4049bc:	00808025 	move	s0,a0
  4049c0:	a1000003 	sb	zero,3(t0)
  4049c4:	10400035 	beqz	v0,404a9c <__lock+0x148>
  4049c8:	3c097fff 	lui	t1,0x7fff
  4049cc:	3c088000 	lui	t0,0x8000
  4049d0:	2407000a 	li	a3,10
  4049d4:	3529ffff 	ori	t1,t1,0xffff
  4049d8:	25080001 	addiu	t0,t0,1
  4049dc:	04410002 	bgez	v0,4049e8 <__lock+0x94>
  4049e0:	00402825 	move	a1,v0
  4049e4:	00492821 	addu	a1,v0,t1
  4049e8:	00a83021 	addu	a2,a1,t0
  4049ec:	0220c825 	move	t9,s1
  4049f0:	0411ffc3 	bal	404900 <a_cas>
  4049f4:	02002025 	move	a0,s0
  4049f8:	8fbc0010 	lw	gp,16(sp)
  4049fc:	10a20027 	beq	a1,v0,404a9c <__lock+0x148>
  404a00:	24e7ffff 	addiu	a3,a3,-1
  404a04:	14e0fff5 	bnez	a3,4049dc <__lock+0x88>
  404a08:	00000000 	nop
  404a0c:	8f998018 	lw	t9,-32744(gp)
  404a10:	00000000 	nop
  404a14:	2739492c 	addiu	t9,t9,18732
  404a18:	0411ffc4 	bal	40492c <a_fetch_add>
  404a1c:	24050001 	li	a1,1
  404a20:	3c127fff 	lui	s2,0x7fff
  404a24:	24460001 	addiu	a2,v0,1
  404a28:	2414ffa7 	li	s4,-89
  404a2c:	3652ffff 	ori	s2,s2,0xffff
  404a30:	3c138000 	lui	s3,0x8000
  404a34:	04c10013 	bgez	a2,404a84 <__lock+0x130>
  404a38:	00c02825 	move	a1,a2
  404a3c:	02002025 	move	a0,s0
  404a40:	24050080 	li	a1,128
  404a44:	00003825 	move	a3,zero
  404a48:	2402108e 	li	v0,4238
  404a4c:	0000000c 	syscall
  404a50:	10e00004 	beqz	a3,404a64 <__lock+0x110>
  404a54:	00401825 	move	v1,v0
  404a58:	18400002 	blez	v0,404a64 <__lock+0x110>
  404a5c:	00000000 	nop
  404a60:	00021823 	negu	v1,v0
  404a64:	14740007 	bne	v1,s4,404a84 <__lock+0x130>
  404a68:	00d22821 	addu	a1,a2,s2
  404a6c:	02002025 	move	a0,s0
  404a70:	00002825 	move	a1,zero
  404a74:	00003825 	move	a3,zero
  404a78:	2402108e 	li	v0,4238
  404a7c:	0000000c 	syscall
  404a80:	00d22821 	addu	a1,a2,s2
  404a84:	00b33021 	addu	a2,a1,s3
  404a88:	0220c825 	move	t9,s1
  404a8c:	0411ff9c 	bal	404900 <a_cas>
  404a90:	02002025 	move	a0,s0
  404a94:	14a2ffe7 	bne	a1,v0,404a34 <__lock+0xe0>
  404a98:	00403025 	move	a2,v0
  404a9c:	8fbf002c 	lw	ra,44(sp)
  404aa0:	8fb40028 	lw	s4,40(sp)
  404aa4:	8fb30024 	lw	s3,36(sp)
  404aa8:	8fb20020 	lw	s2,32(sp)
  404aac:	8fb1001c 	lw	s1,28(sp)
  404ab0:	8fb00018 	lw	s0,24(sp)
  404ab4:	03e00008 	jr	ra
  404ab8:	27bd0030 	addiu	sp,sp,48

00404abc <__unlock>:
  404abc:	3c1c0002 	lui	gp,0x2
  404ac0:	279cc604 	addiu	gp,gp,-14844
  404ac4:	0399e021 	addu	gp,gp,t9
  404ac8:	8c820000 	lw	v0,0(a0)
  404acc:	00000000 	nop
  404ad0:	04410021 	bgez	v0,404b58 <__unlock+0x9c>
  404ad4:	3c057fff 	lui	a1,0x7fff
  404ad8:	8f998018 	lw	t9,-32744(gp)
  404adc:	27bdffe0 	addiu	sp,sp,-32
  404ae0:	afbc0010 	sw	gp,16(sp)
  404ae4:	afbf001c 	sw	ra,28(sp)
  404ae8:	afb00018 	sw	s0,24(sp)
  404aec:	2739492c 	addiu	t9,t9,18732
  404af0:	0411ff8e 	bal	40492c <a_fetch_add>
  404af4:	34a5ffff 	ori	a1,a1,0xffff
  404af8:	3c038000 	lui	v1,0x8000
  404afc:	24630001 	addiu	v1,v1,1
  404b00:	10430011 	beq	v0,v1,404b48 <__unlock+0x8c>
  404b04:	00808025 	move	s0,a0
  404b08:	24050081 	li	a1,129
  404b0c:	24060001 	li	a2,1
  404b10:	2402108e 	li	v0,4238
  404b14:	0000000c 	syscall
  404b18:	10e00004 	beqz	a3,404b2c <__unlock+0x70>
  404b1c:	00401825 	move	v1,v0
  404b20:	18400003 	blez	v0,404b30 <__unlock+0x74>
  404b24:	2404ffa7 	li	a0,-89
  404b28:	00021823 	negu	v1,v0
  404b2c:	2404ffa7 	li	a0,-89
  404b30:	14640005 	bne	v1,a0,404b48 <__unlock+0x8c>
  404b34:	02002025 	move	a0,s0
  404b38:	24050001 	li	a1,1
  404b3c:	24060001 	li	a2,1
  404b40:	2402108e 	li	v0,4238
  404b44:	0000000c 	syscall
  404b48:	8fbf001c 	lw	ra,28(sp)
  404b4c:	8fb00018 	lw	s0,24(sp)
  404b50:	03e00008 	jr	ra
  404b54:	27bd0020 	addiu	sp,sp,32
  404b58:	03e00008 	jr	ra
  404b5c:	00000000 	nop

00404b60 <__ashldi3>:
  404b60:	10c0000f 	beqz	a2,404ba0 <__ashldi3+0x40>
  404b64:	00801025 	move	v0,a0
  404b68:	24020020 	li	v0,32
  404b6c:	00461023 	subu	v0,v0,a2
  404b70:	18400007 	blez	v0,404b90 <__ashldi3+0x30>
  404b74:	00000000 	nop
  404b78:	00c51804 	sllv	v1,a1,a2
  404b7c:	00442806 	srlv	a1,a0,v0
  404b80:	00652825 	or	a1,v1,a1
  404b84:	00c41004 	sllv	v0,a0,a2
  404b88:	03e00008 	jr	ra
  404b8c:	00a01825 	move	v1,a1
  404b90:	00c42804 	sllv	a1,a0,a2
  404b94:	00001025 	move	v0,zero
  404b98:	03e00008 	jr	ra
  404b9c:	00a01825 	move	v1,a1
  404ba0:	03e00008 	jr	ra
  404ba4:	00a01825 	move	v1,a1
	...

00404bb0 <__divdi3>:
  404bb0:	3c1c0002 	lui	gp,0x2
  404bb4:	279cc510 	addiu	gp,gp,-15088
  404bb8:	0399e021 	addu	gp,gp,t9
  404bbc:	04a000ca 	bltz	a1,404ee8 <__divdi3+0x338>
  404bc0:	0004102b 	sltu	v0,zero,a0
  404bc4:	00004025 	move	t0,zero
  404bc8:	04e10007 	bgez	a3,404be8 <__divdi3+0x38>
  404bcc:	00e01025 	move	v0,a3
  404bd0:	0006102b 	sltu	v0,zero,a2
  404bd4:	00073823 	negu	a3,a3
  404bd8:	00084027 	nor	t0,zero,t0
  404bdc:	00e23823 	subu	a3,a3,v0
  404be0:	00063023 	negu	a2,a2
  404be4:	00e01025 	move	v0,a3
  404be8:	00c04825 	move	t1,a2
  404bec:	00805025 	move	t2,a0
  404bf0:	14e0004d 	bnez	a3,404d28 <__divdi3+0x178>
  404bf4:	00a01825 	move	v1,a1
  404bf8:	00a6382b 	sltu	a3,a1,a2
  404bfc:	10e0006f 	beqz	a3,404dbc <__divdi3+0x20c>
  404c00:	3c070001 	lui	a3,0x1
  404c04:	00c7382b 	sltu	a3,a2,a3
  404c08:	14e000c1 	bnez	a3,404f10 <__divdi3+0x360>
  404c0c:	2cc70100 	sltiu	a3,a2,256
  404c10:	3c020100 	lui	v0,0x100
  404c14:	00c2102b 	sltu	v0,a2,v0
  404c18:	1440015a 	bnez	v0,405184 <__divdi3+0x5d4>
  404c1c:	00000000 	nop
  404c20:	00066602 	srl	t4,a2,0x18
  404c24:	24020018 	li	v0,24
  404c28:	8f878128 	lw	a3,-32472(gp)
  404c2c:	240b0020 	li	t3,32
  404c30:	00ec3821 	addu	a3,a3,t4
  404c34:	90e70000 	lbu	a3,0(a3)
  404c38:	00000000 	nop
  404c3c:	00e21021 	addu	v0,a3,v0
  404c40:	11620006 	beq	t3,v0,404c5c <__divdi3+0xac>
  404c44:	01626023 	subu	t4,t3,v0
  404c48:	01853804 	sllv	a3,a1,t4
  404c4c:	00441006 	srlv	v0,a0,v0
  404c50:	01864804 	sllv	t1,a2,t4
  404c54:	00471825 	or	v1,v0,a3
  404c58:	01845004 	sllv	t2,a0,t4
  404c5c:	00092402 	srl	a0,t1,0x10
  404c60:	14800002 	bnez	a0,404c6c <__divdi3+0xbc>
  404c64:	0064001b 	divu	zero,v1,a0
  404c68:	0007000d 	break	0x7
  404c6c:	312bffff 	andi	t3,t1,0xffff
  404c70:	000a1402 	srl	v0,t2,0x10
  404c74:	00001812 	mflo	v1
  404c78:	00002810 	mfhi	a1
  404c7c:	00052c00 	sll	a1,a1,0x10
  404c80:	00a21025 	or	v0,a1,v0
  404c84:	01630018 	mult	t3,v1
  404c88:	00003812 	mflo	a3
  404c8c:	0047282b 	sltu	a1,v0,a3
  404c90:	10a00009 	beqz	a1,404cb8 <__divdi3+0x108>
  404c94:	00000000 	nop
  404c98:	00491021 	addu	v0,v0,t1
  404c9c:	0049282b 	sltu	a1,v0,t1
  404ca0:	14a00004 	bnez	a1,404cb4 <__divdi3+0x104>
  404ca4:	2466ffff 	addiu	a2,v1,-1
  404ca8:	0047282b 	sltu	a1,v0,a3
  404cac:	14a00142 	bnez	a1,4051b8 <__divdi3+0x608>
  404cb0:	2463fffe 	addiu	v1,v1,-2
  404cb4:	00c01825 	move	v1,a2
  404cb8:	00471023 	subu	v0,v0,a3
  404cbc:	14800002 	bnez	a0,404cc8 <__divdi3+0x118>
  404cc0:	0044001b 	divu	zero,v0,a0
  404cc4:	0007000d 	break	0x7
  404cc8:	314affff 	andi	t2,t2,0xffff
  404ccc:	00001012 	mflo	v0
  404cd0:	00002010 	mfhi	a0
  404cd4:	00042400 	sll	a0,a0,0x10
  404cd8:	008a2025 	or	a0,a0,t2
  404cdc:	01620018 	mult	t3,v0
  404ce0:	00002812 	mflo	a1
  404ce4:	0085302b 	sltu	a2,a0,a1
  404ce8:	10c00008 	beqz	a2,404d0c <__divdi3+0x15c>
  404cec:	01242021 	addu	a0,t1,a0
  404cf0:	0089482b 	sltu	t1,a0,t1
  404cf4:	15200004 	bnez	t1,404d08 <__divdi3+0x158>
  404cf8:	2446ffff 	addiu	a2,v0,-1
  404cfc:	0085202b 	sltu	a0,a0,a1
  404d00:	14800002 	bnez	a0,404d0c <__divdi3+0x15c>
  404d04:	2442fffe 	addiu	v0,v0,-2
  404d08:	00c01025 	move	v0,a2
  404d0c:	00031c00 	sll	v1,v1,0x10
  404d10:	00002825 	move	a1,zero
  404d14:	00621025 	or	v0,v1,v0
  404d18:	1500000a 	bnez	t0,404d44 <__divdi3+0x194>
  404d1c:	00a01825 	move	v1,a1
  404d20:	03e00008 	jr	ra
  404d24:	00000000 	nop
  404d28:	00a7102b 	sltu	v0,a1,a3
  404d2c:	1040000b 	beqz	v0,404d5c <__divdi3+0x1ac>
  404d30:	3c020001 	lui	v0,0x1
  404d34:	00002825 	move	a1,zero
  404d38:	00001025 	move	v0,zero
  404d3c:	1100fff8 	beqz	t0,404d20 <__divdi3+0x170>
  404d40:	00a01825 	move	v1,a1
  404d44:	0002202b 	sltu	a0,zero,v0
  404d48:	00051823 	negu	v1,a1
  404d4c:	00641823 	subu	v1,v1,a0
  404d50:	00021023 	negu	v0,v0
  404d54:	03e00008 	jr	ra
  404d58:	00000000 	nop
  404d5c:	00e2102b 	sltu	v0,a3,v0
  404d60:	14400070 	bnez	v0,404f24 <__divdi3+0x374>
  404d64:	2ce20100 	sltiu	v0,a3,256
  404d68:	3c020100 	lui	v0,0x100
  404d6c:	00e2102b 	sltu	v0,a3,v0
  404d70:	144000f8 	bnez	v0,405154 <__divdi3+0x5a4>
  404d74:	00075402 	srl	t2,a3,0x10
  404d78:	00075602 	srl	t2,a3,0x18
  404d7c:	24090018 	li	t1,24
  404d80:	8f828128 	lw	v0,-32472(gp)
  404d84:	24030020 	li	v1,32
  404d88:	004a1021 	addu	v0,v0,t2
  404d8c:	904b0000 	lbu	t3,0(v0)
  404d90:	00000000 	nop
  404d94:	01695821 	addu	t3,t3,t1
  404d98:	146b00a4 	bne	v1,t3,40502c <__divdi3+0x47c>
  404d9c:	006b6023 	subu	t4,v1,t3
  404da0:	00e5382b 	sltu	a3,a3,a1
  404da4:	14e000ef 	bnez	a3,405164 <__divdi3+0x5b4>
  404da8:	00000000 	nop
  404dac:	0086102b 	sltu	v0,a0,a2
  404db0:	38420001 	xori	v0,v0,0x1
  404db4:	1000ffe1 	b	404d3c <__divdi3+0x18c>
  404db8:	00002825 	move	a1,zero
  404dbc:	14c00007 	bnez	a2,404ddc <__divdi3+0x22c>
  404dc0:	3c030001 	lui	v1,0x1
  404dc4:	24030001 	li	v1,1
  404dc8:	14400002 	bnez	v0,404dd4 <__divdi3+0x224>
  404dcc:	0062001b 	divu	zero,v1,v0
  404dd0:	0007000d 	break	0x7
  404dd4:	00004812 	mflo	t1
  404dd8:	3c030001 	lui	v1,0x1
  404ddc:	0123182b 	sltu	v1,t1,v1
  404de0:	14600046 	bnez	v1,404efc <__divdi3+0x34c>
  404de4:	2d230100 	sltiu	v1,t1,256
  404de8:	3c020100 	lui	v0,0x100
  404dec:	0122102b 	sltu	v0,t1,v0
  404df0:	144000e2 	bnez	v0,40517c <__divdi3+0x5cc>
  404df4:	00093c02 	srl	a3,t1,0x10
  404df8:	00093e02 	srl	a3,t1,0x18
  404dfc:	24020018 	li	v0,24
  404e00:	8f838128 	lw	v1,-32472(gp)
  404e04:	24060020 	li	a2,32
  404e08:	00671821 	addu	v1,v1,a3
  404e0c:	90630000 	lbu	v1,0(v1)
  404e10:	00000000 	nop
  404e14:	00621021 	addu	v0,v1,v0
  404e18:	14c2004b 	bne	a2,v0,404f48 <__divdi3+0x398>
  404e1c:	00c27023 	subu	t6,a2,v0
  404e20:	00a93823 	subu	a3,a1,t1
  404e24:	00096402 	srl	t4,t1,0x10
  404e28:	312bffff 	andi	t3,t1,0xffff
  404e2c:	24050001 	li	a1,1
  404e30:	15800002 	bnez	t4,404e3c <__divdi3+0x28c>
  404e34:	00ec001b 	divu	zero,a3,t4
  404e38:	0007000d 	break	0x7
  404e3c:	000a1402 	srl	v0,t2,0x10
  404e40:	00001812 	mflo	v1
  404e44:	00003810 	mfhi	a3
  404e48:	00073c00 	sll	a3,a3,0x10
  404e4c:	00e21025 	or	v0,a3,v0
  404e50:	006b0018 	mult	v1,t3
  404e54:	00003012 	mflo	a2
  404e58:	0046202b 	sltu	a0,v0,a2
  404e5c:	10800009 	beqz	a0,404e84 <__divdi3+0x2d4>
  404e60:	00000000 	nop
  404e64:	00491021 	addu	v0,v0,t1
  404e68:	0049202b 	sltu	a0,v0,t1
  404e6c:	14800004 	bnez	a0,404e80 <__divdi3+0x2d0>
  404e70:	2467ffff 	addiu	a3,v1,-1
  404e74:	0046202b 	sltu	a0,v0,a2
  404e78:	148000d1 	bnez	a0,4051c0 <__divdi3+0x610>
  404e7c:	2463fffe 	addiu	v1,v1,-2
  404e80:	00e01825 	move	v1,a3
  404e84:	00461023 	subu	v0,v0,a2
  404e88:	15800002 	bnez	t4,404e94 <__divdi3+0x2e4>
  404e8c:	004c001b 	divu	zero,v0,t4
  404e90:	0007000d 	break	0x7
  404e94:	314affff 	andi	t2,t2,0xffff
  404e98:	00001012 	mflo	v0
  404e9c:	00002010 	mfhi	a0
  404ea0:	00042400 	sll	a0,a0,0x10
  404ea4:	008a2025 	or	a0,a0,t2
  404ea8:	004b0018 	mult	v0,t3
  404eac:	00003012 	mflo	a2
  404eb0:	0086382b 	sltu	a3,a0,a2
  404eb4:	10e00009 	beqz	a3,404edc <__divdi3+0x32c>
  404eb8:	00000000 	nop
  404ebc:	01242021 	addu	a0,t1,a0
  404ec0:	0089482b 	sltu	t1,a0,t1
  404ec4:	1520001c 	bnez	t1,404f38 <__divdi3+0x388>
  404ec8:	2447ffff 	addiu	a3,v0,-1
  404ecc:	0086202b 	sltu	a0,a0,a2
  404ed0:	10800019 	beqz	a0,404f38 <__divdi3+0x388>
  404ed4:	00000000 	nop
  404ed8:	2442fffe 	addiu	v0,v0,-2
  404edc:	00031c00 	sll	v1,v1,0x10
  404ee0:	1000ff96 	b	404d3c <__divdi3+0x18c>
  404ee4:	00621025 	or	v0,v1,v0
  404ee8:	00052823 	negu	a1,a1
  404eec:	00a22823 	subu	a1,a1,v0
  404ef0:	00042023 	negu	a0,a0
  404ef4:	1000ff34 	b	404bc8 <__divdi3+0x18>
  404ef8:	2408ffff 	li	t0,-1
  404efc:	146000a4 	bnez	v1,405190 <__divdi3+0x5e0>
  404f00:	00000000 	nop
  404f04:	00093a02 	srl	a3,t1,0x8
  404f08:	1000ffbd 	b	404e00 <__divdi3+0x250>
  404f0c:	24020008 	li	v0,8
  404f10:	14e00092 	bnez	a3,40515c <__divdi3+0x5ac>
  404f14:	00000000 	nop
  404f18:	00066202 	srl	t4,a2,0x8
  404f1c:	1000ff42 	b	404c28 <__divdi3+0x78>
  404f20:	24020008 	li	v0,8
  404f24:	14400092 	bnez	v0,405170 <__divdi3+0x5c0>
  404f28:	00000000 	nop
  404f2c:	00075202 	srl	t2,a3,0x8
  404f30:	1000ff93 	b	404d80 <__divdi3+0x1d0>
  404f34:	24090008 	li	t1,8
  404f38:	00e01025 	move	v0,a3
  404f3c:	00031c00 	sll	v1,v1,0x10
  404f40:	1000ff7e 	b	404d3c <__divdi3+0x18c>
  404f44:	00621025 	or	v0,v1,v0
  404f48:	01c94804 	sllv	t1,t1,t6
  404f4c:	00451806 	srlv	v1,a1,v0
  404f50:	00096402 	srl	t4,t1,0x10
  404f54:	15800002 	bnez	t4,404f60 <__divdi3+0x3b0>
  404f58:	006c001b 	divu	zero,v1,t4
  404f5c:	0007000d 	break	0x7
  404f60:	312bffff 	andi	t3,t1,0xffff
  404f64:	00441006 	srlv	v0,a0,v0
  404f68:	01c53804 	sllv	a3,a1,t6
  404f6c:	00473825 	or	a3,v0,a3
  404f70:	00071c02 	srl	v1,a3,0x10
  404f74:	01c45004 	sllv	t2,a0,t6
  404f78:	00006812 	mflo	t5
  404f7c:	00003010 	mfhi	a2
  404f80:	00063400 	sll	a2,a2,0x10
  404f84:	00c31825 	or	v1,a2,v1
  404f88:	016d0018 	mult	t3,t5
  404f8c:	00001012 	mflo	v0
  404f90:	0062202b 	sltu	a0,v1,v0
  404f94:	1080000a 	beqz	a0,404fc0 <__divdi3+0x410>
  404f98:	00000000 	nop
  404f9c:	00691821 	addu	v1,v1,t1
  404fa0:	0069202b 	sltu	a0,v1,t1
  404fa4:	14800082 	bnez	a0,4051b0 <__divdi3+0x600>
  404fa8:	25a5ffff 	addiu	a1,t5,-1
  404fac:	0062202b 	sltu	a0,v1,v0
  404fb0:	1080007f 	beqz	a0,4051b0 <__divdi3+0x600>
  404fb4:	00000000 	nop
  404fb8:	25adfffe 	addiu	t5,t5,-2
  404fbc:	00691821 	addu	v1,v1,t1
  404fc0:	00621823 	subu	v1,v1,v0
  404fc4:	15800002 	bnez	t4,404fd0 <__divdi3+0x420>
  404fc8:	006c001b 	divu	zero,v1,t4
  404fcc:	0007000d 	break	0x7
  404fd0:	30e6ffff 	andi	a2,a3,0xffff
  404fd4:	00002812 	mflo	a1
  404fd8:	00001810 	mfhi	v1
  404fdc:	00033c00 	sll	a3,v1,0x10
  404fe0:	00e63825 	or	a3,a3,a2
  404fe4:	01650018 	mult	t3,a1
  404fe8:	00001012 	mflo	v0
  404fec:	00e2182b 	sltu	v1,a3,v0
  404ff0:	1060000a 	beqz	v1,40501c <__divdi3+0x46c>
  404ff4:	00000000 	nop
  404ff8:	00e93821 	addu	a3,a3,t1
  404ffc:	00e9182b 	sltu	v1,a3,t1
  405000:	14600067 	bnez	v1,4051a0 <__divdi3+0x5f0>
  405004:	24a4ffff 	addiu	a0,a1,-1
  405008:	00e2182b 	sltu	v1,a3,v0
  40500c:	10600064 	beqz	v1,4051a0 <__divdi3+0x5f0>
  405010:	00000000 	nop
  405014:	24a5fffe 	addiu	a1,a1,-2
  405018:	00e93821 	addu	a3,a3,t1
  40501c:	000d6c00 	sll	t5,t5,0x10
  405020:	00e23823 	subu	a3,a3,v0
  405024:	1000ff82 	b	404e30 <__divdi3+0x280>
  405028:	01a52825 	or	a1,t5,a1
  40502c:	01661006 	srlv	v0,a2,t3
  405030:	01873804 	sllv	a3,a3,t4
  405034:	00473825 	or	a3,v0,a3
  405038:	00076c02 	srl	t5,a3,0x10
  40503c:	01651006 	srlv	v0,a1,t3
  405040:	15a00002 	bnez	t5,40504c <__divdi3+0x49c>
  405044:	004d001b 	divu	zero,v0,t5
  405048:	0007000d 	break	0x7
  40504c:	30eeffff 	andi	t6,a3,0xffff
  405050:	01645806 	srlv	t3,a0,t3
  405054:	01852804 	sllv	a1,a1,t4
  405058:	01652825 	or	a1,t3,a1
  40505c:	00054c02 	srl	t1,a1,0x10
  405060:	00001812 	mflo	v1
  405064:	00005010 	mfhi	t2
  405068:	000a5400 	sll	t2,t2,0x10
  40506c:	01494825 	or	t1,t2,t1
  405070:	01c30018 	mult	t6,v1
  405074:	00005812 	mflo	t3
  405078:	012b102b 	sltu	v0,t1,t3
  40507c:	1040000a 	beqz	v0,4050a8 <__divdi3+0x4f8>
  405080:	01863004 	sllv	a2,a2,t4
  405084:	01274821 	addu	t1,t1,a3
  405088:	0127102b 	sltu	v0,t1,a3
  40508c:	14400046 	bnez	v0,4051a8 <__divdi3+0x5f8>
  405090:	246affff 	addiu	t2,v1,-1
  405094:	012b102b 	sltu	v0,t1,t3
  405098:	10400043 	beqz	v0,4051a8 <__divdi3+0x5f8>
  40509c:	00000000 	nop
  4050a0:	2463fffe 	addiu	v1,v1,-2
  4050a4:	01274821 	addu	t1,t1,a3
  4050a8:	012b4823 	subu	t1,t1,t3
  4050ac:	15a00002 	bnez	t5,4050b8 <__divdi3+0x508>
  4050b0:	012d001b 	divu	zero,t1,t5
  4050b4:	0007000d 	break	0x7
  4050b8:	30a5ffff 	andi	a1,a1,0xffff
  4050bc:	00001012 	mflo	v0
  4050c0:	00004810 	mfhi	t1
  4050c4:	00094c00 	sll	t1,t1,0x10
  4050c8:	01252825 	or	a1,t1,a1
  4050cc:	01c20018 	mult	t6,v0
  4050d0:	00005012 	mflo	t2
  4050d4:	00aa482b 	sltu	t1,a1,t2
  4050d8:	1120000a 	beqz	t1,405104 <__divdi3+0x554>
  4050dc:	00000000 	nop
  4050e0:	00a72821 	addu	a1,a1,a3
  4050e4:	00a7482b 	sltu	t1,a1,a3
  4050e8:	1520002b 	bnez	t1,405198 <__divdi3+0x5e8>
  4050ec:	244bffff 	addiu	t3,v0,-1
  4050f0:	00aa482b 	sltu	t1,a1,t2
  4050f4:	11200028 	beqz	t1,405198 <__divdi3+0x5e8>
  4050f8:	00000000 	nop
  4050fc:	2442fffe 	addiu	v0,v0,-2
  405100:	00a72821 	addu	a1,a1,a3
  405104:	00031c00 	sll	v1,v1,0x10
  405108:	00621025 	or	v0,v1,v0
  40510c:	00460019 	multu	v0,a2
  405110:	00aa2823 	subu	a1,a1,t2
  405114:	00003810 	mfhi	a3
  405118:	00a7182b 	sltu	v1,a1,a3
  40511c:	00003012 	mflo	a2
  405120:	14600009 	bnez	v1,405148 <__divdi3+0x598>
  405124:	00000000 	nop
  405128:	10a70003 	beq	a1,a3,405138 <__divdi3+0x588>
  40512c:	00000000 	nop
  405130:	1000ff02 	b	404d3c <__divdi3+0x18c>
  405134:	00002825 	move	a1,zero
  405138:	01842004 	sllv	a0,a0,t4
  40513c:	0086202b 	sltu	a0,a0,a2
  405140:	1080fffb 	beqz	a0,405130 <__divdi3+0x580>
  405144:	00000000 	nop
  405148:	2442ffff 	addiu	v0,v0,-1
  40514c:	1000fefb 	b	404d3c <__divdi3+0x18c>
  405150:	00002825 	move	a1,zero
  405154:	1000ff0a 	b	404d80 <__divdi3+0x1d0>
  405158:	24090010 	li	t1,16
  40515c:	1000feb2 	b	404c28 <__divdi3+0x78>
  405160:	00c06025 	move	t4,a2
  405164:	00002825 	move	a1,zero
  405168:	1000fef4 	b	404d3c <__divdi3+0x18c>
  40516c:	24020001 	li	v0,1
  405170:	00e05025 	move	t2,a3
  405174:	1000ff02 	b	404d80 <__divdi3+0x1d0>
  405178:	00004825 	move	t1,zero
  40517c:	1000ff20 	b	404e00 <__divdi3+0x250>
  405180:	24020010 	li	v0,16
  405184:	00066402 	srl	t4,a2,0x10
  405188:	1000fea7 	b	404c28 <__divdi3+0x78>
  40518c:	24020010 	li	v0,16
  405190:	1000ff1b 	b	404e00 <__divdi3+0x250>
  405194:	01203825 	move	a3,t1
  405198:	1000ffda 	b	405104 <__divdi3+0x554>
  40519c:	01601025 	move	v0,t3
  4051a0:	1000ff9e 	b	40501c <__divdi3+0x46c>
  4051a4:	00802825 	move	a1,a0
  4051a8:	1000ffbf 	b	4050a8 <__divdi3+0x4f8>
  4051ac:	01401825 	move	v1,t2
  4051b0:	1000ff83 	b	404fc0 <__divdi3+0x410>
  4051b4:	00a06825 	move	t5,a1
  4051b8:	1000febf 	b	404cb8 <__divdi3+0x108>
  4051bc:	00491021 	addu	v0,v0,t1
  4051c0:	1000ff30 	b	404e84 <__divdi3+0x2d4>
  4051c4:	00491021 	addu	v0,v0,t1
	...

004051d0 <__moddi3>:
  4051d0:	3c1c0002 	lui	gp,0x2
  4051d4:	279cbef0 	addiu	gp,gp,-16656
  4051d8:	0399e021 	addu	gp,gp,t9
  4051dc:	04a000b3 	bltz	a1,4054ac <__moddi3+0x2dc>
  4051e0:	0004102b 	sltu	v0,zero,a0
  4051e4:	00004025 	move	t0,zero
  4051e8:	04e10006 	bgez	a3,405204 <__moddi3+0x34>
  4051ec:	00e05825 	move	t3,a3
  4051f0:	0006102b 	sltu	v0,zero,a2
  4051f4:	00073823 	negu	a3,a3
  4051f8:	00e23823 	subu	a3,a3,v0
  4051fc:	00063023 	negu	a2,a2
  405200:	00e05825 	move	t3,a3
  405204:	00c04825 	move	t1,a2
  405208:	00801825 	move	v1,a0
  40520c:	14e00037 	bnez	a3,4052ec <__moddi3+0x11c>
  405210:	00a01025 	move	v0,a1
  405214:	00a6382b 	sltu	a3,a1,a2
  405218:	10e0005c 	beqz	a3,40538c <__moddi3+0x1bc>
  40521c:	3c070001 	lui	a3,0x1
  405220:	00c7382b 	sltu	a3,a2,a3
  405224:	14e000ab 	bnez	a3,4054d4 <__moddi3+0x304>
  405228:	2cc70100 	sltiu	a3,a2,256
  40522c:	3c070100 	lui	a3,0x100
  405230:	00c7382b 	sltu	a3,a2,a3
  405234:	14e0013a 	bnez	a3,405720 <__moddi3+0x550>
  405238:	00065402 	srl	t2,a2,0x10
  40523c:	00065602 	srl	t2,a2,0x18
  405240:	240b0018 	li	t3,24
  405244:	8f878128 	lw	a3,-32472(gp)
  405248:	240c0020 	li	t4,32
  40524c:	00ea3821 	addu	a3,a3,t2
  405250:	90ea0000 	lbu	t2,0(a3)
  405254:	00000000 	nop
  405258:	014b5021 	addu	t2,t2,t3
  40525c:	118a0006 	beq	t4,t2,405278 <__moddi3+0xa8>
  405260:	018a3823 	subu	a3,t4,t2
  405264:	00e52804 	sllv	a1,a1,a3
  405268:	01441006 	srlv	v0,a0,t2
  40526c:	00e64804 	sllv	t1,a2,a3
  405270:	00451025 	or	v0,v0,a1
  405274:	00e41804 	sllv	v1,a0,a3
  405278:	00092402 	srl	a0,t1,0x10
  40527c:	14800002 	bnez	a0,405288 <__moddi3+0xb8>
  405280:	0044001b 	divu	zero,v0,a0
  405284:	0007000d 	break	0x7
  405288:	312bffff 	andi	t3,t1,0xffff
  40528c:	00033402 	srl	a2,v1,0x10
  405290:	00002812 	mflo	a1
  405294:	00001010 	mfhi	v0
  405298:	00021400 	sll	v0,v0,0x10
  40529c:	00000000 	nop
  4052a0:	00ab0018 	mult	a1,t3
  4052a4:	00462825 	or	a1,v0,a2
  4052a8:	00005012 	mflo	t2
  4052ac:	00aa102b 	sltu	v0,a1,t2
  4052b0:	10400008 	beqz	v0,4052d4 <__moddi3+0x104>
  4052b4:	00000000 	nop
  4052b8:	00a92821 	addu	a1,a1,t1
  4052bc:	00a9102b 	sltu	v0,a1,t1
  4052c0:	14400004 	bnez	v0,4052d4 <__moddi3+0x104>
  4052c4:	00aa102b 	sltu	v0,a1,t2
  4052c8:	10400002 	beqz	v0,4052d4 <__moddi3+0x104>
  4052cc:	00000000 	nop
  4052d0:	00a92821 	addu	a1,a1,t1
  4052d4:	00aa2823 	subu	a1,a1,t2
  4052d8:	14800002 	bnez	a0,4052e4 <__moddi3+0x114>
  4052dc:	00a4001b 	divu	zero,a1,a0
  4052e0:	0007000d 	break	0x7
  4052e4:	1000005c 	b	405458 <__moddi3+0x288>
  4052e8:	3063ffff 	andi	v1,v1,0xffff
  4052ec:	00a7182b 	sltu	v1,a1,a3
  4052f0:	1060000a 	beqz	v1,40531c <__moddi3+0x14c>
  4052f4:	00801025 	move	v0,a0
  4052f8:	11000005 	beqz	t0,405310 <__moddi3+0x140>
  4052fc:	00000000 	nop
  405300:	0002182b 	sltu	v1,zero,v0
  405304:	00052823 	negu	a1,a1
  405308:	00a32823 	subu	a1,a1,v1
  40530c:	00021023 	negu	v0,v0
  405310:	00a01825 	move	v1,a1
  405314:	03e00008 	jr	ra
  405318:	00000000 	nop
  40531c:	3c030001 	lui	v1,0x1
  405320:	00e3182b 	sltu	v1,a3,v1
  405324:	14600070 	bnez	v1,4054e8 <__moddi3+0x318>
  405328:	2ce30100 	sltiu	v1,a3,256
  40532c:	3c030100 	lui	v1,0x100
  405330:	00e3182b 	sltu	v1,a3,v1
  405334:	146000fe 	bnez	v1,405730 <__moddi3+0x560>
  405338:	00075402 	srl	t2,a3,0x10
  40533c:	00075602 	srl	t2,a3,0x18
  405340:	240b0018 	li	t3,24
  405344:	8f838128 	lw	v1,-32472(gp)
  405348:	24090020 	li	t1,32
  40534c:	006a1821 	addu	v1,v1,t2
  405350:	906a0000 	lbu	t2,0(v1)
  405354:	00000000 	nop
  405358:	014b5021 	addu	t2,t2,t3
  40535c:	152a0067 	bne	t1,t2,4054fc <__moddi3+0x32c>
  405360:	012a5823 	subu	t3,t1,t2
  405364:	00e5182b 	sltu	v1,a3,a1
  405368:	14600003 	bnez	v1,405378 <__moddi3+0x1a8>
  40536c:	0086182b 	sltu	v1,a0,a2
  405370:	1460ffe1 	bnez	v1,4052f8 <__moddi3+0x128>
  405374:	00000000 	nop
  405378:	00861023 	subu	v0,a0,a2
  40537c:	00a72823 	subu	a1,a1,a3
  405380:	0082202b 	sltu	a0,a0,v0
  405384:	1000ffdc 	b	4052f8 <__moddi3+0x128>
  405388:	00a42823 	subu	a1,a1,a0
  40538c:	14c00006 	bnez	a2,4053a8 <__moddi3+0x1d8>
  405390:	3c060001 	lui	a2,0x1
  405394:	24020001 	li	v0,1
  405398:	15600002 	bnez	t3,4053a4 <__moddi3+0x1d4>
  40539c:	004b001b 	divu	zero,v0,t3
  4053a0:	0007000d 	break	0x7
  4053a4:	00004812 	mflo	t1
  4053a8:	0126302b 	sltu	a2,t1,a2
  4053ac:	14c00044 	bnez	a2,4054c0 <__moddi3+0x2f0>
  4053b0:	2d220100 	sltiu	v0,t1,256
  4053b4:	3c020100 	lui	v0,0x100
  4053b8:	0122102b 	sltu	v0,t1,v0
  4053bc:	144000de 	bnez	v0,405738 <__moddi3+0x568>
  4053c0:	00091402 	srl	v0,t1,0x10
  4053c4:	00091602 	srl	v0,t1,0x18
  4053c8:	240b0018 	li	t3,24
  4053cc:	8f868128 	lw	a2,-32472(gp)
  4053d0:	240a0020 	li	t2,32
  4053d4:	00c23021 	addu	a2,a2,v0
  4053d8:	90c20000 	lbu	v0,0(a2)
  4053dc:	00000000 	nop
  4053e0:	004b1021 	addu	v0,v0,t3
  4053e4:	15420091 	bne	t2,v0,40562c <__moddi3+0x45c>
  4053e8:	01423823 	subu	a3,t2,v0
  4053ec:	00a92823 	subu	a1,a1,t1
  4053f0:	00095402 	srl	t2,t1,0x10
  4053f4:	312bffff 	andi	t3,t1,0xffff
  4053f8:	15400002 	bnez	t2,405404 <__moddi3+0x234>
  4053fc:	00aa001b 	divu	zero,a1,t2
  405400:	0007000d 	break	0x7
  405404:	00032c02 	srl	a1,v1,0x10
  405408:	00001012 	mflo	v0
  40540c:	00003010 	mfhi	a2
  405410:	00063400 	sll	a2,a2,0x10
  405414:	00c52825 	or	a1,a2,a1
  405418:	004b0018 	mult	v0,t3
  40541c:	00002012 	mflo	a0
  405420:	00a4102b 	sltu	v0,a1,a0
  405424:	10400007 	beqz	v0,405444 <__moddi3+0x274>
  405428:	00000000 	nop
  40542c:	00a92821 	addu	a1,a1,t1
  405430:	00a9102b 	sltu	v0,a1,t1
  405434:	14400003 	bnez	v0,405444 <__moddi3+0x274>
  405438:	00a4102b 	sltu	v0,a1,a0
  40543c:	144000c9 	bnez	v0,405764 <__moddi3+0x594>
  405440:	00000000 	nop
  405444:	00a42823 	subu	a1,a1,a0
  405448:	15400002 	bnez	t2,405454 <__moddi3+0x284>
  40544c:	00aa001b 	divu	zero,a1,t2
  405450:	0007000d 	break	0x7
  405454:	3063ffff 	andi	v1,v1,0xffff
  405458:	00001012 	mflo	v0
  40545c:	00002810 	mfhi	a1
  405460:	00052c00 	sll	a1,a1,0x10
  405464:	00a31825 	or	v1,a1,v1
  405468:	004b0018 	mult	v0,t3
  40546c:	00001012 	mflo	v0
  405470:	0062202b 	sltu	a0,v1,v0
  405474:	10800009 	beqz	a0,40549c <__moddi3+0x2cc>
  405478:	00000000 	nop
  40547c:	00691821 	addu	v1,v1,t1
  405480:	0069202b 	sltu	a0,v1,t1
  405484:	14800005 	bnez	a0,40549c <__moddi3+0x2cc>
  405488:	00000000 	nop
  40548c:	0062202b 	sltu	a0,v1,v0
  405490:	10800002 	beqz	a0,40549c <__moddi3+0x2cc>
  405494:	00000000 	nop
  405498:	00691821 	addu	v1,v1,t1
  40549c:	00621023 	subu	v0,v1,v0
  4054a0:	00e21006 	srlv	v0,v0,a3
  4054a4:	1000ff94 	b	4052f8 <__moddi3+0x128>
  4054a8:	00002825 	move	a1,zero
  4054ac:	00052823 	negu	a1,a1
  4054b0:	00a22823 	subu	a1,a1,v0
  4054b4:	00042023 	negu	a0,a0
  4054b8:	1000ff4b 	b	4051e8 <__moddi3+0x18>
  4054bc:	2408ffff 	li	t0,-1
  4054c0:	1440009f 	bnez	v0,405740 <__moddi3+0x570>
  4054c4:	00000000 	nop
  4054c8:	00091202 	srl	v0,t1,0x8
  4054cc:	1000ffbf 	b	4053cc <__moddi3+0x1fc>
  4054d0:	240b0008 	li	t3,8
  4054d4:	14e00094 	bnez	a3,405728 <__moddi3+0x558>
  4054d8:	00000000 	nop
  4054dc:	00065202 	srl	t2,a2,0x8
  4054e0:	1000ff58 	b	405244 <__moddi3+0x74>
  4054e4:	240b0008 	li	t3,8
  4054e8:	14600097 	bnez	v1,405748 <__moddi3+0x578>
  4054ec:	00000000 	nop
  4054f0:	00075202 	srl	t2,a3,0x8
  4054f4:	1000ff93 	b	405344 <__moddi3+0x174>
  4054f8:	240b0008 	li	t3,8
  4054fc:	01673804 	sllv	a3,a3,t3
  405500:	01466806 	srlv	t5,a2,t2
  405504:	01a76825 	or	t5,t5,a3
  405508:	01451006 	srlv	v0,a1,t2
  40550c:	000d7c02 	srl	t7,t5,0x10
  405510:	15e00002 	bnez	t7,40551c <__moddi3+0x34c>
  405514:	004f001b 	divu	zero,v0,t7
  405518:	0007000d 	break	0x7
  40551c:	31a3ffff 	andi	v1,t5,0xffff
  405520:	01441006 	srlv	v0,a0,t2
  405524:	01652804 	sllv	a1,a1,t3
  405528:	00452825 	or	a1,v0,a1
  40552c:	00054c02 	srl	t1,a1,0x10
  405530:	0166c004 	sllv	t8,a2,t3
  405534:	00007012 	mflo	t6
  405538:	00006010 	mfhi	t4
  40553c:	000c1400 	sll	v0,t4,0x10
  405540:	00493825 	or	a3,v0,t1
  405544:	006e0018 	mult	v1,t6
  405548:	00003012 	mflo	a2
  40554c:	00e6102b 	sltu	v0,a3,a2
  405550:	1040000a 	beqz	v0,40557c <__moddi3+0x3ac>
  405554:	01642004 	sllv	a0,a0,t3
  405558:	00ed3821 	addu	a3,a3,t5
  40555c:	00ed102b 	sltu	v0,a3,t5
  405560:	1440007e 	bnez	v0,40575c <__moddi3+0x58c>
  405564:	25c9ffff 	addiu	t1,t6,-1
  405568:	00e6102b 	sltu	v0,a3,a2
  40556c:	1040007b 	beqz	v0,40575c <__moddi3+0x58c>
  405570:	00000000 	nop
  405574:	25cefffe 	addiu	t6,t6,-2
  405578:	00ed3821 	addu	a3,a3,t5
  40557c:	00e63823 	subu	a3,a3,a2
  405580:	15e00002 	bnez	t7,40558c <__moddi3+0x3bc>
  405584:	00ef001b 	divu	zero,a3,t7
  405588:	0007000d 	break	0x7
  40558c:	30a5ffff 	andi	a1,a1,0xffff
  405590:	00001012 	mflo	v0
  405594:	00003810 	mfhi	a3
  405598:	00073c00 	sll	a3,a3,0x10
  40559c:	00e53025 	or	a2,a3,a1
  4055a0:	00620018 	mult	v1,v0
  4055a4:	00001812 	mflo	v1
  4055a8:	00c3282b 	sltu	a1,a2,v1
  4055ac:	10a0000a 	beqz	a1,4055d8 <__moddi3+0x408>
  4055b0:	00000000 	nop
  4055b4:	00cd3021 	addu	a2,a2,t5
  4055b8:	00cd282b 	sltu	a1,a2,t5
  4055bc:	14a00065 	bnez	a1,405754 <__moddi3+0x584>
  4055c0:	2447ffff 	addiu	a3,v0,-1
  4055c4:	00c3282b 	sltu	a1,a2,v1
  4055c8:	10a00062 	beqz	a1,405754 <__moddi3+0x584>
  4055cc:	00000000 	nop
  4055d0:	2442fffe 	addiu	v0,v0,-2
  4055d4:	00cd3021 	addu	a2,a2,t5
  4055d8:	000e4c00 	sll	t1,t6,0x10
  4055dc:	01224825 	or	t1,t1,v0
  4055e0:	01380019 	multu	t1,t8
  4055e4:	00c33023 	subu	a2,a2,v1
  4055e8:	00007810 	mfhi	t7
  4055ec:	00cf102b 	sltu	v0,a2,t7
  4055f0:	00007012 	mflo	t6
  4055f4:	00001812 	mflo	v1
  4055f8:	14400044 	bnez	v0,40570c <__moddi3+0x53c>
  4055fc:	01e02825 	move	a1,t7
  405600:	10cf003f 	beq	a2,t7,405700 <__moddi3+0x530>
  405604:	00000000 	nop
  405608:	00831823 	subu	v1,a0,v1
  40560c:	00c53023 	subu	a2,a2,a1
  405610:	0083282b 	sltu	a1,a0,v1
  405614:	00c52823 	subu	a1,a2,a1
  405618:	01452004 	sllv	a0,a1,t2
  40561c:	01631006 	srlv	v0,v1,t3
  405620:	00821025 	or	v0,a0,v0
  405624:	1000ff34 	b	4052f8 <__moddi3+0x128>
  405628:	01652806 	srlv	a1,a1,t3
  40562c:	00e94804 	sllv	t1,t1,a3
  405630:	00453006 	srlv	a2,a1,v0
  405634:	00095402 	srl	t2,t1,0x10
  405638:	15400002 	bnez	t2,405644 <__moddi3+0x474>
  40563c:	00ca001b 	divu	zero,a2,t2
  405640:	0007000d 	break	0x7
  405644:	00441006 	srlv	v0,a0,v0
  405648:	312bffff 	andi	t3,t1,0xffff
  40564c:	00e41804 	sllv	v1,a0,a3
  405650:	00e52804 	sllv	a1,a1,a3
  405654:	00451025 	or	v0,v0,a1
  405658:	00026402 	srl	t4,v0,0x10
  40565c:	00002012 	mflo	a0
  405660:	00003010 	mfhi	a2
	...
  40566c:	008b0018 	mult	a0,t3
  405670:	00062400 	sll	a0,a2,0x10
  405674:	008c3025 	or	a2,a0,t4
  405678:	00002812 	mflo	a1
  40567c:	00c5202b 	sltu	a0,a2,a1
  405680:	10800008 	beqz	a0,4056a4 <__moddi3+0x4d4>
  405684:	00000000 	nop
  405688:	00c93021 	addu	a2,a2,t1
  40568c:	00c9202b 	sltu	a0,a2,t1
  405690:	14800004 	bnez	a0,4056a4 <__moddi3+0x4d4>
  405694:	00c5202b 	sltu	a0,a2,a1
  405698:	10800002 	beqz	a0,4056a4 <__moddi3+0x4d4>
  40569c:	00000000 	nop
  4056a0:	00c93021 	addu	a2,a2,t1
  4056a4:	00c53023 	subu	a2,a2,a1
  4056a8:	15400002 	bnez	t2,4056b4 <__moddi3+0x4e4>
  4056ac:	00ca001b 	divu	zero,a2,t2
  4056b0:	0007000d 	break	0x7
  4056b4:	3042ffff 	andi	v0,v0,0xffff
  4056b8:	00002012 	mflo	a0
  4056bc:	00003010 	mfhi	a2
  4056c0:	00063400 	sll	a2,a2,0x10
  4056c4:	00c22825 	or	a1,a2,v0
  4056c8:	008b0018 	mult	a0,t3
  4056cc:	00002012 	mflo	a0
  4056d0:	00a4102b 	sltu	v0,a1,a0
  4056d4:	10400008 	beqz	v0,4056f8 <__moddi3+0x528>
  4056d8:	00000000 	nop
  4056dc:	00a92821 	addu	a1,a1,t1
  4056e0:	00a9102b 	sltu	v0,a1,t1
  4056e4:	14400004 	bnez	v0,4056f8 <__moddi3+0x528>
  4056e8:	00a4102b 	sltu	v0,a1,a0
  4056ec:	10400002 	beqz	v0,4056f8 <__moddi3+0x528>
  4056f0:	00000000 	nop
  4056f4:	00a92821 	addu	a1,a1,t1
  4056f8:	1000ff3f 	b	4053f8 <__moddi3+0x228>
  4056fc:	00a42823 	subu	a1,a1,a0
  405700:	008e102b 	sltu	v0,a0,t6
  405704:	1040ffc0 	beqz	v0,405608 <__moddi3+0x438>
  405708:	00000000 	nop
  40570c:	01d81823 	subu	v1,t6,t8
  405710:	01ed3823 	subu	a3,t7,t5
  405714:	01c3482b 	sltu	t1,t6,v1
  405718:	1000ffbb 	b	405608 <__moddi3+0x438>
  40571c:	00e92823 	subu	a1,a3,t1
  405720:	1000fec8 	b	405244 <__moddi3+0x74>
  405724:	240b0010 	li	t3,16
  405728:	1000fec6 	b	405244 <__moddi3+0x74>
  40572c:	00c05025 	move	t2,a2
  405730:	1000ff04 	b	405344 <__moddi3+0x174>
  405734:	240b0010 	li	t3,16
  405738:	1000ff24 	b	4053cc <__moddi3+0x1fc>
  40573c:	240b0010 	li	t3,16
  405740:	1000ff22 	b	4053cc <__moddi3+0x1fc>
  405744:	01201025 	move	v0,t1
  405748:	00e05025 	move	t2,a3
  40574c:	1000fefd 	b	405344 <__moddi3+0x174>
  405750:	00005825 	move	t3,zero
  405754:	1000ffa0 	b	4055d8 <__moddi3+0x408>
  405758:	00e01025 	move	v0,a3
  40575c:	1000ff87 	b	40557c <__moddi3+0x3ac>
  405760:	01207025 	move	t6,t1
  405764:	1000ff37 	b	405444 <__moddi3+0x274>
  405768:	00a92821 	addu	a1,a1,t1
  40576c:	00000000 	nop

00405770 <__udivdi3>:
  405770:	3c1c0002 	lui	gp,0x2
  405774:	279cb950 	addiu	gp,gp,-18096
  405778:	0399e021 	addu	gp,gp,t9
  40577c:	00e01025 	move	v0,a3
  405780:	00c04825 	move	t1,a2
  405784:	00805025 	move	t2,a0
  405788:	14e0004c 	bnez	a3,4058bc <__udivdi3+0x14c>
  40578c:	00a04025 	move	t0,a1
  405790:	00a6182b 	sltu	v1,a1,a2
  405794:	10600069 	beqz	v1,40593c <__udivdi3+0x1cc>
  405798:	3c030001 	lui	v1,0x1
  40579c:	00c3182b 	sltu	v1,a2,v1
  4057a0:	146000b7 	bnez	v1,405a80 <__udivdi3+0x310>
  4057a4:	00000000 	nop
  4057a8:	3c020100 	lui	v0,0x100
  4057ac:	00c2102b 	sltu	v0,a2,v0
  4057b0:	14400153 	bnez	v0,405d00 <__udivdi3+0x590>
  4057b4:	00065c02 	srl	t3,a2,0x10
  4057b8:	00065e02 	srl	t3,a2,0x18
  4057bc:	24020018 	li	v0,24
  4057c0:	8f838128 	lw	v1,-32472(gp)
  4057c4:	24070020 	li	a3,32
  4057c8:	006b1821 	addu	v1,v1,t3
  4057cc:	90630000 	lbu	v1,0(v1)
  4057d0:	00000000 	nop
  4057d4:	00621021 	addu	v0,v1,v0
  4057d8:	10e20006 	beq	a3,v0,4057f4 <__udivdi3+0x84>
  4057dc:	00e21823 	subu	v1,a3,v0
  4057e0:	00654004 	sllv	t0,a1,v1
  4057e4:	00441006 	srlv	v0,a0,v0
  4057e8:	00664804 	sllv	t1,a2,v1
  4057ec:	00484025 	or	t0,v0,t0
  4057f0:	00645004 	sllv	t2,a0,v1
  4057f4:	00091c02 	srl	v1,t1,0x10
  4057f8:	14600002 	bnez	v1,405804 <__udivdi3+0x94>
  4057fc:	0103001b 	divu	zero,t0,v1
  405800:	0007000d 	break	0x7
  405804:	3127ffff 	andi	a3,t1,0xffff
  405808:	000a4402 	srl	t0,t2,0x10
  40580c:	00002012 	mflo	a0
  405810:	00001010 	mfhi	v0
  405814:	00021400 	sll	v0,v0,0x10
  405818:	00484025 	or	t0,v0,t0
  40581c:	00e40018 	mult	a3,a0
  405820:	00003012 	mflo	a2
  405824:	0106102b 	sltu	v0,t0,a2
  405828:	10400009 	beqz	v0,405850 <__udivdi3+0xe0>
  40582c:	00000000 	nop
  405830:	01094021 	addu	t0,t0,t1
  405834:	0109102b 	sltu	v0,t0,t1
  405838:	14400004 	bnez	v0,40584c <__udivdi3+0xdc>
  40583c:	2485ffff 	addiu	a1,a0,-1
  405840:	0106102b 	sltu	v0,t0,a2
  405844:	1440013c 	bnez	v0,405d38 <__udivdi3+0x5c8>
  405848:	2484fffe 	addiu	a0,a0,-2
  40584c:	00a02025 	move	a0,a1
  405850:	01064023 	subu	t0,t0,a2
  405854:	14600002 	bnez	v1,405860 <__udivdi3+0xf0>
  405858:	0103001b 	divu	zero,t0,v1
  40585c:	0007000d 	break	0x7
  405860:	314affff 	andi	t2,t2,0xffff
  405864:	00001012 	mflo	v0
  405868:	00004010 	mfhi	t0
  40586c:	00084400 	sll	t0,t0,0x10
  405870:	010a4025 	or	t0,t0,t2
  405874:	00e20018 	mult	a3,v0
  405878:	00002812 	mflo	a1
  40587c:	0105182b 	sltu	v1,t0,a1
  405880:	10600008 	beqz	v1,4058a4 <__udivdi3+0x134>
  405884:	01284021 	addu	t0,t1,t0
  405888:	0109482b 	sltu	t1,t0,t1
  40588c:	15200004 	bnez	t1,4058a0 <__udivdi3+0x130>
  405890:	2443ffff 	addiu	v1,v0,-1
  405894:	0105402b 	sltu	t0,t0,a1
  405898:	15000125 	bnez	t0,405d30 <__udivdi3+0x5c0>
  40589c:	00000000 	nop
  4058a0:	00601025 	move	v0,v1
  4058a4:	00042400 	sll	a0,a0,0x10
  4058a8:	00003025 	move	a2,zero
  4058ac:	00821025 	or	v0,a0,v0
  4058b0:	00c01825 	move	v1,a2
  4058b4:	03e00008 	jr	ra
  4058b8:	00000000 	nop
  4058bc:	00a7102b 	sltu	v0,a1,a3
  4058c0:	10400005 	beqz	v0,4058d8 <__udivdi3+0x168>
  4058c4:	00001025 	move	v0,zero
  4058c8:	00003025 	move	a2,zero
  4058cc:	00c01825 	move	v1,a2
  4058d0:	03e00008 	jr	ra
  4058d4:	00000000 	nop
  4058d8:	3c020001 	lui	v0,0x1
  4058dc:	00e2102b 	sltu	v0,a3,v0
  4058e0:	1440006d 	bnez	v0,405a98 <__udivdi3+0x328>
  4058e4:	2ce20100 	sltiu	v0,a3,256
  4058e8:	3c020100 	lui	v0,0x100
  4058ec:	00e2102b 	sltu	v0,a3,v0
  4058f0:	144000f7 	bnez	v0,405cd0 <__udivdi3+0x560>
  4058f4:	00074c02 	srl	t1,a3,0x10
  4058f8:	00074e02 	srl	t1,a3,0x18
  4058fc:	24080018 	li	t0,24
  405900:	8f828128 	lw	v0,-32472(gp)
  405904:	24030020 	li	v1,32
  405908:	00491021 	addu	v0,v0,t1
  40590c:	904b0000 	lbu	t3,0(v0)
  405910:	00000000 	nop
  405914:	01685821 	addu	t3,t3,t0
  405918:	146b00a1 	bne	v1,t3,405ba0 <__udivdi3+0x430>
  40591c:	006b6023 	subu	t4,v1,t3
  405920:	00e5402b 	sltu	t0,a3,a1
  405924:	150000ee 	bnez	t0,405ce0 <__udivdi3+0x570>
  405928:	00000000 	nop
  40592c:	0086102b 	sltu	v0,a0,a2
  405930:	38420001 	xori	v0,v0,0x1
  405934:	1000ffe5 	b	4058cc <__udivdi3+0x15c>
  405938:	00003025 	move	a2,zero
  40593c:	14c00008 	bnez	a2,405960 <__udivdi3+0x1f0>
  405940:	0123182b 	sltu	v1,t1,v1
  405944:	24030001 	li	v1,1
  405948:	14c00002 	bnez	a2,405954 <__udivdi3+0x1e4>
  40594c:	0066001b 	divu	zero,v1,a2
  405950:	0007000d 	break	0x7
  405954:	00004812 	mflo	t1
  405958:	3c030001 	lui	v1,0x1
  40595c:	0123182b 	sltu	v1,t1,v1
  405960:	14600042 	bnez	v1,405a6c <__udivdi3+0x2fc>
  405964:	2d230100 	sltiu	v1,t1,256
  405968:	3c020100 	lui	v0,0x100
  40596c:	0122102b 	sltu	v0,t1,v0
  405970:	144000e1 	bnez	v0,405cf8 <__udivdi3+0x588>
  405974:	00093c02 	srl	a3,t1,0x10
  405978:	00093e02 	srl	a3,t1,0x18
  40597c:	24020018 	li	v0,24
  405980:	8f838128 	lw	v1,-32472(gp)
  405984:	24060020 	li	a2,32
  405988:	00671821 	addu	v1,v1,a3
  40598c:	90670000 	lbu	a3,0(v1)
  405990:	00000000 	nop
  405994:	00e23821 	addu	a3,a3,v0
  405998:	14c70048 	bne	a2,a3,405abc <__udivdi3+0x34c>
  40599c:	00c76823 	subu	t5,a2,a3
  4059a0:	00a91023 	subu	v0,a1,t1
  4059a4:	00091c02 	srl	v1,t1,0x10
  4059a8:	312bffff 	andi	t3,t1,0xffff
  4059ac:	24060001 	li	a2,1
  4059b0:	14600002 	bnez	v1,4059bc <__udivdi3+0x24c>
  4059b4:	0043001b 	divu	zero,v0,v1
  4059b8:	0007000d 	break	0x7
  4059bc:	000a1402 	srl	v0,t2,0x10
  4059c0:	00002812 	mflo	a1
  4059c4:	00002010 	mfhi	a0
  4059c8:	00042400 	sll	a0,a0,0x10
  4059cc:	00821025 	or	v0,a0,v0
  4059d0:	00ab0018 	mult	a1,t3
  4059d4:	00004012 	mflo	t0
  4059d8:	0048202b 	sltu	a0,v0,t0
  4059dc:	10800009 	beqz	a0,405a04 <__udivdi3+0x294>
  4059e0:	00000000 	nop
  4059e4:	00491021 	addu	v0,v0,t1
  4059e8:	0049202b 	sltu	a0,v0,t1
  4059ec:	14800004 	bnez	a0,405a00 <__udivdi3+0x290>
  4059f0:	24a7ffff 	addiu	a3,a1,-1
  4059f4:	0048202b 	sltu	a0,v0,t0
  4059f8:	148000d1 	bnez	a0,405d40 <__udivdi3+0x5d0>
  4059fc:	24a5fffe 	addiu	a1,a1,-2
  405a00:	00e02825 	move	a1,a3
  405a04:	00481023 	subu	v0,v0,t0
  405a08:	14600002 	bnez	v1,405a14 <__udivdi3+0x2a4>
  405a0c:	0043001b 	divu	zero,v0,v1
  405a10:	0007000d 	break	0x7
  405a14:	314affff 	andi	t2,t2,0xffff
  405a18:	00002012 	mflo	a0
  405a1c:	00001010 	mfhi	v0
  405a20:	00021c00 	sll	v1,v0,0x10
  405a24:	006a1825 	or	v1,v1,t2
  405a28:	008b0018 	mult	a0,t3
  405a2c:	00003812 	mflo	a3
  405a30:	0067102b 	sltu	v0,v1,a3
  405a34:	10400008 	beqz	v0,405a58 <__udivdi3+0x2e8>
  405a38:	00000000 	nop
  405a3c:	01231821 	addu	v1,t1,v1
  405a40:	0069482b 	sltu	t1,v1,t1
  405a44:	15200019 	bnez	t1,405aac <__udivdi3+0x33c>
  405a48:	2482ffff 	addiu	v0,a0,-1
  405a4c:	0067182b 	sltu	v1,v1,a3
  405a50:	10600016 	beqz	v1,405aac <__udivdi3+0x33c>
  405a54:	2484fffe 	addiu	a0,a0,-2
  405a58:	00052c00 	sll	a1,a1,0x10
  405a5c:	00a41025 	or	v0,a1,a0
  405a60:	00c01825 	move	v1,a2
  405a64:	03e00008 	jr	ra
  405a68:	00000000 	nop
  405a6c:	146000a6 	bnez	v1,405d08 <__udivdi3+0x598>
  405a70:	00000000 	nop
  405a74:	00093a02 	srl	a3,t1,0x8
  405a78:	1000ffc1 	b	405980 <__udivdi3+0x210>
  405a7c:	24020008 	li	v0,8
  405a80:	2cc30100 	sltiu	v1,a2,256
  405a84:	14600094 	bnez	v1,405cd8 <__udivdi3+0x568>
  405a88:	00000000 	nop
  405a8c:	00065a02 	srl	t3,a2,0x8
  405a90:	1000ff4b 	b	4057c0 <__udivdi3+0x50>
  405a94:	24020008 	li	v0,8
  405a98:	14400094 	bnez	v0,405cec <__udivdi3+0x57c>
  405a9c:	00000000 	nop
  405aa0:	00074a02 	srl	t1,a3,0x8
  405aa4:	1000ff96 	b	405900 <__udivdi3+0x190>
  405aa8:	24080008 	li	t0,8
  405aac:	00402025 	move	a0,v0
  405ab0:	00052c00 	sll	a1,a1,0x10
  405ab4:	1000ffea 	b	405a60 <__udivdi3+0x2f0>
  405ab8:	00a41025 	or	v0,a1,a0
  405abc:	01a94804 	sllv	t1,t1,t5
  405ac0:	00e53006 	srlv	a2,a1,a3
  405ac4:	00091c02 	srl	v1,t1,0x10
  405ac8:	14600002 	bnez	v1,405ad4 <__udivdi3+0x364>
  405acc:	00c3001b 	divu	zero,a2,v1
  405ad0:	0007000d 	break	0x7
  405ad4:	312bffff 	andi	t3,t1,0xffff
  405ad8:	01a54004 	sllv	t0,a1,t5
  405adc:	00e43806 	srlv	a3,a0,a3
  405ae0:	00e84025 	or	t0,a3,t0
  405ae4:	00082c02 	srl	a1,t0,0x10
  405ae8:	01a45004 	sllv	t2,a0,t5
  405aec:	00006012 	mflo	t4
  405af0:	00003010 	mfhi	a2
  405af4:	00063400 	sll	a2,a2,0x10
  405af8:	00c52025 	or	a0,a2,a1
  405afc:	016c0018 	mult	t3,t4
  405b00:	00001012 	mflo	v0
  405b04:	0082282b 	sltu	a1,a0,v0
  405b08:	10a0000a 	beqz	a1,405b34 <__udivdi3+0x3c4>
  405b0c:	00000000 	nop
  405b10:	00892021 	addu	a0,a0,t1
  405b14:	0089282b 	sltu	a1,a0,t1
  405b18:	14a00083 	bnez	a1,405d28 <__udivdi3+0x5b8>
  405b1c:	2586ffff 	addiu	a2,t4,-1
  405b20:	0082282b 	sltu	a1,a0,v0
  405b24:	10a00080 	beqz	a1,405d28 <__udivdi3+0x5b8>
  405b28:	00000000 	nop
  405b2c:	258cfffe 	addiu	t4,t4,-2
  405b30:	00892021 	addu	a0,a0,t1
  405b34:	00822023 	subu	a0,a0,v0
  405b38:	14600002 	bnez	v1,405b44 <__udivdi3+0x3d4>
  405b3c:	0083001b 	divu	zero,a0,v1
  405b40:	0007000d 	break	0x7
  405b44:	3108ffff 	andi	t0,t0,0xffff
  405b48:	00003012 	mflo	a2
  405b4c:	00002010 	mfhi	a0
  405b50:	00042400 	sll	a0,a0,0x10
  405b54:	00881025 	or	v0,a0,t0
  405b58:	01660018 	mult	t3,a2
  405b5c:	00002812 	mflo	a1
  405b60:	0045202b 	sltu	a0,v0,a1
  405b64:	1080000a 	beqz	a0,405b90 <__udivdi3+0x420>
  405b68:	00000000 	nop
  405b6c:	00491021 	addu	v0,v0,t1
  405b70:	0049202b 	sltu	a0,v0,t1
  405b74:	14800068 	bnez	a0,405d18 <__udivdi3+0x5a8>
  405b78:	24c7ffff 	addiu	a3,a2,-1
  405b7c:	0045202b 	sltu	a0,v0,a1
  405b80:	10800065 	beqz	a0,405d18 <__udivdi3+0x5a8>
  405b84:	00000000 	nop
  405b88:	24c6fffe 	addiu	a2,a2,-2
  405b8c:	00491021 	addu	v0,v0,t1
  405b90:	000c6400 	sll	t4,t4,0x10
  405b94:	00451023 	subu	v0,v0,a1
  405b98:	1000ff85 	b	4059b0 <__udivdi3+0x240>
  405b9c:	01863025 	or	a2,t4,a2
  405ba0:	01661006 	srlv	v0,a2,t3
  405ba4:	01873804 	sllv	a3,a3,t4
  405ba8:	00473825 	or	a3,v0,a3
  405bac:	00076c02 	srl	t5,a3,0x10
  405bb0:	01651006 	srlv	v0,a1,t3
  405bb4:	15a00002 	bnez	t5,405bc0 <__udivdi3+0x450>
  405bb8:	004d001b 	divu	zero,v0,t5
  405bbc:	0007000d 	break	0x7
  405bc0:	30eeffff 	andi	t6,a3,0xffff
  405bc4:	01854004 	sllv	t0,a1,t4
  405bc8:	01645806 	srlv	t3,a0,t3
  405bcc:	01684025 	or	t0,t3,t0
  405bd0:	00084c02 	srl	t1,t0,0x10
  405bd4:	00001812 	mflo	v1
  405bd8:	00005010 	mfhi	t2
  405bdc:	000a5400 	sll	t2,t2,0x10
  405be0:	01494825 	or	t1,t2,t1
  405be4:	01c30018 	mult	t6,v1
  405be8:	00002812 	mflo	a1
  405bec:	0125102b 	sltu	v0,t1,a1
  405bf0:	1040000a 	beqz	v0,405c1c <__udivdi3+0x4ac>
  405bf4:	01863004 	sllv	a2,a2,t4
  405bf8:	01274821 	addu	t1,t1,a3
  405bfc:	0127102b 	sltu	v0,t1,a3
  405c00:	14400047 	bnez	v0,405d20 <__udivdi3+0x5b0>
  405c04:	246affff 	addiu	t2,v1,-1
  405c08:	0125102b 	sltu	v0,t1,a1
  405c0c:	10400044 	beqz	v0,405d20 <__udivdi3+0x5b0>
  405c10:	00000000 	nop
  405c14:	2463fffe 	addiu	v1,v1,-2
  405c18:	01274821 	addu	t1,t1,a3
  405c1c:	01254823 	subu	t1,t1,a1
  405c20:	15a00002 	bnez	t5,405c2c <__udivdi3+0x4bc>
  405c24:	012d001b 	divu	zero,t1,t5
  405c28:	0007000d 	break	0x7
  405c2c:	3108ffff 	andi	t0,t0,0xffff
  405c30:	00001012 	mflo	v0
  405c34:	00004810 	mfhi	t1
  405c38:	00094c00 	sll	t1,t1,0x10
  405c3c:	01282825 	or	a1,t1,t0
  405c40:	01c20018 	mult	t6,v0
  405c44:	00005012 	mflo	t2
  405c48:	00aa402b 	sltu	t0,a1,t2
  405c4c:	1100000a 	beqz	t0,405c78 <__udivdi3+0x508>
  405c50:	00000000 	nop
  405c54:	00a72821 	addu	a1,a1,a3
  405c58:	00a7402b 	sltu	t0,a1,a3
  405c5c:	1500002c 	bnez	t0,405d10 <__udivdi3+0x5a0>
  405c60:	2449ffff 	addiu	t1,v0,-1
  405c64:	00aa402b 	sltu	t0,a1,t2
  405c68:	11000029 	beqz	t0,405d10 <__udivdi3+0x5a0>
  405c6c:	00000000 	nop
  405c70:	2442fffe 	addiu	v0,v0,-2
  405c74:	00a72821 	addu	a1,a1,a3
  405c78:	00031c00 	sll	v1,v1,0x10
  405c7c:	00621025 	or	v0,v1,v0
  405c80:	00460019 	multu	v0,a2
  405c84:	00aa2823 	subu	a1,a1,t2
  405c88:	00003810 	mfhi	a3
  405c8c:	00a7182b 	sltu	v1,a1,a3
  405c90:	00003012 	mflo	a2
  405c94:	1460000b 	bnez	v1,405cc4 <__udivdi3+0x554>
  405c98:	00000000 	nop
  405c9c:	10a70005 	beq	a1,a3,405cb4 <__udivdi3+0x544>
  405ca0:	00000000 	nop
  405ca4:	00003025 	move	a2,zero
  405ca8:	00c01825 	move	v1,a2
  405cac:	03e00008 	jr	ra
  405cb0:	00000000 	nop
  405cb4:	01842004 	sllv	a0,a0,t4
  405cb8:	0086202b 	sltu	a0,a0,a2
  405cbc:	1080fff9 	beqz	a0,405ca4 <__udivdi3+0x534>
  405cc0:	00000000 	nop
  405cc4:	2442ffff 	addiu	v0,v0,-1
  405cc8:	1000fff7 	b	405ca8 <__udivdi3+0x538>
  405ccc:	00003025 	move	a2,zero
  405cd0:	1000ff0b 	b	405900 <__udivdi3+0x190>
  405cd4:	24080010 	li	t0,16
  405cd8:	1000feb9 	b	4057c0 <__udivdi3+0x50>
  405cdc:	00c05825 	move	t3,a2
  405ce0:	00003025 	move	a2,zero
  405ce4:	1000fef9 	b	4058cc <__udivdi3+0x15c>
  405ce8:	24020001 	li	v0,1
  405cec:	00e04825 	move	t1,a3
  405cf0:	1000ff03 	b	405900 <__udivdi3+0x190>
  405cf4:	00004025 	move	t0,zero
  405cf8:	1000ff21 	b	405980 <__udivdi3+0x210>
  405cfc:	24020010 	li	v0,16
  405d00:	1000feaf 	b	4057c0 <__udivdi3+0x50>
  405d04:	24020010 	li	v0,16
  405d08:	1000ff1d 	b	405980 <__udivdi3+0x210>
  405d0c:	01203825 	move	a3,t1
  405d10:	1000ffd9 	b	405c78 <__udivdi3+0x508>
  405d14:	01201025 	move	v0,t1
  405d18:	1000ff9d 	b	405b90 <__udivdi3+0x420>
  405d1c:	00e03025 	move	a2,a3
  405d20:	1000ffbe 	b	405c1c <__udivdi3+0x4ac>
  405d24:	01401825 	move	v1,t2
  405d28:	1000ff82 	b	405b34 <__udivdi3+0x3c4>
  405d2c:	00c06025 	move	t4,a2
  405d30:	1000fedc 	b	4058a4 <__udivdi3+0x134>
  405d34:	2442fffe 	addiu	v0,v0,-2
  405d38:	1000fec5 	b	405850 <__udivdi3+0xe0>
  405d3c:	01094021 	addu	t0,t0,t1
  405d40:	1000ff30 	b	405a04 <__udivdi3+0x294>
  405d44:	00491021 	addu	v0,v0,t1
	...

00405d50 <__umoddi3>:
  405d50:	3c1c0002 	lui	gp,0x2
  405d54:	279cb370 	addiu	gp,gp,-19600
  405d58:	0399e021 	addu	gp,gp,t9
  405d5c:	00e04825 	move	t1,a3
  405d60:	00c04025 	move	t0,a2
  405d64:	00801825 	move	v1,a0
  405d68:	00a05025 	move	t2,a1
  405d6c:	14e0004b 	bnez	a3,405e9c <__umoddi3+0x14c>
  405d70:	00a01025 	move	v0,a1
  405d74:	00a6382b 	sltu	a3,a1,a2
  405d78:	10e0006b 	beqz	a3,405f28 <__umoddi3+0x1d8>
  405d7c:	3c070001 	lui	a3,0x1
  405d80:	00c7382b 	sltu	a3,a2,a3
  405d84:	14e000a3 	bnez	a3,406014 <__umoddi3+0x2c4>
  405d88:	2cc70100 	sltiu	a3,a2,256
  405d8c:	3c070100 	lui	a3,0x100
  405d90:	00c7382b 	sltu	a3,a2,a3
  405d94:	14e00134 	bnez	a3,406268 <__umoddi3+0x518>
  405d98:	00065c02 	srl	t3,a2,0x10
  405d9c:	00065e02 	srl	t3,a2,0x18
  405da0:	24090018 	li	t1,24
  405da4:	8f878128 	lw	a3,-32472(gp)
  405da8:	240a0020 	li	t2,32
  405dac:	00eb3821 	addu	a3,a3,t3
  405db0:	90e70000 	lbu	a3,0(a3)
  405db4:	00000000 	nop
  405db8:	00e94821 	addu	t1,a3,t1
  405dbc:	11490006 	beq	t2,t1,405dd8 <__umoddi3+0x88>
  405dc0:	01493823 	subu	a3,t2,t1
  405dc4:	00e52804 	sllv	a1,a1,a3
  405dc8:	01244806 	srlv	t1,a0,t1
  405dcc:	00e64004 	sllv	t0,a2,a3
  405dd0:	01251025 	or	v0,t1,a1
  405dd4:	00e41804 	sllv	v1,a0,a3
  405dd8:	00082402 	srl	a0,t0,0x10
  405ddc:	14800002 	bnez	a0,405de8 <__umoddi3+0x98>
  405de0:	0044001b 	divu	zero,v0,a0
  405de4:	0007000d 	break	0x7
  405de8:	310affff 	andi	t2,t0,0xffff
  405dec:	00033402 	srl	a2,v1,0x10
  405df0:	00002812 	mflo	a1
  405df4:	00001010 	mfhi	v0
  405df8:	00021400 	sll	v0,v0,0x10
  405dfc:	00000000 	nop
  405e00:	00aa0018 	mult	a1,t2
  405e04:	00462825 	or	a1,v0,a2
  405e08:	00004812 	mflo	t1
  405e0c:	00a9102b 	sltu	v0,a1,t1
  405e10:	10400007 	beqz	v0,405e30 <__umoddi3+0xe0>
  405e14:	00000000 	nop
  405e18:	00a82821 	addu	a1,a1,t0
  405e1c:	00a8102b 	sltu	v0,a1,t0
  405e20:	14400003 	bnez	v0,405e30 <__umoddi3+0xe0>
  405e24:	00a9102b 	sltu	v0,a1,t1
  405e28:	14400120 	bnez	v0,4062ac <__umoddi3+0x55c>
  405e2c:	00000000 	nop
  405e30:	00a92823 	subu	a1,a1,t1
  405e34:	14800002 	bnez	a0,405e40 <__umoddi3+0xf0>
  405e38:	00a4001b 	divu	zero,a1,a0
  405e3c:	0007000d 	break	0x7
  405e40:	3063ffff 	andi	v1,v1,0xffff
  405e44:	00001012 	mflo	v0
  405e48:	00002810 	mfhi	a1
  405e4c:	00052c00 	sll	a1,a1,0x10
  405e50:	00a31825 	or	v1,a1,v1
  405e54:	004a0018 	mult	v0,t2
  405e58:	00001012 	mflo	v0
  405e5c:	0062202b 	sltu	a0,v1,v0
  405e60:	10800008 	beqz	a0,405e84 <__umoddi3+0x134>
  405e64:	00000000 	nop
  405e68:	00681821 	addu	v1,v1,t0
  405e6c:	0068202b 	sltu	a0,v1,t0
  405e70:	14800004 	bnez	a0,405e84 <__umoddi3+0x134>
  405e74:	0062202b 	sltu	a0,v1,v0
  405e78:	10800002 	beqz	a0,405e84 <__umoddi3+0x134>
  405e7c:	00000000 	nop
  405e80:	00681821 	addu	v1,v1,t0
  405e84:	00621023 	subu	v0,v1,v0
  405e88:	00e21006 	srlv	v0,v0,a3
  405e8c:	00002825 	move	a1,zero
  405e90:	00a01825 	move	v1,a1
  405e94:	03e00008 	jr	ra
  405e98:	00000000 	nop
  405e9c:	00a7182b 	sltu	v1,a1,a3
  405ea0:	1460fffb 	bnez	v1,405e90 <__umoddi3+0x140>
  405ea4:	00801025 	move	v0,a0
  405ea8:	3c030001 	lui	v1,0x1
  405eac:	00e3182b 	sltu	v1,a3,v1
  405eb0:	1460005d 	bnez	v1,406028 <__umoddi3+0x2d8>
  405eb4:	2ce30100 	sltiu	v1,a3,256
  405eb8:	3c030100 	lui	v1,0x100
  405ebc:	00e3182b 	sltu	v1,a3,v1
  405ec0:	146000ed 	bnez	v1,406278 <__umoddi3+0x528>
  405ec4:	00074c02 	srl	t1,a3,0x10
  405ec8:	00074e02 	srl	t1,a3,0x18
  405ecc:	240b0018 	li	t3,24
  405ed0:	8f838128 	lw	v1,-32472(gp)
  405ed4:	24080020 	li	t0,32
  405ed8:	00691821 	addu	v1,v1,t1
  405edc:	90690000 	lbu	t1,0(v1)
  405ee0:	00000000 	nop
  405ee4:	012b4821 	addu	t1,t1,t3
  405ee8:	15090054 	bne	t0,t1,40603c <__umoddi3+0x2ec>
  405eec:	01095823 	subu	t3,t0,t1
  405ef0:	00e5182b 	sltu	v1,a3,a1
  405ef4:	14600004 	bnez	v1,405f08 <__umoddi3+0x1b8>
  405ef8:	00000000 	nop
  405efc:	0086182b 	sltu	v1,a0,a2
  405f00:	14600005 	bnez	v1,405f18 <__umoddi3+0x1c8>
  405f04:	00000000 	nop
  405f08:	00861023 	subu	v0,a0,a2
  405f0c:	00a72823 	subu	a1,a1,a3
  405f10:	0082202b 	sltu	a0,a0,v0
  405f14:	00a45023 	subu	t2,a1,a0
  405f18:	01402825 	move	a1,t2
  405f1c:	01401825 	move	v1,t2
  405f20:	03e00008 	jr	ra
  405f24:	00000000 	nop
  405f28:	14c00007 	bnez	a2,405f48 <__umoddi3+0x1f8>
  405f2c:	3c020001 	lui	v0,0x1
  405f30:	24020001 	li	v0,1
  405f34:	14c00002 	bnez	a2,405f40 <__umoddi3+0x1f0>
  405f38:	0046001b 	divu	zero,v0,a2
  405f3c:	0007000d 	break	0x7
  405f40:	00004012 	mflo	t0
  405f44:	3c020001 	lui	v0,0x1
  405f48:	0102102b 	sltu	v0,t0,v0
  405f4c:	1440002c 	bnez	v0,406000 <__umoddi3+0x2b0>
  405f50:	2d020100 	sltiu	v0,t0,256
  405f54:	3c020100 	lui	v0,0x100
  405f58:	0102102b 	sltu	v0,t0,v0
  405f5c:	144000c8 	bnez	v0,406280 <__umoddi3+0x530>
  405f60:	00000000 	nop
  405f64:	00083e02 	srl	a3,t0,0x18
  405f68:	24090018 	li	t1,24
  405f6c:	8f828128 	lw	v0,-32472(gp)
  405f70:	24060020 	li	a2,32
  405f74:	00471021 	addu	v0,v0,a3
  405f78:	90420000 	lbu	v0,0(v0)
  405f7c:	00000000 	nop
  405f80:	00494821 	addu	t1,v0,t1
  405f84:	14c9007b 	bne	a2,t1,406174 <__umoddi3+0x424>
  405f88:	00c93823 	subu	a3,a2,t1
  405f8c:	00a82823 	subu	a1,a1,t0
  405f90:	00081402 	srl	v0,t0,0x10
  405f94:	310affff 	andi	t2,t0,0xffff
  405f98:	14400002 	bnez	v0,405fa4 <__umoddi3+0x254>
  405f9c:	00a2001b 	divu	zero,a1,v0
  405fa0:	0007000d 	break	0x7
  405fa4:	00032c02 	srl	a1,v1,0x10
  405fa8:	00002012 	mflo	a0
  405fac:	00003010 	mfhi	a2
  405fb0:	00063400 	sll	a2,a2,0x10
  405fb4:	00c52825 	or	a1,a2,a1
  405fb8:	008a0018 	mult	a0,t2
  405fbc:	00004812 	mflo	t1
  405fc0:	00a9202b 	sltu	a0,a1,t1
  405fc4:	10800008 	beqz	a0,405fe8 <__umoddi3+0x298>
  405fc8:	00000000 	nop
  405fcc:	00a82821 	addu	a1,a1,t0
  405fd0:	00a8202b 	sltu	a0,a1,t0
  405fd4:	14800004 	bnez	a0,405fe8 <__umoddi3+0x298>
  405fd8:	00a9202b 	sltu	a0,a1,t1
  405fdc:	10800002 	beqz	a0,405fe8 <__umoddi3+0x298>
  405fe0:	00000000 	nop
  405fe4:	00a82821 	addu	a1,a1,t0
  405fe8:	00a92823 	subu	a1,a1,t1
  405fec:	14400002 	bnez	v0,405ff8 <__umoddi3+0x2a8>
  405ff0:	00a2001b 	divu	zero,a1,v0
  405ff4:	0007000d 	break	0x7
  405ff8:	1000ff92 	b	405e44 <__umoddi3+0xf4>
  405ffc:	3063ffff 	andi	v1,v1,0xffff
  406000:	144000a4 	bnez	v0,406294 <__umoddi3+0x544>
  406004:	00000000 	nop
  406008:	00083a02 	srl	a3,t0,0x8
  40600c:	1000ffd7 	b	405f6c <__umoddi3+0x21c>
  406010:	24090008 	li	t1,8
  406014:	14e0009d 	bnez	a3,40628c <__umoddi3+0x53c>
  406018:	00000000 	nop
  40601c:	00065a02 	srl	t3,a2,0x8
  406020:	1000ff60 	b	405da4 <__umoddi3+0x54>
  406024:	24090008 	li	t1,8
  406028:	14600091 	bnez	v1,406270 <__umoddi3+0x520>
  40602c:	00000000 	nop
  406030:	00074a02 	srl	t1,a3,0x8
  406034:	1000ffa6 	b	405ed0 <__umoddi3+0x180>
  406038:	240b0008 	li	t3,8
  40603c:	01673804 	sllv	a3,a3,t3
  406040:	01265006 	srlv	t2,a2,t1
  406044:	01475025 	or	t2,t2,a3
  406048:	01251006 	srlv	v0,a1,t1
  40604c:	000a7402 	srl	t6,t2,0x10
  406050:	15c00002 	bnez	t6,40605c <__umoddi3+0x30c>
  406054:	004e001b 	divu	zero,v0,t6
  406058:	0007000d 	break	0x7
  40605c:	3143ffff 	andi	v1,t2,0xffff
  406060:	01241006 	srlv	v0,a0,t1
  406064:	01652804 	sllv	a1,a1,t3
  406068:	00452825 	or	a1,v0,a1
  40606c:	00054402 	srl	t0,a1,0x10
  406070:	01667804 	sllv	t7,a2,t3
  406074:	00006012 	mflo	t4
  406078:	00006810 	mfhi	t5
  40607c:	000d1400 	sll	v0,t5,0x10
  406080:	00483825 	or	a3,v0,t0
  406084:	006c0018 	mult	v1,t4
  406088:	00003012 	mflo	a2
  40608c:	00e6102b 	sltu	v0,a3,a2
  406090:	1040000a 	beqz	v0,4060bc <__umoddi3+0x36c>
  406094:	01642004 	sllv	a0,a0,t3
  406098:	00ea3821 	addu	a3,a3,t2
  40609c:	00ea102b 	sltu	v0,a3,t2
  4060a0:	14400080 	bnez	v0,4062a4 <__umoddi3+0x554>
  4060a4:	2588ffff 	addiu	t0,t4,-1
  4060a8:	00e6102b 	sltu	v0,a3,a2
  4060ac:	1040007d 	beqz	v0,4062a4 <__umoddi3+0x554>
  4060b0:	00000000 	nop
  4060b4:	258cfffe 	addiu	t4,t4,-2
  4060b8:	00ea3821 	addu	a3,a3,t2
  4060bc:	00e63823 	subu	a3,a3,a2
  4060c0:	15c00002 	bnez	t6,4060cc <__umoddi3+0x37c>
  4060c4:	00ee001b 	divu	zero,a3,t6
  4060c8:	0007000d 	break	0x7
  4060cc:	30a5ffff 	andi	a1,a1,0xffff
  4060d0:	00001012 	mflo	v0
  4060d4:	00003810 	mfhi	a3
  4060d8:	00073c00 	sll	a3,a3,0x10
  4060dc:	00e53025 	or	a2,a3,a1
  4060e0:	00620018 	mult	v1,v0
  4060e4:	00001812 	mflo	v1
  4060e8:	00c3282b 	sltu	a1,a2,v1
  4060ec:	10a0000a 	beqz	a1,406118 <__umoddi3+0x3c8>
  4060f0:	00000000 	nop
  4060f4:	00ca3021 	addu	a2,a2,t2
  4060f8:	00ca282b 	sltu	a1,a2,t2
  4060fc:	14a00067 	bnez	a1,40629c <__umoddi3+0x54c>
  406100:	2447ffff 	addiu	a3,v0,-1
  406104:	00c3282b 	sltu	a1,a2,v1
  406108:	10a00064 	beqz	a1,40629c <__umoddi3+0x54c>
  40610c:	00000000 	nop
  406110:	2442fffe 	addiu	v0,v0,-2
  406114:	00ca3021 	addu	a2,a2,t2
  406118:	000c6400 	sll	t4,t4,0x10
  40611c:	01826025 	or	t4,t4,v0
  406120:	018f0019 	multu	t4,t7
  406124:	00c33023 	subu	a2,a2,v1
  406128:	00006810 	mfhi	t5
  40612c:	00cd102b 	sltu	v0,a2,t5
  406130:	00006012 	mflo	t4
  406134:	00001812 	mflo	v1
  406138:	14400046 	bnez	v0,406254 <__umoddi3+0x504>
  40613c:	01a02825 	move	a1,t5
  406140:	10cd0041 	beq	a2,t5,406248 <__umoddi3+0x4f8>
  406144:	00000000 	nop
  406148:	00831823 	subu	v1,a0,v1
  40614c:	00c53023 	subu	a2,a2,a1
  406150:	0083282b 	sltu	a1,a0,v1
  406154:	00c52823 	subu	a1,a2,a1
  406158:	01252004 	sllv	a0,a1,t1
  40615c:	01631006 	srlv	v0,v1,t3
  406160:	01652806 	srlv	a1,a1,t3
  406164:	00821025 	or	v0,a0,v0
  406168:	00a01825 	move	v1,a1
  40616c:	03e00008 	jr	ra
  406170:	00000000 	nop
  406174:	00e84004 	sllv	t0,t0,a3
  406178:	01253006 	srlv	a2,a1,t1
  40617c:	00081402 	srl	v0,t0,0x10
  406180:	14400002 	bnez	v0,40618c <__umoddi3+0x43c>
  406184:	00c2001b 	divu	zero,a2,v0
  406188:	0007000d 	break	0x7
  40618c:	01244806 	srlv	t1,a0,t1
  406190:	310affff 	andi	t2,t0,0xffff
  406194:	00e41804 	sllv	v1,a0,a3
  406198:	00e52804 	sllv	a1,a1,a3
  40619c:	01254825 	or	t1,t1,a1
  4061a0:	00095c02 	srl	t3,t1,0x10
  4061a4:	00002012 	mflo	a0
  4061a8:	00003010 	mfhi	a2
	...
  4061b4:	008a0018 	mult	a0,t2
  4061b8:	00062400 	sll	a0,a2,0x10
  4061bc:	008b3025 	or	a2,a0,t3
  4061c0:	00002812 	mflo	a1
  4061c4:	00c5202b 	sltu	a0,a2,a1
  4061c8:	10800008 	beqz	a0,4061ec <__umoddi3+0x49c>
  4061cc:	00000000 	nop
  4061d0:	00c83021 	addu	a2,a2,t0
  4061d4:	00c8202b 	sltu	a0,a2,t0
  4061d8:	14800004 	bnez	a0,4061ec <__umoddi3+0x49c>
  4061dc:	00c5202b 	sltu	a0,a2,a1
  4061e0:	10800002 	beqz	a0,4061ec <__umoddi3+0x49c>
  4061e4:	00000000 	nop
  4061e8:	00c83021 	addu	a2,a2,t0
  4061ec:	00c53023 	subu	a2,a2,a1
  4061f0:	14400002 	bnez	v0,4061fc <__umoddi3+0x4ac>
  4061f4:	00c2001b 	divu	zero,a2,v0
  4061f8:	0007000d 	break	0x7
  4061fc:	3129ffff 	andi	t1,t1,0xffff
  406200:	00002012 	mflo	a0
  406204:	00003010 	mfhi	a2
  406208:	00063400 	sll	a2,a2,0x10
  40620c:	00c92825 	or	a1,a2,t1
  406210:	008a0018 	mult	a0,t2
  406214:	00002012 	mflo	a0
  406218:	00a4302b 	sltu	a2,a1,a0
  40621c:	10c00008 	beqz	a2,406240 <__umoddi3+0x4f0>
  406220:	00000000 	nop
  406224:	00a82821 	addu	a1,a1,t0
  406228:	00a8302b 	sltu	a2,a1,t0
  40622c:	14c00004 	bnez	a2,406240 <__umoddi3+0x4f0>
  406230:	00a4302b 	sltu	a2,a1,a0
  406234:	10c00002 	beqz	a2,406240 <__umoddi3+0x4f0>
  406238:	00000000 	nop
  40623c:	00a82821 	addu	a1,a1,t0
  406240:	1000ff55 	b	405f98 <__umoddi3+0x248>
  406244:	00a42823 	subu	a1,a1,a0
  406248:	008c102b 	sltu	v0,a0,t4
  40624c:	1040ffbe 	beqz	v0,406148 <__umoddi3+0x3f8>
  406250:	00000000 	nop
  406254:	018f1823 	subu	v1,t4,t7
  406258:	01aa3823 	subu	a3,t5,t2
  40625c:	0183602b 	sltu	t4,t4,v1
  406260:	1000ffb9 	b	406148 <__umoddi3+0x3f8>
  406264:	00ec2823 	subu	a1,a3,t4
  406268:	1000fece 	b	405da4 <__umoddi3+0x54>
  40626c:	24090010 	li	t1,16
  406270:	1000ff17 	b	405ed0 <__umoddi3+0x180>
  406274:	00005825 	move	t3,zero
  406278:	1000ff15 	b	405ed0 <__umoddi3+0x180>
  40627c:	240b0010 	li	t3,16
  406280:	00083c02 	srl	a3,t0,0x10
  406284:	1000ff39 	b	405f6c <__umoddi3+0x21c>
  406288:	24090010 	li	t1,16
  40628c:	1000fec5 	b	405da4 <__umoddi3+0x54>
  406290:	00c05825 	move	t3,a2
  406294:	1000ff35 	b	405f6c <__umoddi3+0x21c>
  406298:	01003825 	move	a3,t0
  40629c:	1000ff9e 	b	406118 <__umoddi3+0x3c8>
  4062a0:	00e01025 	move	v0,a3
  4062a4:	1000ff85 	b	4060bc <__umoddi3+0x36c>
  4062a8:	01006025 	move	t4,t0
  4062ac:	1000fee0 	b	405e30 <__umoddi3+0xe0>
  4062b0:	00a82821 	addu	a1,a1,t0
	...

004062c0 <__adddf3>:
  4062c0:	3c1c0002 	lui	gp,0x2
  4062c4:	279cae00 	addiu	gp,gp,-20992
  4062c8:	0399e021 	addu	gp,gp,t9
  4062cc:	3c02000f 	lui	v0,0xf
  4062d0:	27bdffd0 	addiu	sp,sp,-48
  4062d4:	3442ffff 	ori	v0,v0,0xffff
  4062d8:	00451824 	and	v1,v0,a1
  4062dc:	00074d02 	srl	t1,a3,0x14
  4062e0:	00471024 	and	v0,v0,a3
  4062e4:	afb10020 	sw	s1,32(sp)
  4062e8:	00058d02 	srl	s1,a1,0x14
  4062ec:	000210c0 	sll	v0,v0,0x3
  4062f0:	afb20024 	sw	s2,36(sp)
  4062f4:	afbc0010 	sw	gp,16(sp)
  4062f8:	000318c0 	sll	v1,v1,0x3
  4062fc:	00045742 	srl	t2,a0,0x1d
  406300:	00064742 	srl	t0,a2,0x1d
  406304:	000597c2 	srl	s2,a1,0x1f
  406308:	323107ff 	andi	s1,s1,0x7ff
  40630c:	312507ff 	andi	a1,t1,0x7ff
  406310:	00073fc2 	srl	a3,a3,0x1f
  406314:	01024025 	or	t0,t0,v0
  406318:	afbf002c 	sw	ra,44(sp)
  40631c:	afb30028 	sw	s3,40(sp)
  406320:	afb0001c 	sw	s0,28(sp)
  406324:	01435025 	or	t2,t2,v1
  406328:	000458c0 	sll	t3,a0,0x3
  40632c:	000648c0 	sll	t1,a2,0x3
  406330:	12470070 	beq	s2,a3,4064f4 <__adddf3+0x234>
  406334:	02251023 	subu	v0,s1,a1
  406338:	18400060 	blez	v0,4064bc <__adddf3+0x1fc>
  40633c:	00000000 	nop
  406340:	10a00083 	beqz	a1,406550 <__adddf3+0x290>
  406344:	01091825 	or	v1,t0,t1
  406348:	240307ff 	li	v1,2047
  40634c:	122300e1 	beq	s1,v1,4066d4 <__adddf3+0x414>
  406350:	3c030080 	lui	v1,0x80
  406354:	01034025 	or	t0,t0,v1
  406358:	28430039 	slti	v1,v0,57
  40635c:	1060010e 	beqz	v1,406798 <__adddf3+0x4d8>
  406360:	01098025 	or	s0,t0,t1
  406364:	28430020 	slti	v1,v0,32
  406368:	1060015e 	beqz	v1,4068e4 <__adddf3+0x624>
  40636c:	24040020 	li	a0,32
  406370:	24030020 	li	v1,32
  406374:	00621823 	subu	v1,v1,v0
  406378:	00492006 	srlv	a0,t1,v0
  40637c:	00688004 	sllv	s0,t0,v1
  406380:	00694804 	sllv	t1,t1,v1
  406384:	02048025 	or	s0,s0,a0
  406388:	0009482b 	sltu	t1,zero,t1
  40638c:	00481006 	srlv	v0,t0,v0
  406390:	02098025 	or	s0,s0,t1
  406394:	01425023 	subu	t2,t2,v0
  406398:	01708023 	subu	s0,t3,s0
  40639c:	0170202b 	sltu	a0,t3,s0
  4063a0:	01443023 	subu	a2,t2,a0
  4063a4:	3c020080 	lui	v0,0x80
  4063a8:	00c21824 	and	v1,a2,v0
  4063ac:	1060009a 	beqz	v1,406618 <__adddf3+0x358>
  4063b0:	2442ffff 	addiu	v0,v0,-1
  4063b4:	00c29824 	and	s3,a2,v0
  4063b8:	8f99812c 	lw	t9,-32468(gp)
  4063bc:	126000b6 	beqz	s3,406698 <__adddf3+0x3d8>
  4063c0:	00000000 	nop
  4063c4:	0411071e 	bal	408040 <__clzsi2>
  4063c8:	02602025 	move	a0,s3
  4063cc:	2443fff8 	addiu	v1,v0,-8
  4063d0:	00032023 	negu	a0,v1
  4063d4:	00903006 	srlv	a2,s0,a0
  4063d8:	0071102a 	slt	v0,v1,s1
  4063dc:	00732004 	sllv	a0,s3,v1
  4063e0:	00c42025 	or	a0,a2,a0
  4063e4:	144000b6 	bnez	v0,4066c0 <__adddf3+0x400>
  4063e8:	00708004 	sllv	s0,s0,v1
  4063ec:	00711823 	subu	v1,v1,s1
  4063f0:	24660001 	addiu	a2,v1,1
  4063f4:	28c20020 	slti	v0,a2,32
  4063f8:	1040007d 	beqz	v0,4065f0 <__adddf3+0x330>
  4063fc:	2463ffe1 	addiu	v1,v1,-31
  406400:	24020020 	li	v0,32
  406404:	00461023 	subu	v0,v0,a2
  406408:	00d01806 	srlv	v1,s0,a2
  40640c:	00508004 	sllv	s0,s0,v0
  406410:	00441004 	sllv	v0,a0,v0
  406414:	00431025 	or	v0,v0,v1
  406418:	0010802b 	sltu	s0,zero,s0
  40641c:	00508025 	or	s0,v0,s0
  406420:	00c43006 	srlv	a2,a0,a2
  406424:	00008825 	move	s1,zero
  406428:	32020007 	andi	v0,s0,0x7
  40642c:	10400009 	beqz	v0,406454 <__adddf3+0x194>
  406430:	3c020080 	lui	v0,0x80
  406434:	3202000f 	andi	v0,s0,0xf
  406438:	24030004 	li	v1,4
  40643c:	10430004 	beq	v0,v1,406450 <__adddf3+0x190>
  406440:	26020004 	addiu	v0,s0,4
  406444:	0050802b 	sltu	s0,v0,s0
  406448:	00d03021 	addu	a2,a2,s0
  40644c:	00408025 	move	s0,v0
  406450:	3c020080 	lui	v0,0x80
  406454:	00c21024 	and	v0,a2,v0
  406458:	10400072 	beqz	v0,406624 <__adddf3+0x364>
  40645c:	240307ff 	li	v1,2047
  406460:	26310001 	addiu	s1,s1,1
  406464:	12230088 	beq	s1,v1,406688 <__adddf3+0x3c8>
  406468:	322207ff 	andi	v0,s1,0x7ff
  40646c:	3c04ff7f 	lui	a0,0xff7f
  406470:	3484ffff 	ori	a0,a0,0xffff
  406474:	00c42024 	and	a0,a2,a0
  406478:	001080c2 	srl	s0,s0,0x3
  40647c:	00042f40 	sll	a1,a0,0x1d
  406480:	00041a40 	sll	v1,a0,0x9
  406484:	00b02825 	or	a1,a1,s0
  406488:	00031b02 	srl	v1,v1,0xc
  40648c:	8fbf002c 	lw	ra,44(sp)
  406490:	00021500 	sll	v0,v0,0x14
  406494:	00431025 	or	v0,v0,v1
  406498:	001297c0 	sll	s2,s2,0x1f
  40649c:	00521825 	or	v1,v0,s2
  4064a0:	8fb30028 	lw	s3,40(sp)
  4064a4:	8fb20024 	lw	s2,36(sp)
  4064a8:	8fb10020 	lw	s1,32(sp)
  4064ac:	8fb0001c 	lw	s0,28(sp)
  4064b0:	00a01025 	move	v0,a1
  4064b4:	03e00008 	jr	ra
  4064b8:	27bd0030 	addiu	sp,sp,48
  4064bc:	1040002d 	beqz	v0,406574 <__adddf3+0x2b4>
  4064c0:	26230001 	addiu	v1,s1,1
  4064c4:	162000e8 	bnez	s1,406868 <__adddf3+0x5a8>
  4064c8:	00b11023 	subu	v0,a1,s1
  4064cc:	014b1825 	or	v1,t2,t3
  4064d0:	1060013a 	beqz	v1,4069bc <__adddf3+0x6fc>
  4064d4:	000818c2 	srl	v1,t0,0x3
  4064d8:	2443ffff 	addiu	v1,v0,-1
  4064dc:	10600184 	beqz	v1,406af0 <__adddf3+0x830>
  4064e0:	240407ff 	li	a0,2047
  4064e4:	1044014c 	beq	v0,a0,406a18 <__adddf3+0x758>
  4064e8:	00601025 	move	v0,v1
  4064ec:	100000e4 	b	406880 <__adddf3+0x5c0>
  4064f0:	28430039 	slti	v1,v0,57
  4064f4:	1840008b 	blez	v0,406724 <__adddf3+0x464>
  4064f8:	00000000 	nop
  4064fc:	10a00033 	beqz	a1,4065cc <__adddf3+0x30c>
  406500:	01091825 	or	v1,t0,t1
  406504:	240307ff 	li	v1,2047
  406508:	12230072 	beq	s1,v1,4066d4 <__adddf3+0x414>
  40650c:	3c030080 	lui	v1,0x80
  406510:	01034025 	or	t0,t0,v1
  406514:	28430039 	slti	v1,v0,57
  406518:	1060004f 	beqz	v1,406658 <__adddf3+0x398>
  40651c:	01098025 	or	s0,t0,t1
  406520:	28430020 	slti	v1,v0,32
  406524:	14600109 	bnez	v1,40694c <__adddf3+0x68c>
  406528:	00492006 	srlv	a0,t1,v0
  40652c:	24040020 	li	a0,32
  406530:	10440004 	beq	v0,a0,406544 <__adddf3+0x284>
  406534:	00481806 	srlv	v1,t0,v0
  406538:	00021023 	negu	v0,v0
  40653c:	00481004 	sllv	v0,t0,v0
  406540:	01224825 	or	t1,t1,v0
  406544:	0009802b 	sltu	s0,zero,t1
  406548:	10000044 	b	40665c <__adddf3+0x39c>
  40654c:	02038025 	or	s0,s0,v1
  406550:	10600093 	beqz	v1,4067a0 <__adddf3+0x4e0>
  406554:	3c051fff 	lui	a1,0x1fff
  406558:	2443ffff 	addiu	v1,v0,-1
  40655c:	10600128 	beqz	v1,406a00 <__adddf3+0x740>
  406560:	240507ff 	li	a1,2047
  406564:	1045005b 	beq	v0,a1,4066d4 <__adddf3+0x414>
  406568:	00601025 	move	v0,v1
  40656c:	1000ff7b 	b	40635c <__adddf3+0x9c>
  406570:	28430039 	slti	v1,v0,57
  406574:	306307fe 	andi	v1,v1,0x7fe
  406578:	146000af 	bnez	v1,406838 <__adddf3+0x578>
  40657c:	01698023 	subu	s0,t3,t1
  406580:	014b1825 	or	v1,t2,t3
  406584:	1620008c 	bnez	s1,4067b8 <__adddf3+0x4f8>
  406588:	01092825 	or	a1,t0,t1
  40658c:	1060014e 	beqz	v1,406ac8 <__adddf3+0x808>
  406590:	00000000 	nop
  406594:	10a00128 	beqz	a1,406a38 <__adddf3+0x778>
  406598:	0170302b 	sltu	a2,t3,s0
  40659c:	01482023 	subu	a0,t2,t0
  4065a0:	00863023 	subu	a2,a0,a2
  4065a4:	3c030080 	lui	v1,0x80
  4065a8:	00c31824 	and	v1,a2,v1
  4065ac:	10600178 	beqz	v1,406b90 <__adddf3+0x8d0>
  4065b0:	02062825 	or	a1,s0,a2
  4065b4:	012b8023 	subu	s0,t1,t3
  4065b8:	010a1023 	subu	v0,t0,t2
  4065bc:	0130202b 	sltu	a0,t1,s0
  4065c0:	00443023 	subu	a2,v0,a0
  4065c4:	1000ff98 	b	406428 <__adddf3+0x168>
  4065c8:	00e09025 	move	s2,a3
  4065cc:	10600074 	beqz	v1,4067a0 <__adddf3+0x4e0>
  4065d0:	3c051fff 	lui	a1,0x1fff
  4065d4:	2443ffff 	addiu	v1,v0,-1
  4065d8:	106000ff 	beqz	v1,4069d8 <__adddf3+0x718>
  4065dc:	240507ff 	li	a1,2047
  4065e0:	1045003c 	beq	v0,a1,4066d4 <__adddf3+0x414>
  4065e4:	00601025 	move	v0,v1
  4065e8:	1000ffcb 	b	406518 <__adddf3+0x258>
  4065ec:	28430039 	slti	v1,v0,57
  4065f0:	24020020 	li	v0,32
  4065f4:	10c20004 	beq	a2,v0,406608 <__adddf3+0x348>
  4065f8:	00641806 	srlv	v1,a0,v1
  4065fc:	00063023 	negu	a2,a2
  406600:	00c42004 	sllv	a0,a0,a2
  406604:	02048025 	or	s0,s0,a0
  406608:	0010802b 	sltu	s0,zero,s0
  40660c:	02038025 	or	s0,s0,v1
  406610:	00003025 	move	a2,zero
  406614:	00008825 	move	s1,zero
  406618:	32020007 	andi	v0,s0,0x7
  40661c:	1440ff86 	bnez	v0,406438 <__adddf3+0x178>
  406620:	3202000f 	andi	v0,s0,0xf
  406624:	00061740 	sll	v0,a2,0x1d
  406628:	001028c2 	srl	a1,s0,0x3
  40662c:	00a22825 	or	a1,a1,v0
  406630:	000618c2 	srl	v1,a2,0x3
  406634:	02201025 	move	v0,s1
  406638:	240407ff 	li	a0,2047
  40663c:	1044002b 	beq	v0,a0,4066ec <__adddf3+0x42c>
  406640:	00000000 	nop
  406644:	3c06000f 	lui	a2,0xf
  406648:	34c6ffff 	ori	a2,a2,0xffff
  40664c:	00661824 	and	v1,v1,a2
  406650:	1000ff8e 	b	40648c <__adddf3+0x1cc>
  406654:	304207ff 	andi	v0,v0,0x7ff
  406658:	0010802b 	sltu	s0,zero,s0
  40665c:	020b8021 	addu	s0,s0,t3
  406660:	020b202b 	sltu	a0,s0,t3
  406664:	008a3021 	addu	a2,a0,t2
  406668:	3c020080 	lui	v0,0x80
  40666c:	00c21024 	and	v0,a2,v0
  406670:	1040ffea 	beqz	v0,40661c <__adddf3+0x35c>
  406674:	32020007 	andi	v0,s0,0x7
  406678:	26310001 	addiu	s1,s1,1
  40667c:	240207ff 	li	v0,2047
  406680:	1622008f 	bne	s1,v0,4068c0 <__adddf3+0x600>
  406684:	3c04ff7f 	lui	a0,0xff7f
  406688:	240207ff 	li	v0,2047
  40668c:	00001825 	move	v1,zero
  406690:	1000ff7e 	b	40648c <__adddf3+0x1cc>
  406694:	00002825 	move	a1,zero
  406698:	04110669 	bal	408040 <__clzsi2>
  40669c:	02002025 	move	a0,s0
  4066a0:	24430018 	addiu	v1,v0,24
  4066a4:	28640020 	slti	a0,v1,32
  4066a8:	1480ff49 	bnez	a0,4063d0 <__adddf3+0x110>
  4066ac:	2444fff8 	addiu	a0,v0,-8
  4066b0:	0071102a 	slt	v0,v1,s1
  4066b4:	00902004 	sllv	a0,s0,a0
  4066b8:	1040ff4c 	beqz	v0,4063ec <__adddf3+0x12c>
  4066bc:	00008025 	move	s0,zero
  4066c0:	3c06ff7f 	lui	a2,0xff7f
  4066c4:	34c6ffff 	ori	a2,a2,0xffff
  4066c8:	02238823 	subu	s1,s1,v1
  4066cc:	1000ff56 	b	406428 <__adddf3+0x168>
  4066d0:	00863024 	and	a2,a0,a2
  4066d4:	3c051fff 	lui	a1,0x1fff
  4066d8:	34a5ffff 	ori	a1,a1,0xffff
  4066dc:	00a42024 	and	a0,a1,a0
  4066e0:	000a2f40 	sll	a1,t2,0x1d
  4066e4:	00852825 	or	a1,a0,a1
  4066e8:	000a18c2 	srl	v1,t2,0x3
  4066ec:	00a31025 	or	v0,a1,v1
  4066f0:	1040ffe6 	beqz	v0,40668c <__adddf3+0x3cc>
  4066f4:	240207ff 	li	v0,2047
  4066f8:	3c060007 	lui	a2,0x7
  4066fc:	34c6ffff 	ori	a2,a2,0xffff
  406700:	00661824 	and	v1,v1,a2
  406704:	00a31025 	or	v0,a1,v1
  406708:	14400033 	bnez	v0,4067d8 <__adddf3+0x518>
  40670c:	00000000 	nop
  406710:	00009025 	move	s2,zero
  406714:	240207ff 	li	v0,2047
  406718:	00c01825 	move	v1,a2
  40671c:	1000ff5b 	b	40648c <__adddf3+0x1cc>
  406720:	2405ffff 	li	a1,-1
  406724:	1040002e 	beqz	v0,4067e0 <__adddf3+0x520>
  406728:	26230001 	addiu	v1,s1,1
  40672c:	1220007d 	beqz	s1,406924 <__adddf3+0x664>
  406730:	00b11023 	subu	v0,a1,s1
  406734:	240307ff 	li	v1,2047
  406738:	10a300c6 	beq	a1,v1,406a54 <__adddf3+0x794>
  40673c:	00000000 	nop
  406740:	3c030080 	lui	v1,0x80
  406744:	01435025 	or	t2,t2,v1
  406748:	28430039 	slti	v1,v0,57
  40674c:	106000c8 	beqz	v1,406a70 <__adddf3+0x7b0>
  406750:	28430020 	slti	v1,v0,32
  406754:	10600101 	beqz	v1,406b5c <__adddf3+0x89c>
  406758:	24040020 	li	a0,32
  40675c:	24030020 	li	v1,32
  406760:	00621823 	subu	v1,v1,v0
  406764:	006a8004 	sllv	s0,t2,v1
  406768:	004b2006 	srlv	a0,t3,v0
  40676c:	006b1804 	sllv	v1,t3,v1
  406770:	02048025 	or	s0,s0,a0
  406774:	0003182b 	sltu	v1,zero,v1
  406778:	004a1006 	srlv	v0,t2,v0
  40677c:	02038025 	or	s0,s0,v1
  406780:	01024021 	addu	t0,t0,v0
  406784:	02098021 	addu	s0,s0,t1
  406788:	0209202b 	sltu	a0,s0,t1
  40678c:	00883021 	addu	a2,a0,t0
  406790:	1000ffb5 	b	406668 <__adddf3+0x3a8>
  406794:	00a08825 	move	s1,a1
  406798:	1000feff 	b	406398 <__adddf3+0xd8>
  40679c:	0010802b 	sltu	s0,zero,s0
  4067a0:	34a5ffff 	ori	a1,a1,0xffff
  4067a4:	00a42024 	and	a0,a1,a0
  4067a8:	000a2f40 	sll	a1,t2,0x1d
  4067ac:	00852825 	or	a1,a0,a1
  4067b0:	1000ffa1 	b	406638 <__adddf3+0x378>
  4067b4:	000a18c2 	srl	v1,t2,0x3
  4067b8:	146000da 	bnez	v1,406b24 <__adddf3+0x864>
  4067bc:	00000000 	nop
  4067c0:	14a00095 	bnez	a1,406a18 <__adddf3+0x758>
  4067c4:	00000000 	nop
  4067c8:	3c030007 	lui	v1,0x7
  4067cc:	00009025 	move	s2,zero
  4067d0:	2405ffff 	li	a1,-1
  4067d4:	3463ffff 	ori	v1,v1,0xffff
  4067d8:	1000ff2c 	b	40648c <__adddf3+0x1cc>
  4067dc:	240207ff 	li	v0,2047
  4067e0:	306507fe 	andi	a1,v1,0x7fe
  4067e4:	14a00063 	bnez	a1,406974 <__adddf3+0x6b4>
  4067e8:	00000000 	nop
  4067ec:	162000ab 	bnez	s1,406a9c <__adddf3+0x7dc>
  4067f0:	014b1825 	or	v1,t2,t3
  4067f4:	106000d3 	beqz	v1,406b44 <__adddf3+0x884>
  4067f8:	00081f40 	sll	v1,t0,0x1d
  4067fc:	01091825 	or	v1,t0,t1
  406800:	1060008d 	beqz	v1,406a38 <__adddf3+0x778>
  406804:	01698021 	addu	s0,t3,t1
  406808:	01481021 	addu	v0,t2,t0
  40680c:	020b202b 	sltu	a0,s0,t3
  406810:	00443021 	addu	a2,v0,a0
  406814:	3c020080 	lui	v0,0x80
  406818:	00c21024 	and	v0,a2,v0
  40681c:	1040ff7f 	beqz	v0,40661c <__adddf3+0x35c>
  406820:	32020007 	andi	v0,s0,0x7
  406824:	3c02ff7f 	lui	v0,0xff7f
  406828:	3442ffff 	ori	v0,v0,0xffff
  40682c:	00c23024 	and	a2,a2,v0
  406830:	1000ff79 	b	406618 <__adddf3+0x358>
  406834:	24110001 	li	s1,1
  406838:	01483023 	subu	a2,t2,t0
  40683c:	0170202b 	sltu	a0,t3,s0
  406840:	00c49823 	subu	s3,a2,a0
  406844:	3c030080 	lui	v1,0x80
  406848:	02631824 	and	v1,s3,v1
  40684c:	14600055 	bnez	v1,4069a4 <__adddf3+0x6e4>
  406850:	02132825 	or	a1,s0,s3
  406854:	14a0fed8 	bnez	a1,4063b8 <__adddf3+0xf8>
  406858:	00000000 	nop
  40685c:	00001825 	move	v1,zero
  406860:	1000ff78 	b	406644 <__adddf3+0x384>
  406864:	00009025 	move	s2,zero
  406868:	240307ff 	li	v1,2047
  40686c:	10a3006a 	beq	a1,v1,406a18 <__adddf3+0x758>
  406870:	00000000 	nop
  406874:	3c030080 	lui	v1,0x80
  406878:	01435025 	or	t2,t2,v1
  40687c:	28430039 	slti	v1,v0,57
  406880:	10600020 	beqz	v1,406904 <__adddf3+0x644>
  406884:	28430020 	slti	v1,v0,32
  406888:	1060007c 	beqz	v1,406a7c <__adddf3+0x7bc>
  40688c:	24040020 	li	a0,32
  406890:	24030020 	li	v1,32
  406894:	00621823 	subu	v1,v1,v0
  406898:	004b2006 	srlv	a0,t3,v0
  40689c:	006a8004 	sllv	s0,t2,v1
  4068a0:	006b5804 	sllv	t3,t3,v1
  4068a4:	02048025 	or	s0,s0,a0
  4068a8:	000b582b 	sltu	t3,zero,t3
  4068ac:	004a1006 	srlv	v0,t2,v0
  4068b0:	020b8025 	or	s0,s0,t3
  4068b4:	10000015 	b	40690c <__adddf3+0x64c>
  4068b8:	01024023 	subu	t0,t0,v0
  4068bc:	24110002 	li	s1,2
  4068c0:	3484ffff 	ori	a0,a0,0xffff
  4068c4:	00101042 	srl	v0,s0,0x1
  4068c8:	00c42024 	and	a0,a2,a0
  4068cc:	32100001 	andi	s0,s0,0x1
  4068d0:	00508025 	or	s0,v0,s0
  4068d4:	000417c0 	sll	v0,a0,0x1f
  4068d8:	00508025 	or	s0,v0,s0
  4068dc:	1000fed2 	b	406428 <__adddf3+0x168>
  4068e0:	00043042 	srl	a2,a0,0x1
  4068e4:	10440004 	beq	v0,a0,4068f8 <__adddf3+0x638>
  4068e8:	00481806 	srlv	v1,t0,v0
  4068ec:	00021023 	negu	v0,v0
  4068f0:	00481004 	sllv	v0,t0,v0
  4068f4:	01224825 	or	t1,t1,v0
  4068f8:	0009802b 	sltu	s0,zero,t1
  4068fc:	1000fea6 	b	406398 <__adddf3+0xd8>
  406900:	02038025 	or	s0,s0,v1
  406904:	014b5025 	or	t2,t2,t3
  406908:	000a802b 	sltu	s0,zero,t2
  40690c:	01308023 	subu	s0,t1,s0
  406910:	0130202b 	sltu	a0,t1,s0
  406914:	01043023 	subu	a2,t0,a0
  406918:	00a08825 	move	s1,a1
  40691c:	1000fea1 	b	4063a4 <__adddf3+0xe4>
  406920:	00e09025 	move	s2,a3
  406924:	014b1825 	or	v1,t2,t3
  406928:	10600078 	beqz	v1,406b0c <__adddf3+0x84c>
  40692c:	00081f40 	sll	v1,t0,0x1d
  406930:	2443ffff 	addiu	v1,v0,-1
  406934:	10600091 	beqz	v1,406b7c <__adddf3+0x8bc>
  406938:	240407ff 	li	a0,2047
  40693c:	10440045 	beq	v0,a0,406a54 <__adddf3+0x794>
  406940:	00601025 	move	v0,v1
  406944:	1000ff81 	b	40674c <__adddf3+0x48c>
  406948:	28430039 	slti	v1,v0,57
  40694c:	24030020 	li	v1,32
  406950:	00621823 	subu	v1,v1,v0
  406954:	00688004 	sllv	s0,t0,v1
  406958:	00694804 	sllv	t1,t1,v1
  40695c:	02048025 	or	s0,s0,a0
  406960:	0009482b 	sltu	t1,zero,t1
  406964:	00481006 	srlv	v0,t0,v0
  406968:	02098025 	or	s0,s0,t1
  40696c:	1000ff3b 	b	40665c <__adddf3+0x39c>
  406970:	01425021 	addu	t2,t2,v0
  406974:	240207ff 	li	v0,2047
  406978:	1062ff44 	beq	v1,v0,40668c <__adddf3+0x3cc>
  40697c:	01692021 	addu	a0,t3,t1
  406980:	008b302b 	sltu	a2,a0,t3
  406984:	01481021 	addu	v0,t2,t0
  406988:	00463021 	addu	a2,v0,a2
  40698c:	000687c0 	sll	s0,a2,0x1f
  406990:	00042042 	srl	a0,a0,0x1
  406994:	02048025 	or	s0,s0,a0
  406998:	00063042 	srl	a2,a2,0x1
  40699c:	1000ff1e 	b	406618 <__adddf3+0x358>
  4069a0:	00608825 	move	s1,v1
  4069a4:	012b8023 	subu	s0,t1,t3
  4069a8:	010a1023 	subu	v0,t0,t2
  4069ac:	0130202b 	sltu	a0,t1,s0
  4069b0:	00449823 	subu	s3,v0,a0
  4069b4:	1000fe80 	b	4063b8 <__adddf3+0xf8>
  4069b8:	00e09025 	move	s2,a3
  4069bc:	3c051fff 	lui	a1,0x1fff
  4069c0:	34a5ffff 	ori	a1,a1,0xffff
  4069c4:	00a63024 	and	a2,a1,a2
  4069c8:	00082f40 	sll	a1,t0,0x1d
  4069cc:	00c52825 	or	a1,a2,a1
  4069d0:	1000ff19 	b	406638 <__adddf3+0x378>
  4069d4:	00e09025 	move	s2,a3
  4069d8:	01698021 	addu	s0,t3,t1
  4069dc:	01481021 	addu	v0,t2,t0
  4069e0:	020b202b 	sltu	a0,s0,t3
  4069e4:	00443021 	addu	a2,v0,a0
  4069e8:	3c020080 	lui	v0,0x80
  4069ec:	00c21024 	and	v0,a2,v0
  4069f0:	1440ffb2 	bnez	v0,4068bc <__adddf3+0x5fc>
  4069f4:	3c04ff7f 	lui	a0,0xff7f
  4069f8:	1000ff07 	b	406618 <__adddf3+0x358>
  4069fc:	24110001 	li	s1,1
  406a00:	01698023 	subu	s0,t3,t1
  406a04:	01481023 	subu	v0,t2,t0
  406a08:	0170202b 	sltu	a0,t3,s0
  406a0c:	00443023 	subu	a2,v0,a0
  406a10:	1000fe64 	b	4063a4 <__adddf3+0xe4>
  406a14:	24110001 	li	s1,1
  406a18:	3c051fff 	lui	a1,0x1fff
  406a1c:	34a5ffff 	ori	a1,a1,0xffff
  406a20:	00a62824 	and	a1,a1,a2
  406a24:	00081740 	sll	v0,t0,0x1d
  406a28:	00a22825 	or	a1,a1,v0
  406a2c:	000818c2 	srl	v1,t0,0x3
  406a30:	1000ff2e 	b	4066ec <__adddf3+0x42c>
  406a34:	00e09025 	move	s2,a3
  406a38:	3c051fff 	lui	a1,0x1fff
  406a3c:	34a5ffff 	ori	a1,a1,0xffff
  406a40:	00a42024 	and	a0,a1,a0
  406a44:	000a2f40 	sll	a1,t2,0x1d
  406a48:	00852825 	or	a1,a0,a1
  406a4c:	1000fefd 	b	406644 <__adddf3+0x384>
  406a50:	000a18c2 	srl	v1,t2,0x3
  406a54:	3c051fff 	lui	a1,0x1fff
  406a58:	34a5ffff 	ori	a1,a1,0xffff
  406a5c:	00a62824 	and	a1,a1,a2
  406a60:	00081740 	sll	v0,t0,0x1d
  406a64:	00a22825 	or	a1,a1,v0
  406a68:	1000ff20 	b	4066ec <__adddf3+0x42c>
  406a6c:	000818c2 	srl	v1,t0,0x3
  406a70:	014b5025 	or	t2,t2,t3
  406a74:	1000ff43 	b	406784 <__adddf3+0x4c4>
  406a78:	000a802b 	sltu	s0,zero,t2
  406a7c:	10440004 	beq	v0,a0,406a90 <__adddf3+0x7d0>
  406a80:	004a1806 	srlv	v1,t2,v0
  406a84:	00021023 	negu	v0,v0
  406a88:	004a5004 	sllv	t2,t2,v0
  406a8c:	016a5825 	or	t3,t3,t2
  406a90:	000b802b 	sltu	s0,zero,t3
  406a94:	1000ff9d 	b	40690c <__adddf3+0x64c>
  406a98:	02038025 	or	s0,s0,v1
  406a9c:	1060ffee 	beqz	v1,406a58 <__adddf3+0x798>
  406aa0:	3c051fff 	lui	a1,0x1fff
  406aa4:	01094825 	or	t1,t0,t1
  406aa8:	000a3740 	sll	a2,t2,0x1d
  406aac:	15200054 	bnez	t1,406c00 <__adddf3+0x940>
  406ab0:	000a18c2 	srl	v1,t2,0x3
  406ab4:	3c051fff 	lui	a1,0x1fff
  406ab8:	34a5ffff 	ori	a1,a1,0xffff
  406abc:	00a42024 	and	a0,a1,a0
  406ac0:	1000ff0a 	b	4066ec <__adddf3+0x42c>
  406ac4:	00862825 	or	a1,a0,a2
  406ac8:	10a0ff64 	beqz	a1,40685c <__adddf3+0x59c>
  406acc:	00000000 	nop
  406ad0:	3c051fff 	lui	a1,0x1fff
  406ad4:	34a5ffff 	ori	a1,a1,0xffff
  406ad8:	00081f40 	sll	v1,t0,0x1d
  406adc:	00a62824 	and	a1,a1,a2
  406ae0:	00a32825 	or	a1,a1,v1
  406ae4:	00e09025 	move	s2,a3
  406ae8:	1000fed6 	b	406644 <__adddf3+0x384>
  406aec:	000818c2 	srl	v1,t0,0x3
  406af0:	012b8023 	subu	s0,t1,t3
  406af4:	010a1023 	subu	v0,t0,t2
  406af8:	0130202b 	sltu	a0,t1,s0
  406afc:	00443023 	subu	a2,v0,a0
  406b00:	00e09025 	move	s2,a3
  406b04:	1000fe27 	b	4063a4 <__adddf3+0xe4>
  406b08:	24110001 	li	s1,1
  406b0c:	3c051fff 	lui	a1,0x1fff
  406b10:	34a5ffff 	ori	a1,a1,0xffff
  406b14:	00a62824 	and	a1,a1,a2
  406b18:	00a32825 	or	a1,a1,v1
  406b1c:	1000fec6 	b	406638 <__adddf3+0x378>
  406b20:	000818c2 	srl	v1,t0,0x3
  406b24:	000a3f40 	sll	a3,t2,0x1d
  406b28:	14a0001d 	bnez	a1,406ba0 <__adddf3+0x8e0>
  406b2c:	000a18c2 	srl	v1,t2,0x3
  406b30:	3c051fff 	lui	a1,0x1fff
  406b34:	34a5ffff 	ori	a1,a1,0xffff
  406b38:	00a42024 	and	a0,a1,a0
  406b3c:	1000feeb 	b	4066ec <__adddf3+0x42c>
  406b40:	00872825 	or	a1,a0,a3
  406b44:	3c051fff 	lui	a1,0x1fff
  406b48:	34a5ffff 	ori	a1,a1,0xffff
  406b4c:	00a62824 	and	a1,a1,a2
  406b50:	00a32825 	or	a1,a1,v1
  406b54:	1000febb 	b	406644 <__adddf3+0x384>
  406b58:	000818c2 	srl	v1,t0,0x3
  406b5c:	10440004 	beq	v0,a0,406b70 <__adddf3+0x8b0>
  406b60:	004a1806 	srlv	v1,t2,v0
  406b64:	00021023 	negu	v0,v0
  406b68:	004a5004 	sllv	t2,t2,v0
  406b6c:	016a5825 	or	t3,t3,t2
  406b70:	000b802b 	sltu	s0,zero,t3
  406b74:	1000ff03 	b	406784 <__adddf3+0x4c4>
  406b78:	02038025 	or	s0,s0,v1
  406b7c:	01698021 	addu	s0,t3,t1
  406b80:	01481021 	addu	v0,t2,t0
  406b84:	0209202b 	sltu	a0,s0,t1
  406b88:	1000ff97 	b	4069e8 <__adddf3+0x728>
  406b8c:	00443021 	addu	a2,v0,a0
  406b90:	14a0fea1 	bnez	a1,406618 <__adddf3+0x358>
  406b94:	00001825 	move	v1,zero
  406b98:	1000feaa 	b	406644 <__adddf3+0x384>
  406b9c:	00009025 	move	s2,zero
  406ba0:	000810c2 	srl	v0,t0,0x3
  406ba4:	00431025 	or	v0,v0,v1
  406ba8:	3c030008 	lui	v1,0x8
  406bac:	00431024 	and	v0,v0,v1
  406bb0:	1440000e 	bnez	v0,406bec <__adddf3+0x92c>
  406bb4:	00000000 	nop
  406bb8:	3c021fff 	lui	v0,0x1fff
  406bbc:	3445ffff 	ori	a1,v0,0xffff
  406bc0:	2403fff8 	li	v1,-8
  406bc4:	00a41024 	and	v0,a1,a0
  406bc8:	01431824 	and	v1,t2,v1
  406bcc:	00072742 	srl	a0,a3,0x1d
  406bd0:	00641825 	or	v1,v1,a0
  406bd4:	00471025 	or	v0,v0,a3
  406bd8:	00032740 	sll	a0,v1,0x1d
  406bdc:	00451024 	and	v0,v0,a1
  406be0:	00822825 	or	a1,a0,v0
  406be4:	1000fec1 	b	4066ec <__adddf3+0x42c>
  406be8:	000318c2 	srl	v1,v1,0x3
  406bec:	00009025 	move	s2,zero
  406bf0:	2405ffff 	li	a1,-1
  406bf4:	2463ffff 	addiu	v1,v1,-1
  406bf8:	1000fe24 	b	40648c <__adddf3+0x1cc>
  406bfc:	240207ff 	li	v0,2047
  406c00:	000810c2 	srl	v0,t0,0x3
  406c04:	00431025 	or	v0,v0,v1
  406c08:	3c030008 	lui	v1,0x8
  406c0c:	00431024 	and	v0,v0,v1
  406c10:	1440fff6 	bnez	v0,406bec <__adddf3+0x92c>
  406c14:	00000000 	nop
  406c18:	3c021fff 	lui	v0,0x1fff
  406c1c:	3445ffff 	ori	a1,v0,0xffff
  406c20:	2403fff8 	li	v1,-8
  406c24:	00a41024 	and	v0,a1,a0
  406c28:	01431824 	and	v1,t2,v1
  406c2c:	00062742 	srl	a0,a2,0x1d
  406c30:	00641825 	or	v1,v1,a0
  406c34:	00461025 	or	v0,v0,a2
  406c38:	00032740 	sll	a0,v1,0x1d
  406c3c:	00451024 	and	v0,v0,a1
  406c40:	00822825 	or	a1,a0,v0
  406c44:	1000fea9 	b	4066ec <__adddf3+0x42c>
  406c48:	000318c2 	srl	v1,v1,0x3
  406c4c:	00000000 	nop

00406c50 <__eqdf2>:
  406c50:	00051d02 	srl	v1,a1,0x14
  406c54:	3c02000f 	lui	v0,0xf
  406c58:	3442ffff 	ori	v0,v0,0xffff
  406c5c:	00074502 	srl	t0,a3,0x14
  406c60:	306307ff 	andi	v1,v1,0x7ff
  406c64:	240a07ff 	li	t2,2047
  406c68:	00454824 	and	t1,v0,a1
  406c6c:	00805825 	move	t3,a0
  406c70:	00471024 	and	v0,v0,a3
  406c74:	00052fc2 	srl	a1,a1,0x1f
  406c78:	00c06025 	move	t4,a2
  406c7c:	310807ff 	andi	t0,t0,0x7ff
  406c80:	106a0009 	beq	v1,t2,406ca8 <__eqdf2+0x58>
  406c84:	00073fc2 	srl	a3,a3,0x1f
  406c88:	110a0005 	beq	t0,t2,406ca0 <__eqdf2+0x50>
  406c8c:	00000000 	nop
  406c90:	14680003 	bne	v1,t0,406ca0 <__eqdf2+0x50>
  406c94:	00000000 	nop
  406c98:	1122000d 	beq	t1,v0,406cd0 <__eqdf2+0x80>
  406c9c:	00000000 	nop
  406ca0:	03e00008 	jr	ra
  406ca4:	24020001 	li	v0,1
  406ca8:	01245025 	or	t2,t1,a0
  406cac:	1540fffc 	bnez	t2,406ca0 <__eqdf2+0x50>
  406cb0:	00000000 	nop
  406cb4:	1503fffa 	bne	t0,v1,406ca0 <__eqdf2+0x50>
  406cb8:	00000000 	nop
  406cbc:	00461025 	or	v0,v0,a2
  406cc0:	10400003 	beqz	v0,406cd0 <__eqdf2+0x80>
  406cc4:	24020001 	li	v0,1
  406cc8:	03e00008 	jr	ra
  406ccc:	00000000 	nop
  406cd0:	156cfff3 	bne	t3,t4,406ca0 <__eqdf2+0x50>
  406cd4:	00000000 	nop
  406cd8:	10a70006 	beq	a1,a3,406cf4 <__eqdf2+0xa4>
  406cdc:	00000000 	nop
  406ce0:	1460ffef 	bnez	v1,406ca0 <__eqdf2+0x50>
  406ce4:	00000000 	nop
  406ce8:	01241025 	or	v0,t1,a0
  406cec:	03e00008 	jr	ra
  406cf0:	0002102b 	sltu	v0,zero,v0
  406cf4:	03e00008 	jr	ra
  406cf8:	00001025 	move	v0,zero
  406cfc:	00000000 	nop

00406d00 <__muldf3>:
  406d00:	3c1c0002 	lui	gp,0x2
  406d04:	279ca3c0 	addiu	gp,gp,-23616
  406d08:	0399e021 	addu	gp,gp,t9
  406d0c:	27bdffb8 	addiu	sp,sp,-72
  406d10:	00051502 	srl	v0,a1,0x14
  406d14:	afb00020 	sw	s0,32(sp)
  406d18:	3c10000f 	lui	s0,0xf
  406d1c:	afb3002c 	sw	s3,44(sp)
  406d20:	afbc0010 	sw	gp,16(sp)
  406d24:	00059fc2 	srl	s3,a1,0x1f
  406d28:	3610ffff 	ori	s0,s0,0xffff
  406d2c:	304207ff 	andi	v0,v0,0x7ff
  406d30:	afb7003c 	sw	s7,60(sp)
  406d34:	afb40030 	sw	s4,48(sp)
  406d38:	afb10024 	sw	s1,36(sp)
  406d3c:	afbf0044 	sw	ra,68(sp)
  406d40:	afbe0040 	sw	s8,64(sp)
  406d44:	afb60038 	sw	s6,56(sp)
  406d48:	afb50034 	sw	s5,52(sp)
  406d4c:	afb20028 	sw	s2,40(sp)
  406d50:	00808825 	move	s1,a0
  406d54:	00c0b825 	move	s7,a2
  406d58:	02058024 	and	s0,s0,a1
  406d5c:	104000b9 	beqz	v0,407044 <__muldf3+0x344>
  406d60:	0260a025 	move	s4,s3
  406d64:	240307ff 	li	v1,2047
  406d68:	104300cd 	beq	v0,v1,4070a0 <__muldf3+0x3a0>
  406d6c:	02041825 	or	v1,s0,a0
  406d70:	001028c0 	sll	a1,s0,0x3
  406d74:	00048742 	srl	s0,a0,0x1d
  406d78:	02058025 	or	s0,s0,a1
  406d7c:	3c050080 	lui	a1,0x80
  406d80:	02058025 	or	s0,s0,a1
  406d84:	000418c0 	sll	v1,a0,0x3
  406d88:	2455fc01 	addiu	s5,v0,-1023
  406d8c:	0000f025 	move	s8,zero
  406d90:	0000b025 	move	s6,zero
  406d94:	00071502 	srl	v0,a3,0x14
  406d98:	3c11000f 	lui	s1,0xf
  406d9c:	3631ffff 	ori	s1,s1,0xffff
  406da0:	304207ff 	andi	v0,v0,0x7ff
  406da4:	02278824 	and	s1,s1,a3
  406da8:	10400090 	beqz	v0,406fec <__muldf3+0x2ec>
  406dac:	000797c2 	srl	s2,a3,0x1f
  406db0:	240407ff 	li	a0,2047
  406db4:	104400c1 	beq	v0,a0,4070bc <__muldf3+0x3bc>
  406db8:	02373825 	or	a3,s1,s7
  406dbc:	001120c0 	sll	a0,s1,0x3
  406dc0:	00178f42 	srl	s1,s7,0x1d
  406dc4:	02248825 	or	s1,s1,a0
  406dc8:	2442fc01 	addiu	v0,v0,-1023
  406dcc:	3c040080 	lui	a0,0x80
  406dd0:	02248825 	or	s1,s1,a0
  406dd4:	001738c0 	sll	a3,s7,0x3
  406dd8:	02a2a821 	addu	s5,s5,v0
  406ddc:	00004825 	move	t1,zero
  406de0:	02723026 	xor	a2,s3,s2
  406de4:	2fc40010 	sltiu	a0,s8,16
  406de8:	00c01025 	move	v0,a2
  406dec:	1080002f 	beqz	a0,406eac <__muldf3+0x1ac>
  406df0:	26a80001 	addiu	t0,s5,1
  406df4:	8f84801c 	lw	a0,-32740(gp)
  406df8:	001e2880 	sll	a1,s8,0x2
  406dfc:	24848de0 	addiu	a0,a0,-29216
  406e00:	00852021 	addu	a0,a0,a1
  406e04:	8c840000 	lw	a0,0(a0)
  406e08:	00000000 	nop
  406e0c:	009c2021 	addu	a0,a0,gp
  406e10:	00800008 	jr	a0
  406e14:	00000000 	nop
  406e18:	02401025 	move	v0,s2
  406e1c:	02208025 	move	s0,s1
  406e20:	00e01825 	move	v1,a3
  406e24:	0120b025 	move	s6,t1
  406e28:	24040002 	li	a0,2
  406e2c:	12c4001b 	beq	s6,a0,406e9c <__muldf3+0x19c>
  406e30:	00403025 	move	a2,v0
  406e34:	24040003 	li	a0,3
  406e38:	12c400e7 	beq	s6,a0,4071d8 <__muldf3+0x4d8>
  406e3c:	24040001 	li	a0,1
  406e40:	16c4004c 	bne	s6,a0,406f74 <__muldf3+0x274>
  406e44:	00403025 	move	a2,v0
  406e48:	00001025 	move	v0,zero
  406e4c:	00002825 	move	a1,zero
  406e50:	00001825 	move	v1,zero
  406e54:	00028500 	sll	s0,v0,0x14
  406e58:	8fbf0044 	lw	ra,68(sp)
  406e5c:	02058025 	or	s0,s0,a1
  406e60:	000637c0 	sll	a2,a2,0x1f
  406e64:	02068025 	or	s0,s0,a2
  406e68:	8fbe0040 	lw	s8,64(sp)
  406e6c:	8fb7003c 	lw	s7,60(sp)
  406e70:	8fb60038 	lw	s6,56(sp)
  406e74:	8fb50034 	lw	s5,52(sp)
  406e78:	8fb40030 	lw	s4,48(sp)
  406e7c:	8fb3002c 	lw	s3,44(sp)
  406e80:	8fb20028 	lw	s2,40(sp)
  406e84:	8fb10024 	lw	s1,36(sp)
  406e88:	00601025 	move	v0,v1
  406e8c:	02001825 	move	v1,s0
  406e90:	8fb00020 	lw	s0,32(sp)
  406e94:	03e00008 	jr	ra
  406e98:	27bd0048 	addiu	sp,sp,72
  406e9c:	00002825 	move	a1,zero
  406ea0:	240207ff 	li	v0,2047
  406ea4:	1000ffeb 	b	406e54 <__muldf3+0x154>
  406ea8:	00001825 	move	v1,zero
  406eac:	00710019 	multu	v1,s1
  406eb0:	0000c012 	mflo	t8
  406eb4:	0000c810 	mfhi	t9
	...
  406ec0:	00670019 	multu	v1,a3
  406ec4:	00005012 	mflo	t2
  406ec8:	00005810 	mfhi	t3
  406ecc:	01781821 	addu	v1,t3,t8
  406ed0:	0078482b 	sltu	t1,v1,t8
  406ed4:	02300019 	multu	s1,s0
  406ed8:	00007012 	mflo	t6
  406edc:	032e1021 	addu	v0,t9,t6
  406ee0:	00492021 	addu	a0,v0,t1
  406ee4:	00007810 	mfhi	t7
  406ee8:	0089482b 	sltu	t1,a0,t1
  406eec:	00000000 	nop
  406ef0:	00f00019 	multu	a3,s0
  406ef4:	0059802b 	sltu	s0,v0,t9
  406ef8:	02098025 	or	s0,s0,t1
  406efc:	020f8021 	addu	s0,s0,t7
  406f00:	00006012 	mflo	t4
  406f04:	006c2821 	addu	a1,v1,t4
  406f08:	00ac182b 	sltu	v1,a1,t4
  406f0c:	00006810 	mfhi	t5
  406f10:	008d1021 	addu	v0,a0,t5
  406f14:	00432021 	addu	a0,v0,v1
  406f18:	0083182b 	sltu	v1,a0,v1
  406f1c:	004d102b 	sltu	v0,v0,t5
  406f20:	00431025 	or	v0,v0,v1
  406f24:	02028021 	addu	s0,s0,v0
  406f28:	00051a40 	sll	v1,a1,0x9
  406f2c:	000415c2 	srl	v0,a0,0x17
  406f30:	00108240 	sll	s0,s0,0x9
  406f34:	006a1825 	or	v1,v1,t2
  406f38:	02028025 	or	s0,s0,v0
  406f3c:	0003182b 	sltu	v1,zero,v1
  406f40:	00052dc2 	srl	a1,a1,0x17
  406f44:	3c020100 	lui	v0,0x100
  406f48:	00651825 	or	v1,v1,a1
  406f4c:	00042240 	sll	a0,a0,0x9
  406f50:	02021024 	and	v0,s0,v0
  406f54:	104000e0 	beqz	v0,4072d8 <__muldf3+0x5d8>
  406f58:	00641825 	or	v1,v1,a0
  406f5c:	00031042 	srl	v0,v1,0x1
  406f60:	30630001 	andi	v1,v1,0x1
  406f64:	001027c0 	sll	a0,s0,0x1f
  406f68:	00431825 	or	v1,v0,v1
  406f6c:	00641825 	or	v1,v1,a0
  406f70:	00108042 	srl	s0,s0,0x1
  406f74:	250203ff 	addiu	v0,t0,1023
  406f78:	18400072 	blez	v0,407144 <__muldf3+0x444>
  406f7c:	24040001 	li	a0,1
  406f80:	30640007 	andi	a0,v1,0x7
  406f84:	10800009 	beqz	a0,406fac <__muldf3+0x2ac>
  406f88:	3c040100 	lui	a0,0x100
  406f8c:	3064000f 	andi	a0,v1,0xf
  406f90:	24050004 	li	a1,4
  406f94:	10850004 	beq	a0,a1,406fa8 <__muldf3+0x2a8>
  406f98:	24640004 	addiu	a0,v1,4
  406f9c:	0083182b 	sltu	v1,a0,v1
  406fa0:	02038021 	addu	s0,s0,v1
  406fa4:	00801825 	move	v1,a0
  406fa8:	3c040100 	lui	a0,0x100
  406fac:	02042024 	and	a0,s0,a0
  406fb0:	10800006 	beqz	a0,406fcc <__muldf3+0x2cc>
  406fb4:	284407ff 	slti	a0,v0,2047
  406fb8:	3c02feff 	lui	v0,0xfeff
  406fbc:	3442ffff 	ori	v0,v0,0xffff
  406fc0:	02028024 	and	s0,s0,v0
  406fc4:	25020400 	addiu	v0,t0,1024
  406fc8:	284407ff 	slti	a0,v0,2047
  406fcc:	108000be 	beqz	a0,4072c8 <__muldf3+0x5c8>
  406fd0:	00102740 	sll	a0,s0,0x1d
  406fd4:	000318c2 	srl	v1,v1,0x3
  406fd8:	00108240 	sll	s0,s0,0x9
  406fdc:	00831825 	or	v1,a0,v1
  406fe0:	00102b02 	srl	a1,s0,0xc
  406fe4:	1000ff9b 	b	406e54 <__muldf3+0x154>
  406fe8:	304207ff 	andi	v0,v0,0x7ff
  406fec:	02373825 	or	a3,s1,s7
  406ff0:	10e0004a 	beqz	a3,40711c <__muldf3+0x41c>
  406ff4:	00000000 	nop
  406ff8:	8f99812c 	lw	t9,-32468(gp)
  406ffc:	12200082 	beqz	s1,407208 <__muldf3+0x508>
  407000:	afa30018 	sw	v1,24(sp)
  407004:	0411040e 	bal	408040 <__clzsi2>
  407008:	02202025 	move	a0,s1
  40700c:	8fbc0010 	lw	gp,16(sp)
  407010:	8fa30018 	lw	v1,24(sp)
  407014:	2445fff5 	addiu	a1,v0,-11
  407018:	2404001d 	li	a0,29
  40701c:	2447fff8 	addiu	a3,v0,-8
  407020:	00852023 	subu	a0,a0,a1
  407024:	00f18804 	sllv	s1,s1,a3
  407028:	00972006 	srlv	a0,s7,a0
  40702c:	00918825 	or	s1,a0,s1
  407030:	00f73804 	sllv	a3,s7,a3
  407034:	02a21023 	subu	v0,s5,v0
  407038:	2455fc0d 	addiu	s5,v0,-1011
  40703c:	1000ff68 	b	406de0 <__muldf3+0xe0>
  407040:	00004825 	move	t1,zero
  407044:	02041825 	or	v1,s0,a0
  407048:	10600030 	beqz	v1,40710c <__muldf3+0x40c>
  40704c:	241e0004 	li	s8,4
  407050:	8f99812c 	lw	t9,-32468(gp)
  407054:	12000079 	beqz	s0,40723c <__muldf3+0x53c>
  407058:	afa70018 	sw	a3,24(sp)
  40705c:	041103f8 	bal	408040 <__clzsi2>
  407060:	02002025 	move	a0,s0
  407064:	8fbc0010 	lw	gp,16(sp)
  407068:	8fa70018 	lw	a3,24(sp)
  40706c:	2445fff5 	addiu	a1,v0,-11
  407070:	2404001d 	li	a0,29
  407074:	2443fff8 	addiu	v1,v0,-8
  407078:	00852023 	subu	a0,a0,a1
  40707c:	00708004 	sllv	s0,s0,v1
  407080:	00912006 	srlv	a0,s1,a0
  407084:	00908025 	or	s0,a0,s0
  407088:	00711804 	sllv	v1,s1,v1
  40708c:	2415fc0d 	li	s5,-1011
  407090:	02a2a823 	subu	s5,s5,v0
  407094:	0000f025 	move	s8,zero
  407098:	1000ff3e 	b	406d94 <__muldf3+0x94>
  40709c:	0000b025 	move	s6,zero
  4070a0:	14600015 	bnez	v1,4070f8 <__muldf3+0x3f8>
  4070a4:	00000000 	nop
  4070a8:	00008025 	move	s0,zero
  4070ac:	241e0008 	li	s8,8
  4070b0:	241507ff 	li	s5,2047
  4070b4:	1000ff37 	b	406d94 <__muldf3+0x94>
  4070b8:	24160002 	li	s6,2
  4070bc:	14e0000a 	bnez	a3,4070e8 <__muldf3+0x3e8>
  4070c0:	26b507ff 	addiu	s5,s5,2047
  4070c4:	37de0002 	ori	s8,s8,0x2
  4070c8:	00008825 	move	s1,zero
  4070cc:	1000ff44 	b	406de0 <__muldf3+0xe0>
  4070d0:	24090002 	li	t1,2
  4070d4:	24040002 	li	a0,2
  4070d8:	16c4ff56 	bne	s6,a0,406e34 <__muldf3+0x134>
  4070dc:	02601025 	move	v0,s3
  4070e0:	1000ff6e 	b	406e9c <__muldf3+0x19c>
  4070e4:	00403025 	move	a2,v0
  4070e8:	37de0003 	ori	s8,s8,0x3
  4070ec:	02e03825 	move	a3,s7
  4070f0:	1000ff3b 	b	406de0 <__muldf3+0xe0>
  4070f4:	24090003 	li	t1,3
  4070f8:	00801825 	move	v1,a0
  4070fc:	241e000c 	li	s8,12
  407100:	241507ff 	li	s5,2047
  407104:	1000ff23 	b	406d94 <__muldf3+0x94>
  407108:	24160003 	li	s6,3
  40710c:	00008025 	move	s0,zero
  407110:	0000a825 	move	s5,zero
  407114:	1000ff1f 	b	406d94 <__muldf3+0x94>
  407118:	24160001 	li	s6,1
  40711c:	37de0001 	ori	s8,s8,0x1
  407120:	00008825 	move	s1,zero
  407124:	1000ff2e 	b	406de0 <__muldf3+0xe0>
  407128:	24090001 	li	t1,1
  40712c:	3c100007 	lui	s0,0x7
  407130:	00003025 	move	a2,zero
  407134:	240207ff 	li	v0,2047
  407138:	3605ffff 	ori	a1,s0,0xffff
  40713c:	1000ff45 	b	406e54 <__muldf3+0x154>
  407140:	2403ffff 	li	v1,-1
  407144:	1440004a 	bnez	v0,407270 <__muldf3+0x570>
  407148:	00822023 	subu	a0,a0,v0
  40714c:	2508041e 	addiu	t0,t0,1054
  407150:	01032804 	sllv	a1,v1,t0
  407154:	00831806 	srlv	v1,v1,a0
  407158:	01104004 	sllv	t0,s0,t0
  40715c:	0005282b 	sltu	a1,zero,a1
  407160:	01031025 	or	v0,t0,v1
  407164:	00451025 	or	v0,v0,a1
  407168:	30450007 	andi	a1,v0,0x7
  40716c:	10a00009 	beqz	a1,407194 <__muldf3+0x494>
  407170:	00901806 	srlv	v1,s0,a0
  407174:	3044000f 	andi	a0,v0,0xf
  407178:	24050004 	li	a1,4
  40717c:	10850006 	beq	a0,a1,407198 <__muldf3+0x498>
  407180:	3c040080 	lui	a0,0x80
  407184:	24440004 	addiu	a0,v0,4
  407188:	0082102b 	sltu	v0,a0,v0
  40718c:	00621821 	addu	v1,v1,v0
  407190:	00801025 	move	v0,a0
  407194:	3c040080 	lui	a0,0x80
  407198:	00642024 	and	a0,v1,a0
  40719c:	10800056 	beqz	a0,4072f8 <__muldf3+0x5f8>
  4071a0:	00000000 	nop
  4071a4:	24020001 	li	v0,1
  4071a8:	00002825 	move	a1,zero
  4071ac:	1000ff29 	b	406e54 <__muldf3+0x154>
  4071b0:	00001825 	move	v1,zero
  4071b4:	02308825 	or	s1,s1,s0
  4071b8:	3c050008 	lui	a1,0x8
  4071bc:	02258824 	and	s1,s1,a1
  4071c0:	12200006 	beqz	s1,4071dc <__muldf3+0x4dc>
  4071c4:	00003025 	move	a2,zero
  4071c8:	240207ff 	li	v0,2047
  4071cc:	24a5ffff 	addiu	a1,a1,-1
  4071d0:	1000ff20 	b	406e54 <__muldf3+0x154>
  4071d4:	2403ffff 	li	v1,-1
  4071d8:	0040a025 	move	s4,v0
  4071dc:	3c050007 	lui	a1,0x7
  4071e0:	34a4ffff 	ori	a0,a1,0xffff
  4071e4:	02042824 	and	a1,s0,a0
  4071e8:	00a31025 	or	v0,a1,v1
  4071ec:	14400046 	bnez	v0,407308 <__muldf3+0x608>
  4071f0:	00000000 	nop
  4071f4:	00003025 	move	a2,zero
  4071f8:	240207ff 	li	v0,2047
  4071fc:	00802825 	move	a1,a0
  407200:	1000ff14 	b	406e54 <__muldf3+0x154>
  407204:	2403ffff 	li	v1,-1
  407208:	0411038d 	bal	408040 <__clzsi2>
  40720c:	02e02025 	move	a0,s7
  407210:	24450015 	addiu	a1,v0,21
  407214:	28a6001d 	slti	a2,a1,29
  407218:	00402025 	move	a0,v0
  40721c:	8fbc0010 	lw	gp,16(sp)
  407220:	8fa30018 	lw	v1,24(sp)
  407224:	14c0ff7c 	bnez	a2,407018 <__muldf3+0x318>
  407228:	24420020 	addiu	v0,v0,32
  40722c:	2484fff8 	addiu	a0,a0,-8
  407230:	00003825 	move	a3,zero
  407234:	1000ff7f 	b	407034 <__muldf3+0x334>
  407238:	00978804 	sllv	s1,s7,a0
  40723c:	04110380 	bal	408040 <__clzsi2>
  407240:	00000000 	nop
  407244:	24450015 	addiu	a1,v0,21
  407248:	28a4001d 	slti	a0,a1,29
  40724c:	00401825 	move	v1,v0
  407250:	8fbc0010 	lw	gp,16(sp)
  407254:	8fa70018 	lw	a3,24(sp)
  407258:	1480ff85 	bnez	a0,407070 <__muldf3+0x370>
  40725c:	24420020 	addiu	v0,v0,32
  407260:	2470fff8 	addiu	s0,v1,-8
  407264:	02118004 	sllv	s0,s1,s0
  407268:	1000ff88 	b	40708c <__muldf3+0x38c>
  40726c:	00001825 	move	v1,zero
  407270:	28850039 	slti	a1,a0,57
  407274:	10a0fef4 	beqz	a1,406e48 <__muldf3+0x148>
  407278:	28850020 	slti	a1,a0,32
  40727c:	14a0ffb3 	bnez	a1,40714c <__muldf3+0x44c>
  407280:	2405ffe1 	li	a1,-31
  407284:	00a21023 	subu	v0,a1,v0
  407288:	24050020 	li	a1,32
  40728c:	10850004 	beq	a0,a1,4072a0 <__muldf3+0x5a0>
  407290:	00501006 	srlv	v0,s0,v0
  407294:	2508043e 	addiu	t0,t0,1086
  407298:	01108004 	sllv	s0,s0,t0
  40729c:	00701825 	or	v1,v1,s0
  4072a0:	0003182b 	sltu	v1,zero,v1
  4072a4:	00621025 	or	v0,v1,v0
  4072a8:	30430007 	andi	v1,v0,0x7
  4072ac:	1460000c 	bnez	v1,4072e0 <__muldf3+0x5e0>
  4072b0:	24040004 	li	a0,4
  4072b4:	00002825 	move	a1,zero
  4072b8:	000210c2 	srl	v0,v0,0x3
  4072bc:	00431825 	or	v1,v0,v1
  4072c0:	1000fee4 	b	406e54 <__muldf3+0x154>
  4072c4:	00001025 	move	v0,zero
  4072c8:	240207ff 	li	v0,2047
  4072cc:	00002825 	move	a1,zero
  4072d0:	1000fee0 	b	406e54 <__muldf3+0x154>
  4072d4:	00001825 	move	v1,zero
  4072d8:	1000ff26 	b	406f74 <__muldf3+0x274>
  4072dc:	02a04025 	move	t0,s5
  4072e0:	3043000f 	andi	v1,v0,0xf
  4072e4:	10640003 	beq	v1,a0,4072f4 <__muldf3+0x5f4>
  4072e8:	00000000 	nop
  4072ec:	1000ffa5 	b	407184 <__muldf3+0x484>
  4072f0:	00001825 	move	v1,zero
  4072f4:	00001825 	move	v1,zero
  4072f8:	00032a40 	sll	a1,v1,0x9
  4072fc:	00052b02 	srl	a1,a1,0xc
  407300:	1000ffed 	b	4072b8 <__muldf3+0x5b8>
  407304:	00031f40 	sll	v1,v1,0x1d
  407308:	32860001 	andi	a2,s4,0x1
  40730c:	1000fed1 	b	406e54 <__muldf3+0x154>
  407310:	240207ff 	li	v0,2047
	...

00407320 <__subdf3>:
  407320:	3c1c0002 	lui	gp,0x2
  407324:	279c9da0 	addiu	gp,gp,-25184
  407328:	0399e021 	addu	gp,gp,t9
  40732c:	3c02000f 	lui	v0,0xf
  407330:	27bdffd0 	addiu	sp,sp,-48
  407334:	3442ffff 	ori	v0,v0,0xffff
  407338:	00451824 	and	v1,v0,a1
  40733c:	00074502 	srl	t0,a3,0x14
  407340:	00471024 	and	v0,v0,a3
  407344:	afb20024 	sw	s2,36(sp)
  407348:	00059502 	srl	s2,a1,0x14
  40734c:	000210c0 	sll	v0,v0,0x3
  407350:	afb30028 	sw	s3,40(sp)
  407354:	afbc0010 	sw	gp,16(sp)
  407358:	325207ff 	andi	s2,s2,0x7ff
  40735c:	000318c0 	sll	v1,v1,0x3
  407360:	00049f42 	srl	s3,a0,0x1d
  407364:	310807ff 	andi	t0,t0,0x7ff
  407368:	00065742 	srl	t2,a2,0x1d
  40736c:	240907ff 	li	t1,2047
  407370:	afb10020 	sw	s1,32(sp)
  407374:	01425025 	or	t2,t2,v0
  407378:	afbf002c 	sw	ra,44(sp)
  40737c:	afb0001c 	sw	s0,28(sp)
  407380:	00058fc2 	srl	s1,a1,0x1f
  407384:	02636025 	or	t4,s3,v1
  407388:	000468c0 	sll	t5,a0,0x3
  40738c:	00073fc2 	srl	a3,a3,0x1f
  407390:	000658c0 	sll	t3,a2,0x3
  407394:	11090077 	beq	t0,t1,407574 <__subdf3+0x254>
  407398:	02481023 	subu	v0,s2,t0
  40739c:	38e70001 	xori	a3,a3,0x1
  4073a0:	12270085 	beq	s1,a3,4075b8 <__subdf3+0x298>
  4073a4:	00000000 	nop
  4073a8:	18400064 	blez	v0,40753c <__subdf3+0x21c>
  4073ac:	00000000 	nop
  4073b0:	15000077 	bnez	t0,407590 <__subdf3+0x270>
  4073b4:	014b1825 	or	v1,t2,t3
  4073b8:	10600101 	beqz	v1,4077c0 <__subdf3+0x4a0>
  4073bc:	3c051fff 	lui	a1,0x1fff
  4073c0:	2443ffff 	addiu	v1,v0,-1
  4073c4:	106001bb 	beqz	v1,407ab4 <__subdf3+0x794>
  4073c8:	240507ff 	li	a1,2047
  4073cc:	10450102 	beq	v0,a1,4077d8 <__subdf3+0x4b8>
  4073d0:	00601025 	move	v0,v1
  4073d4:	28430039 	slti	v1,v0,57
  4073d8:	10600074 	beqz	v1,4075ac <__subdf3+0x28c>
  4073dc:	28430020 	slti	v1,v0,32
  4073e0:	10600169 	beqz	v1,407988 <__subdf3+0x668>
  4073e4:	24040020 	li	a0,32
  4073e8:	24030020 	li	v1,32
  4073ec:	00621823 	subu	v1,v1,v0
  4073f0:	004b2006 	srlv	a0,t3,v0
  4073f4:	006a8004 	sllv	s0,t2,v1
  4073f8:	006b5804 	sllv	t3,t3,v1
  4073fc:	02048025 	or	s0,s0,a0
  407400:	000b582b 	sltu	t3,zero,t3
  407404:	004a1006 	srlv	v0,t2,v0
  407408:	020b8025 	or	s0,s0,t3
  40740c:	01826023 	subu	t4,t4,v0
  407410:	01b08023 	subu	s0,t5,s0
  407414:	01b0182b 	sltu	v1,t5,s0
  407418:	01831823 	subu	v1,t4,v1
  40741c:	3c050080 	lui	a1,0x80
  407420:	00651024 	and	v0,v1,a1
  407424:	104000a5 	beqz	v0,4076bc <__subdf3+0x39c>
  407428:	32020007 	andi	v0,s0,0x7
  40742c:	24a5ffff 	addiu	a1,a1,-1
  407430:	00659824 	and	s3,v1,a1
  407434:	8f99812c 	lw	t9,-32468(gp)
  407438:	126000b4 	beqz	s3,40770c <__subdf3+0x3ec>
  40743c:	00000000 	nop
  407440:	041102ff 	bal	408040 <__clzsi2>
  407444:	02602025 	move	a0,s3
  407448:	2444fff8 	addiu	a0,v0,-8
  40744c:	00041823 	negu	v1,a0
  407450:	00701806 	srlv	v1,s0,v1
  407454:	00939804 	sllv	s3,s3,a0
  407458:	0092102a 	slt	v0,a0,s2
  40745c:	00739825 	or	s3,v1,s3
  407460:	144000b5 	bnez	v0,407738 <__subdf3+0x418>
  407464:	00908004 	sllv	s0,s0,a0
  407468:	00929023 	subu	s2,a0,s2
  40746c:	26430001 	addiu	v1,s2,1
  407470:	28620020 	slti	v0,v1,32
  407474:	10400086 	beqz	v0,407690 <__subdf3+0x370>
  407478:	2652ffe1 	addiu	s2,s2,-31
  40747c:	24020020 	li	v0,32
  407480:	00431023 	subu	v0,v0,v1
  407484:	00702006 	srlv	a0,s0,v1
  407488:	00508004 	sllv	s0,s0,v0
  40748c:	00531004 	sllv	v0,s3,v0
  407490:	00441025 	or	v0,v0,a0
  407494:	0010802b 	sltu	s0,zero,s0
  407498:	00508025 	or	s0,v0,s0
  40749c:	00731806 	srlv	v1,s3,v1
  4074a0:	00009025 	move	s2,zero
  4074a4:	32020007 	andi	v0,s0,0x7
  4074a8:	10400009 	beqz	v0,4074d0 <__subdf3+0x1b0>
  4074ac:	3c060080 	lui	a2,0x80
  4074b0:	3206000f 	andi	a2,s0,0xf
  4074b4:	24020004 	li	v0,4
  4074b8:	10c20004 	beq	a2,v0,4074cc <__subdf3+0x1ac>
  4074bc:	26020004 	addiu	v0,s0,4
  4074c0:	0050802b 	sltu	s0,v0,s0
  4074c4:	00701821 	addu	v1,v1,s0
  4074c8:	00408025 	move	s0,v0
  4074cc:	3c060080 	lui	a2,0x80
  4074d0:	00663024 	and	a2,v1,a2
  4074d4:	10c0007b 	beqz	a2,4076c4 <__subdf3+0x3a4>
  4074d8:	240407ff 	li	a0,2047
  4074dc:	26520001 	addiu	s2,s2,1
  4074e0:	324207ff 	andi	v0,s2,0x7ff
  4074e4:	12440085 	beq	s2,a0,4076fc <__subdf3+0x3dc>
  4074e8:	32310001 	andi	s1,s1,0x1
  4074ec:	3c04ff7f 	lui	a0,0xff7f
  4074f0:	3484ffff 	ori	a0,a0,0xffff
  4074f4:	00642024 	and	a0,v1,a0
  4074f8:	001080c2 	srl	s0,s0,0x3
  4074fc:	00042f40 	sll	a1,a0,0x1d
  407500:	00041a40 	sll	v1,a0,0x9
  407504:	00b02825 	or	a1,a1,s0
  407508:	00031b02 	srl	v1,v1,0xc
  40750c:	8fbf002c 	lw	ra,44(sp)
  407510:	00021500 	sll	v0,v0,0x14
  407514:	00431025 	or	v0,v0,v1
  407518:	00118fc0 	sll	s1,s1,0x1f
  40751c:	00511825 	or	v1,v0,s1
  407520:	8fb30028 	lw	s3,40(sp)
  407524:	8fb20024 	lw	s2,36(sp)
  407528:	8fb10020 	lw	s1,32(sp)
  40752c:	8fb0001c 	lw	s0,28(sp)
  407530:	00a01025 	move	v0,a1
  407534:	03e00008 	jr	ra
  407538:	27bd0030 	addiu	sp,sp,48
  40753c:	10400034 	beqz	v0,407610 <__subdf3+0x2f0>
  407540:	26430001 	addiu	v1,s2,1
  407544:	164000e4 	bnez	s2,4078d8 <__subdf3+0x5b8>
  407548:	01121023 	subu	v0,t0,s2
  40754c:	018d1825 	or	v1,t4,t5
  407550:	10600147 	beqz	v1,407a70 <__subdf3+0x750>
  407554:	3c051fff 	lui	a1,0x1fff
  407558:	2443ffff 	addiu	v1,v0,-1
  40755c:	10600192 	beqz	v1,407ba8 <__subdf3+0x888>
  407560:	240407ff 	li	a0,2047
  407564:	1044015b 	beq	v0,a0,407ad4 <__subdf3+0x7b4>
  407568:	34a5ffff 	ori	a1,a1,0xffff
  40756c:	100000de 	b	4078e8 <__subdf3+0x5c8>
  407570:	00601025 	move	v0,v1
  407574:	014b1825 	or	v1,t2,t3
  407578:	1060ff88 	beqz	v1,40739c <__subdf3+0x7c>
  40757c:	00000000 	nop
  407580:	12270072 	beq	s1,a3,40774c <__subdf3+0x42c>
  407584:	00000000 	nop
  407588:	1840ffec 	blez	v0,40753c <__subdf3+0x21c>
  40758c:	00000000 	nop
  407590:	240307ff 	li	v1,2047
  407594:	12430090 	beq	s2,v1,4077d8 <__subdf3+0x4b8>
  407598:	3c030080 	lui	v1,0x80
  40759c:	01435025 	or	t2,t2,v1
  4075a0:	28430039 	slti	v1,v0,57
  4075a4:	1460ff8e 	bnez	v1,4073e0 <__subdf3+0xc0>
  4075a8:	28430020 	slti	v1,v0,32
  4075ac:	014b5025 	or	t2,t2,t3
  4075b0:	1000ff97 	b	407410 <__subdf3+0xf0>
  4075b4:	000a802b 	sltu	s0,zero,t2
  4075b8:	18400064 	blez	v0,40774c <__subdf3+0x42c>
  4075bc:	00000000 	nop
  4075c0:	1100002a 	beqz	t0,40766c <__subdf3+0x34c>
  4075c4:	014b1825 	or	v1,t2,t3
  4075c8:	240307ff 	li	v1,2047
  4075cc:	12430082 	beq	s2,v1,4077d8 <__subdf3+0x4b8>
  4075d0:	3c030080 	lui	v1,0x80
  4075d4:	01435025 	or	t2,t2,v1
  4075d8:	28430039 	slti	v1,v0,57
  4075dc:	106000d3 	beqz	v1,40792c <__subdf3+0x60c>
  4075e0:	28430020 	slti	v1,v0,32
  4075e4:	14600106 	bnez	v1,407a00 <__subdf3+0x6e0>
  4075e8:	004b2006 	srlv	a0,t3,v0
  4075ec:	24040020 	li	a0,32
  4075f0:	10440004 	beq	v0,a0,407604 <__subdf3+0x2e4>
  4075f4:	004a1806 	srlv	v1,t2,v0
  4075f8:	00021023 	negu	v0,v0
  4075fc:	004a5004 	sllv	t2,t2,v0
  407600:	016a5825 	or	t3,t3,t2
  407604:	000b802b 	sltu	s0,zero,t3
  407608:	100000ca 	b	407934 <__subdf3+0x614>
  40760c:	02038025 	or	s0,s0,v1
  407610:	306307fe 	andi	v1,v1,0x7fe
  407614:	146000a5 	bnez	v1,4078ac <__subdf3+0x58c>
  407618:	01ab8023 	subu	s0,t5,t3
  40761c:	018d2825 	or	a1,t4,t5
  407620:	16400080 	bnez	s2,407824 <__subdf3+0x504>
  407624:	014b1825 	or	v1,t2,t3
  407628:	10a00155 	beqz	a1,407b80 <__subdf3+0x860>
  40762c:	00000000 	nop
  407630:	1060012e 	beqz	v1,407aec <__subdf3+0x7cc>
  407634:	00000000 	nop
  407638:	01b0202b 	sltu	a0,t5,s0
  40763c:	018a1823 	subu	v1,t4,t2
  407640:	00641823 	subu	v1,v1,a0
  407644:	3c040080 	lui	a0,0x80
  407648:	00642024 	and	a0,v1,a0
  40764c:	10800187 	beqz	a0,407c6c <__subdf3+0x94c>
  407650:	02032825 	or	a1,s0,v1
  407654:	016d8023 	subu	s0,t3,t5
  407658:	014c9823 	subu	s3,t2,t4
  40765c:	0170182b 	sltu	v1,t3,s0
  407660:	02631823 	subu	v1,s3,v1
  407664:	1000ff8f 	b	4074a4 <__subdf3+0x184>
  407668:	00e08825 	move	s1,a3
  40766c:	10600054 	beqz	v1,4077c0 <__subdf3+0x4a0>
  407670:	3c051fff 	lui	a1,0x1fff
  407674:	2443ffff 	addiu	v1,v0,-1
  407678:	10600104 	beqz	v1,407a8c <__subdf3+0x76c>
  40767c:	240507ff 	li	a1,2047
  407680:	10450150 	beq	v0,a1,407bc4 <__subdf3+0x8a4>
  407684:	3c051fff 	lui	a1,0x1fff
  407688:	1000ffd3 	b	4075d8 <__subdf3+0x2b8>
  40768c:	00601025 	move	v0,v1
  407690:	24020020 	li	v0,32
  407694:	10620004 	beq	v1,v0,4076a8 <__subdf3+0x388>
  407698:	02539006 	srlv	s2,s3,s2
  40769c:	00031823 	negu	v1,v1
  4076a0:	00739804 	sllv	s3,s3,v1
  4076a4:	02138025 	or	s0,s0,s3
  4076a8:	0010802b 	sltu	s0,zero,s0
  4076ac:	02128025 	or	s0,s0,s2
  4076b0:	00001825 	move	v1,zero
  4076b4:	00009025 	move	s2,zero
  4076b8:	32020007 	andi	v0,s0,0x7
  4076bc:	1440ff7d 	bnez	v0,4074b4 <__subdf3+0x194>
  4076c0:	3206000f 	andi	a2,s0,0xf
  4076c4:	00031740 	sll	v0,v1,0x1d
  4076c8:	001028c2 	srl	a1,s0,0x3
  4076cc:	00a22825 	or	a1,a1,v0
  4076d0:	000318c2 	srl	v1,v1,0x3
  4076d4:	02401025 	move	v0,s2
  4076d8:	240407ff 	li	a0,2047
  4076dc:	1044018d 	beq	v0,a0,407d14 <__subdf3+0x9f4>
  4076e0:	00000000 	nop
  4076e4:	3c04000f 	lui	a0,0xf
  4076e8:	3484ffff 	ori	a0,a0,0xffff
  4076ec:	00641824 	and	v1,v1,a0
  4076f0:	304207ff 	andi	v0,v0,0x7ff
  4076f4:	1000ff85 	b	40750c <__subdf3+0x1ec>
  4076f8:	32310001 	andi	s1,s1,0x1
  4076fc:	240207ff 	li	v0,2047
  407700:	00001825 	move	v1,zero
  407704:	1000ff81 	b	40750c <__subdf3+0x1ec>
  407708:	00002825 	move	a1,zero
  40770c:	0411024c 	bal	408040 <__clzsi2>
  407710:	02002025 	move	a0,s0
  407714:	24440018 	addiu	a0,v0,24
  407718:	28830020 	slti	v1,a0,32
  40771c:	1460ff4b 	bnez	v1,40744c <__subdf3+0x12c>
  407720:	00000000 	nop
  407724:	2453fff8 	addiu	s3,v0,-8
  407728:	0092102a 	slt	v0,a0,s2
  40772c:	02709804 	sllv	s3,s0,s3
  407730:	1040ff4d 	beqz	v0,407468 <__subdf3+0x148>
  407734:	00008025 	move	s0,zero
  407738:	3c03ff7f 	lui	v1,0xff7f
  40773c:	3463ffff 	ori	v1,v1,0xffff
  407740:	02449023 	subu	s2,s2,a0
  407744:	1000ff57 	b	4074a4 <__subdf3+0x184>
  407748:	02631824 	and	v1,s3,v1
  40774c:	10400041 	beqz	v0,407854 <__subdf3+0x534>
  407750:	26450001 	addiu	a1,s2,1
  407754:	1240009b 	beqz	s2,4079c4 <__subdf3+0x6a4>
  407758:	01121023 	subu	v0,t0,s2
  40775c:	240307ff 	li	v1,2047
  407760:	110300e9 	beq	t0,v1,407b08 <__subdf3+0x7e8>
  407764:	3c030080 	lui	v1,0x80
  407768:	01836025 	or	t4,t4,v1
  40776c:	28430039 	slti	v1,v0,57
  407770:	106000ec 	beqz	v1,407b24 <__subdf3+0x804>
  407774:	018d9825 	or	s3,t4,t5
  407778:	28430020 	slti	v1,v0,32
  40777c:	1060012b 	beqz	v1,407c2c <__subdf3+0x90c>
  407780:	24040020 	li	a0,32
  407784:	24030020 	li	v1,32
  407788:	00621823 	subu	v1,v1,v0
  40778c:	006c8004 	sllv	s0,t4,v1
  407790:	004d2006 	srlv	a0,t5,v0
  407794:	006d1804 	sllv	v1,t5,v1
  407798:	02048025 	or	s0,s0,a0
  40779c:	0003182b 	sltu	v1,zero,v1
  4077a0:	004c9806 	srlv	s3,t4,v0
  4077a4:	02038025 	or	s0,s0,v1
  4077a8:	01535021 	addu	t2,t2,s3
  4077ac:	020b8021 	addu	s0,s0,t3
  4077b0:	020b182b 	sltu	v1,s0,t3
  4077b4:	006a1821 	addu	v1,v1,t2
  4077b8:	10000061 	b	407940 <__subdf3+0x620>
  4077bc:	01009025 	move	s2,t0
  4077c0:	34a5ffff 	ori	a1,a1,0xffff
  4077c4:	000c1f40 	sll	v1,t4,0x1d
  4077c8:	00a42824 	and	a1,a1,a0
  4077cc:	00a32825 	or	a1,a1,v1
  4077d0:	1000ffc1 	b	4076d8 <__subdf3+0x3b8>
  4077d4:	000c18c2 	srl	v1,t4,0x3
  4077d8:	3c051fff 	lui	a1,0x1fff
  4077dc:	34a5ffff 	ori	a1,a1,0xffff
  4077e0:	000c1740 	sll	v0,t4,0x1d
  4077e4:	00a42824 	and	a1,a1,a0
  4077e8:	00a22825 	or	a1,a1,v0
  4077ec:	000c10c2 	srl	v0,t4,0x3
  4077f0:	00a21825 	or	v1,a1,v0
  4077f4:	1060007d 	beqz	v1,4079ec <__subdf3+0x6cc>
  4077f8:	00000000 	nop
  4077fc:	3c030007 	lui	v1,0x7
  407800:	3463ffff 	ori	v1,v1,0xffff
  407804:	00431024 	and	v0,v0,v1
  407808:	00a22025 	or	a0,a1,v0
  40780c:	1480000d 	bnez	a0,407844 <__subdf3+0x524>
  407810:	00000000 	nop
  407814:	00008825 	move	s1,zero
  407818:	240207ff 	li	v0,2047
  40781c:	1000ff3b 	b	40750c <__subdf3+0x1ec>
  407820:	2405ffff 	li	a1,-1
  407824:	14a000f3 	bnez	a1,407bf4 <__subdf3+0x8d4>
  407828:	00000000 	nop
  40782c:	146000a7 	bnez	v1,407acc <__subdf3+0x7ac>
  407830:	00000000 	nop
  407834:	3c020007 	lui	v0,0x7
  407838:	00008825 	move	s1,zero
  40783c:	2405ffff 	li	a1,-1
  407840:	3442ffff 	ori	v0,v0,0xffff
  407844:	00401825 	move	v1,v0
  407848:	32310001 	andi	s1,s1,0x1
  40784c:	1000ff2f 	b	40750c <__subdf3+0x1ec>
  407850:	240207ff 	li	v0,2047
  407854:	30a307fe 	andi	v1,a1,0x7fe
  407858:	14600073 	bnez	v1,407a28 <__subdf3+0x708>
  40785c:	00000000 	nop
  407860:	164000ba 	bnez	s2,407b4c <__subdf3+0x82c>
  407864:	018d1825 	or	v1,t4,t5
  407868:	106000ea 	beqz	v1,407c14 <__subdf3+0x8f4>
  40786c:	000a1f40 	sll	v1,t2,0x1d
  407870:	014b1825 	or	v1,t2,t3
  407874:	1060009d 	beqz	v1,407aec <__subdf3+0x7cc>
  407878:	01ab8021 	addu	s0,t5,t3
  40787c:	018a9821 	addu	s3,t4,t2
  407880:	020d182b 	sltu	v1,s0,t5
  407884:	02631821 	addu	v1,s3,v1
  407888:	3c020080 	lui	v0,0x80
  40788c:	00621024 	and	v0,v1,v0
  407890:	1040ff8a 	beqz	v0,4076bc <__subdf3+0x39c>
  407894:	32020007 	andi	v0,s0,0x7
  407898:	3c02ff7f 	lui	v0,0xff7f
  40789c:	3442ffff 	ori	v0,v0,0xffff
  4078a0:	00621824 	and	v1,v1,v0
  4078a4:	1000ff84 	b	4076b8 <__subdf3+0x398>
  4078a8:	24120001 	li	s2,1
  4078ac:	01b0182b 	sltu	v1,t5,s0
  4078b0:	018a9823 	subu	s3,t4,t2
  4078b4:	02639823 	subu	s3,s3,v1
  4078b8:	3c030080 	lui	v1,0x80
  4078bc:	02631824 	and	v1,s3,v1
  4078c0:	14600065 	bnez	v1,407a58 <__subdf3+0x738>
  4078c4:	02132825 	or	a1,s0,s3
  4078c8:	14a0feda 	bnez	a1,407434 <__subdf3+0x114>
  4078cc:	00001825 	move	v1,zero
  4078d0:	1000ff84 	b	4076e4 <__subdf3+0x3c4>
  4078d4:	00008825 	move	s1,zero
  4078d8:	240307ff 	li	v1,2047
  4078dc:	1103007b 	beq	t0,v1,407acc <__subdf3+0x7ac>
  4078e0:	3c030080 	lui	v1,0x80
  4078e4:	01836025 	or	t4,t4,v1
  4078e8:	28430039 	slti	v1,v0,57
  4078ec:	1060002e 	beqz	v1,4079a8 <__subdf3+0x688>
  4078f0:	018d9825 	or	s3,t4,t5
  4078f4:	28430020 	slti	v1,v0,32
  4078f8:	1060008c 	beqz	v1,407b2c <__subdf3+0x80c>
  4078fc:	24040020 	li	a0,32
  407900:	24030020 	li	v1,32
  407904:	00621823 	subu	v1,v1,v0
  407908:	004d2006 	srlv	a0,t5,v0
  40790c:	006c8004 	sllv	s0,t4,v1
  407910:	006d6804 	sllv	t5,t5,v1
  407914:	02048025 	or	s0,s0,a0
  407918:	000d682b 	sltu	t5,zero,t5
  40791c:	004c9806 	srlv	s3,t4,v0
  407920:	020d8025 	or	s0,s0,t5
  407924:	10000021 	b	4079ac <__subdf3+0x68c>
  407928:	01535023 	subu	t2,t2,s3
  40792c:	014b5025 	or	t2,t2,t3
  407930:	000a802b 	sltu	s0,zero,t2
  407934:	020d8021 	addu	s0,s0,t5
  407938:	020d182b 	sltu	v1,s0,t5
  40793c:	006c1821 	addu	v1,v1,t4
  407940:	3c020080 	lui	v0,0x80
  407944:	00621024 	and	v0,v1,v0
  407948:	1040ff5c 	beqz	v0,4076bc <__subdf3+0x39c>
  40794c:	32020007 	andi	v0,s0,0x7
  407950:	26520001 	addiu	s2,s2,1
  407954:	240207ff 	li	v0,2047
  407958:	12420024 	beq	s2,v0,4079ec <__subdf3+0x6cc>
  40795c:	00000000 	nop
  407960:	3c04ff7f 	lui	a0,0xff7f
  407964:	3484ffff 	ori	a0,a0,0xffff
  407968:	00101042 	srl	v0,s0,0x1
  40796c:	00641824 	and	v1,v1,a0
  407970:	32100001 	andi	s0,s0,0x1
  407974:	00508025 	or	s0,v0,s0
  407978:	000317c0 	sll	v0,v1,0x1f
  40797c:	00508025 	or	s0,v0,s0
  407980:	1000fec8 	b	4074a4 <__subdf3+0x184>
  407984:	00031842 	srl	v1,v1,0x1
  407988:	10440004 	beq	v0,a0,40799c <__subdf3+0x67c>
  40798c:	004a1806 	srlv	v1,t2,v0
  407990:	00021023 	negu	v0,v0
  407994:	004a5004 	sllv	t2,t2,v0
  407998:	016a5825 	or	t3,t3,t2
  40799c:	000b802b 	sltu	s0,zero,t3
  4079a0:	1000fe9b 	b	407410 <__subdf3+0xf0>
  4079a4:	02038025 	or	s0,s0,v1
  4079a8:	0013802b 	sltu	s0,zero,s3
  4079ac:	01708023 	subu	s0,t3,s0
  4079b0:	0170182b 	sltu	v1,t3,s0
  4079b4:	01431823 	subu	v1,t2,v1
  4079b8:	01009025 	move	s2,t0
  4079bc:	1000fe97 	b	40741c <__subdf3+0xfc>
  4079c0:	00e08825 	move	s1,a3
  4079c4:	018d1825 	or	v1,t4,t5
  4079c8:	10600084 	beqz	v1,407bdc <__subdf3+0x8bc>
  4079cc:	3c051fff 	lui	a1,0x1fff
  4079d0:	2443ffff 	addiu	v1,v0,-1
  4079d4:	1060009d 	beqz	v1,407c4c <__subdf3+0x92c>
  4079d8:	240407ff 	li	a0,2047
  4079dc:	1044004c 	beq	v0,a0,407b10 <__subdf3+0x7f0>
  4079e0:	34a5ffff 	ori	a1,a1,0xffff
  4079e4:	1000ff61 	b	40776c <__subdf3+0x44c>
  4079e8:	00601025 	move	v0,v1
  4079ec:	32310001 	andi	s1,s1,0x1
  4079f0:	240207ff 	li	v0,2047
  4079f4:	00001825 	move	v1,zero
  4079f8:	1000fec4 	b	40750c <__subdf3+0x1ec>
  4079fc:	00002825 	move	a1,zero
  407a00:	24030020 	li	v1,32
  407a04:	00621823 	subu	v1,v1,v0
  407a08:	006a8004 	sllv	s0,t2,v1
  407a0c:	006b5804 	sllv	t3,t3,v1
  407a10:	02048025 	or	s0,s0,a0
  407a14:	000b582b 	sltu	t3,zero,t3
  407a18:	004a1006 	srlv	v0,t2,v0
  407a1c:	020b8025 	or	s0,s0,t3
  407a20:	1000ffc4 	b	407934 <__subdf3+0x614>
  407a24:	01826021 	addu	t4,t4,v0
  407a28:	240207ff 	li	v0,2047
  407a2c:	10a2ffef 	beq	a1,v0,4079ec <__subdf3+0x6cc>
  407a30:	01ab5821 	addu	t3,t5,t3
  407a34:	016d682b 	sltu	t5,t3,t5
  407a38:	018a1821 	addu	v1,t4,t2
  407a3c:	006d1821 	addu	v1,v1,t5
  407a40:	000387c0 	sll	s0,v1,0x1f
  407a44:	000b5842 	srl	t3,t3,0x1
  407a48:	020b8025 	or	s0,s0,t3
  407a4c:	00031842 	srl	v1,v1,0x1
  407a50:	1000ff19 	b	4076b8 <__subdf3+0x398>
  407a54:	00a09025 	move	s2,a1
  407a58:	016d8023 	subu	s0,t3,t5
  407a5c:	014c9823 	subu	s3,t2,t4
  407a60:	0170582b 	sltu	t3,t3,s0
  407a64:	026b9823 	subu	s3,s3,t3
  407a68:	1000fe72 	b	407434 <__subdf3+0x114>
  407a6c:	00e08825 	move	s1,a3
  407a70:	34a5ffff 	ori	a1,a1,0xffff
  407a74:	00a63024 	and	a2,a1,a2
  407a78:	000a2f40 	sll	a1,t2,0x1d
  407a7c:	00c52825 	or	a1,a2,a1
  407a80:	000a18c2 	srl	v1,t2,0x3
  407a84:	1000ff14 	b	4076d8 <__subdf3+0x3b8>
  407a88:	00e08825 	move	s1,a3
  407a8c:	01ab8021 	addu	s0,t5,t3
  407a90:	018a9821 	addu	s3,t4,t2
  407a94:	020d182b 	sltu	v1,s0,t5
  407a98:	02631821 	addu	v1,s3,v1
  407a9c:	3c020080 	lui	v0,0x80
  407aa0:	00621024 	and	v0,v1,v0
  407aa4:	14400034 	bnez	v0,407b78 <__subdf3+0x858>
  407aa8:	00000000 	nop
  407aac:	1000ff02 	b	4076b8 <__subdf3+0x398>
  407ab0:	24120001 	li	s2,1
  407ab4:	01ab8023 	subu	s0,t5,t3
  407ab8:	018a9823 	subu	s3,t4,t2
  407abc:	01b0182b 	sltu	v1,t5,s0
  407ac0:	02631823 	subu	v1,s3,v1
  407ac4:	1000fe55 	b	40741c <__subdf3+0xfc>
  407ac8:	24120001 	li	s2,1
  407acc:	3c051fff 	lui	a1,0x1fff
  407ad0:	34a5ffff 	ori	a1,a1,0xffff
  407ad4:	000a1740 	sll	v0,t2,0x1d
  407ad8:	00a62824 	and	a1,a1,a2
  407adc:	00a22825 	or	a1,a1,v0
  407ae0:	00e08825 	move	s1,a3
  407ae4:	1000ff42 	b	4077f0 <__subdf3+0x4d0>
  407ae8:	000a10c2 	srl	v0,t2,0x3
  407aec:	3c051fff 	lui	a1,0x1fff
  407af0:	34a5ffff 	ori	a1,a1,0xffff
  407af4:	00a42024 	and	a0,a1,a0
  407af8:	000c2f40 	sll	a1,t4,0x1d
  407afc:	00852825 	or	a1,a0,a1
  407b00:	1000fef8 	b	4076e4 <__subdf3+0x3c4>
  407b04:	000c18c2 	srl	v1,t4,0x3
  407b08:	3c051fff 	lui	a1,0x1fff
  407b0c:	34a5ffff 	ori	a1,a1,0xffff
  407b10:	000a1740 	sll	v0,t2,0x1d
  407b14:	00a62824 	and	a1,a1,a2
  407b18:	00a22825 	or	a1,a1,v0
  407b1c:	1000ff34 	b	4077f0 <__subdf3+0x4d0>
  407b20:	000a10c2 	srl	v0,t2,0x3
  407b24:	1000ff21 	b	4077ac <__subdf3+0x48c>
  407b28:	0013802b 	sltu	s0,zero,s3
  407b2c:	10440004 	beq	v0,a0,407b40 <__subdf3+0x820>
  407b30:	004c1806 	srlv	v1,t4,v0
  407b34:	00021023 	negu	v0,v0
  407b38:	004c9804 	sllv	s3,t4,v0
  407b3c:	01b36825 	or	t5,t5,s3
  407b40:	000d802b 	sltu	s0,zero,t5
  407b44:	1000ff99 	b	4079ac <__subdf3+0x68c>
  407b48:	02038025 	or	s0,s0,v1
  407b4c:	1060ffef 	beqz	v1,407b0c <__subdf3+0x7ec>
  407b50:	3c051fff 	lui	a1,0x1fff
  407b54:	014b5825 	or	t3,t2,t3
  407b58:	000c2f40 	sll	a1,t4,0x1d
  407b5c:	1560005f 	bnez	t3,407cdc <__subdf3+0x9bc>
  407b60:	000c10c2 	srl	v0,t4,0x3
  407b64:	3c031fff 	lui	v1,0x1fff
  407b68:	3463ffff 	ori	v1,v1,0xffff
  407b6c:	00642024 	and	a0,v1,a0
  407b70:	1000ff1f 	b	4077f0 <__subdf3+0x4d0>
  407b74:	00852825 	or	a1,a0,a1
  407b78:	1000ff79 	b	407960 <__subdf3+0x640>
  407b7c:	24120002 	li	s2,2
  407b80:	10600037 	beqz	v1,407c60 <__subdf3+0x940>
  407b84:	00000000 	nop
  407b88:	3c051fff 	lui	a1,0x1fff
  407b8c:	34a5ffff 	ori	a1,a1,0xffff
  407b90:	000a1f40 	sll	v1,t2,0x1d
  407b94:	00a62824 	and	a1,a1,a2
  407b98:	00a32825 	or	a1,a1,v1
  407b9c:	00e08825 	move	s1,a3
  407ba0:	1000fed0 	b	4076e4 <__subdf3+0x3c4>
  407ba4:	000a18c2 	srl	v1,t2,0x3
  407ba8:	016d8023 	subu	s0,t3,t5
  407bac:	014c9823 	subu	s3,t2,t4
  407bb0:	0170182b 	sltu	v1,t3,s0
  407bb4:	02631823 	subu	v1,s3,v1
  407bb8:	00e08825 	move	s1,a3
  407bbc:	1000fe17 	b	40741c <__subdf3+0xfc>
  407bc0:	24120001 	li	s2,1
  407bc4:	34a5ffff 	ori	a1,a1,0xffff
  407bc8:	00a42024 	and	a0,a1,a0
  407bcc:	000c2f40 	sll	a1,t4,0x1d
  407bd0:	00852825 	or	a1,a0,a1
  407bd4:	1000ff06 	b	4077f0 <__subdf3+0x4d0>
  407bd8:	000c10c2 	srl	v0,t4,0x3
  407bdc:	34a5ffff 	ori	a1,a1,0xffff
  407be0:	000a1f40 	sll	v1,t2,0x1d
  407be4:	00a62824 	and	a1,a1,a2
  407be8:	00a32825 	or	a1,a1,v1
  407bec:	1000feba 	b	4076d8 <__subdf3+0x3b8>
  407bf0:	000a18c2 	srl	v1,t2,0x3
  407bf4:	000c3740 	sll	a2,t4,0x1d
  407bf8:	14600021 	bnez	v1,407c80 <__subdf3+0x960>
  407bfc:	000c10c2 	srl	v0,t4,0x3
  407c00:	3c051fff 	lui	a1,0x1fff
  407c04:	34a5ffff 	ori	a1,a1,0xffff
  407c08:	00a42024 	and	a0,a1,a0
  407c0c:	1000fef8 	b	4077f0 <__subdf3+0x4d0>
  407c10:	00862825 	or	a1,a0,a2
  407c14:	3c051fff 	lui	a1,0x1fff
  407c18:	34a5ffff 	ori	a1,a1,0xffff
  407c1c:	00a62824 	and	a1,a1,a2
  407c20:	00a32825 	or	a1,a1,v1
  407c24:	1000feaf 	b	4076e4 <__subdf3+0x3c4>
  407c28:	000a18c2 	srl	v1,t2,0x3
  407c2c:	10440004 	beq	v0,a0,407c40 <__subdf3+0x920>
  407c30:	004c1806 	srlv	v1,t4,v0
  407c34:	00021023 	negu	v0,v0
  407c38:	004c9804 	sllv	s3,t4,v0
  407c3c:	01b36825 	or	t5,t5,s3
  407c40:	000d802b 	sltu	s0,zero,t5
  407c44:	1000fed9 	b	4077ac <__subdf3+0x48c>
  407c48:	02038025 	or	s0,s0,v1
  407c4c:	01ab8021 	addu	s0,t5,t3
  407c50:	018a9821 	addu	s3,t4,t2
  407c54:	020b182b 	sltu	v1,s0,t3
  407c58:	1000ff90 	b	407a9c <__subdf3+0x77c>
  407c5c:	02631821 	addu	v1,s3,v1
  407c60:	00002825 	move	a1,zero
  407c64:	1000fe9f 	b	4076e4 <__subdf3+0x3c4>
  407c68:	00008825 	move	s1,zero
  407c6c:	14a0fe92 	bnez	a1,4076b8 <__subdf3+0x398>
  407c70:	00000000 	nop
  407c74:	00001825 	move	v1,zero
  407c78:	1000fe9a 	b	4076e4 <__subdf3+0x3c4>
  407c7c:	00008825 	move	s1,zero
  407c80:	000a18c2 	srl	v1,t2,0x3
  407c84:	00621825 	or	v1,v1,v0
  407c88:	3c020008 	lui	v0,0x8
  407c8c:	00621824 	and	v1,v1,v0
  407c90:	1460000e 	bnez	v1,407ccc <__subdf3+0x9ac>
  407c94:	00000000 	nop
  407c98:	3c031fff 	lui	v1,0x1fff
  407c9c:	3465ffff 	ori	a1,v1,0xffff
  407ca0:	2402fff8 	li	v0,-8
  407ca4:	00a41824 	and	v1,a1,a0
  407ca8:	01821024 	and	v0,t4,v0
  407cac:	00062742 	srl	a0,a2,0x1d
  407cb0:	00441025 	or	v0,v0,a0
  407cb4:	00661825 	or	v1,v1,a2
  407cb8:	00022740 	sll	a0,v0,0x1d
  407cbc:	00651824 	and	v1,v1,a1
  407cc0:	00832825 	or	a1,a0,v1
  407cc4:	1000feca 	b	4077f0 <__subdf3+0x4d0>
  407cc8:	000210c2 	srl	v0,v0,0x3
  407ccc:	00008825 	move	s1,zero
  407cd0:	2405ffff 	li	a1,-1
  407cd4:	1000fedb 	b	407844 <__subdf3+0x524>
  407cd8:	2442ffff 	addiu	v0,v0,-1
  407cdc:	000a18c2 	srl	v1,t2,0x3
  407ce0:	00621825 	or	v1,v1,v0
  407ce4:	3c020008 	lui	v0,0x8
  407ce8:	00621824 	and	v1,v1,v0
  407cec:	1460fff7 	bnez	v1,407ccc <__subdf3+0x9ac>
  407cf0:	00000000 	nop
  407cf4:	3c021fff 	lui	v0,0x1fff
  407cf8:	3443ffff 	ori	v1,v0,0xffff
  407cfc:	00641024 	and	v0,v1,a0
  407d00:	00451025 	or	v0,v0,a1
  407d04:	00431024 	and	v0,v0,v1
  407d08:	00452825 	or	a1,v0,a1
  407d0c:	1000feb8 	b	4077f0 <__subdf3+0x4d0>
  407d10:	000c10c2 	srl	v0,t4,0x3
  407d14:	1000feb6 	b	4077f0 <__subdf3+0x4d0>
  407d18:	00601025 	move	v0,v1
  407d1c:	00000000 	nop

00407d20 <__fixdfsi>:
  407d20:	00053502 	srl	a2,a1,0x14
  407d24:	30c607ff 	andi	a2,a2,0x7ff
  407d28:	3c03000f 	lui	v1,0xf
  407d2c:	3463ffff 	ori	v1,v1,0xffff
  407d30:	28c203ff 	slti	v0,a2,1023
  407d34:	00651824 	and	v1,v1,a1
  407d38:	14400008 	bnez	v0,407d5c <__fixdfsi+0x3c>
  407d3c:	00052fc2 	srl	a1,a1,0x1f
  407d40:	28c2041e 	slti	v0,a2,1054
  407d44:	14400008 	bnez	v0,407d68 <__fixdfsi+0x48>
  407d48:	3c080010 	lui	t0,0x10
  407d4c:	3c027fff 	lui	v0,0x7fff
  407d50:	3442ffff 	ori	v0,v0,0xffff
  407d54:	03e00008 	jr	ra
  407d58:	00a21021 	addu	v0,a1,v0
  407d5c:	00001025 	move	v0,zero
  407d60:	03e00008 	jr	ra
  407d64:	00000000 	nop
  407d68:	24020433 	li	v0,1075
  407d6c:	00461023 	subu	v0,v0,a2
  407d70:	28470020 	slti	a3,v0,32
  407d74:	14e00008 	bnez	a3,407d98 <__fixdfsi+0x78>
  407d78:	00681825 	or	v1,v1,t0
  407d7c:	24020413 	li	v0,1043
  407d80:	00461023 	subu	v0,v0,a2
  407d84:	00431006 	srlv	v0,v1,v0
  407d88:	10a0fff5 	beqz	a1,407d60 <__fixdfsi+0x40>
  407d8c:	00000000 	nop
  407d90:	03e00008 	jr	ra
  407d94:	00021023 	negu	v0,v0
  407d98:	24c6fbed 	addiu	a2,a2,-1043
  407d9c:	00c31804 	sllv	v1,v1,a2
  407da0:	00441006 	srlv	v0,a0,v0
  407da4:	1000fff8 	b	407d88 <__fixdfsi+0x68>
  407da8:	00621025 	or	v0,v1,v0
  407dac:	00000000 	nop

00407db0 <__fixunsdfsi>:
  407db0:	00053502 	srl	a2,a1,0x14
  407db4:	30c607ff 	andi	a2,a2,0x7ff
  407db8:	3c03000f 	lui	v1,0xf
  407dbc:	3463ffff 	ori	v1,v1,0xffff
  407dc0:	28c203ff 	slti	v0,a2,1023
  407dc4:	00651824 	and	v1,v1,a1
  407dc8:	14400008 	bnez	v0,407dec <__fixunsdfsi+0x3c>
  407dcc:	00052fc2 	srl	a1,a1,0x1f
  407dd0:	2402041f 	li	v0,1055
  407dd4:	00451023 	subu	v0,v0,a1
  407dd8:	00c2102a 	slt	v0,a2,v0
  407ddc:	14400005 	bnez	v0,407df4 <__fixunsdfsi+0x44>
  407de0:	24a2ffff 	addiu	v0,a1,-1
  407de4:	03e00008 	jr	ra
  407de8:	00000000 	nop
  407dec:	03e00008 	jr	ra
  407df0:	00001025 	move	v0,zero
  407df4:	14a0000b 	bnez	a1,407e24 <__fixunsdfsi+0x74>
  407df8:	3c050010 	lui	a1,0x10
  407dfc:	24020433 	li	v0,1075
  407e00:	00461023 	subu	v0,v0,a2
  407e04:	28470020 	slti	a3,v0,32
  407e08:	10e00008 	beqz	a3,407e2c <__fixunsdfsi+0x7c>
  407e0c:	00651825 	or	v1,v1,a1
  407e10:	24c6fbed 	addiu	a2,a2,-1043
  407e14:	00c31804 	sllv	v1,v1,a2
  407e18:	00442006 	srlv	a0,a0,v0
  407e1c:	03e00008 	jr	ra
  407e20:	00641025 	or	v0,v1,a0
  407e24:	03e00008 	jr	ra
  407e28:	00001025 	move	v0,zero
  407e2c:	24020413 	li	v0,1043
  407e30:	00462823 	subu	a1,v0,a2
  407e34:	03e00008 	jr	ra
  407e38:	00a31006 	srlv	v0,v1,a1
  407e3c:	00000000 	nop

00407e40 <__floatsidf>:
  407e40:	3c1c0002 	lui	gp,0x2
  407e44:	279c9280 	addiu	gp,gp,-28032
  407e48:	0399e021 	addu	gp,gp,t9
  407e4c:	27bdffd8 	addiu	sp,sp,-40
  407e50:	afbc0010 	sw	gp,16(sp)
  407e54:	afbf0024 	sw	ra,36(sp)
  407e58:	afb10020 	sw	s1,32(sp)
  407e5c:	afb0001c 	sw	s0,28(sp)
  407e60:	1080001f 	beqz	a0,407ee0 <__floatsidf+0xa0>
  407e64:	00002825 	move	a1,zero
  407e68:	00808025 	move	s0,a0
  407e6c:	04800039 	bltz	a0,407f54 <__floatsidf+0x114>
  407e70:	00048fc2 	srl	s1,a0,0x1f
  407e74:	8f99812c 	lw	t9,-32468(gp)
  407e78:	00000000 	nop
  407e7c:	04110070 	bal	408040 <__clzsi2>
  407e80:	02002025 	move	a0,s0
  407e84:	2405041e 	li	a1,1054
  407e88:	00a22823 	subu	a1,a1,v0
  407e8c:	2843000b 	slti	v1,v0,11
  407e90:	10600020 	beqz	v1,407f14 <__floatsidf+0xd4>
  407e94:	30a507ff 	andi	a1,a1,0x7ff
  407e98:	2403000b 	li	v1,11
  407e9c:	00621823 	subu	v1,v1,v0
  407ea0:	24440015 	addiu	a0,v0,21
  407ea4:	00701006 	srlv	v0,s0,v1
  407ea8:	3c03000f 	lui	v1,0xf
  407eac:	3463ffff 	ori	v1,v1,0xffff
  407eb0:	8fbf0024 	lw	ra,36(sp)
  407eb4:	00431024 	and	v0,v0,v1
  407eb8:	00051d00 	sll	v1,a1,0x14
  407ebc:	00908004 	sllv	s0,s0,a0
  407ec0:	00621825 	or	v1,v1,v0
  407ec4:	00118fc0 	sll	s1,s1,0x1f
  407ec8:	00711825 	or	v1,v1,s1
  407ecc:	02001025 	move	v0,s0
  407ed0:	8fb10020 	lw	s1,32(sp)
  407ed4:	8fb0001c 	lw	s0,28(sp)
  407ed8:	03e00008 	jr	ra
  407edc:	27bd0028 	addiu	sp,sp,40
  407ee0:	8fbf0024 	lw	ra,36(sp)
  407ee4:	00001025 	move	v0,zero
  407ee8:	00051d00 	sll	v1,a1,0x14
  407eec:	00008825 	move	s1,zero
  407ef0:	00008025 	move	s0,zero
  407ef4:	00621825 	or	v1,v1,v0
  407ef8:	00118fc0 	sll	s1,s1,0x1f
  407efc:	00711825 	or	v1,v1,s1
  407f00:	02001025 	move	v0,s0
  407f04:	8fb10020 	lw	s1,32(sp)
  407f08:	8fb0001c 	lw	s0,28(sp)
  407f0c:	03e00008 	jr	ra
  407f10:	27bd0028 	addiu	sp,sp,40
  407f14:	2442fff5 	addiu	v0,v0,-11
  407f18:	3c03000f 	lui	v1,0xf
  407f1c:	00501004 	sllv	v0,s0,v0
  407f20:	3463ffff 	ori	v1,v1,0xffff
  407f24:	8fbf0024 	lw	ra,36(sp)
  407f28:	00431024 	and	v0,v0,v1
  407f2c:	00051d00 	sll	v1,a1,0x14
  407f30:	00008025 	move	s0,zero
  407f34:	00621825 	or	v1,v1,v0
  407f38:	00118fc0 	sll	s1,s1,0x1f
  407f3c:	00711825 	or	v1,v1,s1
  407f40:	02001025 	move	v0,s0
  407f44:	8fb10020 	lw	s1,32(sp)
  407f48:	8fb0001c 	lw	s0,28(sp)
  407f4c:	03e00008 	jr	ra
  407f50:	27bd0028 	addiu	sp,sp,40
  407f54:	1000ffc7 	b	407e74 <__floatsidf+0x34>
  407f58:	00048023 	negu	s0,a0
  407f5c:	00000000 	nop

00407f60 <__floatunsidf>:
  407f60:	3c1c0002 	lui	gp,0x2
  407f64:	279c9160 	addiu	gp,gp,-28320
  407f68:	0399e021 	addu	gp,gp,t9
  407f6c:	27bdffe0 	addiu	sp,sp,-32
  407f70:	afbc0010 	sw	gp,16(sp)
  407f74:	afb00018 	sw	s0,24(sp)
  407f78:	afbf001c 	sw	ra,28(sp)
  407f7c:	10800019 	beqz	a0,407fe4 <__floatunsidf+0x84>
  407f80:	00808025 	move	s0,a0
  407f84:	8f99812c 	lw	t9,-32468(gp)
  407f88:	00000000 	nop
  407f8c:	0411002c 	bal	408040 <__clzsi2>
  407f90:	00000000 	nop
  407f94:	2403041e 	li	v1,1054
  407f98:	00621823 	subu	v1,v1,v0
  407f9c:	2844000b 	slti	a0,v0,11
  407fa0:	10800019 	beqz	a0,408008 <__floatunsidf+0xa8>
  407fa4:	306307ff 	andi	v1,v1,0x7ff
  407fa8:	2404000b 	li	a0,11
  407fac:	00822023 	subu	a0,a0,v0
  407fb0:	24420015 	addiu	v0,v0,21
  407fb4:	00902006 	srlv	a0,s0,a0
  407fb8:	00508004 	sllv	s0,s0,v0
  407fbc:	3c02000f 	lui	v0,0xf
  407fc0:	8fbf001c 	lw	ra,28(sp)
  407fc4:	3442ffff 	ori	v0,v0,0xffff
  407fc8:	00821024 	and	v0,a0,v0
  407fcc:	00031d00 	sll	v1,v1,0x14
  407fd0:	00621825 	or	v1,v1,v0
  407fd4:	02001025 	move	v0,s0
  407fd8:	8fb00018 	lw	s0,24(sp)
  407fdc:	03e00008 	jr	ra
  407fe0:	27bd0020 	addiu	sp,sp,32
  407fe4:	8fbf001c 	lw	ra,28(sp)
  407fe8:	00001825 	move	v1,zero
  407fec:	00001025 	move	v0,zero
  407ff0:	00031d00 	sll	v1,v1,0x14
  407ff4:	00621825 	or	v1,v1,v0
  407ff8:	02001025 	move	v0,s0
  407ffc:	8fb00018 	lw	s0,24(sp)
  408000:	03e00008 	jr	ra
  408004:	27bd0020 	addiu	sp,sp,32
  408008:	2442fff5 	addiu	v0,v0,-11
  40800c:	3c04000f 	lui	a0,0xf
  408010:	8fbf001c 	lw	ra,28(sp)
  408014:	00501004 	sllv	v0,s0,v0
  408018:	3484ffff 	ori	a0,a0,0xffff
  40801c:	00441024 	and	v0,v0,a0
  408020:	00008025 	move	s0,zero
  408024:	00031d00 	sll	v1,v1,0x14
  408028:	00621825 	or	v1,v1,v0
  40802c:	02001025 	move	v0,s0
  408030:	8fb00018 	lw	s0,24(sp)
  408034:	03e00008 	jr	ra
  408038:	27bd0020 	addiu	sp,sp,32
  40803c:	00000000 	nop

00408040 <__clzsi2>:
  408040:	3c1c0002 	lui	gp,0x2
  408044:	279c9080 	addiu	gp,gp,-28544
  408048:	0399e021 	addu	gp,gp,t9
  40804c:	3c020001 	lui	v0,0x1
  408050:	0082102b 	sltu	v0,a0,v0
  408054:	1040000a 	beqz	v0,408080 <__clzsi2+0x40>
  408058:	3c020100 	lui	v0,0x100
  40805c:	2c820100 	sltiu	v0,a0,256
  408060:	10400017 	beqz	v0,4080c0 <__clzsi2+0x80>
  408064:	24050018 	li	a1,24
  408068:	8f838128 	lw	v1,-32472(gp)
  40806c:	24050020 	li	a1,32
  408070:	00642021 	addu	a0,v1,a0
  408074:	90820000 	lbu	v0,0(a0)
  408078:	03e00008 	jr	ra
  40807c:	00a21023 	subu	v0,a1,v0
  408080:	0082102b 	sltu	v0,a0,v0
  408084:	14400008 	bnez	v0,4080a8 <__clzsi2+0x68>
  408088:	24050010 	li	a1,16
  40808c:	8f838128 	lw	v1,-32472(gp)
  408090:	00042602 	srl	a0,a0,0x18
  408094:	00642021 	addu	a0,v1,a0
  408098:	90820000 	lbu	v0,0(a0)
  40809c:	24050008 	li	a1,8
  4080a0:	03e00008 	jr	ra
  4080a4:	00a21023 	subu	v0,a1,v0
  4080a8:	8f838128 	lw	v1,-32472(gp)
  4080ac:	00042402 	srl	a0,a0,0x10
  4080b0:	00642021 	addu	a0,v1,a0
  4080b4:	90820000 	lbu	v0,0(a0)
  4080b8:	03e00008 	jr	ra
  4080bc:	00a21023 	subu	v0,a1,v0
  4080c0:	8f838128 	lw	v1,-32472(gp)
  4080c4:	00042202 	srl	a0,a0,0x8
  4080c8:	00642021 	addu	a0,v1,a0
  4080cc:	90820000 	lbu	v0,0(a0)
  4080d0:	03e00008 	jr	ra
  4080d4:	00a21023 	subu	v0,a1,v0
	...

004080e0 <__do_global_ctors_aux>:
  4080e0:	3c020042 	lui	v0,0x42
  4080e4:	8c599000 	lw	t9,-28672(v0)
  4080e8:	2402ffff 	li	v0,-1
  4080ec:	13220013 	beq	t9,v0,40813c <__do_global_ctors_aux+0x5c>
  4080f0:	00000000 	nop
  4080f4:	27bdffd8 	addiu	sp,sp,-40
  4080f8:	afb0001c 	sw	s0,28(sp)
  4080fc:	3c100042 	lui	s0,0x42
  408100:	afb10020 	sw	s1,32(sp)
  408104:	afbf0024 	sw	ra,36(sp)
  408108:	26109000 	addiu	s0,s0,-28672
  40810c:	2411ffff 	li	s1,-1
  408110:	0320f809 	jalr	t9
  408114:	2610fffc 	addiu	s0,s0,-4
  408118:	8e190000 	lw	t9,0(s0)
  40811c:	00000000 	nop
  408120:	1731fffb 	bne	t9,s1,408110 <__do_global_ctors_aux+0x30>
  408124:	00000000 	nop
  408128:	8fbf0024 	lw	ra,36(sp)
  40812c:	8fb10020 	lw	s1,32(sp)
  408130:	8fb0001c 	lw	s0,28(sp)
  408134:	03e00008 	jr	ra
  408138:	27bd0028 	addiu	sp,sp,40
  40813c:	03e00008 	jr	ra
  408140:	00000000 	nop
	...

Disassembly of section .fini:

00408150 <_fini>:
  408150:	27bdffe0 	addiu	sp,sp,-32
  408154:	afbc0018 	sw	gp,24(sp)
  408158:	afbf001c 	sw	ra,28(sp)
  40815c:	04110001 	bal	408164 <_fini+0x14>
  408160:	00000000 	nop
  408164:	3c1c0042 	lui	gp,0x42
  408168:	279c10c0 	addiu	gp,gp,4288
  40816c:	8f998018 	lw	t9,-32744(gp)
  408170:	00000000 	nop
  408174:	2739030c 	addiu	t9,t9,780
  408178:	00000000 	nop
  40817c:	0320f809 	jalr	t9
  408180:	00000000 	nop
  408184:	8fbc0018 	lw	gp,24(sp)
  408188:	8fbf001c 	lw	ra,28(sp)
  40818c:	03e00008 	jr	ra
  408190:	27bd0020 	addiu	sp,sp,32
