
../../out/riscv64/2-muli-branch.elf:     file format elf64-littleriscv


Disassembly of section .text:

0000000000010120 <exit>:
   10120:	fe010113          	addi	sp,sp,-32
   10124:	00a13423          	sd	a0,8(sp)
   10128:	00113c23          	sd	ra,24(sp)
   1012c:	600000ef          	jal	ra,1072c <__funcs_on_exit>
   10130:	600000ef          	jal	ra,10730 <__libc_exit_fini>
   10134:	4f0030ef          	jal	ra,13624 <__stdio_exit>
   10138:	00813503          	ld	a0,8(sp)
   1013c:	0a5020ef          	jal	ra,129e0 <_Exit>

0000000000010140 <_start>:
   10140:	00008197          	auipc	gp,0x8
   10144:	6c018193          	addi	gp,gp,1728 # 18800 <__global_pointer$>
   10148:	00010513          	mv	a0,sp
   1014c:	00000593          	li	a1,0
   10150:	ff017113          	andi	sp,sp,-16
   10154:	0040006f          	j	10158 <_start_c>

0000000000010158 <_start_c>:
   10158:	00052583          	lw	a1,0(a0)
   1015c:	00010737          	lui	a4,0x10
   10160:	000106b7          	lui	a3,0x10
   10164:	00850613          	addi	a2,a0,8
   10168:	00010537          	lui	a0,0x10
   1016c:	00000793          	li	a5,0
   10170:	72c70713          	addi	a4,a4,1836 # 1072c <__funcs_on_exit>
   10174:	48068693          	addi	a3,a3,1152 # 10480 <_init>
   10178:	35050513          	addi	a0,a0,848 # 10350 <main>
   1017c:	5580006f          	j	106d4 <__libc_start_main>

0000000000010180 <deregister_tm_clones>:
   10180:	8e818713          	addi	a4,gp,-1816 # 180e8 <__TMC_END__>
   10184:	8e818793          	addi	a5,gp,-1816 # 180e8 <__TMC_END__>
   10188:	00e78a63          	beq	a5,a4,1019c <deregister_tm_clones+0x1c>
   1018c:	00000793          	li	a5,0
   10190:	00078663          	beqz	a5,1019c <deregister_tm_clones+0x1c>
   10194:	8e818513          	addi	a0,gp,-1816 # 180e8 <__TMC_END__>
   10198:	00078067          	jr	a5
   1019c:	00008067          	ret

00000000000101a0 <register_tm_clones>:
   101a0:	8e818593          	addi	a1,gp,-1816 # 180e8 <__TMC_END__>
   101a4:	8e818793          	addi	a5,gp,-1816 # 180e8 <__TMC_END__>
   101a8:	40f585b3          	sub	a1,a1,a5
   101ac:	4035d593          	srai	a1,a1,0x3
   101b0:	00200793          	li	a5,2
   101b4:	02f5c5b3          	div	a1,a1,a5
   101b8:	00058a63          	beqz	a1,101cc <register_tm_clones+0x2c>
   101bc:	00000793          	li	a5,0
   101c0:	00078663          	beqz	a5,101cc <register_tm_clones+0x2c>
   101c4:	8e818513          	addi	a0,gp,-1816 # 180e8 <__TMC_END__>
   101c8:	00078067          	jr	a5
   101cc:	00008067          	ret

00000000000101d0 <__do_global_dtors_aux>:
   101d0:	9901c703          	lbu	a4,-1648(gp) # 18190 <completed.1>
   101d4:	04071463          	bnez	a4,1021c <__do_global_dtors_aux+0x4c>
   101d8:	ff010113          	addi	sp,sp,-16
   101dc:	00813023          	sd	s0,0(sp)
   101e0:	00113423          	sd	ra,8(sp)
   101e4:	00078413          	mv	s0,a5
   101e8:	f99ff0ef          	jal	ra,10180 <deregister_tm_clones>
   101ec:	00000793          	li	a5,0
   101f0:	00078a63          	beqz	a5,10204 <__do_global_dtors_aux+0x34>
   101f4:	00017537          	lui	a0,0x17
   101f8:	9e050513          	addi	a0,a0,-1568 # 169e0 <__FRAME_END__>
   101fc:	00000097          	auipc	ra,0x0
   10200:	000000e7          	jalr	zero # 0 <exit-0x10120>
   10204:	00100793          	li	a5,1
   10208:	00813083          	ld	ra,8(sp)
   1020c:	98f18823          	sb	a5,-1648(gp) # 18190 <completed.1>
   10210:	00013403          	ld	s0,0(sp)
   10214:	01010113          	addi	sp,sp,16
   10218:	00008067          	ret
   1021c:	00008067          	ret

0000000000010220 <frame_dummy>:
   10220:	00000793          	li	a5,0
   10224:	02078463          	beqz	a5,1024c <frame_dummy+0x2c>
   10228:	00017537          	lui	a0,0x17
   1022c:	ff010113          	addi	sp,sp,-16
   10230:	99818593          	addi	a1,gp,-1640 # 18198 <object.0>
   10234:	9e050513          	addi	a0,a0,-1568 # 169e0 <__FRAME_END__>
   10238:	00113423          	sd	ra,8(sp)
   1023c:	00000097          	auipc	ra,0x0
   10240:	000000e7          	jalr	zero # 0 <exit-0x10120>
   10244:	00813083          	ld	ra,8(sp)
   10248:	01010113          	addi	sp,sp,16
   1024c:	f55ff06f          	j	101a0 <register_tm_clones>

0000000000010250 <add>:
   10250:	fe010113          	addi	sp,sp,-32
   10254:	00813c23          	sd	s0,24(sp)
   10258:	02010413          	addi	s0,sp,32
   1025c:	00050793          	mv	a5,a0
   10260:	00058713          	mv	a4,a1
   10264:	fef42623          	sw	a5,-20(s0)
   10268:	00070793          	mv	a5,a4
   1026c:	fef42423          	sw	a5,-24(s0)
   10270:	fec42703          	lw	a4,-20(s0)
   10274:	fe842783          	lw	a5,-24(s0)
   10278:	00f707bb          	addw	a5,a4,a5
   1027c:	0007879b          	sext.w	a5,a5
   10280:	00078513          	mv	a0,a5
   10284:	01813403          	ld	s0,24(sp)
   10288:	02010113          	addi	sp,sp,32
   1028c:	00008067          	ret

0000000000010290 <sub>:
   10290:	fe010113          	addi	sp,sp,-32
   10294:	00813c23          	sd	s0,24(sp)
   10298:	02010413          	addi	s0,sp,32
   1029c:	00050793          	mv	a5,a0
   102a0:	00058713          	mv	a4,a1
   102a4:	fef42623          	sw	a5,-20(s0)
   102a8:	00070793          	mv	a5,a4
   102ac:	fef42423          	sw	a5,-24(s0)
   102b0:	fec42703          	lw	a4,-20(s0)
   102b4:	fe842783          	lw	a5,-24(s0)
   102b8:	40f707bb          	subw	a5,a4,a5
   102bc:	0007879b          	sext.w	a5,a5
   102c0:	00078513          	mv	a0,a5
   102c4:	01813403          	ld	s0,24(sp)
   102c8:	02010113          	addi	sp,sp,32
   102cc:	00008067          	ret

00000000000102d0 <mul>:
   102d0:	fe010113          	addi	sp,sp,-32
   102d4:	00813c23          	sd	s0,24(sp)
   102d8:	02010413          	addi	s0,sp,32
   102dc:	00050793          	mv	a5,a0
   102e0:	00058713          	mv	a4,a1
   102e4:	fef42623          	sw	a5,-20(s0)
   102e8:	00070793          	mv	a5,a4
   102ec:	fef42423          	sw	a5,-24(s0)
   102f0:	fec42703          	lw	a4,-20(s0)
   102f4:	fe842783          	lw	a5,-24(s0)
   102f8:	02f707bb          	mulw	a5,a4,a5
   102fc:	0007879b          	sext.w	a5,a5
   10300:	00078513          	mv	a0,a5
   10304:	01813403          	ld	s0,24(sp)
   10308:	02010113          	addi	sp,sp,32
   1030c:	00008067          	ret

0000000000010310 <div>:
   10310:	fe010113          	addi	sp,sp,-32
   10314:	00813c23          	sd	s0,24(sp)
   10318:	02010413          	addi	s0,sp,32
   1031c:	00050793          	mv	a5,a0
   10320:	00058713          	mv	a4,a1
   10324:	fef42623          	sw	a5,-20(s0)
   10328:	00070793          	mv	a5,a4
   1032c:	fef42423          	sw	a5,-24(s0)
   10330:	fec42703          	lw	a4,-20(s0)
   10334:	fe842783          	lw	a5,-24(s0)
   10338:	02f747bb          	divw	a5,a4,a5
   1033c:	0007879b          	sext.w	a5,a5
   10340:	00078513          	mv	a0,a5
   10344:	01813403          	ld	s0,24(sp)
   10348:	02010113          	addi	sp,sp,32
   1034c:	00008067          	ret

0000000000010350 <main>:
   10350:	fd010113          	addi	sp,sp,-48
   10354:	02113423          	sd	ra,40(sp)
   10358:	02813023          	sd	s0,32(sp)
   1035c:	03010413          	addi	s0,sp,48
   10360:	00050793          	mv	a5,a0
   10364:	fcb43823          	sd	a1,-48(s0)
   10368:	fcf42e23          	sw	a5,-36(s0)
   1036c:	00500793          	li	a5,5
   10370:	fef42223          	sw	a5,-28(s0)
   10374:	00600793          	li	a5,6
   10378:	fef42023          	sw	a5,-32(s0)
   1037c:	fe043423          	sd	zero,-24(s0)
   10380:	fdc42703          	lw	a4,-36(s0)
   10384:	41f7579b          	sraiw	a5,a4,0x1f
   10388:	01e7d79b          	srliw	a5,a5,0x1e
   1038c:	00f7073b          	addw	a4,a4,a5
   10390:	00377713          	andi	a4,a4,3
   10394:	40f707bb          	subw	a5,a4,a5
   10398:	0007879b          	sext.w	a5,a5
   1039c:	00078693          	mv	a3,a5
   103a0:	00300713          	li	a4,3
   103a4:	06e68663          	beq	a3,a4,10410 <main+0xc0>
   103a8:	00078693          	mv	a3,a5
   103ac:	00300713          	li	a4,3
   103b0:	06d74863          	blt	a4,a3,10420 <main+0xd0>
   103b4:	00078693          	mv	a3,a5
   103b8:	00200713          	li	a4,2
   103bc:	04e68263          	beq	a3,a4,10400 <main+0xb0>
   103c0:	00078693          	mv	a3,a5
   103c4:	00200713          	li	a4,2
   103c8:	04d74c63          	blt	a4,a3,10420 <main+0xd0>
   103cc:	00078a63          	beqz	a5,103e0 <main+0x90>
   103d0:	00078713          	mv	a4,a5
   103d4:	00100793          	li	a5,1
   103d8:	00f70c63          	beq	a4,a5,103f0 <main+0xa0>
   103dc:	0440006f          	j	10420 <main+0xd0>
   103e0:	000107b7          	lui	a5,0x10
   103e4:	25078793          	addi	a5,a5,592 # 10250 <add>
   103e8:	fef43423          	sd	a5,-24(s0)
   103ec:	0380006f          	j	10424 <main+0xd4>
   103f0:	000107b7          	lui	a5,0x10
   103f4:	29078793          	addi	a5,a5,656 # 10290 <sub>
   103f8:	fef43423          	sd	a5,-24(s0)
   103fc:	0280006f          	j	10424 <main+0xd4>
   10400:	000107b7          	lui	a5,0x10
   10404:	2d078793          	addi	a5,a5,720 # 102d0 <mul>
   10408:	fef43423          	sd	a5,-24(s0)
   1040c:	0180006f          	j	10424 <main+0xd4>
   10410:	000107b7          	lui	a5,0x10
   10414:	31078793          	addi	a5,a5,784 # 10310 <div>
   10418:	fef43423          	sd	a5,-24(s0)
   1041c:	0080006f          	j	10424 <main+0xd4>
   10420:	00000013          	nop
   10424:	fe843783          	ld	a5,-24(s0)
   10428:	04078063          	beqz	a5,10468 <main+0x118>
   1042c:	fe042703          	lw	a4,-32(s0)
   10430:	fe442783          	lw	a5,-28(s0)
   10434:	fe843683          	ld	a3,-24(s0)
   10438:	00070593          	mv	a1,a4
   1043c:	00078513          	mv	a0,a5
   10440:	000680e7          	jalr	a3
   10444:	00050793          	mv	a5,a0
   10448:	00078713          	mv	a4,a5
   1044c:	fdc42783          	lw	a5,-36(s0)
   10450:	00070693          	mv	a3,a4
   10454:	fe843603          	ld	a2,-24(s0)
   10458:	00078593          	mv	a1,a5
   1045c:	000167b7          	lui	a5,0x16
   10460:	c3078513          	addi	a0,a5,-976 # 15c30 <__clzdi2+0x3c>
   10464:	314000ef          	jal	ra,10778 <printf>
   10468:	00000793          	li	a5,0
   1046c:	00078513          	mv	a0,a5
   10470:	02813083          	ld	ra,40(sp)
   10474:	02013403          	ld	s0,32(sp)
   10478:	03010113          	addi	sp,sp,48
   1047c:	00008067          	ret

0000000000010480 <_init>:
   10480:	00008067          	ret

0000000000010484 <__init_ssp>:
   10484:	00008067          	ret

0000000000010488 <__init_libc>:
   10488:	e8010113          	addi	sp,sp,-384
   1048c:	17213023          	sd	s2,352(sp)
   10490:	03010913          	addi	s2,sp,48
   10494:	16813823          	sd	s0,368(sp)
   10498:	16913423          	sd	s1,360(sp)
   1049c:	00058413          	mv	s0,a1
   104a0:	00050493          	mv	s1,a0
   104a4:	13000613          	li	a2,304
   104a8:	00000593          	li	a1,0
   104ac:	00090513          	mv	a0,s2
   104b0:	16113c23          	sd	ra,376(sp)
   104b4:	0ac020ef          	jal	ra,12560 <memset>
   104b8:	9691b423          	sd	s1,-1688(gp) # 18168 <__environ>
   104bc:	00000513          	li	a0,0
   104c0:	00351793          	slli	a5,a0,0x3
   104c4:	00f487b3          	add	a5,s1,a5
   104c8:	0007b783          	ld	a5,0(a5)
   104cc:	00150513          	addi	a0,a0,1
   104d0:	fe0798e3          	bnez	a5,104c0 <__init_libc+0x38>
   104d4:	00351513          	slli	a0,a0,0x3
   104d8:	00a48533          	add	a0,s1,a0
   104dc:	9c818793          	addi	a5,gp,-1592 # 181c8 <__libc>
   104e0:	00a7b423          	sd	a0,8(a5)
   104e4:	9c818493          	addi	s1,gp,-1592 # 181c8 <__libc>
   104e8:	02500713          	li	a4,37
   104ec:	00053783          	ld	a5,0(a0)
   104f0:	0e079e63          	bnez	a5,105ec <__init_libc+0x164>
   104f4:	0b013703          	ld	a4,176(sp)
   104f8:	94e1b823          	sd	a4,-1712(gp) # 18150 <__hwcap>
   104fc:	13013783          	ld	a5,304(sp)
   10500:	00078463          	beqz	a5,10508 <__init_libc+0x80>
   10504:	94f1b423          	sd	a5,-1720(gp) # 18148 <__sysinfo>
   10508:	06013783          	ld	a5,96(sp)
   1050c:	02f4b823          	sd	a5,48(s1)
   10510:	00041a63          	bnez	s0,10524 <__init_libc+0x9c>
   10514:	12813403          	ld	s0,296(sp)
   10518:	00041663          	bnez	s0,10524 <__init_libc+0x9c>
   1051c:	00016437          	lui	s0,0x16
   10520:	c4040413          	addi	s0,s0,-960 # 15c40 <__clzdi2+0x4c>
   10524:	9681b023          	sd	s0,-1696(gp) # 18160 <__progname_full>
   10528:	9481bc23          	sd	s0,-1704(gp) # 18158 <__progname>
   1052c:	02f00693          	li	a3,47
   10530:	00140413          	addi	s0,s0,1
   10534:	fff44703          	lbu	a4,-1(s0)
   10538:	0c071a63          	bnez	a4,1060c <__init_libc+0x184>
   1053c:	00090513          	mv	a0,s2
   10540:	2b8020ef          	jal	ra,127f8 <__init_tls>
   10544:	0f813503          	ld	a0,248(sp)
   10548:	f3dff0ef          	jal	ra,10484 <__init_ssp>
   1054c:	08813703          	ld	a4,136(sp)
   10550:	09013783          	ld	a5,144(sp)
   10554:	00f71c63          	bne	a4,a5,1056c <__init_libc+0xe4>
   10558:	09813703          	ld	a4,152(sp)
   1055c:	0a013783          	ld	a5,160(sp)
   10560:	00f71663          	bne	a4,a5,1056c <__init_libc+0xe4>
   10564:	0e813783          	ld	a5,232(sp)
   10568:	0c078263          	beqz	a5,1062c <__init_libc+0x1a4>
   1056c:	02013023          	sd	zero,32(sp)
   10570:	00100793          	li	a5,1
   10574:	02013423          	sd	zero,40(sp)
   10578:	02f12023          	sw	a5,32(sp)
   1057c:	00200793          	li	a5,2
   10580:	00013c23          	sd	zero,24(sp)
   10584:	02f12423          	sw	a5,40(sp)
   10588:	00013423          	sd	zero,8(sp)
   1058c:	00013823          	sd	zero,16(sp)
   10590:	04900893          	li	a7,73
   10594:	01810513          	addi	a0,sp,24
   10598:	00300593          	li	a1,3
   1059c:	00810613          	addi	a2,sp,8
   105a0:	00000693          	li	a3,0
   105a4:	00800713          	li	a4,8
   105a8:	00000073          	ecall
   105ac:	0005051b          	sext.w	a0,a0
   105b0:	01810793          	addi	a5,sp,24
   105b4:	02054863          	bltz	a0,105e4 <__init_libc+0x15c>
   105b8:	00008637          	lui	a2,0x8
   105bc:	000166b7          	lui	a3,0x16
   105c0:	00260613          	addi	a2,a2,2 # 8002 <exit-0x811e>
   105c4:	0067d703          	lhu	a4,6(a5)
   105c8:	02077713          	andi	a4,a4,32
   105cc:	04070863          	beqz	a4,1061c <__init_libc+0x194>
   105d0:	03800893          	li	a7,56
   105d4:	f9c00513          	li	a0,-100
   105d8:	c4868593          	addi	a1,a3,-952 # 15c48 <__clzdi2+0x54>
   105dc:	00000073          	ecall
   105e0:	02055e63          	bgez	a0,1061c <__init_libc+0x194>
   105e4:	00000023          	sb	zero,0(zero) # 0 <exit-0x10120>
   105e8:	00100073          	ebreak
   105ec:	00f76c63          	bltu	a4,a5,10604 <__init_libc+0x17c>
   105f0:	16010693          	addi	a3,sp,352
   105f4:	00379793          	slli	a5,a5,0x3
   105f8:	00f687b3          	add	a5,a3,a5
   105fc:	00853683          	ld	a3,8(a0)
   10600:	ecd7b823          	sd	a3,-304(a5)
   10604:	01050513          	addi	a0,a0,16
   10608:	ee5ff06f          	j	104ec <__init_libc+0x64>
   1060c:	00d71463          	bne	a4,a3,10614 <__init_libc+0x18c>
   10610:	9481bc23          	sd	s0,-1704(gp) # 18158 <__progname>
   10614:	00140413          	addi	s0,s0,1
   10618:	f1dff06f          	j	10534 <__init_libc+0xac>
   1061c:	00878793          	addi	a5,a5,8
   10620:	faf912e3          	bne	s2,a5,105c4 <__init_libc+0x13c>
   10624:	00100793          	li	a5,1
   10628:	00f48123          	sb	a5,2(s1)
   1062c:	17813083          	ld	ra,376(sp)
   10630:	17013403          	ld	s0,368(sp)
   10634:	16813483          	ld	s1,360(sp)
   10638:	16013903          	ld	s2,352(sp)
   1063c:	18010113          	addi	sp,sp,384
   10640:	00008067          	ret

0000000000010644 <__libc_start_init>:
   10644:	fe010113          	addi	sp,sp,-32
   10648:	00813823          	sd	s0,16(sp)
   1064c:	00913423          	sd	s1,8(sp)
   10650:	00018437          	lui	s0,0x18
   10654:	000184b7          	lui	s1,0x18
   10658:	00113c23          	sd	ra,24(sp)
   1065c:	ff040413          	addi	s0,s0,-16 # 17ff0 <__frame_dummy_init_array_entry>
   10660:	e21ff0ef          	jal	ra,10480 <_init>
   10664:	ff848493          	addi	s1,s1,-8 # 17ff8 <__do_global_dtors_aux_fini_array_entry>
   10668:	00946c63          	bltu	s0,s1,10680 <__libc_start_init+0x3c>
   1066c:	01813083          	ld	ra,24(sp)
   10670:	01013403          	ld	s0,16(sp)
   10674:	00813483          	ld	s1,8(sp)
   10678:	02010113          	addi	sp,sp,32
   1067c:	00008067          	ret
   10680:	00043783          	ld	a5,0(s0)
   10684:	00840413          	addi	s0,s0,8
   10688:	000780e7          	jalr	a5
   1068c:	fddff06f          	j	10668 <__libc_start_init+0x24>

0000000000010690 <libc_start_main_stage2>:
   10690:	fd010113          	addi	sp,sp,-48
   10694:	02813023          	sd	s0,32(sp)
   10698:	00158413          	addi	s0,a1,1
   1069c:	00341413          	slli	s0,s0,0x3
   106a0:	02113423          	sd	ra,40(sp)
   106a4:	00913c23          	sd	s1,24(sp)
   106a8:	01213823          	sd	s2,16(sp)
   106ac:	00058493          	mv	s1,a1
   106b0:	00050913          	mv	s2,a0
   106b4:	00860433          	add	s0,a2,s0
   106b8:	00c13423          	sd	a2,8(sp)
   106bc:	f89ff0ef          	jal	ra,10644 <__libc_start_init>
   106c0:	00813583          	ld	a1,8(sp)
   106c4:	00040613          	mv	a2,s0
   106c8:	00048513          	mv	a0,s1
   106cc:	000900e7          	jalr	s2
   106d0:	a51ff0ef          	jal	ra,10120 <exit>

00000000000106d4 <__libc_start_main>:
   106d4:	fd010113          	addi	sp,sp,-48
   106d8:	02813023          	sd	s0,32(sp)
   106dc:	00913c23          	sd	s1,24(sp)
   106e0:	00058413          	mv	s0,a1
   106e4:	00050493          	mv	s1,a0
   106e8:	00158513          	addi	a0,a1,1
   106ec:	00063583          	ld	a1,0(a2)
   106f0:	00351513          	slli	a0,a0,0x3
   106f4:	00a60533          	add	a0,a2,a0
   106f8:	02113423          	sd	ra,40(sp)
   106fc:	00c13423          	sd	a2,8(sp)
   10700:	d89ff0ef          	jal	ra,10488 <__init_libc>
   10704:	000107b7          	lui	a5,0x10
   10708:	69078793          	addi	a5,a5,1680 # 10690 <libc_start_main_stage2>
   1070c:	00040593          	mv	a1,s0
   10710:	02013403          	ld	s0,32(sp)
   10714:	00813603          	ld	a2,8(sp)
   10718:	02813083          	ld	ra,40(sp)
   1071c:	00048513          	mv	a0,s1
   10720:	01813483          	ld	s1,24(sp)
   10724:	03010113          	addi	sp,sp,48
   10728:	00078067          	jr	a5

000000000001072c <__funcs_on_exit>:
   1072c:	00008067          	ret

0000000000010730 <__libc_exit_fini>:
   10730:	fe010113          	addi	sp,sp,-32
   10734:	00813823          	sd	s0,16(sp)
   10738:	00913423          	sd	s1,8(sp)
   1073c:	00018437          	lui	s0,0x18
   10740:	000184b7          	lui	s1,0x18
   10744:	00113c23          	sd	ra,24(sp)
   10748:	00040413          	mv	s0,s0
   1074c:	ff848493          	addi	s1,s1,-8 # 17ff8 <__do_global_dtors_aux_fini_array_entry>
   10750:	0084ec63          	bltu	s1,s0,10768 <__libc_exit_fini+0x38>
   10754:	01013403          	ld	s0,16(sp)
   10758:	01813083          	ld	ra,24(sp)
   1075c:	00813483          	ld	s1,8(sp)
   10760:	02010113          	addi	sp,sp,32
   10764:	fc9ff06f          	j	1072c <__funcs_on_exit>
   10768:	ff843783          	ld	a5,-8(s0) # 17ff8 <__do_global_dtors_aux_fini_array_entry>
   1076c:	ff840413          	addi	s0,s0,-8
   10770:	000780e7          	jalr	a5
   10774:	fddff06f          	j	10750 <__libc_exit_fini+0x20>

0000000000010778 <printf>:
   10778:	fa010113          	addi	sp,sp,-96
   1077c:	02b13423          	sd	a1,40(sp)
   10780:	00050593          	mv	a1,a0
   10784:	00018537          	lui	a0,0x18
   10788:	02c13823          	sd	a2,48(sp)
   1078c:	00050513          	mv	a0,a0
   10790:	02810613          	addi	a2,sp,40
   10794:	00113c23          	sd	ra,24(sp)
   10798:	02d13c23          	sd	a3,56(sp)
   1079c:	04e13023          	sd	a4,64(sp)
   107a0:	04f13423          	sd	a5,72(sp)
   107a4:	05013823          	sd	a6,80(sp)
   107a8:	05113c23          	sd	a7,88(sp)
   107ac:	00c13423          	sd	a2,8(sp)
   107b0:	439010ef          	jal	ra,123e8 <vfprintf>
   107b4:	01813083          	ld	ra,24(sp)
   107b8:	06010113          	addi	sp,sp,96
   107bc:	00008067          	ret

00000000000107c0 <pop_arg>:
   107c0:	ff75859b          	addiw	a1,a1,-9
   107c4:	0005871b          	sext.w	a4,a1
   107c8:	01100793          	li	a5,17
   107cc:	0ee7ea63          	bltu	a5,a4,108c0 <pop_arg+0x100>
   107d0:	02059593          	slli	a1,a1,0x20
   107d4:	000167b7          	lui	a5,0x16
   107d8:	c5478793          	addi	a5,a5,-940 # 15c54 <__clzdi2+0x60>
   107dc:	01e5d593          	srli	a1,a1,0x1e
   107e0:	00f585b3          	add	a1,a1,a5
   107e4:	0005a703          	lw	a4,0(a1)
   107e8:	ff010113          	addi	sp,sp,-16
   107ec:	00813023          	sd	s0,0(sp)
   107f0:	00063783          	ld	a5,0(a2)
   107f4:	00113423          	sd	ra,8(sp)
   107f8:	00050413          	mv	s0,a0
   107fc:	00070067          	jr	a4
   10800:	00878713          	addi	a4,a5,8
   10804:	0007a783          	lw	a5,0(a5)
   10808:	00e63023          	sd	a4,0(a2)
   1080c:	00f43023          	sd	a5,0(s0)
   10810:	00813083          	ld	ra,8(sp)
   10814:	00013403          	ld	s0,0(sp)
   10818:	01010113          	addi	sp,sp,16
   1081c:	00008067          	ret
   10820:	00878713          	addi	a4,a5,8
   10824:	00e63023          	sd	a4,0(a2)
   10828:	0007e783          	lwu	a5,0(a5)
   1082c:	fe1ff06f          	j	1080c <pop_arg+0x4c>
   10830:	00878713          	addi	a4,a5,8
   10834:	00e63023          	sd	a4,0(a2)
   10838:	00079783          	lh	a5,0(a5)
   1083c:	fd1ff06f          	j	1080c <pop_arg+0x4c>
   10840:	00878713          	addi	a4,a5,8
   10844:	00e63023          	sd	a4,0(a2)
   10848:	0007d783          	lhu	a5,0(a5)
   1084c:	fc1ff06f          	j	1080c <pop_arg+0x4c>
   10850:	00878713          	addi	a4,a5,8
   10854:	00e63023          	sd	a4,0(a2)
   10858:	00078783          	lb	a5,0(a5)
   1085c:	fb1ff06f          	j	1080c <pop_arg+0x4c>
   10860:	00878713          	addi	a4,a5,8
   10864:	00e63023          	sd	a4,0(a2)
   10868:	0007c783          	lbu	a5,0(a5)
   1086c:	fa1ff06f          	j	1080c <pop_arg+0x4c>
   10870:	00878713          	addi	a4,a5,8
   10874:	00e63023          	sd	a4,0(a2)
   10878:	0007b783          	ld	a5,0(a5)
   1087c:	f91ff06f          	j	1080c <pop_arg+0x4c>
   10880:	0007b503          	ld	a0,0(a5)
   10884:	00878713          	addi	a4,a5,8
   10888:	00e63023          	sd	a4,0(a2)
   1088c:	24c050ef          	jal	ra,15ad8 <__extenddftf2>
   10890:	00a43023          	sd	a0,0(s0)
   10894:	00b43423          	sd	a1,8(s0)
   10898:	f79ff06f          	j	10810 <pop_arg+0x50>
   1089c:	00f78793          	addi	a5,a5,15
   108a0:	ff07f793          	andi	a5,a5,-16
   108a4:	01078713          	addi	a4,a5,16
   108a8:	00e63023          	sd	a4,0(a2)
   108ac:	0007b703          	ld	a4,0(a5)
   108b0:	0087b783          	ld	a5,8(a5)
   108b4:	00e53023          	sd	a4,0(a0) # 18000 <__stdout_FILE>
   108b8:	00f53423          	sd	a5,8(a0)
   108bc:	f55ff06f          	j	10810 <pop_arg+0x50>
   108c0:	00008067          	ret

00000000000108c4 <fmt_u>:
   108c4:	00050793          	mv	a5,a0
   108c8:	00a00693          	li	a3,10
   108cc:	00058513          	mv	a0,a1
   108d0:	00079463          	bnez	a5,108d8 <fmt_u+0x14>
   108d4:	00008067          	ret
   108d8:	02d7f733          	remu	a4,a5,a3
   108dc:	fff50513          	addi	a0,a0,-1
   108e0:	0307071b          	addiw	a4,a4,48
   108e4:	02d7d7b3          	divu	a5,a5,a3
   108e8:	00e50023          	sb	a4,0(a0)
   108ec:	fe5ff06f          	j	108d0 <fmt_u+0xc>

00000000000108f0 <getint>:
   108f0:	0cccd637          	lui	a2,0xcccd
   108f4:	800005b7          	lui	a1,0x80000
   108f8:	00050693          	mv	a3,a0
   108fc:	00900313          	li	t1,9
   10900:	00000513          	li	a0,0
   10904:	ccc60613          	addi	a2,a2,-820 # ccccccc <__global_pointer$+0xccb44cc>
   10908:	ff600e13          	li	t3,-10
   1090c:	fff5c593          	not	a1,a1
   10910:	00a00e93          	li	t4,10
   10914:	0006b703          	ld	a4,0(a3)
   10918:	00074783          	lbu	a5,0(a4)
   1091c:	fd07889b          	addiw	a7,a5,-48
   10920:	00088793          	mv	a5,a7
   10924:	01137463          	bgeu	t1,a7,1092c <getint+0x3c>
   10928:	00008067          	ret
   1092c:	02a66263          	bltu	a2,a0,10950 <getint+0x60>
   10930:	02ae083b          	mulw	a6,t3,a0
   10934:	00b8083b          	addw	a6,a6,a1
   10938:	01184c63          	blt	a6,a7,10950 <getint+0x60>
   1093c:	02ae853b          	mulw	a0,t4,a0
   10940:	00a7853b          	addw	a0,a5,a0
   10944:	00170713          	addi	a4,a4,1
   10948:	00e6b023          	sd	a4,0(a3)
   1094c:	fc9ff06f          	j	10914 <getint+0x24>
   10950:	fff00513          	li	a0,-1
   10954:	ff1ff06f          	j	10944 <getint+0x54>

0000000000010958 <out>:
   10958:	00050793          	mv	a5,a0
   1095c:	0007a703          	lw	a4,0(a5)
   10960:	00058513          	mv	a0,a1
   10964:	00060593          	mv	a1,a2
   10968:	02077713          	andi	a4,a4,32
   1096c:	00071663          	bnez	a4,10978 <out+0x20>
   10970:	00078613          	mv	a2,a5
   10974:	4200206f          	j	12d94 <__fwritex>
   10978:	00008067          	ret

000000000001097c <pad>:
   1097c:	000127b7          	lui	a5,0x12
   10980:	00f77733          	and	a4,a4,a5
   10984:	08071e63          	bnez	a4,10a20 <pad+0xa4>
   10988:	08c6dc63          	bge	a3,a2,10a20 <pad+0xa4>
   1098c:	ed010113          	addi	sp,sp,-304
   10990:	12813023          	sd	s0,288(sp)
   10994:	10913c23          	sd	s1,280(sp)
   10998:	11213823          	sd	s2,272(sp)
   1099c:	40d604bb          	subw	s1,a2,a3
   109a0:	12113423          	sd	ra,296(sp)
   109a4:	11313423          	sd	s3,264(sp)
   109a8:	10000793          	li	a5,256
   109ac:	00050913          	mv	s2,a0
   109b0:	00048413          	mv	s0,s1
   109b4:	0004861b          	sext.w	a2,s1
   109b8:	0097d463          	bge	a5,s1,109c0 <pad+0x44>
   109bc:	10000613          	li	a2,256
   109c0:	00010513          	mv	a0,sp
   109c4:	39d010ef          	jal	ra,12560 <memset>
   109c8:	0ff00993          	li	s3,255
   109cc:	0299ce63          	blt	s3,s1,10a08 <pad+0x8c>
   109d0:	0084561b          	srliw	a2,s0,0x8
   109d4:	f0000793          	li	a5,-256
   109d8:	02f6063b          	mulw	a2,a2,a5
   109dc:	00010593          	mv	a1,sp
   109e0:	00090513          	mv	a0,s2
   109e4:	0086063b          	addw	a2,a2,s0
   109e8:	f71ff0ef          	jal	ra,10958 <out>
   109ec:	12813083          	ld	ra,296(sp)
   109f0:	12013403          	ld	s0,288(sp)
   109f4:	11813483          	ld	s1,280(sp)
   109f8:	11013903          	ld	s2,272(sp)
   109fc:	10813983          	ld	s3,264(sp)
   10a00:	13010113          	addi	sp,sp,304
   10a04:	00008067          	ret
   10a08:	10000613          	li	a2,256
   10a0c:	00010593          	mv	a1,sp
   10a10:	00090513          	mv	a0,s2
   10a14:	f45ff0ef          	jal	ra,10958 <out>
   10a18:	f004849b          	addiw	s1,s1,-256
   10a1c:	fb1ff06f          	j	109cc <pad+0x50>
   10a20:	00008067          	ret

0000000000010a24 <fmt_fp>:
   10a24:	fffff2b7          	lui	t0,0xfffff
   10a28:	81010113          	addi	sp,sp,-2032
   10a2c:	a3028293          	addi	t0,t0,-1488 # ffffffffffffea30 <__global_pointer$+0xfffffffffffe6230>
   10a30:	7e813023          	sd	s0,2016(sp)
   10a34:	7c913c23          	sd	s1,2008(sp)
   10a38:	7d313423          	sd	s3,1992(sp)
   10a3c:	7d413023          	sd	s4,1984(sp)
   10a40:	7b613823          	sd	s6,1968(sp)
   10a44:	7b813023          	sd	s8,1952(sp)
   10a48:	79913c23          	sd	s9,1944(sp)
   10a4c:	7e113423          	sd	ra,2024(sp)
   10a50:	7d213823          	sd	s2,2000(sp)
   10a54:	7b513c23          	sd	s5,1976(sp)
   10a58:	7b713423          	sd	s7,1960(sp)
   10a5c:	79a13823          	sd	s10,1936(sp)
   10a60:	79b13423          	sd	s11,1928(sp)
   10a64:	00070413          	mv	s0,a4
   10a68:	00510133          	add	sp,sp,t0
   10a6c:	00002737          	lui	a4,0x2
   10a70:	00068993          	mv	s3,a3
   10a74:	d1070713          	addi	a4,a4,-752 # 1d10 <exit-0xe410>
   10a78:	04010693          	addi	a3,sp,64
   10a7c:	00078a13          	mv	s4,a5
   10a80:	00d70733          	add	a4,a4,a3
   10a84:	ffffe7b7          	lui	a5,0xffffe
   10a88:	00f707b3          	add	a5,a4,a5
   10a8c:	00050493          	mv	s1,a0
   10a90:	00058c93          	mv	s9,a1
   10a94:	00058513          	mv	a0,a1
   10a98:	00060593          	mv	a1,a2
   10a9c:	00060c13          	mv	s8,a2
   10aa0:	00080b13          	mv	s6,a6
   10aa4:	00f13023          	sd	a5,0(sp)
   10aa8:	2e07ae23          	sw	zero,764(a5) # ffffffffffffe2fc <__global_pointer$+0xfffffffffffe5afc>
   10aac:	7a9010ef          	jal	ra,12a54 <__signbitl>
   10ab0:	10050e63          	beqz	a0,10bcc <fmt_fp+0x1a8>
   10ab4:	fff00793          	li	a5,-1
   10ab8:	03f79793          	slli	a5,a5,0x3f
   10abc:	00016937          	lui	s2,0x16
   10ac0:	00fc4c33          	xor	s8,s8,a5
   10ac4:	00100a93          	li	s5,1
   10ac8:	ca090913          	addi	s2,s2,-864 # 15ca0 <__clzdi2+0xac>
   10acc:	000c8513          	mv	a0,s9
   10ad0:	000c0593          	mv	a1,s8
   10ad4:	73d010ef          	jal	ra,12a10 <__fpclassifyl>
   10ad8:	00100793          	li	a5,1
   10adc:	14a7c863          	blt	a5,a0,10c2c <fmt_fp+0x208>
   10ae0:	020b7b13          	andi	s6,s6,32
   10ae4:	120b1863          	bnez	s6,10c14 <fmt_fp+0x1f0>
   10ae8:	00016bb7          	lui	s7,0x16
   10aec:	cc0b8b93          	addi	s7,s7,-832 # 15cc0 <__clzdi2+0xcc>
   10af0:	000c8613          	mv	a2,s9
   10af4:	000c0693          	mv	a3,s8
   10af8:	000c8513          	mv	a0,s9
   10afc:	000c0593          	mv	a1,s8
   10b00:	11d030ef          	jal	ra,1441c <__eqtf2>
   10b04:	00050863          	beqz	a0,10b14 <fmt_fp+0xf0>
   10b08:	100b1c63          	bnez	s6,10c20 <fmt_fp+0x1fc>
   10b0c:	00016bb7          	lui	s7,0x16
   10b10:	cd0b8b93          	addi	s7,s7,-816 # 15cd0 <__clzdi2+0xdc>
   10b14:	ffff0737          	lui	a4,0xffff0
   10b18:	003a8b1b          	addiw	s6,s5,3
   10b1c:	fff70713          	addi	a4,a4,-1 # fffffffffffeffff <__global_pointer$+0xfffffffffffd77ff>
   10b20:	00ea7733          	and	a4,s4,a4
   10b24:	000b0693          	mv	a3,s6
   10b28:	00098613          	mv	a2,s3
   10b2c:	02000593          	li	a1,32
   10b30:	00048513          	mv	a0,s1
   10b34:	e49ff0ef          	jal	ra,1097c <pad>
   10b38:	000a8613          	mv	a2,s5
   10b3c:	00090593          	mv	a1,s2
   10b40:	00048513          	mv	a0,s1
   10b44:	e15ff0ef          	jal	ra,10958 <out>
   10b48:	00300613          	li	a2,3
   10b4c:	000b8593          	mv	a1,s7
   10b50:	00048513          	mv	a0,s1
   10b54:	e05ff0ef          	jal	ra,10958 <out>
   10b58:	00002737          	lui	a4,0x2
   10b5c:	00ea4733          	xor	a4,s4,a4
   10b60:	000b0693          	mv	a3,s6
   10b64:	00098613          	mv	a2,s3
   10b68:	02000593          	li	a1,32
   10b6c:	00048513          	mv	a0,s1
   10b70:	000b0413          	mv	s0,s6
   10b74:	e09ff0ef          	jal	ra,1097c <pad>
   10b78:	013b5463          	bge	s6,s3,10b80 <fmt_fp+0x15c>
   10b7c:	00098413          	mv	s0,s3
   10b80:	0004051b          	sext.w	a0,s0
   10b84:	000012b7          	lui	t0,0x1
   10b88:	5d028293          	addi	t0,t0,1488 # 15d0 <exit-0xeb50>
   10b8c:	00510133          	add	sp,sp,t0
   10b90:	7e813083          	ld	ra,2024(sp)
   10b94:	7e013403          	ld	s0,2016(sp)
   10b98:	7d813483          	ld	s1,2008(sp)
   10b9c:	7d013903          	ld	s2,2000(sp)
   10ba0:	7c813983          	ld	s3,1992(sp)
   10ba4:	7c013a03          	ld	s4,1984(sp)
   10ba8:	7b813a83          	ld	s5,1976(sp)
   10bac:	7b013b03          	ld	s6,1968(sp)
   10bb0:	7a813b83          	ld	s7,1960(sp)
   10bb4:	7a013c03          	ld	s8,1952(sp)
   10bb8:	79813c83          	ld	s9,1944(sp)
   10bbc:	79013d03          	ld	s10,1936(sp)
   10bc0:	78813d83          	ld	s11,1928(sp)
   10bc4:	7f010113          	addi	sp,sp,2032
   10bc8:	00008067          	ret
   10bcc:	00ba5713          	srli	a4,s4,0xb
   10bd0:	00177713          	andi	a4,a4,1
   10bd4:	000a079b          	sext.w	a5,s4
   10bd8:	00071e63          	bnez	a4,10bf4 <fmt_fp+0x1d0>
   10bdc:	0017f793          	andi	a5,a5,1
   10be0:	02079263          	bnez	a5,10c04 <fmt_fp+0x1e0>
   10be4:	00016937          	lui	s2,0x16
   10be8:	00050a93          	mv	s5,a0
   10bec:	ca190913          	addi	s2,s2,-863 # 15ca1 <__clzdi2+0xad>
   10bf0:	eddff06f          	j	10acc <fmt_fp+0xa8>
   10bf4:	00016937          	lui	s2,0x16
   10bf8:	00100a93          	li	s5,1
   10bfc:	ca390913          	addi	s2,s2,-861 # 15ca3 <__clzdi2+0xaf>
   10c00:	ecdff06f          	j	10acc <fmt_fp+0xa8>
   10c04:	00016937          	lui	s2,0x16
   10c08:	00100a93          	li	s5,1
   10c0c:	ca690913          	addi	s2,s2,-858 # 15ca6 <__clzdi2+0xb2>
   10c10:	ebdff06f          	j	10acc <fmt_fp+0xa8>
   10c14:	00016bb7          	lui	s7,0x16
   10c18:	cb8b8b93          	addi	s7,s7,-840 # 15cb8 <__clzdi2+0xc4>
   10c1c:	ed5ff06f          	j	10af0 <fmt_fp+0xcc>
   10c20:	00016bb7          	lui	s7,0x16
   10c24:	cc8b8b93          	addi	s7,s7,-824 # 15cc8 <__clzdi2+0xd4>
   10c28:	eedff06f          	j	10b14 <fmt_fp+0xf0>
   10c2c:	00002bb7          	lui	s7,0x2
   10c30:	04010713          	addi	a4,sp,64
   10c34:	ffffed37          	lui	s10,0xffffe
   10c38:	d10b8793          	addi	a5,s7,-752 # 1d10 <exit-0xe410>
   10c3c:	00e787b3          	add	a5,a5,a4
   10c40:	2fcd0613          	addi	a2,s10,764 # ffffffffffffe2fc <__global_pointer$+0xfffffffffffe5afc>
   10c44:	00c78633          	add	a2,a5,a2
   10c48:	000c8513          	mv	a0,s9
   10c4c:	000c0593          	mv	a1,s8
   10c50:	60d010ef          	jal	ra,12a5c <frexpl>
   10c54:	00050613          	mv	a2,a0
   10c58:	00058693          	mv	a3,a1
   10c5c:	4c9020ef          	jal	ra,13924 <__addtf3>
   10c60:	00000613          	li	a2,0
   10c64:	00000693          	li	a3,0
   10c68:	00050c93          	mv	s9,a0
   10c6c:	00058d93          	mv	s11,a1
   10c70:	00a13023          	sd	a0,0(sp)
   10c74:	00058c13          	mv	s8,a1
   10c78:	7a4030ef          	jal	ra,1441c <__eqtf2>
   10c7c:	000c8713          	mv	a4,s9
   10c80:	02050263          	beqz	a0,10ca4 <fmt_fp+0x280>
   10c84:	04010693          	addi	a3,sp,64
   10c88:	d10b8793          	addi	a5,s7,-752
   10c8c:	00d787b3          	add	a5,a5,a3
   10c90:	01a787b3          	add	a5,a5,s10
   10c94:	2fc7a683          	lw	a3,764(a5)
   10c98:	00f13023          	sd	a5,0(sp)
   10c9c:	fff6869b          	addiw	a3,a3,-1
   10ca0:	2ed7ae23          	sw	a3,764(a5)
   10ca4:	020b6793          	ori	a5,s6,32
   10ca8:	00f13023          	sd	a5,0(sp)
   10cac:	06100693          	li	a3,97
   10cb0:	3cd79a63          	bne	a5,a3,11084 <fmt_fp+0x660>
   10cb4:	020b7793          	andi	a5,s6,32
   10cb8:	00f13c23          	sd	a5,24(sp)
   10cbc:	00078463          	beqz	a5,10cc4 <fmt_fp+0x2a0>
   10cc0:	00990913          	addi	s2,s2,9
   10cc4:	002a879b          	addiw	a5,s5,2
   10cc8:	00078a93          	mv	s5,a5
   10ccc:	00f13023          	sd	a5,0(sp)
   10cd0:	0004079b          	sext.w	a5,s0
   10cd4:	00f13823          	sd	a5,16(sp)
   10cd8:	01a00693          	li	a3,26
   10cdc:	00016d37          	lui	s10,0x16
   10ce0:	0686e263          	bltu	a3,s0,10d44 <fmt_fp+0x320>
   10ce4:	e08d3b83          	ld	s7,-504(s10) # 15e08 <__clzdi2+0x214>
   10ce8:	01b00c13          	li	s8,27
   10cec:	408c0c3b          	subw	s8,s8,s0
   10cf0:	00000c93          	li	s9,0
   10cf4:	fff00813          	li	a6,-1
   10cf8:	000b8693          	mv	a3,s7
   10cfc:	fffc0c1b          	addiw	s8,s8,-1
   10d00:	210c1863          	bne	s8,a6,10f10 <fmt_fp+0x4ec>
   10d04:	00094603          	lbu	a2,0(s2)
   10d08:	02d00693          	li	a3,45
   10d0c:	22d61a63          	bne	a2,a3,10f40 <fmt_fp+0x51c>
   10d10:	03fc1c13          	slli	s8,s8,0x3f
   10d14:	000c8613          	mv	a2,s9
   10d18:	000b8693          	mv	a3,s7
   10d1c:	00070513          	mv	a0,a4
   10d20:	018dc5b3          	xor	a1,s11,s8
   10d24:	040040ef          	jal	ra,14d64 <__subtf3>
   10d28:	00050613          	mv	a2,a0
   10d2c:	00058693          	mv	a3,a1
   10d30:	000c8513          	mv	a0,s9
   10d34:	000b8593          	mv	a1,s7
   10d38:	3ed020ef          	jal	ra,13924 <__addtf3>
   10d3c:	00050c93          	mv	s9,a0
   10d40:	0185cc33          	xor	s8,a1,s8
   10d44:	000026b7          	lui	a3,0x2
   10d48:	ffffe7b7          	lui	a5,0xffffe
   10d4c:	04010613          	addi	a2,sp,64
   10d50:	d1068713          	addi	a4,a3,-752 # 1d10 <exit-0xe410>
   10d54:	30078b93          	addi	s7,a5,768 # ffffffffffffe300 <__global_pointer$+0xfffffffffffe5b00>
   10d58:	00c70733          	add	a4,a4,a2
   10d5c:	01770bb3          	add	s7,a4,s7
   10d60:	d1068713          	addi	a4,a3,-752
   10d64:	00c70733          	add	a4,a4,a2
   10d68:	00f707b3          	add	a5,a4,a5
   10d6c:	00f13423          	sd	a5,8(sp)
   10d70:	2fc7a783          	lw	a5,764(a5)
   10d74:	00cb8d93          	addi	s11,s7,12
   10d78:	000d8593          	mv	a1,s11
   10d7c:	41f7d51b          	sraiw	a0,a5,0x1f
   10d80:	00f547b3          	xor	a5,a0,a5
   10d84:	40a7853b          	subw	a0,a5,a0
   10d88:	b3dff0ef          	jal	ra,108c4 <fmt_u>
   10d8c:	01b51a63          	bne	a0,s11,10da0 <fmt_fp+0x37c>
   10d90:	00813703          	ld	a4,8(sp)
   10d94:	03000793          	li	a5,48
   10d98:	00bb8513          	addi	a0,s7,11
   10d9c:	30f705a3          	sb	a5,779(a4) # 230b <exit-0xde15>
   10da0:	00002737          	lui	a4,0x2
   10da4:	d1070713          	addi	a4,a4,-752 # 1d10 <exit-0xe410>
   10da8:	04010693          	addi	a3,sp,64
   10dac:	00d70733          	add	a4,a4,a3
   10db0:	ffffe7b7          	lui	a5,0xffffe
   10db4:	00f707b3          	add	a5,a4,a5
   10db8:	2fc7a703          	lw	a4,764(a5) # ffffffffffffe2fc <__global_pointer$+0xfffffffffffe5afc>
   10dbc:	00f13423          	sd	a5,8(sp)
   10dc0:	02d00793          	li	a5,45
   10dc4:	00074463          	bltz	a4,10dcc <fmt_fp+0x3a8>
   10dc8:	02b00793          	li	a5,43
   10dcc:	00002737          	lui	a4,0x2
   10dd0:	fef50fa3          	sb	a5,-1(a0)
   10dd4:	d1070713          	addi	a4,a4,-752 # 1d10 <exit-0xe410>
   10dd8:	ffffe7b7          	lui	a5,0xffffe
   10ddc:	04010693          	addi	a3,sp,64
   10de0:	31078793          	addi	a5,a5,784 # ffffffffffffe310 <__global_pointer$+0xfffffffffffe5b10>
   10de4:	00d70733          	add	a4,a4,a3
   10de8:	00f70db3          	add	s11,a4,a5
   10dec:	00016737          	lui	a4,0x16
   10df0:	05070793          	addi	a5,a4,80 # 16050 <xdigits>
   10df4:	00f13423          	sd	a5,8(sp)
   10df8:	e08d3783          	ld	a5,-504(s10)
   10dfc:	00fb0b1b          	addiw	s6,s6,15
   10e00:	ffe50b93          	addi	s7,a0,-2
   10e04:	ff650f23          	sb	s6,-2(a0)
   10e08:	02f13423          	sd	a5,40(sp)
   10e0c:	03b13023          	sd	s11,32(sp)
   10e10:	008a7d13          	andi	s10,s4,8
   10e14:	000c0593          	mv	a1,s8
   10e18:	000c8513          	mv	a0,s9
   10e1c:	249040ef          	jal	ra,15864 <__fixtfsi>
   10e20:	00813783          	ld	a5,8(sp)
   10e24:	0005051b          	sext.w	a0,a0
   10e28:	001d8b13          	addi	s6,s11,1
   10e2c:	00a78733          	add	a4,a5,a0
   10e30:	00074703          	lbu	a4,0(a4)
   10e34:	01813783          	ld	a5,24(sp)
   10e38:	00e7e733          	or	a4,a5,a4
   10e3c:	00ed8023          	sb	a4,0(s11)
   10e40:	3ad040ef          	jal	ra,159ec <__floatsitf>
   10e44:	00050613          	mv	a2,a0
   10e48:	00058693          	mv	a3,a1
   10e4c:	000c8513          	mv	a0,s9
   10e50:	000c0593          	mv	a1,s8
   10e54:	711030ef          	jal	ra,14d64 <__subtf3>
   10e58:	02813683          	ld	a3,40(sp)
   10e5c:	00000613          	li	a2,0
   10e60:	68c030ef          	jal	ra,144ec <__multf3>
   10e64:	02013783          	ld	a5,32(sp)
   10e68:	00050813          	mv	a6,a0
   10e6c:	00058713          	mv	a4,a1
   10e70:	40fb06b3          	sub	a3,s6,a5
   10e74:	00100793          	li	a5,1
   10e78:	00050c93          	mv	s9,a0
   10e7c:	00058c13          	mv	s8,a1
   10e80:	02f69c63          	bne	a3,a5,10eb8 <fmt_fp+0x494>
   10e84:	00000613          	li	a2,0
   10e88:	00000693          	li	a3,0
   10e8c:	02b13c23          	sd	a1,56(sp)
   10e90:	02a13823          	sd	a0,48(sp)
   10e94:	588030ef          	jal	ra,1441c <__eqtf2>
   10e98:	000c8813          	mv	a6,s9
   10e9c:	000c0713          	mv	a4,s8
   10ea0:	00051663          	bnez	a0,10eac <fmt_fp+0x488>
   10ea4:	00804463          	bgtz	s0,10eac <fmt_fp+0x488>
   10ea8:	020d0463          	beqz	s10,10ed0 <fmt_fp+0x4ac>
   10eac:	02e00793          	li	a5,46
   10eb0:	002d8b13          	addi	s6,s11,2
   10eb4:	00fd80a3          	sb	a5,1(s11)
   10eb8:	00000613          	li	a2,0
   10ebc:	00000693          	li	a3,0
   10ec0:	00080513          	mv	a0,a6
   10ec4:	00070593          	mv	a1,a4
   10ec8:	554030ef          	jal	ra,1441c <__eqtf2>
   10ecc:	0a051063          	bnez	a0,10f6c <fmt_fp+0x548>
   10ed0:	000027b7          	lui	a5,0x2
   10ed4:	04010693          	addi	a3,sp,64
   10ed8:	d1078793          	addi	a5,a5,-752 # 1d10 <exit-0xe410>
   10edc:	00d787b3          	add	a5,a5,a3
   10ee0:	ffffe737          	lui	a4,0xffffe
   10ee4:	00e78c33          	add	s8,a5,a4
   10ee8:	00013683          	ld	a3,0(sp)
   10eec:	30cc0c13          	addi	s8,s8,780
   10ef0:	800007b7          	lui	a5,0x80000
   10ef4:	417c0c33          	sub	s8,s8,s7
   10ef8:	ffd7c793          	xori	a5,a5,-3
   10efc:	418787b3          	sub	a5,a5,s8
   10f00:	40d787b3          	sub	a5,a5,a3
   10f04:	0687d863          	bge	a5,s0,10f74 <fmt_fp+0x550>
   10f08:	fff00513          	li	a0,-1
   10f0c:	c79ff06f          	j	10b84 <fmt_fp+0x160>
   10f10:	000c8513          	mv	a0,s9
   10f14:	000b8593          	mv	a1,s7
   10f18:	00000613          	li	a2,0
   10f1c:	00e13423          	sd	a4,8(sp)
   10f20:	5cc030ef          	jal	ra,144ec <__multf3>
   10f24:	040037b7          	lui	a5,0x4003
   10f28:	00813703          	ld	a4,8(sp)
   10f2c:	00050c93          	mv	s9,a0
   10f30:	00058b93          	mv	s7,a1
   10f34:	fff00813          	li	a6,-1
   10f38:	02479693          	slli	a3,a5,0x24
   10f3c:	dc1ff06f          	j	10cfc <fmt_fp+0x2d8>
   10f40:	00070613          	mv	a2,a4
   10f44:	000d8693          	mv	a3,s11
   10f48:	000c8513          	mv	a0,s9
   10f4c:	000b8593          	mv	a1,s7
   10f50:	1d5020ef          	jal	ra,13924 <__addtf3>
   10f54:	000c8613          	mv	a2,s9
   10f58:	000b8693          	mv	a3,s7
   10f5c:	609030ef          	jal	ra,14d64 <__subtf3>
   10f60:	00050c93          	mv	s9,a0
   10f64:	00058c13          	mv	s8,a1
   10f68:	dddff06f          	j	10d44 <fmt_fp+0x320>
   10f6c:	000b0d93          	mv	s11,s6
   10f70:	ea5ff06f          	j	10e14 <fmt_fp+0x3f0>
   10f74:	000027b7          	lui	a5,0x2
   10f78:	d1078793          	addi	a5,a5,-752 # 1d10 <exit-0xe410>
   10f7c:	04010693          	addi	a3,sp,64
   10f80:	00d787b3          	add	a5,a5,a3
   10f84:	31070713          	addi	a4,a4,784 # ffffffffffffe310 <__global_pointer$+0xfffffffffffe5b10>
   10f88:	00e78733          	add	a4,a5,a4
   10f8c:	40eb0b33          	sub	s6,s6,a4
   10f90:	000c079b          	sext.w	a5,s8
   10f94:	016c0dbb          	addw	s11,s8,s6
   10f98:	0e040263          	beqz	s0,1107c <fmt_fp+0x658>
   10f9c:	fffb0713          	addi	a4,s6,-1
   10fa0:	0ce44e63          	blt	s0,a4,1107c <fmt_fp+0x658>
   10fa4:	01013703          	ld	a4,16(sp)
   10fa8:	0027041b          	addiw	s0,a4,2
   10fac:	00f4043b          	addw	s0,s0,a5
   10fb0:	01540cbb          	addw	s9,s0,s5
   10fb4:	000a0713          	mv	a4,s4
   10fb8:	000c8693          	mv	a3,s9
   10fbc:	00098613          	mv	a2,s3
   10fc0:	02000593          	li	a1,32
   10fc4:	00048513          	mv	a0,s1
   10fc8:	9b5ff0ef          	jal	ra,1097c <pad>
   10fcc:	00013603          	ld	a2,0(sp)
   10fd0:	00090593          	mv	a1,s2
   10fd4:	00048513          	mv	a0,s1
   10fd8:	981ff0ef          	jal	ra,10958 <out>
   10fdc:	00010737          	lui	a4,0x10
   10fe0:	000c8693          	mv	a3,s9
   10fe4:	00ea4733          	xor	a4,s4,a4
   10fe8:	00098613          	mv	a2,s3
   10fec:	03000593          	li	a1,48
   10ff0:	00048513          	mv	a0,s1
   10ff4:	989ff0ef          	jal	ra,1097c <pad>
   10ff8:	000027b7          	lui	a5,0x2
   10ffc:	04010713          	addi	a4,sp,64
   11000:	ffffe5b7          	lui	a1,0xffffe
   11004:	d1078793          	addi	a5,a5,-752 # 1d10 <exit-0xe410>
   11008:	00e787b3          	add	a5,a5,a4
   1100c:	31058593          	addi	a1,a1,784 # ffffffffffffe310 <__global_pointer$+0xfffffffffffe5b10>
   11010:	00b785b3          	add	a1,a5,a1
   11014:	000b0613          	mv	a2,s6
   11018:	00048513          	mv	a0,s1
   1101c:	93dff0ef          	jal	ra,10958 <out>
   11020:	00000713          	li	a4,0
   11024:	00000693          	li	a3,0
   11028:	41b4063b          	subw	a2,s0,s11
   1102c:	03000593          	li	a1,48
   11030:	00048513          	mv	a0,s1
   11034:	949ff0ef          	jal	ra,1097c <pad>
   11038:	000c0613          	mv	a2,s8
   1103c:	000b8593          	mv	a1,s7
   11040:	00048513          	mv	a0,s1
   11044:	915ff0ef          	jal	ra,10958 <out>
   11048:	000a091b          	sext.w	s2,s4
   1104c:	00002737          	lui	a4,0x2
   11050:	00e94733          	xor	a4,s2,a4
   11054:	000c8693          	mv	a3,s9
   11058:	00098613          	mv	a2,s3
   1105c:	02000593          	li	a1,32
   11060:	00048513          	mv	a0,s1
   11064:	000c8a93          	mv	s5,s9
   11068:	915ff0ef          	jal	ra,1097c <pad>
   1106c:	013cd463          	bge	s9,s3,11074 <fmt_fp+0x650>
   11070:	00098a93          	mv	s5,s3
   11074:	000a851b          	sext.w	a0,s5
   11078:	b0dff06f          	j	10b84 <fmt_fp+0x160>
   1107c:	000d841b          	sext.w	s0,s11
   11080:	f31ff06f          	j	10fb0 <fmt_fp+0x58c>
   11084:	00045463          	bgez	s0,1108c <fmt_fp+0x668>
   11088:	00600413          	li	s0,6
   1108c:	00000613          	li	a2,0
   11090:	00000693          	li	a3,0
   11094:	00070513          	mv	a0,a4
   11098:	000d8593          	mv	a1,s11
   1109c:	00e13823          	sd	a4,16(sp)
   110a0:	37c030ef          	jal	ra,1441c <__eqtf2>
   110a4:	04050a63          	beqz	a0,110f8 <fmt_fp+0x6d4>
   110a8:	01013703          	ld	a4,16(sp)
   110ac:	000166b7          	lui	a3,0x16
   110b0:	e686b683          	ld	a3,-408(a3) # 15e68 <__clzdi2+0x274>
   110b4:	00070513          	mv	a0,a4
   110b8:	00000613          	li	a2,0
   110bc:	000d8593          	mv	a1,s11
   110c0:	42c030ef          	jal	ra,144ec <__multf3>
   110c4:	00002737          	lui	a4,0x2
   110c8:	d1070713          	addi	a4,a4,-752 # 1d10 <exit-0xe410>
   110cc:	04010693          	addi	a3,sp,64
   110d0:	00d70733          	add	a4,a4,a3
   110d4:	ffffe7b7          	lui	a5,0xffffe
   110d8:	00f707b3          	add	a5,a4,a5
   110dc:	00f13823          	sd	a5,16(sp)
   110e0:	2fc7a783          	lw	a5,764(a5) # ffffffffffffe2fc <__global_pointer$+0xfffffffffffe5afc>
   110e4:	01013703          	ld	a4,16(sp)
   110e8:	00050c93          	mv	s9,a0
   110ec:	fe47879b          	addiw	a5,a5,-28
   110f0:	00058c13          	mv	s8,a1
   110f4:	2ef72e23          	sw	a5,764(a4)
   110f8:	04c12303          	lw	t1,76(sp)
   110fc:	00002737          	lui	a4,0x2
   11100:	b4870693          	addi	a3,a4,-1208 # 1b48 <exit-0xe5d8>
   11104:	04010613          	addi	a2,sp,64
   11108:	ffffe7b7          	lui	a5,0xffffe
   1110c:	00d608b3          	add	a7,a2,a3
   11110:	00035a63          	bgez	t1,11124 <fmt_fp+0x700>
   11114:	d1070713          	addi	a4,a4,-752
   11118:	33878793          	addi	a5,a5,824 # ffffffffffffe338 <__global_pointer$+0xfffffffffffe5b38>
   1111c:	00c70733          	add	a4,a4,a2
   11120:	00f708b3          	add	a7,a4,a5
   11124:	00016737          	lui	a4,0x16
   11128:	e7873d83          	ld	s11,-392(a4) # 15e78 <__clzdi2+0x284>
   1112c:	00088d13          	mv	s10,a7
   11130:	000c0593          	mv	a1,s8
   11134:	000c8513          	mv	a0,s9
   11138:	01113c23          	sd	a7,24(sp)
   1113c:	00613823          	sd	t1,16(sp)
   11140:	7f8040ef          	jal	ra,15938 <__fixunstfsi>
   11144:	00ad2023          	sw	a0,0(s10)
   11148:	0005051b          	sext.w	a0,a0
   1114c:	129040ef          	jal	ra,15a74 <__floatunsitf>
   11150:	00050613          	mv	a2,a0
   11154:	00058693          	mv	a3,a1
   11158:	000c8513          	mv	a0,s9
   1115c:	000c0593          	mv	a1,s8
   11160:	405030ef          	jal	ra,14d64 <__subtf3>
   11164:	00000613          	li	a2,0
   11168:	000d8693          	mv	a3,s11
   1116c:	380030ef          	jal	ra,144ec <__multf3>
   11170:	00000613          	li	a2,0
   11174:	00000693          	li	a3,0
   11178:	00050c93          	mv	s9,a0
   1117c:	00058c13          	mv	s8,a1
   11180:	29c030ef          	jal	ra,1441c <__eqtf2>
   11184:	01013303          	ld	t1,16(sp)
   11188:	01813883          	ld	a7,24(sp)
   1118c:	004d0d13          	addi	s10,s10,4
   11190:	fa0510e3          	bnez	a0,11130 <fmt_fp+0x70c>
   11194:	3b9ad537          	lui	a0,0x3b9ad
   11198:	00088b93          	mv	s7,a7
   1119c:	00000713          	li	a4,0
   111a0:	01d00e13          	li	t3,29
   111a4:	a0050513          	addi	a0,a0,-1536 # 3b9aca00 <__global_pointer$+0x3b994200>
   111a8:	1a604c63          	bgtz	t1,11360 <fmt_fp+0x93c>
   111ac:	02070263          	beqz	a4,111d0 <fmt_fp+0x7ac>
   111b0:	000027b7          	lui	a5,0x2
   111b4:	d1078793          	addi	a5,a5,-752 # 1d10 <exit-0xe410>
   111b8:	04010693          	addi	a3,sp,64
   111bc:	ffffe737          	lui	a4,0xffffe
   111c0:	00d787b3          	add	a5,a5,a3
   111c4:	00e787b3          	add	a5,a5,a4
   111c8:	00f13823          	sd	a5,16(sp)
   111cc:	2e67ae23          	sw	t1,764(a5)
   111d0:	00900693          	li	a3,9
   111d4:	02d4071b          	addiw	a4,s0,45
   111d8:	02d7573b          	divuw	a4,a4,a3
   111dc:	000027b7          	lui	a5,0x2
   111e0:	04010613          	addi	a2,sp,64
   111e4:	d1078793          	addi	a5,a5,-752 # 1d10 <exit-0xe410>
   111e8:	ffffe6b7          	lui	a3,0xffffe
   111ec:	00c787b3          	add	a5,a5,a2
   111f0:	00d787b3          	add	a5,a5,a3
   111f4:	2fc7a683          	lw	a3,764(a5)
   111f8:	3b9ade37          	lui	t3,0x3b9ad
   111fc:	00f13823          	sd	a5,16(sp)
   11200:	00000613          	li	a2,0
   11204:	ff700f13          	li	t5,-9
   11208:	00100f93          	li	t6,1
   1120c:	a00e0e1b          	addiw	t3,t3,-1536
   11210:	06600293          	li	t0,102
   11214:	0017071b          	addiw	a4,a4,1
   11218:	02071713          	slli	a4,a4,0x20
   1121c:	02075713          	srli	a4,a4,0x20
   11220:	00271e93          	slli	t4,a4,0x2
   11224:	1a06c663          	bltz	a3,113d0 <fmt_fp+0x9ac>
   11228:	02060263          	beqz	a2,1124c <fmt_fp+0x828>
   1122c:	000027b7          	lui	a5,0x2
   11230:	d1078793          	addi	a5,a5,-752 # 1d10 <exit-0xe410>
   11234:	04010613          	addi	a2,sp,64
   11238:	ffffe737          	lui	a4,0xffffe
   1123c:	00c787b3          	add	a5,a5,a2
   11240:	00e787b3          	add	a5,a5,a4
   11244:	00f13823          	sd	a5,16(sp)
   11248:	2ed7ae23          	sw	a3,764(a5)
   1124c:	00000313          	li	t1,0
   11250:	03abf263          	bgeu	s7,s10,11274 <fmt_fp+0x850>
   11254:	41788333          	sub	t1,a7,s7
   11258:	000ba683          	lw	a3,0(s7)
   1125c:	40235713          	srai	a4,t1,0x2
   11260:	00900313          	li	t1,9
   11264:	02e3033b          	mulw	t1,t1,a4
   11268:	00a00613          	li	a2,10
   1126c:	00a00713          	li	a4,10
   11270:	1ee6f463          	bgeu	a3,a4,11458 <fmt_fp+0xa34>
   11274:	00013783          	ld	a5,0(sp)
   11278:	06700613          	li	a2,103
   1127c:	00000693          	li	a3,0
   11280:	f9a78713          	addi	a4,a5,-102
   11284:	00e03733          	snez	a4,a4
   11288:	0267073b          	mulw	a4,a4,t1
   1128c:	40e4073b          	subw	a4,s0,a4
   11290:	00c79463          	bne	a5,a2,11298 <fmt_fp+0x874>
   11294:	008036b3          	snez	a3,s0
   11298:	40d7063b          	subw	a2,a4,a3
   1129c:	411d0733          	sub	a4,s10,a7
   112a0:	40275713          	srai	a4,a4,0x2
   112a4:	fff70713          	addi	a4,a4,-1 # ffffffffffffdfff <__global_pointer$+0xfffffffffffe57ff>
   112a8:	00900593          	li	a1,9
   112ac:	02b70733          	mul	a4,a4,a1
   112b0:	24e65663          	bge	a2,a4,114fc <fmt_fp+0xad8>
   112b4:	00024737          	lui	a4,0x24
   112b8:	00c7073b          	addw	a4,a4,a2
   112bc:	00900613          	li	a2,9
   112c0:	02c74c3b          	divw	s8,a4,a2
   112c4:	ffff06b7          	lui	a3,0xffff0
   112c8:	00468693          	addi	a3,a3,4 # ffffffffffff0004 <__global_pointer$+0xfffffffffffd7804>
   112cc:	00a00593          	li	a1,10
   112d0:	02c7673b          	remw	a4,a4,a2
   112d4:	002c1c13          	slli	s8,s8,0x2
   112d8:	00dc0c33          	add	s8,s8,a3
   112dc:	01888c33          	add	s8,a7,s8
   112e0:	00a00693          	li	a3,10
   112e4:	00900613          	li	a2,9
   112e8:	0017071b          	addiw	a4,a4,1
   112ec:	16c71c63          	bne	a4,a2,11464 <fmt_fp+0xa40>
   112f0:	000c2d83          	lw	s11,0(s8)
   112f4:	00068e1b          	sext.w	t3,a3
   112f8:	02ddf63b          	remuw	a2,s11,a3
   112fc:	00060593          	mv	a1,a2
   11300:	00061663          	bnez	a2,1130c <fmt_fp+0x8e8>
   11304:	004c0713          	addi	a4,s8,4
   11308:	1eed0463          	beq	s10,a4,114f0 <fmt_fp+0xacc>
   1130c:	03cdd73b          	divuw	a4,s11,t3
   11310:	00177713          	andi	a4,a4,1
   11314:	02071063          	bnez	a4,11334 <fmt_fp+0x910>
   11318:	3b9ad737          	lui	a4,0x3b9ad
   1131c:	a0070713          	addi	a4,a4,-1536 # 3b9aca00 <__global_pointer$+0x3b994200>
   11320:	14e69863          	bne	a3,a4,11470 <fmt_fp+0xa4c>
   11324:	158bf663          	bgeu	s7,s8,11470 <fmt_fp+0xa4c>
   11328:	ffcc2703          	lw	a4,-4(s8)
   1132c:	00177713          	andi	a4,a4,1
   11330:	14070063          	beqz	a4,11470 <fmt_fp+0xa4c>
   11334:	00016537          	lui	a0,0x16
   11338:	e2853c83          	ld	s9,-472(a0) # 15e28 <__clzdi2+0x234>
   1133c:	00100713          	li	a4,1
   11340:	4016d693          	srai	a3,a3,0x1
   11344:	12d66e63          	bltu	a2,a3,11480 <fmt_fp+0xa5c>
   11348:	00c69663          	bne	a3,a2,11354 <fmt_fp+0x930>
   1134c:	004c0693          	addi	a3,s8,4
   11350:	38dd0e63          	beq	s10,a3,116ec <fmt_fp+0xcc8>
   11354:	000166b7          	lui	a3,0x16
   11358:	e386b683          	ld	a3,-456(a3) # 15e38 <__clzdi2+0x244>
   1135c:	12c0006f          	j	11488 <fmt_fp+0xa64>
   11360:	0003061b          	sext.w	a2,t1
   11364:	006e5463          	bge	t3,t1,1136c <fmt_fp+0x948>
   11368:	01d00613          	li	a2,29
   1136c:	ffcd0593          	addi	a1,s10,-4
   11370:	00000713          	li	a4,0
   11374:	0375f463          	bgeu	a1,s7,1139c <fmt_fp+0x978>
   11378:	00070663          	beqz	a4,11384 <fmt_fp+0x960>
   1137c:	feebae23          	sw	a4,-4(s7)
   11380:	ffcb8b93          	addi	s7,s7,-4
   11384:	01abf663          	bgeu	s7,s10,11390 <fmt_fp+0x96c>
   11388:	ffcd2703          	lw	a4,-4(s10)
   1138c:	02070e63          	beqz	a4,113c8 <fmt_fp+0x9a4>
   11390:	40c3033b          	subw	t1,t1,a2
   11394:	00100713          	li	a4,1
   11398:	e11ff06f          	j	111a8 <fmt_fp+0x784>
   1139c:	0005e683          	lwu	a3,0(a1)
   113a0:	02071713          	slli	a4,a4,0x20
   113a4:	02075713          	srli	a4,a4,0x20
   113a8:	00c696b3          	sll	a3,a3,a2
   113ac:	00e68733          	add	a4,a3,a4
   113b0:	02a776b3          	remu	a3,a4,a0
   113b4:	ffc58593          	addi	a1,a1,-4
   113b8:	02a75733          	divu	a4,a4,a0
   113bc:	00d5a223          	sw	a3,4(a1)
   113c0:	0007071b          	sext.w	a4,a4
   113c4:	fb1ff06f          	j	11374 <fmt_fp+0x950>
   113c8:	ffcd0d13          	addi	s10,s10,-4
   113cc:	fb9ff06f          	j	11384 <fmt_fp+0x960>
   113d0:	00900593          	li	a1,9
   113d4:	01e6c463          	blt	a3,t5,113dc <fmt_fp+0x9b8>
   113d8:	40d005bb          	negw	a1,a3
   113dc:	00bf93bb          	sllw	t2,t6,a1
   113e0:	fff3839b          	addiw	t2,t2,-1
   113e4:	40be5c3b          	sraw	s8,t3,a1
   113e8:	000b8613          	mv	a2,s7
   113ec:	00000513          	li	a0,0
   113f0:	05a66463          	bltu	a2,s10,11438 <fmt_fp+0xa14>
   113f4:	000ba603          	lw	a2,0(s7)
   113f8:	00061463          	bnez	a2,11400 <fmt_fp+0x9dc>
   113fc:	004b8b93          	addi	s7,s7,4
   11400:	00050663          	beqz	a0,1140c <fmt_fp+0x9e8>
   11404:	00ad2023          	sw	a0,0(s10)
   11408:	004d0d13          	addi	s10,s10,4
   1140c:	00013783          	ld	a5,0(sp)
   11410:	00088613          	mv	a2,a7
   11414:	00578463          	beq	a5,t0,1141c <fmt_fp+0x9f8>
   11418:	000b8613          	mv	a2,s7
   1141c:	40cd0533          	sub	a0,s10,a2
   11420:	40255513          	srai	a0,a0,0x2
   11424:	00a75463          	bge	a4,a0,1142c <fmt_fp+0xa08>
   11428:	01d60d33          	add	s10,a2,t4
   1142c:	00b686bb          	addw	a3,a3,a1
   11430:	00100613          	li	a2,1
   11434:	df1ff06f          	j	11224 <fmt_fp+0x800>
   11438:	00062303          	lw	t1,0(a2)
   1143c:	00460613          	addi	a2,a2,4
   11440:	00b35cbb          	srlw	s9,t1,a1
   11444:	00ac853b          	addw	a0,s9,a0
   11448:	fea62e23          	sw	a0,-4(a2)
   1144c:	00737533          	and	a0,t1,t2
   11450:	0385053b          	mulw	a0,a0,s8
   11454:	f9dff06f          	j	113f0 <fmt_fp+0x9cc>
   11458:	02e6073b          	mulw	a4,a2,a4
   1145c:	0013031b          	addiw	t1,t1,1
   11460:	e11ff06f          	j	11270 <fmt_fp+0x84c>
   11464:	02d586bb          	mulw	a3,a1,a3
   11468:	0017071b          	addiw	a4,a4,1
   1146c:	e81ff06f          	j	112ec <fmt_fp+0x8c8>
   11470:	00016537          	lui	a0,0x16
   11474:	e1853c83          	ld	s9,-488(a0) # 15e18 <__clzdi2+0x224>
   11478:	00000713          	li	a4,0
   1147c:	ec5ff06f          	j	11340 <fmt_fp+0x91c>
   11480:	000166b7          	lui	a3,0x16
   11484:	e586b683          	ld	a3,-424(a3) # 15e58 <__clzdi2+0x264>
   11488:	020a8063          	beqz	s5,114a8 <fmt_fp+0xa84>
   1148c:	00094503          	lbu	a0,0(s2)
   11490:	02d00613          	li	a2,45
   11494:	00c51a63          	bne	a0,a2,114a8 <fmt_fp+0xa84>
   11498:	fff00613          	li	a2,-1
   1149c:	03f61613          	slli	a2,a2,0x3f
   114a0:	00ccccb3          	xor	s9,s9,a2
   114a4:	00c6c6b3          	xor	a3,a3,a2
   114a8:	00000613          	li	a2,0
   114ac:	00070513          	mv	a0,a4
   114b0:	40bd8dbb          	subw	s11,s11,a1
   114b4:	000c8593          	mv	a1,s9
   114b8:	03113423          	sd	a7,40(sp)
   114bc:	01c13c23          	sd	t3,24(sp)
   114c0:	02613023          	sd	t1,32(sp)
   114c4:	00e13823          	sd	a4,16(sp)
   114c8:	45c020ef          	jal	ra,13924 <__addtf3>
   114cc:	01013703          	ld	a4,16(sp)
   114d0:	000c8693          	mv	a3,s9
   114d4:	00070613          	mv	a2,a4
   114d8:	745020ef          	jal	ra,1441c <__eqtf2>
   114dc:	01813e03          	ld	t3,24(sp)
   114e0:	02813883          	ld	a7,40(sp)
   114e4:	20051a63          	bnez	a0,116f8 <fmt_fp+0xcd4>
   114e8:	02013303          	ld	t1,32(sp)
   114ec:	01bc2023          	sw	s11,0(s8)
   114f0:	004c0c13          	addi	s8,s8,4
   114f4:	01ac7463          	bgeu	s8,s10,114fc <fmt_fp+0xad8>
   114f8:	000c0d13          	mv	s10,s8
   114fc:	01abf663          	bgeu	s7,s10,11508 <fmt_fp+0xae4>
   11500:	ffcd2703          	lw	a4,-4(s10)
   11504:	24070e63          	beqz	a4,11760 <fmt_fp+0xd3c>
   11508:	00013783          	ld	a5,0(sp)
   1150c:	06700713          	li	a4,103
   11510:	06e79a63          	bne	a5,a4,11584 <fmt_fp+0xb60>
   11514:	00041463          	bnez	s0,1151c <fmt_fp+0xaf8>
   11518:	00100413          	li	s0,1
   1151c:	24835663          	bge	t1,s0,11768 <fmt_fp+0xd44>
   11520:	ffc00713          	li	a4,-4
   11524:	24e34263          	blt	t1,a4,11768 <fmt_fp+0xd44>
   11528:	0013071b          	addiw	a4,t1,1
   1152c:	fffb0b1b          	addiw	s6,s6,-1
   11530:	40e4043b          	subw	s0,s0,a4
   11534:	008a7713          	andi	a4,s4,8
   11538:	04071663          	bnez	a4,11584 <fmt_fp+0xb60>
   1153c:	00900693          	li	a3,9
   11540:	01abf663          	bgeu	s7,s10,1154c <fmt_fp+0xb28>
   11544:	ffcd2603          	lw	a2,-4(s10)
   11548:	24061063          	bnez	a2,11788 <fmt_fp+0xd64>
   1154c:	411d0733          	sub	a4,s10,a7
   11550:	40275713          	srai	a4,a4,0x2
   11554:	00900613          	li	a2,9
   11558:	fff70713          	addi	a4,a4,-1
   1155c:	02c70733          	mul	a4,a4,a2
   11560:	06600593          	li	a1,102
   11564:	020b6613          	ori	a2,s6,32
   11568:	22b61863          	bne	a2,a1,11798 <fmt_fp+0xd74>
   1156c:	40d70733          	sub	a4,a4,a3
   11570:	00075463          	bgez	a4,11578 <fmt_fp+0xb54>
   11574:	00000713          	li	a4,0
   11578:	00e45463          	bge	s0,a4,11580 <fmt_fp+0xb5c>
   1157c:	00040713          	mv	a4,s0
   11580:	0007041b          	sext.w	s0,a4
   11584:	80000737          	lui	a4,0x80000
   11588:	ffd74713          	xori	a4,a4,-3
   1158c:	96874ee3          	blt	a4,s0,10f08 <fmt_fp+0x4e4>
   11590:	008a7c93          	andi	s9,s4,8
   11594:	01946c33          	or	s8,s0,s9
   11598:	018036b3          	snez	a3,s8
   1159c:	0014071b          	addiw	a4,s0,1
   115a0:	00e6853b          	addw	a0,a3,a4
   115a4:	000a079b          	sext.w	a5,s4
   115a8:	800006b7          	lui	a3,0x80000
   115ac:	fff6c693          	not	a3,a3
   115b0:	00f13023          	sd	a5,0(sp)
   115b4:	020b6d93          	ori	s11,s6,32
   115b8:	06600613          	li	a2,102
   115bc:	40a686bb          	subw	a3,a3,a0
   115c0:	1ecd9063          	bne	s11,a2,117a0 <fmt_fp+0xd7c>
   115c4:	9466c2e3          	blt	a3,t1,10f08 <fmt_fp+0x4e4>
   115c8:	00605463          	blez	t1,115d0 <fmt_fp+0xbac>
   115cc:	0065053b          	addw	a0,a0,t1
   115d0:	80000737          	lui	a4,0x80000
   115d4:	280a9663          	bnez	s5,11860 <fmt_fp+0xe3c>
   115d8:	fff74713          	not	a4,a4
   115dc:	01113c23          	sd	a7,24(sp)
   115e0:	0007071b          	sext.w	a4,a4
   115e4:	92a742e3          	blt	a4,a0,10f08 <fmt_fp+0x4e4>
   115e8:	01550b3b          	addw	s6,a0,s5
   115ec:	000a0713          	mv	a4,s4
   115f0:	000b0693          	mv	a3,s6
   115f4:	00098613          	mv	a2,s3
   115f8:	02000593          	li	a1,32
   115fc:	00048513          	mv	a0,s1
   11600:	01612823          	sw	s6,16(sp)
   11604:	b78ff0ef          	jal	ra,1097c <pad>
   11608:	000a8613          	mv	a2,s5
   1160c:	00090593          	mv	a1,s2
   11610:	00048513          	mv	a0,s1
   11614:	b44ff0ef          	jal	ra,10958 <out>
   11618:	00013783          	ld	a5,0(sp)
   1161c:	00010737          	lui	a4,0x10
   11620:	000b0693          	mv	a3,s6
   11624:	00e7c733          	xor	a4,a5,a4
   11628:	00098613          	mv	a2,s3
   1162c:	03000593          	li	a1,48
   11630:	00048513          	mv	a0,s1
   11634:	b48ff0ef          	jal	ra,1097c <pad>
   11638:	06600713          	li	a4,102
   1163c:	01813883          	ld	a7,24(sp)
   11640:	32ed9c63          	bne	s11,a4,11978 <fmt_fp+0xf54>
   11644:	00088913          	mv	s2,a7
   11648:	011bf463          	bgeu	s7,a7,11650 <fmt_fp+0xc2c>
   1164c:	000b8913          	mv	s2,s7
   11650:	00002737          	lui	a4,0x2
   11654:	ffffea37          	lui	s4,0xffffe
   11658:	04010693          	addi	a3,sp,64
   1165c:	d1070793          	addi	a5,a4,-752 # 1d10 <exit-0xe410>
   11660:	310a0b93          	addi	s7,s4,784 # ffffffffffffe310 <__global_pointer$+0xfffffffffffe5b10>
   11664:	00d787b3          	add	a5,a5,a3
   11668:	01778bb3          	add	s7,a5,s7
   1166c:	d1070793          	addi	a5,a4,-752
   11670:	00d787b3          	add	a5,a5,a3
   11674:	00090c93          	mv	s9,s2
   11678:	009b8d93          	addi	s11,s7,9
   1167c:	03000a93          	li	s5,48
   11680:	01478a33          	add	s4,a5,s4
   11684:	1f98f263          	bgeu	a7,s9,11868 <fmt_fp+0xe44>
   11688:	00188693          	addi	a3,a7,1
   1168c:	ffd90713          	addi	a4,s2,-3
   11690:	00000613          	li	a2,0
   11694:	00e6e863          	bltu	a3,a4,116a4 <fmt_fp+0xc80>
   11698:	00488893          	addi	a7,a7,4
   1169c:	412888b3          	sub	a7,a7,s2
   116a0:	ffc8f613          	andi	a2,a7,-4
   116a4:	00c90933          	add	s2,s2,a2
   116a8:	2c0c0463          	beqz	s8,11970 <fmt_fp+0xf4c>
   116ac:	000165b7          	lui	a1,0x16
   116b0:	00100613          	li	a2,1
   116b4:	cd858593          	addi	a1,a1,-808 # 15cd8 <__clzdi2+0xe4>
   116b8:	00048513          	mv	a0,s1
   116bc:	a9cff0ef          	jal	ra,10958 <out>
   116c0:	000027b7          	lui	a5,0x2
   116c4:	ffffea37          	lui	s4,0xffffe
   116c8:	d1078793          	addi	a5,a5,-752 # 1d10 <exit-0xe410>
   116cc:	04010713          	addi	a4,sp,64
   116d0:	310a0a13          	addi	s4,s4,784 # ffffffffffffe310 <__global_pointer$+0xfffffffffffe5b10>
   116d4:	00e787b3          	add	a5,a5,a4
   116d8:	01478a33          	add	s4,a5,s4
   116dc:	009a0a93          	addi	s5,s4,9
   116e0:	03000b93          	li	s7,48
   116e4:	00900c93          	li	s9,9
   116e8:	2280006f          	j	11910 <fmt_fp+0xeec>
   116ec:	000166b7          	lui	a3,0x16
   116f0:	e486b683          	ld	a3,-440(a3) # 15e48 <__clzdi2+0x254>
   116f4:	d95ff06f          	j	11488 <fmt_fp+0xa64>
   116f8:	01be0e3b          	addw	t3,t3,s11
   116fc:	3b9ad737          	lui	a4,0x3b9ad
   11700:	01cc2023          	sw	t3,0(s8)
   11704:	9ff70713          	addi	a4,a4,-1537 # 3b9ac9ff <__global_pointer$+0x3b9941ff>
   11708:	000c2683          	lw	a3,0(s8)
   1170c:	02d76863          	bltu	a4,a3,1173c <fmt_fp+0xd18>
   11710:	41788333          	sub	t1,a7,s7
   11714:	000ba683          	lw	a3,0(s7)
   11718:	40235713          	srai	a4,t1,0x2
   1171c:	00900313          	li	t1,9
   11720:	02e3033b          	mulw	t1,t1,a4
   11724:	00a00613          	li	a2,10
   11728:	00a00713          	li	a4,10
   1172c:	dce6e2e3          	bltu	a3,a4,114f0 <fmt_fp+0xacc>
   11730:	0013031b          	addiw	t1,t1,1
   11734:	02e6073b          	mulw	a4,a2,a4
   11738:	ff5ff06f          	j	1172c <fmt_fp+0xd08>
   1173c:	ffcc0c13          	addi	s8,s8,-4
   11740:	000c2223          	sw	zero,4(s8)
   11744:	017c7663          	bgeu	s8,s7,11750 <fmt_fp+0xd2c>
   11748:	fe0bae23          	sw	zero,-4(s7)
   1174c:	ffcb8b93          	addi	s7,s7,-4
   11750:	000c2683          	lw	a3,0(s8)
   11754:	0016869b          	addiw	a3,a3,1
   11758:	00dc2023          	sw	a3,0(s8)
   1175c:	fadff06f          	j	11708 <fmt_fp+0xce4>
   11760:	ffcd0d13          	addi	s10,s10,-4
   11764:	d99ff06f          	j	114fc <fmt_fp+0xad8>
   11768:	ffeb0b1b          	addiw	s6,s6,-2
   1176c:	fff4041b          	addiw	s0,s0,-1
   11770:	dc5ff06f          	j	11534 <fmt_fp+0xb10>
   11774:	02e5073b          	mulw	a4,a0,a4
   11778:	0016869b          	addiw	a3,a3,1
   1177c:	02e675bb          	remuw	a1,a2,a4
   11780:	fe058ae3          	beqz	a1,11774 <fmt_fp+0xd50>
   11784:	dc9ff06f          	j	1154c <fmt_fp+0xb28>
   11788:	00000693          	li	a3,0
   1178c:	00a00713          	li	a4,10
   11790:	00a00513          	li	a0,10
   11794:	fe9ff06f          	j	1177c <fmt_fp+0xd58>
   11798:	00e30733          	add	a4,t1,a4
   1179c:	dd1ff06f          	j	1156c <fmt_fp+0xb48>
   117a0:	00002737          	lui	a4,0x2
   117a4:	02d13023          	sd	a3,32(sp)
   117a8:	d1070713          	addi	a4,a4,-752 # 1d10 <exit-0xe410>
   117ac:	04010693          	addi	a3,sp,64
   117b0:	00d70733          	add	a4,a4,a3
   117b4:	ffffe7b7          	lui	a5,0xffffe
   117b8:	41f3561b          	sraiw	a2,t1,0x1f
   117bc:	00f707b3          	add	a5,a4,a5
   117c0:	30c78793          	addi	a5,a5,780 # ffffffffffffe30c <__global_pointer$+0xfffffffffffe5b0c>
   117c4:	02a12423          	sw	a0,40(sp)
   117c8:	00c34533          	xor	a0,t1,a2
   117cc:	00078593          	mv	a1,a5
   117d0:	40c5053b          	subw	a0,a0,a2
   117d4:	01113c23          	sd	a7,24(sp)
   117d8:	00613823          	sd	t1,16(sp)
   117dc:	00f13423          	sd	a5,8(sp)
   117e0:	8e4ff0ef          	jal	ra,108c4 <fmt_u>
   117e4:	00813783          	ld	a5,8(sp)
   117e8:	01013303          	ld	t1,16(sp)
   117ec:	01813883          	ld	a7,24(sp)
   117f0:	02013683          	ld	a3,32(sp)
   117f4:	02812703          	lw	a4,40(sp)
   117f8:	00100613          	li	a2,1
   117fc:	03000e13          	li	t3,48
   11800:	40a785b3          	sub	a1,a5,a0
   11804:	04b65863          	bge	a2,a1,11854 <fmt_fp+0xe30>
   11808:	02d00613          	li	a2,45
   1180c:	00034463          	bltz	t1,11814 <fmt_fp+0xdf0>
   11810:	02b00613          	li	a2,43
   11814:	ffe50793          	addi	a5,a0,-2
   11818:	00f13423          	sd	a5,8(sp)
   1181c:	000027b7          	lui	a5,0x2
   11820:	fec50fa3          	sb	a2,-1(a0)
   11824:	d1078793          	addi	a5,a5,-752 # 1d10 <exit-0xe410>
   11828:	04010613          	addi	a2,sp,64
   1182c:	00c787b3          	add	a5,a5,a2
   11830:	ff650f23          	sb	s6,-2(a0)
   11834:	ffffe537          	lui	a0,0xffffe
   11838:	00a78533          	add	a0,a5,a0
   1183c:	00813783          	ld	a5,8(sp)
   11840:	30c50513          	addi	a0,a0,780 # ffffffffffffe30c <__global_pointer$+0xfffffffffffe5b0c>
   11844:	40f50533          	sub	a0,a0,a5
   11848:	eca6c063          	blt	a3,a0,10f08 <fmt_fp+0x4e4>
   1184c:	00a7053b          	addw	a0,a4,a0
   11850:	d81ff06f          	j	115d0 <fmt_fp+0xbac>
   11854:	fff50513          	addi	a0,a0,-1
   11858:	01c50023          	sb	t3,0(a0)
   1185c:	fa5ff06f          	j	11800 <fmt_fp+0xddc>
   11860:	ffe74713          	xori	a4,a4,-2
   11864:	d79ff06f          	j	115dc <fmt_fp+0xbb8>
   11868:	000ce503          	lwu	a0,0(s9)
   1186c:	000d8593          	mv	a1,s11
   11870:	01113423          	sd	a7,8(sp)
   11874:	850ff0ef          	jal	ra,108c4 <fmt_u>
   11878:	00813883          	ld	a7,8(sp)
   1187c:	00050593          	mv	a1,a0
   11880:	00050713          	mv	a4,a0
   11884:	012c9e63          	bne	s9,s2,118a0 <fmt_fp+0xe7c>
   11888:	03b51663          	bne	a0,s11,118b4 <fmt_fp+0xe90>
   1188c:	315a0c23          	sb	s5,792(s4)
   11890:	008b8593          	addi	a1,s7,8
   11894:	0200006f          	j	118b4 <fmt_fp+0xe90>
   11898:	fff70713          	addi	a4,a4,-1
   1189c:	01570023          	sb	s5,0(a4)
   118a0:	feebece3          	bltu	s7,a4,11898 <fmt_fp+0xe74>
   118a4:	00000713          	li	a4,0
   118a8:	0175e463          	bltu	a1,s7,118b0 <fmt_fp+0xe8c>
   118ac:	40bb8733          	sub	a4,s7,a1
   118b0:	00e585b3          	add	a1,a1,a4
   118b4:	40bd8633          	sub	a2,s11,a1
   118b8:	00048513          	mv	a0,s1
   118bc:	01113423          	sd	a7,8(sp)
   118c0:	898ff0ef          	jal	ra,10958 <out>
   118c4:	00813883          	ld	a7,8(sp)
   118c8:	004c8c93          	addi	s9,s9,4
   118cc:	db9ff06f          	j	11684 <fmt_fp+0xc60>
   118d0:	00096503          	lwu	a0,0(s2)
   118d4:	000a8593          	mv	a1,s5
   118d8:	fedfe0ef          	jal	ra,108c4 <fmt_u>
   118dc:	00050713          	mv	a4,a0
   118e0:	08ea6263          	bltu	s4,a4,11964 <fmt_fp+0xf40>
   118e4:	00000593          	li	a1,0
   118e8:	01456463          	bltu	a0,s4,118f0 <fmt_fp+0xecc>
   118ec:	40aa05b3          	sub	a1,s4,a0
   118f0:	0004061b          	sext.w	a2,s0
   118f4:	008cd463          	bge	s9,s0,118fc <fmt_fp+0xed8>
   118f8:	00900613          	li	a2,9
   118fc:	00b505b3          	add	a1,a0,a1
   11900:	00048513          	mv	a0,s1
   11904:	854ff0ef          	jal	ra,10958 <out>
   11908:	00490913          	addi	s2,s2,4
   1190c:	ff74041b          	addiw	s0,s0,-9
   11910:	01a97463          	bgeu	s2,s10,11918 <fmt_fp+0xef4>
   11914:	fa804ee3          	bgtz	s0,118d0 <fmt_fp+0xeac>
   11918:	00000713          	li	a4,0
   1191c:	00900693          	li	a3,9
   11920:	0094061b          	addiw	a2,s0,9
   11924:	03000593          	li	a1,48
   11928:	00048513          	mv	a0,s1
   1192c:	850ff0ef          	jal	ra,1097c <pad>
   11930:	00013783          	ld	a5,0(sp)
   11934:	00002737          	lui	a4,0x2
   11938:	00048513          	mv	a0,s1
   1193c:	00e7c733          	xor	a4,a5,a4
   11940:	000b0693          	mv	a3,s6
   11944:	00098613          	mv	a2,s3
   11948:	02000593          	li	a1,32
   1194c:	830ff0ef          	jal	ra,1097c <pad>
   11950:	01012503          	lw	a0,16(sp)
   11954:	013b5463          	bge	s6,s3,1195c <fmt_fp+0xf38>
   11958:	00098513          	mv	a0,s3
   1195c:	0005051b          	sext.w	a0,a0
   11960:	a24ff06f          	j	10b84 <fmt_fp+0x160>
   11964:	fff70713          	addi	a4,a4,-1 # 1fff <exit-0xe121>
   11968:	01770023          	sb	s7,0(a4)
   1196c:	f75ff06f          	j	118e0 <fmt_fp+0xebc>
   11970:	00000413          	li	s0,0
   11974:	d4dff06f          	j	116c0 <fmt_fp+0xc9c>
   11978:	01abe463          	bltu	s7,s10,11980 <fmt_fp+0xf5c>
   1197c:	004b8d13          	addi	s10,s7,4
   11980:	000026b7          	lui	a3,0x2
   11984:	ffffe737          	lui	a4,0xffffe
   11988:	04010613          	addi	a2,sp,64
   1198c:	d1068793          	addi	a5,a3,-752 # 1d10 <exit-0xe410>
   11990:	00c787b3          	add	a5,a5,a2
   11994:	31070913          	addi	s2,a4,784 # ffffffffffffe310 <__global_pointer$+0xfffffffffffe5b10>
   11998:	01278933          	add	s2,a5,s2
   1199c:	d1068793          	addi	a5,a3,-752
   119a0:	00c787b3          	add	a5,a5,a2
   119a4:	00e787b3          	add	a5,a5,a4
   119a8:	00f13c23          	sd	a5,24(sp)
   119ac:	00890793          	addi	a5,s2,8
   119b0:	000b8a13          	mv	s4,s7
   119b4:	00990a93          	addi	s5,s2,9
   119b8:	02f13023          	sd	a5,32(sp)
   119bc:	01aa7463          	bgeu	s4,s10,119c4 <fmt_fp+0xfa0>
   119c0:	04045863          	bgez	s0,11a10 <fmt_fp+0xfec>
   119c4:	0124061b          	addiw	a2,s0,18
   119c8:	00048513          	mv	a0,s1
   119cc:	00000713          	li	a4,0
   119d0:	01200693          	li	a3,18
   119d4:	03000593          	li	a1,48
   119d8:	fa5fe0ef          	jal	ra,1097c <pad>
   119dc:	000027b7          	lui	a5,0x2
   119e0:	04010713          	addi	a4,sp,64
   119e4:	d1078793          	addi	a5,a5,-752 # 1d10 <exit-0xe410>
   119e8:	00e787b3          	add	a5,a5,a4
   119ec:	ffffe637          	lui	a2,0xffffe
   119f0:	00c78633          	add	a2,a5,a2
   119f4:	00813783          	ld	a5,8(sp)
   119f8:	30c60613          	addi	a2,a2,780 # ffffffffffffe30c <__global_pointer$+0xfffffffffffe5b0c>
   119fc:	00048513          	mv	a0,s1
   11a00:	40f60633          	sub	a2,a2,a5
   11a04:	00078593          	mv	a1,a5
   11a08:	f51fe0ef          	jal	ra,10958 <out>
   11a0c:	f25ff06f          	j	11930 <fmt_fp+0xf0c>
   11a10:	000a6503          	lwu	a0,0(s4)
   11a14:	000a8593          	mv	a1,s5
   11a18:	eadfe0ef          	jal	ra,108c4 <fmt_u>
   11a1c:	00050593          	mv	a1,a0
   11a20:	01551a63          	bne	a0,s5,11a34 <fmt_fp+0x1010>
   11a24:	01813783          	ld	a5,24(sp)
   11a28:	02013583          	ld	a1,32(sp)
   11a2c:	03000713          	li	a4,48
   11a30:	30e78c23          	sb	a4,792(a5)
   11a34:	00040d9b          	sext.w	s11,s0
   11a38:	00058713          	mv	a4,a1
   11a3c:	057a1063          	bne	s4,s7,11a7c <fmt_fp+0x1058>
   11a40:	00100613          	li	a2,1
   11a44:	00048513          	mv	a0,s1
   11a48:	00158c13          	addi	s8,a1,1
   11a4c:	f0dfe0ef          	jal	ra,10958 <out>
   11a50:	01bce733          	or	a4,s9,s11
   11a54:	02070e63          	beqz	a4,11a90 <fmt_fp+0x106c>
   11a58:	000167b7          	lui	a5,0x16
   11a5c:	00100613          	li	a2,1
   11a60:	cd878593          	addi	a1,a5,-808 # 15cd8 <__clzdi2+0xe4>
   11a64:	00048513          	mv	a0,s1
   11a68:	ef1fe0ef          	jal	ra,10958 <out>
   11a6c:	0240006f          	j	11a90 <fmt_fp+0x106c>
   11a70:	fff70713          	addi	a4,a4,-1
   11a74:	03000793          	li	a5,48
   11a78:	00f70023          	sb	a5,0(a4)
   11a7c:	fee96ae3          	bltu	s2,a4,11a70 <fmt_fp+0x104c>
   11a80:	00000693          	li	a3,0
   11a84:	0125e463          	bltu	a1,s2,11a8c <fmt_fp+0x1068>
   11a88:	40b906b3          	sub	a3,s2,a1
   11a8c:	00d58c33          	add	s8,a1,a3
   11a90:	418a88b3          	sub	a7,s5,s8
   11a94:	00040613          	mv	a2,s0
   11a98:	0088d463          	bge	a7,s0,11aa0 <fmt_fp+0x107c>
   11a9c:	00088613          	mv	a2,a7
   11aa0:	000c0593          	mv	a1,s8
   11aa4:	00048513          	mv	a0,s1
   11aa8:	03113423          	sd	a7,40(sp)
   11aac:	eadfe0ef          	jal	ra,10958 <out>
   11ab0:	02813883          	ld	a7,40(sp)
   11ab4:	004a0a13          	addi	s4,s4,4
   11ab8:	411d843b          	subw	s0,s11,a7
   11abc:	f01ff06f          	j	119bc <fmt_fp+0xf98>

0000000000011ac0 <printf_core>:
   11ac0:	ef010113          	addi	sp,sp,-272
   11ac4:	000167b7          	lui	a5,0x16
   11ac8:	e8078793          	addi	a5,a5,-384 # 15e80 <states>
   11acc:	0ba13823          	sd	s10,176(sp)
   11ad0:	00016d37          	lui	s10,0x16
   11ad4:	0f313423          	sd	s3,232(sp)
   11ad8:	00f13823          	sd	a5,16(sp)
   11adc:	000169b7          	lui	s3,0x16
   11ae0:	cf8d0793          	addi	a5,s10,-776 # 15cf8 <__clzdi2+0x104>
   11ae4:	10813023          	sd	s0,256(sp)
   11ae8:	0f213823          	sd	s2,240(sp)
   11aec:	0f413023          	sd	s4,224(sp)
   11af0:	0d613823          	sd	s6,208(sp)
   11af4:	0d813023          	sd	s8,192(sp)
   11af8:	0b913c23          	sd	s9,184(sp)
   11afc:	10113423          	sd	ra,264(sp)
   11b00:	0e913c23          	sd	s1,248(sp)
   11b04:	0d513c23          	sd	s5,216(sp)
   11b08:	0d713423          	sd	s7,200(sp)
   11b0c:	0bb13423          	sd	s11,168(sp)
   11b10:	00050413          	mv	s0,a0
   11b14:	00060a13          	mv	s4,a2
   11b18:	00d13023          	sd	a3,0(sp)
   11b1c:	00070b13          	mv	s6,a4
   11b20:	04b13023          	sd	a1,64(sp)
   11b24:	00000c93          	li	s9,0
   11b28:	00000913          	li	s2,0
   11b2c:	00000c13          	li	s8,0
   11b30:	ce098993          	addi	s3,s3,-800 # 15ce0 <__clzdi2+0xec>
   11b34:	00f13c23          	sd	a5,24(sp)
   11b38:	04013b83          	ld	s7,64(sp)
   11b3c:	012c893b          	addw	s2,s9,s2
   11b40:	00090d93          	mv	s11,s2
   11b44:	000bc783          	lbu	a5,0(s7)
   11b48:	02078ee3          	beqz	a5,12384 <printf_core+0x8c4>
   11b4c:	02500713          	li	a4,37
   11b50:	04013303          	ld	t1,64(sp)
   11b54:	00034783          	lbu	a5,0(t1)
   11b58:	00078463          	beqz	a5,11b60 <printf_core+0xa0>
   11b5c:	00e79663          	bne	a5,a4,11b68 <printf_core+0xa8>
   11b60:	02500713          	li	a4,37
   11b64:	01c0006f          	j	11b80 <printf_core+0xc0>
   11b68:	00130313          	addi	t1,t1,1
   11b6c:	04613023          	sd	t1,64(sp)
   11b70:	fe1ff06f          	j	11b50 <printf_core+0x90>
   11b74:	00278793          	addi	a5,a5,2
   11b78:	00130313          	addi	t1,t1,1
   11b7c:	04f13023          	sd	a5,64(sp)
   11b80:	04013783          	ld	a5,64(sp)
   11b84:	0007c683          	lbu	a3,0(a5)
   11b88:	00e69663          	bne	a3,a4,11b94 <printf_core+0xd4>
   11b8c:	0017c683          	lbu	a3,1(a5)
   11b90:	fee682e3          	beq	a3,a4,11b74 <printf_core+0xb4>
   11b94:	80000ab7          	lui	s5,0x80000
   11b98:	fffaca93          	not	s5,s5
   11b9c:	41ba87bb          	subw	a5,s5,s11
   11ba0:	41730333          	sub	t1,t1,s7
   11ba4:	00f13423          	sd	a5,8(sp)
   11ba8:	7467ca63          	blt	a5,t1,122fc <printf_core+0x83c>
   11bac:	00030c9b          	sext.w	s9,t1
   11bb0:	00040a63          	beqz	s0,11bc4 <printf_core+0x104>
   11bb4:	000c8613          	mv	a2,s9
   11bb8:	000b8593          	mv	a1,s7
   11bbc:	00040513          	mv	a0,s0
   11bc0:	d99fe0ef          	jal	ra,10958 <out>
   11bc4:	720c9863          	bnez	s9,122f4 <printf_core+0x834>
   11bc8:	04013783          	ld	a5,64(sp)
   11bcc:	00900713          	li	a4,9
   11bd0:	0017c683          	lbu	a3,1(a5)
   11bd4:	fd06869b          	addiw	a3,a3,-48
   11bd8:	18d76663          	bltu	a4,a3,11d64 <printf_core+0x2a4>
   11bdc:	0027c603          	lbu	a2,2(a5)
   11be0:	02400713          	li	a4,36
   11be4:	18e61063          	bne	a2,a4,11d64 <printf_core+0x2a4>
   11be8:	00378793          	addi	a5,a5,3
   11bec:	00100c13          	li	s8,1
   11bf0:	00013537          	lui	a0,0x13
   11bf4:	04f13023          	sd	a5,64(sp)
   11bf8:	00000d13          	li	s10,0
   11bfc:	01f00893          	li	a7,31
   11c00:	8895051b          	addiw	a0,a0,-1911
   11c04:	00100e93          	li	t4,1
   11c08:	04013703          	ld	a4,64(sp)
   11c0c:	00074803          	lbu	a6,0(a4)
   11c10:	fe08061b          	addiw	a2,a6,-32
   11c14:	00c8e863          	bltu	a7,a2,11c24 <printf_core+0x164>
   11c18:	00c555bb          	srlw	a1,a0,a2
   11c1c:	0015f593          	andi	a1,a1,1
   11c20:	14059863          	bnez	a1,11d70 <printf_core+0x2b0>
   11c24:	02a00613          	li	a2,42
   11c28:	18c81e63          	bne	a6,a2,11dc4 <printf_core+0x304>
   11c2c:	00174603          	lbu	a2,1(a4)
   11c30:	00900593          	li	a1,9
   11c34:	fd06051b          	addiw	a0,a2,-48
   11c38:	14a5e863          	bltu	a1,a0,11d88 <printf_core+0x2c8>
   11c3c:	00274503          	lbu	a0,2(a4)
   11c40:	02400593          	li	a1,36
   11c44:	14b51263          	bne	a0,a1,11d88 <printf_core+0x2c8>
   11c48:	00261613          	slli	a2,a2,0x2
   11c4c:	00cb0633          	add	a2,s6,a2
   11c50:	00a00593          	li	a1,10
   11c54:	f4b62023          	sw	a1,-192(a2)
   11c58:	00174603          	lbu	a2,1(a4)
   11c5c:	00013783          	ld	a5,0(sp)
   11c60:	00370713          	addi	a4,a4,3
   11c64:	00461613          	slli	a2,a2,0x4
   11c68:	00c78633          	add	a2,a5,a2
   11c6c:	d0062483          	lw	s1,-768(a2)
   11c70:	04e13023          	sd	a4,64(sp)
   11c74:	00100c13          	li	s8,1
   11c78:	0004d863          	bgez	s1,11c88 <printf_core+0x1c8>
   11c7c:	00002737          	lui	a4,0x2
   11c80:	00ed6d33          	or	s10,s10,a4
   11c84:	409004bb          	negw	s1,s1
   11c88:	04013703          	ld	a4,64(sp)
   11c8c:	02e00613          	li	a2,46
   11c90:	00074583          	lbu	a1,0(a4) # 2000 <exit-0xe120>
   11c94:	18c59a63          	bne	a1,a2,11e28 <printf_core+0x368>
   11c98:	00174583          	lbu	a1,1(a4)
   11c9c:	02a00613          	li	a2,42
   11ca0:	16c59263          	bne	a1,a2,11e04 <printf_core+0x344>
   11ca4:	00274603          	lbu	a2,2(a4)
   11ca8:	00900593          	li	a1,9
   11cac:	fd06051b          	addiw	a0,a2,-48
   11cb0:	12a5e863          	bltu	a1,a0,11de0 <printf_core+0x320>
   11cb4:	00374503          	lbu	a0,3(a4)
   11cb8:	02400593          	li	a1,36
   11cbc:	12b51263          	bne	a0,a1,11de0 <printf_core+0x320>
   11cc0:	00261613          	slli	a2,a2,0x2
   11cc4:	00cb0633          	add	a2,s6,a2
   11cc8:	00a00593          	li	a1,10
   11ccc:	f4b62023          	sw	a1,-192(a2)
   11cd0:	00274603          	lbu	a2,2(a4)
   11cd4:	00013783          	ld	a5,0(sp)
   11cd8:	00470713          	addi	a4,a4,4
   11cdc:	00461613          	slli	a2,a2,0x4
   11ce0:	00c78633          	add	a2,a5,a2
   11ce4:	d0062a83          	lw	s5,-768(a2)
   11ce8:	fffacf13          	not	t5,s5
   11cec:	04e13023          	sd	a4,64(sp)
   11cf0:	01ff5f1b          	srliw	t5,t5,0x1f
   11cf4:	00000713          	li	a4,0
   11cf8:	03900e93          	li	t4,57
   11cfc:	03a00813          	li	a6,58
   11d00:	00700513          	li	a0,7
   11d04:	04013603          	ld	a2,64(sp)
   11d08:	00064583          	lbu	a1,0(a2)
   11d0c:	fbf5859b          	addiw	a1,a1,-65
   11d10:	06beee63          	bltu	t4,a1,11d8c <printf_core+0x2cc>
   11d14:	00160593          	addi	a1,a2,1
   11d18:	04b13023          	sd	a1,64(sp)
   11d1c:	00064603          	lbu	a2,0(a2)
   11d20:	01013783          	ld	a5,16(sp)
   11d24:	fbf6059b          	addiw	a1,a2,-65
   11d28:	02071613          	slli	a2,a4,0x20
   11d2c:	02065613          	srli	a2,a2,0x20
   11d30:	03060633          	mul	a2,a2,a6
   11d34:	00c78633          	add	a2,a5,a2
   11d38:	00b60633          	add	a2,a2,a1
   11d3c:	00064f83          	lbu	t6,0(a2)
   11d40:	ffff861b          	addiw	a2,t6,-1
   11d44:	000f859b          	sext.w	a1,t6
   11d48:	0ec57663          	bgeu	a0,a2,11e34 <printf_core+0x374>
   11d4c:	04058063          	beqz	a1,11d8c <printf_core+0x2cc>
   11d50:	01b00613          	li	a2,27
   11d54:	0ec59463          	bne	a1,a2,11e3c <printf_core+0x37c>
   11d58:	0206da63          	bgez	a3,11d8c <printf_core+0x2cc>
   11d5c:	16041a63          	bnez	s0,11ed0 <printf_core+0x410>
   11d60:	dd9ff06f          	j	11b38 <printf_core+0x78>
   11d64:	00178793          	addi	a5,a5,1
   11d68:	fff00693          	li	a3,-1
   11d6c:	e85ff06f          	j	11bf0 <printf_core+0x130>
   11d70:	00ce963b          	sllw	a2,t4,a2
   11d74:	00cd67b3          	or	a5,s10,a2
   11d78:	00170713          	addi	a4,a4,1
   11d7c:	00078d1b          	sext.w	s10,a5
   11d80:	04e13023          	sd	a4,64(sp)
   11d84:	e85ff06f          	j	11c08 <printf_core+0x148>
   11d88:	000c0c63          	beqz	s8,11da0 <printf_core+0x2e0>
   11d8c:	409000ef          	jal	ra,12994 <__errno_location>
   11d90:	01600793          	li	a5,22
   11d94:	00f52023          	sw	a5,0(a0) # 13000 <memcpy+0x24>
   11d98:	fff00913          	li	s2,-1
   11d9c:	0d80006f          	j	11e74 <printf_core+0x3b4>
   11da0:	00000493          	li	s1,0
   11da4:	00040a63          	beqz	s0,11db8 <printf_core+0x2f8>
   11da8:	000a3603          	ld	a2,0(s4)
   11dac:	00062483          	lw	s1,0(a2)
   11db0:	00860593          	addi	a1,a2,8
   11db4:	00ba3023          	sd	a1,0(s4)
   11db8:	00170713          	addi	a4,a4,1
   11dbc:	04e13023          	sd	a4,64(sp)
   11dc0:	eb9ff06f          	j	11c78 <printf_core+0x1b8>
   11dc4:	04010513          	addi	a0,sp,64
   11dc8:	02d13023          	sd	a3,32(sp)
   11dcc:	b25fe0ef          	jal	ra,108f0 <getint>
   11dd0:	02013683          	ld	a3,32(sp)
   11dd4:	00050493          	mv	s1,a0
   11dd8:	ea0558e3          	bgez	a0,11c88 <printf_core+0x1c8>
   11ddc:	5200006f          	j	122fc <printf_core+0x83c>
   11de0:	fa0c16e3          	bnez	s8,11d8c <printf_core+0x2cc>
   11de4:	00000a93          	li	s5,0
   11de8:	00040a63          	beqz	s0,11dfc <printf_core+0x33c>
   11dec:	000a3603          	ld	a2,0(s4)
   11df0:	00062a83          	lw	s5,0(a2)
   11df4:	00860593          	addi	a1,a2,8
   11df8:	00ba3023          	sd	a1,0(s4)
   11dfc:	00270713          	addi	a4,a4,2
   11e00:	ee9ff06f          	j	11ce8 <printf_core+0x228>
   11e04:	00170713          	addi	a4,a4,1
   11e08:	04010513          	addi	a0,sp,64
   11e0c:	02d13023          	sd	a3,32(sp)
   11e10:	04e13023          	sd	a4,64(sp)
   11e14:	addfe0ef          	jal	ra,108f0 <getint>
   11e18:	02013683          	ld	a3,32(sp)
   11e1c:	00050a93          	mv	s5,a0
   11e20:	00100f13          	li	t5,1
   11e24:	ed1ff06f          	j	11cf4 <printf_core+0x234>
   11e28:	00000f13          	li	t5,0
   11e2c:	fff00a93          	li	s5,-1
   11e30:	ec5ff06f          	j	11cf4 <printf_core+0x234>
   11e34:	00058713          	mv	a4,a1
   11e38:	ecdff06f          	j	11d04 <printf_core+0x244>
   11e3c:	0206c863          	bltz	a3,11e6c <printf_core+0x3ac>
   11e40:	00013783          	ld	a5,0(sp)
   11e44:	00269613          	slli	a2,a3,0x2
   11e48:	00469693          	slli	a3,a3,0x4
   11e4c:	00cb0633          	add	a2,s6,a2
   11e50:	00d786b3          	add	a3,a5,a3
   11e54:	01f62023          	sw	t6,0(a2)
   11e58:	0006b603          	ld	a2,0(a3)
   11e5c:	0086b683          	ld	a3,8(a3)
   11e60:	04c13823          	sd	a2,80(sp)
   11e64:	04d13c23          	sd	a3,88(sp)
   11e68:	ef5ff06f          	j	11d5c <printf_core+0x29c>
   11e6c:	04041463          	bnez	s0,11eb4 <printf_core+0x3f4>
   11e70:	00000913          	li	s2,0
   11e74:	10813083          	ld	ra,264(sp)
   11e78:	10013403          	ld	s0,256(sp)
   11e7c:	0f813483          	ld	s1,248(sp)
   11e80:	0e813983          	ld	s3,232(sp)
   11e84:	0e013a03          	ld	s4,224(sp)
   11e88:	0d813a83          	ld	s5,216(sp)
   11e8c:	0d013b03          	ld	s6,208(sp)
   11e90:	0c813b83          	ld	s7,200(sp)
   11e94:	0c013c03          	ld	s8,192(sp)
   11e98:	0b813c83          	ld	s9,184(sp)
   11e9c:	0b013d03          	ld	s10,176(sp)
   11ea0:	0a813d83          	ld	s11,168(sp)
   11ea4:	00090513          	mv	a0,s2
   11ea8:	0f013903          	ld	s2,240(sp)
   11eac:	11010113          	addi	sp,sp,272
   11eb0:	00008067          	ret
   11eb4:	000a0613          	mv	a2,s4
   11eb8:	05010513          	addi	a0,sp,80
   11ebc:	02e13423          	sd	a4,40(sp)
   11ec0:	03e13023          	sd	t5,32(sp)
   11ec4:	8fdfe0ef          	jal	ra,107c0 <pop_arg>
   11ec8:	02013f03          	ld	t5,32(sp)
   11ecc:	02813703          	ld	a4,40(sp)
   11ed0:	04013683          	ld	a3,64(sp)
   11ed4:	fff6c683          	lbu	a3,-1(a3)
   11ed8:	0006881b          	sext.w	a6,a3
   11edc:	00070a63          	beqz	a4,11ef0 <printf_core+0x430>
   11ee0:	00f6f693          	andi	a3,a3,15
   11ee4:	00300613          	li	a2,3
   11ee8:	00c69463          	bne	a3,a2,11ef0 <printf_core+0x430>
   11eec:	0df87813          	andi	a6,a6,223
   11ef0:	00dd5693          	srli	a3,s10,0xd
   11ef4:	0016f693          	andi	a3,a3,1
   11ef8:	00068863          	beqz	a3,11f08 <printf_core+0x448>
   11efc:	ffff06b7          	lui	a3,0xffff0
   11f00:	fff68693          	addi	a3,a3,-1 # fffffffffffeffff <__global_pointer$+0xfffffffffffd77ff>
   11f04:	00dd7d33          	and	s10,s10,a3
   11f08:	fbf8069b          	addiw	a3,a6,-65
   11f0c:	0006859b          	sext.w	a1,a3
   11f10:	03700613          	li	a2,55
   11f14:	44b66e63          	bltu	a2,a1,12370 <printf_core+0x8b0>
   11f18:	01813783          	ld	a5,24(sp)
   11f1c:	02069693          	slli	a3,a3,0x20
   11f20:	01e6d693          	srli	a3,a3,0x1e
   11f24:	00f686b3          	add	a3,a3,a5
   11f28:	0006a683          	lw	a3,0(a3)
   11f2c:	00068067          	jr	a3
   11f30:	00700793          	li	a5,7
   11f34:	3ce7e063          	bltu	a5,a4,122f4 <printf_core+0x834>
   11f38:	00271793          	slli	a5,a4,0x2
   11f3c:	00016737          	lui	a4,0x16
   11f40:	dd870713          	addi	a4,a4,-552 # 15dd8 <__clzdi2+0x1e4>
   11f44:	00e787b3          	add	a5,a5,a4
   11f48:	0007a783          	lw	a5,0(a5)
   11f4c:	00078067          	jr	a5
   11f50:	05013783          	ld	a5,80(sp)
   11f54:	01b7a023          	sw	s11,0(a5)
   11f58:	be1ff06f          	j	11b38 <printf_core+0x78>
   11f5c:	05013783          	ld	a5,80(sp)
   11f60:	01279023          	sh	s2,0(a5)
   11f64:	bd5ff06f          	j	11b38 <printf_core+0x78>
   11f68:	05013783          	ld	a5,80(sp)
   11f6c:	01278023          	sb	s2,0(a5)
   11f70:	bc9ff06f          	j	11b38 <printf_core+0x78>
   11f74:	05013783          	ld	a5,80(sp)
   11f78:	0127b023          	sd	s2,0(a5)
   11f7c:	bbdff06f          	j	11b38 <printf_core+0x78>
   11f80:	000a889b          	sext.w	a7,s5
   11f84:	01000693          	li	a3,16
   11f88:	000a8713          	mv	a4,s5
   11f8c:	00d8f463          	bgeu	a7,a3,11f94 <printf_core+0x4d4>
   11f90:	01000713          	li	a4,16
   11f94:	00070a9b          	sext.w	s5,a4
   11f98:	008d6d13          	ori	s10,s10,8
   11f9c:	07800813          	li	a6,120
   11fa0:	05013583          	ld	a1,80(sp)
   11fa4:	000166b7          	lui	a3,0x16
   11fa8:	02087513          	andi	a0,a6,32
   11fac:	00058713          	mv	a4,a1
   11fb0:	09f10b93          	addi	s7,sp,159
   11fb4:	05068693          	addi	a3,a3,80 # 16050 <xdigits>
   11fb8:	12071c63          	bnez	a4,120f0 <printf_core+0x630>
   11fbc:	00098e93          	mv	t4,s3
   11fc0:	00058c63          	beqz	a1,11fd8 <printf_core+0x518>
   11fc4:	008d7713          	andi	a4,s10,8
   11fc8:	00070863          	beqz	a4,11fd8 <printf_core+0x518>
   11fcc:	00485813          	srli	a6,a6,0x4
   11fd0:	01098eb3          	add	t4,s3,a6
   11fd4:	00200c93          	li	s9,2
   11fd8:	000f0a63          	beqz	t5,11fec <printf_core+0x52c>
   11fdc:	320ac063          	bltz	s5,122fc <printf_core+0x83c>
   11fe0:	ffff0737          	lui	a4,0xffff0
   11fe4:	fff70713          	addi	a4,a4,-1 # fffffffffffeffff <__global_pointer$+0xfffffffffffd77ff>
   11fe8:	00ed7d33          	and	s10,s10,a4
   11fec:	05013683          	ld	a3,80(sp)
   11ff0:	09f10613          	addi	a2,sp,159
   11ff4:	00069463          	bnez	a3,11ffc <printf_core+0x53c>
   11ff8:	380a8263          	beqz	s5,1237c <printf_core+0x8bc>
   11ffc:	41760733          	sub	a4,a2,s7
   12000:	0016b693          	seqz	a3,a3
   12004:	00d70733          	add	a4,a4,a3
   12008:	01575463          	bge	a4,s5,12010 <printf_core+0x550>
   1200c:	000a8713          	mv	a4,s5
   12010:	00070a9b          	sext.w	s5,a4
   12014:	41760db3          	sub	s11,a2,s7
   12018:	01bad463          	bge	s5,s11,12020 <printf_core+0x560>
   1201c:	000d8a9b          	sext.w	s5,s11
   12020:	80000737          	lui	a4,0x80000
   12024:	fff74713          	not	a4,a4
   12028:	4197073b          	subw	a4,a4,s9
   1202c:	2d574863          	blt	a4,s5,122fc <printf_core+0x83c>
   12030:	019a883b          	addw	a6,s5,s9
   12034:	00080713          	mv	a4,a6
   12038:	00985463          	bge	a6,s1,12040 <printf_core+0x580>
   1203c:	00048713          	mv	a4,s1
   12040:	00813783          	ld	a5,8(sp)
   12044:	03d13023          	sd	t4,32(sp)
   12048:	0007049b          	sext.w	s1,a4
   1204c:	2a97c863          	blt	a5,s1,122fc <printf_core+0x83c>
   12050:	00080693          	mv	a3,a6
   12054:	000d0713          	mv	a4,s10
   12058:	00048613          	mv	a2,s1
   1205c:	02000593          	li	a1,32
   12060:	00040513          	mv	a0,s0
   12064:	01013423          	sd	a6,8(sp)
   12068:	915fe0ef          	jal	ra,1097c <pad>
   1206c:	02013e83          	ld	t4,32(sp)
   12070:	000c8613          	mv	a2,s9
   12074:	00040513          	mv	a0,s0
   12078:	000e8593          	mv	a1,t4
   1207c:	8ddfe0ef          	jal	ra,10958 <out>
   12080:	00813803          	ld	a6,8(sp)
   12084:	00010737          	lui	a4,0x10
   12088:	00ed4733          	xor	a4,s10,a4
   1208c:	00080693          	mv	a3,a6
   12090:	00048613          	mv	a2,s1
   12094:	03000593          	li	a1,48
   12098:	00040513          	mv	a0,s0
   1209c:	8e1fe0ef          	jal	ra,1097c <pad>
   120a0:	00000713          	li	a4,0
   120a4:	000d869b          	sext.w	a3,s11
   120a8:	000a8613          	mv	a2,s5
   120ac:	03000593          	li	a1,48
   120b0:	00040513          	mv	a0,s0
   120b4:	8c9fe0ef          	jal	ra,1097c <pad>
   120b8:	000d8613          	mv	a2,s11
   120bc:	000b8593          	mv	a1,s7
   120c0:	00040513          	mv	a0,s0
   120c4:	895fe0ef          	jal	ra,10958 <out>
   120c8:	00813803          	ld	a6,8(sp)
   120cc:	00002737          	lui	a4,0x2
   120d0:	00ed4733          	xor	a4,s10,a4
   120d4:	00080693          	mv	a3,a6
   120d8:	00048613          	mv	a2,s1
   120dc:	02000593          	li	a1,32
   120e0:	00040513          	mv	a0,s0
   120e4:	899fe0ef          	jal	ra,1097c <pad>
   120e8:	00048c93          	mv	s9,s1
   120ec:	a4dff06f          	j	11b38 <printf_core+0x78>
   120f0:	00f77613          	andi	a2,a4,15
   120f4:	00c68633          	add	a2,a3,a2
   120f8:	00064603          	lbu	a2,0(a2)
   120fc:	fffb8b93          	addi	s7,s7,-1
   12100:	00475713          	srli	a4,a4,0x4
   12104:	00c56633          	or	a2,a0,a2
   12108:	00cb8023          	sb	a2,0(s7)
   1210c:	eadff06f          	j	11fb8 <printf_core+0x4f8>
   12110:	05013683          	ld	a3,80(sp)
   12114:	09f10b93          	addi	s7,sp,159
   12118:	000b8713          	mv	a4,s7
   1211c:	02069063          	bnez	a3,1213c <printf_core+0x67c>
   12120:	008d7693          	andi	a3,s10,8
   12124:	00098e93          	mv	t4,s3
   12128:	ea0688e3          	beqz	a3,11fd8 <printf_core+0x518>
   1212c:	41770733          	sub	a4,a4,s7
   12130:	eb5744e3          	blt	a4,s5,11fd8 <printf_core+0x518>
   12134:	00170a9b          	addiw	s5,a4,1
   12138:	ea1ff06f          	j	11fd8 <printf_core+0x518>
   1213c:	0076f613          	andi	a2,a3,7
   12140:	fffb8b93          	addi	s7,s7,-1
   12144:	0306061b          	addiw	a2,a2,48
   12148:	00cb8023          	sb	a2,0(s7)
   1214c:	0036d693          	srli	a3,a3,0x3
   12150:	fcdff06f          	j	1211c <printf_core+0x65c>
   12154:	05013703          	ld	a4,80(sp)
   12158:	02075c63          	bgez	a4,12190 <printf_core+0x6d0>
   1215c:	40e00733          	neg	a4,a4
   12160:	04e13823          	sd	a4,80(sp)
   12164:	00100c93          	li	s9,1
   12168:	00098e93          	mv	t4,s3
   1216c:	05013503          	ld	a0,80(sp)
   12170:	09f10593          	addi	a1,sp,159
   12174:	03d13423          	sd	t4,40(sp)
   12178:	03e13023          	sd	t5,32(sp)
   1217c:	f48fe0ef          	jal	ra,108c4 <fmt_u>
   12180:	02813e83          	ld	t4,40(sp)
   12184:	02013f03          	ld	t5,32(sp)
   12188:	00050b93          	mv	s7,a0
   1218c:	e4dff06f          	j	11fd8 <printf_core+0x518>
   12190:	00bd5713          	srli	a4,s10,0xb
   12194:	00177713          	andi	a4,a4,1
   12198:	00071e63          	bnez	a4,121b4 <printf_core+0x6f4>
   1219c:	001d7713          	andi	a4,s10,1
   121a0:	fc0704e3          	beqz	a4,12168 <printf_core+0x6a8>
   121a4:	00016eb7          	lui	t4,0x16
   121a8:	00100c93          	li	s9,1
   121ac:	ce2e8e93          	addi	t4,t4,-798 # 15ce2 <__clzdi2+0xee>
   121b0:	fbdff06f          	j	1216c <printf_core+0x6ac>
   121b4:	00016eb7          	lui	t4,0x16
   121b8:	00100c93          	li	s9,1
   121bc:	ce1e8e93          	addi	t4,t4,-799 # 15ce1 <__clzdi2+0xed>
   121c0:	fadff06f          	j	1216c <printf_core+0x6ac>
   121c4:	05013703          	ld	a4,80(sp)
   121c8:	00098e93          	mv	t4,s3
   121cc:	00100a93          	li	s5,1
   121d0:	08e10f23          	sb	a4,158(sp)
   121d4:	ffff0737          	lui	a4,0xffff0
   121d8:	fff70713          	addi	a4,a4,-1 # fffffffffffeffff <__global_pointer$+0xfffffffffffd77ff>
   121dc:	00ed7d33          	and	s10,s10,a4
   121e0:	09f10613          	addi	a2,sp,159
   121e4:	09e10b93          	addi	s7,sp,158
   121e8:	e2dff06f          	j	12014 <printf_core+0x554>
   121ec:	7a8000ef          	jal	ra,12994 <__errno_location>
   121f0:	00052503          	lw	a0,0(a0)
   121f4:	7e0000ef          	jal	ra,129d4 <strerror>
   121f8:	00050b93          	mv	s7,a0
   121fc:	000a8593          	mv	a1,s5
   12200:	000ad663          	bgez	s5,1220c <printf_core+0x74c>
   12204:	800005b7          	lui	a1,0x80000
   12208:	fff5c593          	not	a1,a1
   1220c:	000b8513          	mv	a0,s7
   12210:	448000ef          	jal	ra,12658 <strnlen>
   12214:	00ab8633          	add	a2,s7,a0
   12218:	000ad663          	bgez	s5,12224 <printf_core+0x764>
   1221c:	00064703          	lbu	a4,0(a2)
   12220:	0c071e63          	bnez	a4,122fc <printf_core+0x83c>
   12224:	ffff0737          	lui	a4,0xffff0
   12228:	fff70713          	addi	a4,a4,-1 # fffffffffffeffff <__global_pointer$+0xfffffffffffd77ff>
   1222c:	00050a9b          	sext.w	s5,a0
   12230:	00ed7d33          	and	s10,s10,a4
   12234:	00098e93          	mv	t4,s3
   12238:	dddff06f          	j	12014 <printf_core+0x554>
   1223c:	05013b83          	ld	s7,80(sp)
   12240:	fa0b9ee3          	bnez	s7,121fc <printf_core+0x73c>
   12244:	00016e37          	lui	t3,0x16
   12248:	cf0e0b93          	addi	s7,t3,-784 # 15cf0 <__clzdi2+0xfc>
   1224c:	fb1ff06f          	j	121fc <printf_core+0x73c>
   12250:	05013703          	ld	a4,80(sp)
   12254:	04012623          	sw	zero,76(sp)
   12258:	fff00a93          	li	s5,-1
   1225c:	04e12423          	sw	a4,72(sp)
   12260:	04810713          	addi	a4,sp,72
   12264:	04e13823          	sd	a4,80(sp)
   12268:	05013d83          	ld	s11,80(sp)
   1226c:	00000c93          	li	s9,0
   12270:	035cf263          	bgeu	s9,s5,12294 <printf_core+0x7d4>
   12274:	000da583          	lw	a1,0(s11)
   12278:	00058e63          	beqz	a1,12294 <printf_core+0x7d4>
   1227c:	03810513          	addi	a0,sp,56
   12280:	004d8d93          	addi	s11,s11,4
   12284:	0b5000ef          	jal	ra,12b38 <wctomb>
   12288:	b00548e3          	bltz	a0,11d98 <printf_core+0x2d8>
   1228c:	419a8733          	sub	a4,s5,s9
   12290:	06a77c63          	bgeu	a4,a0,12308 <printf_core+0x848>
   12294:	80000737          	lui	a4,0x80000
   12298:	fff74713          	not	a4,a4
   1229c:	07976063          	bltu	a4,s9,122fc <printf_core+0x83c>
   122a0:	000c8d9b          	sext.w	s11,s9
   122a4:	000d0713          	mv	a4,s10
   122a8:	000d8693          	mv	a3,s11
   122ac:	00048613          	mv	a2,s1
   122b0:	02000593          	li	a1,32
   122b4:	00040513          	mv	a0,s0
   122b8:	ec4fe0ef          	jal	ra,1097c <pad>
   122bc:	05013b83          	ld	s7,80(sp)
   122c0:	00000a93          	li	s5,0
   122c4:	059ae663          	bltu	s5,s9,12310 <printf_core+0x850>
   122c8:	00002737          	lui	a4,0x2
   122cc:	00ed4733          	xor	a4,s10,a4
   122d0:	000d8693          	mv	a3,s11
   122d4:	00048613          	mv	a2,s1
   122d8:	02000593          	li	a1,32
   122dc:	00040513          	mv	a0,s0
   122e0:	e9cfe0ef          	jal	ra,1097c <pad>
   122e4:	00048313          	mv	t1,s1
   122e8:	01b4d463          	bge	s1,s11,122f0 <printf_core+0x830>
   122ec:	000d8313          	mv	t1,s11
   122f0:	00030c9b          	sext.w	s9,t1
   122f4:	00813783          	ld	a5,8(sp)
   122f8:	8597d0e3          	bge	a5,s9,11b38 <printf_core+0x78>
   122fc:	698000ef          	jal	ra,12994 <__errno_location>
   12300:	04b00793          	li	a5,75
   12304:	a91ff06f          	j	11d94 <printf_core+0x2d4>
   12308:	00ac8cb3          	add	s9,s9,a0
   1230c:	f65ff06f          	j	12270 <printf_core+0x7b0>
   12310:	000ba583          	lw	a1,0(s7)
   12314:	fa058ae3          	beqz	a1,122c8 <printf_core+0x808>
   12318:	03810513          	addi	a0,sp,56
   1231c:	01d000ef          	jal	ra,12b38 <wctomb>
   12320:	00aa8ab3          	add	s5,s5,a0
   12324:	004b8b93          	addi	s7,s7,4
   12328:	00050613          	mv	a2,a0
   1232c:	f95ceee3          	bltu	s9,s5,122c8 <printf_core+0x808>
   12330:	03810593          	addi	a1,sp,56
   12334:	00040513          	mv	a0,s0
   12338:	e20fe0ef          	jal	ra,10958 <out>
   1233c:	f89ff06f          	j	122c4 <printf_core+0x804>
   12340:	000f0463          	beqz	t5,12348 <printf_core+0x888>
   12344:	fa0acce3          	bltz	s5,122fc <printf_core+0x83c>
   12348:	05013583          	ld	a1,80(sp)
   1234c:	05813603          	ld	a2,88(sp)
   12350:	000d0793          	mv	a5,s10
   12354:	000a8713          	mv	a4,s5
   12358:	00048693          	mv	a3,s1
   1235c:	00040513          	mv	a0,s0
   12360:	ec4fe0ef          	jal	ra,10a24 <fmt_fp>
   12364:	00050c93          	mv	s9,a0
   12368:	f80556e3          	bgez	a0,122f4 <printf_core+0x834>
   1236c:	f91ff06f          	j	122fc <printf_core+0x83c>
   12370:	00098e93          	mv	t4,s3
   12374:	09f10613          	addi	a2,sp,159
   12378:	c9dff06f          	j	12014 <printf_core+0x554>
   1237c:	00060b93          	mv	s7,a2
   12380:	c95ff06f          	j	12014 <printf_core+0x554>
   12384:	ae0418e3          	bnez	s0,11e74 <printf_core+0x3b4>
   12388:	ae0c04e3          	beqz	s8,11e70 <printf_core+0x3b0>
   1238c:	00100413          	li	s0,1
   12390:	00a00493          	li	s1,10
   12394:	00241793          	slli	a5,s0,0x2
   12398:	00fb07b3          	add	a5,s6,a5
   1239c:	0007a583          	lw	a1,0(a5)
   123a0:	02059263          	bnez	a1,123c4 <printf_core+0x904>
   123a4:	00a00713          	li	a4,10
   123a8:	00241793          	slli	a5,s0,0x2
   123ac:	00fb07b3          	add	a5,s6,a5
   123b0:	0007a783          	lw	a5,0(a5)
   123b4:	9c079ce3          	bnez	a5,11d8c <printf_core+0x2cc>
   123b8:	00140413          	addi	s0,s0,1
   123bc:	fee416e3          	bne	s0,a4,123a8 <printf_core+0x8e8>
   123c0:	0200006f          	j	123e0 <printf_core+0x920>
   123c4:	00013783          	ld	a5,0(sp)
   123c8:	00441513          	slli	a0,s0,0x4
   123cc:	000a0613          	mv	a2,s4
   123d0:	00a78533          	add	a0,a5,a0
   123d4:	00140413          	addi	s0,s0,1
   123d8:	be8fe0ef          	jal	ra,107c0 <pop_arg>
   123dc:	fa941ce3          	bne	s0,s1,12394 <printf_core+0x8d4>
   123e0:	00100913          	li	s2,1
   123e4:	a91ff06f          	j	11e74 <printf_core+0x3b4>

00000000000123e8 <vfprintf>:
   123e8:	ea010113          	addi	sp,sp,-352
   123ec:	14813823          	sd	s0,336(sp)
   123f0:	00c13023          	sd	a2,0(sp)
   123f4:	00050413          	mv	s0,a0
   123f8:	00810713          	addi	a4,sp,8
   123fc:	08010693          	addi	a3,sp,128
   12400:	00010613          	mv	a2,sp
   12404:	00000513          	li	a0,0
   12408:	14913423          	sd	s1,328(sp)
   1240c:	13513423          	sd	s5,296(sp)
   12410:	14113c23          	sd	ra,344(sp)
   12414:	15213023          	sd	s2,320(sp)
   12418:	13313c23          	sd	s3,312(sp)
   1241c:	13413823          	sd	s4,304(sp)
   12420:	00058a93          	mv	s5,a1
   12424:	00013423          	sd	zero,8(sp)
   12428:	00013823          	sd	zero,16(sp)
   1242c:	00013c23          	sd	zero,24(sp)
   12430:	02013023          	sd	zero,32(sp)
   12434:	02013423          	sd	zero,40(sp)
   12438:	e88ff0ef          	jal	ra,11ac0 <printf_core>
   1243c:	fff00493          	li	s1,-1
   12440:	0e054463          	bltz	a0,12528 <vfprintf+0x140>
   12444:	08c42783          	lw	a5,140(s0)
   12448:	00000993          	li	s3,0
   1244c:	0007879b          	sext.w	a5,a5
   12450:	0007c863          	bltz	a5,12460 <vfprintf+0x78>
   12454:	00040513          	mv	a0,s0
   12458:	70c000ef          	jal	ra,12b64 <__lockfile>
   1245c:	00050993          	mv	s3,a0
   12460:	00042783          	lw	a5,0(s0)
   12464:	08842703          	lw	a4,136(s0)
   12468:	0207fa13          	andi	s4,a5,32
   1246c:	00e04663          	bgtz	a4,12478 <vfprintf+0x90>
   12470:	fdf7f793          	andi	a5,a5,-33
   12474:	00f42023          	sw	a5,0(s0)
   12478:	06043783          	ld	a5,96(s0)
   1247c:	0c079a63          	bnez	a5,12550 <vfprintf+0x168>
   12480:	03010793          	addi	a5,sp,48
   12484:	05843903          	ld	s2,88(s0)
   12488:	04f43c23          	sd	a5,88(s0)
   1248c:	05000793          	li	a5,80
   12490:	06f43023          	sd	a5,96(s0)
   12494:	02043023          	sd	zero,32(s0)
   12498:	02043c23          	sd	zero,56(s0)
   1249c:	02043423          	sd	zero,40(s0)
   124a0:	00040513          	mv	a0,s0
   124a4:	099000ef          	jal	ra,12d3c <__towrite>
   124a8:	fff00493          	li	s1,-1
   124ac:	02051063          	bnez	a0,124cc <vfprintf+0xe4>
   124b0:	00810713          	addi	a4,sp,8
   124b4:	08010693          	addi	a3,sp,128
   124b8:	00010613          	mv	a2,sp
   124bc:	000a8593          	mv	a1,s5
   124c0:	00040513          	mv	a0,s0
   124c4:	dfcff0ef          	jal	ra,11ac0 <printf_core>
   124c8:	00050493          	mv	s1,a0
   124cc:	02090c63          	beqz	s2,12504 <vfprintf+0x11c>
   124d0:	04843783          	ld	a5,72(s0)
   124d4:	00000613          	li	a2,0
   124d8:	00000593          	li	a1,0
   124dc:	00040513          	mv	a0,s0
   124e0:	000780e7          	jalr	a5
   124e4:	02843783          	ld	a5,40(s0)
   124e8:	00079463          	bnez	a5,124f0 <vfprintf+0x108>
   124ec:	fff00493          	li	s1,-1
   124f0:	05243c23          	sd	s2,88(s0)
   124f4:	06043023          	sd	zero,96(s0)
   124f8:	02043023          	sd	zero,32(s0)
   124fc:	02043c23          	sd	zero,56(s0)
   12500:	02043423          	sd	zero,40(s0)
   12504:	00042783          	lw	a5,0(s0)
   12508:	0207f713          	andi	a4,a5,32
   1250c:	00070463          	beqz	a4,12514 <vfprintf+0x12c>
   12510:	fff00493          	li	s1,-1
   12514:	00fa6a33          	or	s4,s4,a5
   12518:	01442023          	sw	s4,0(s0)
   1251c:	00098663          	beqz	s3,12528 <vfprintf+0x140>
   12520:	00040513          	mv	a0,s0
   12524:	714000ef          	jal	ra,12c38 <__unlockfile>
   12528:	15813083          	ld	ra,344(sp)
   1252c:	15013403          	ld	s0,336(sp)
   12530:	14013903          	ld	s2,320(sp)
   12534:	13813983          	ld	s3,312(sp)
   12538:	13013a03          	ld	s4,304(sp)
   1253c:	12813a83          	ld	s5,296(sp)
   12540:	00048513          	mv	a0,s1
   12544:	14813483          	ld	s1,328(sp)
   12548:	16010113          	addi	sp,sp,352
   1254c:	00008067          	ret
   12550:	02043903          	ld	s2,32(s0)
   12554:	f40906e3          	beqz	s2,124a0 <vfprintf+0xb8>
   12558:	00000913          	li	s2,0
   1255c:	f55ff06f          	j	124b0 <vfprintf+0xc8>

0000000000012560 <memset>:
   12560:	0c060e63          	beqz	a2,1263c <memset+0xdc>
   12564:	0ff5f793          	andi	a5,a1,255
   12568:	00f50023          	sb	a5,0(a0)
   1256c:	00c50733          	add	a4,a0,a2
   12570:	fef70fa3          	sb	a5,-1(a4) # 1fff <exit-0xe121>
   12574:	00200693          	li	a3,2
   12578:	0cc6f263          	bgeu	a3,a2,1263c <memset+0xdc>
   1257c:	00f500a3          	sb	a5,1(a0)
   12580:	00f50123          	sb	a5,2(a0)
   12584:	fef70f23          	sb	a5,-2(a4)
   12588:	fef70ea3          	sb	a5,-3(a4)
   1258c:	00600693          	li	a3,6
   12590:	0ac6f663          	bgeu	a3,a2,1263c <memset+0xdc>
   12594:	00f501a3          	sb	a5,3(a0)
   12598:	fef70e23          	sb	a5,-4(a4)
   1259c:	00800693          	li	a3,8
   125a0:	08c6fe63          	bgeu	a3,a2,1263c <memset+0xdc>
   125a4:	40a00733          	neg	a4,a0
   125a8:	00377713          	andi	a4,a4,3
   125ac:	00e507b3          	add	a5,a0,a4
   125b0:	40e60633          	sub	a2,a2,a4
   125b4:	01010737          	lui	a4,0x1010
   125b8:	1017071b          	addiw	a4,a4,257
   125bc:	0ff5f593          	andi	a1,a1,255
   125c0:	02e585bb          	mulw	a1,a1,a4
   125c4:	ffc67613          	andi	a2,a2,-4
   125c8:	00c78733          	add	a4,a5,a2
   125cc:	00b7a023          	sw	a1,0(a5)
   125d0:	feb72e23          	sw	a1,-4(a4) # 100fffc <__global_pointer$+0xff77fc>
   125d4:	06c6f463          	bgeu	a3,a2,1263c <memset+0xdc>
   125d8:	00b7a223          	sw	a1,4(a5)
   125dc:	00b7a423          	sw	a1,8(a5)
   125e0:	feb72a23          	sw	a1,-12(a4)
   125e4:	feb72c23          	sw	a1,-8(a4)
   125e8:	01800693          	li	a3,24
   125ec:	04c6f863          	bgeu	a3,a2,1263c <memset+0xdc>
   125f0:	00b7a623          	sw	a1,12(a5)
   125f4:	00b7a823          	sw	a1,16(a5)
   125f8:	00b7aa23          	sw	a1,20(a5)
   125fc:	00b7ac23          	sw	a1,24(a5)
   12600:	feb72223          	sw	a1,-28(a4)
   12604:	feb72423          	sw	a1,-24(a4)
   12608:	feb72623          	sw	a1,-20(a4)
   1260c:	feb72823          	sw	a1,-16(a4)
   12610:	02059693          	slli	a3,a1,0x20
   12614:	0047f713          	andi	a4,a5,4
   12618:	01870713          	addi	a4,a4,24
   1261c:	0206d693          	srli	a3,a3,0x20
   12620:	02059593          	slli	a1,a1,0x20
   12624:	00e78733          	add	a4,a5,a4
   12628:	00c78633          	add	a2,a5,a2
   1262c:	00d5e5b3          	or	a1,a1,a3
   12630:	01f00793          	li	a5,31
   12634:	40e606b3          	sub	a3,a2,a4
   12638:	00d7e463          	bltu	a5,a3,12640 <memset+0xe0>
   1263c:	00008067          	ret
   12640:	00b73023          	sd	a1,0(a4)
   12644:	00b73423          	sd	a1,8(a4)
   12648:	00b73823          	sd	a1,16(a4)
   1264c:	00b73c23          	sd	a1,24(a4)
   12650:	02070713          	addi	a4,a4,32
   12654:	fe1ff06f          	j	12634 <memset+0xd4>

0000000000012658 <strnlen>:
   12658:	fe010113          	addi	sp,sp,-32
   1265c:	00813823          	sd	s0,16(sp)
   12660:	00058613          	mv	a2,a1
   12664:	00058413          	mv	s0,a1
   12668:	00000593          	li	a1,0
   1266c:	00913423          	sd	s1,8(sp)
   12670:	00113c23          	sd	ra,24(sp)
   12674:	00050493          	mv	s1,a0
   12678:	0d1000ef          	jal	ra,12f48 <memchr>
   1267c:	00050463          	beqz	a0,12684 <strnlen+0x2c>
   12680:	40950433          	sub	s0,a0,s1
   12684:	01813083          	ld	ra,24(sp)
   12688:	00040513          	mv	a0,s0
   1268c:	01013403          	ld	s0,16(sp)
   12690:	00813483          	ld	s1,8(sp)
   12694:	02010113          	addi	sp,sp,32
   12698:	00008067          	ret

000000000001269c <__init_tp>:
   1269c:	ff010113          	addi	sp,sp,-16
   126a0:	00813023          	sd	s0,0(sp)
   126a4:	00113423          	sd	ra,8(sp)
   126a8:	00050413          	mv	s0,a0
   126ac:	00a53023          	sd	a0,0(a0)
   126b0:	0c850513          	addi	a0,a0,200
   126b4:	56d000ef          	jal	ra,13420 <__set_thread_area>
   126b8:	04054e63          	bltz	a0,12714 <__init_tp+0x78>
   126bc:	00051663          	bnez	a0,126c8 <__init_tp+0x2c>
   126c0:	00100713          	li	a4,1
   126c4:	9ce18423          	sb	a4,-1592(gp) # 181c8 <__libc>
   126c8:	00200793          	li	a5,2
   126cc:	02f42423          	sw	a5,40(s0)
   126d0:	06000893          	li	a7,96
   126d4:	97018513          	addi	a0,gp,-1680 # 18170 <__thread_list_lock>
   126d8:	00000073          	ecall
   126dc:	a0018793          	addi	a5,gp,-1536 # 18200 <__libc+0x38>
   126e0:	08f43c23          	sd	a5,152(s0)
   126e4:	07840793          	addi	a5,s0,120
   126e8:	06f43c23          	sd	a5,120(s0)
   126ec:	9481b783          	ld	a5,-1720(gp) # 18148 <__sysinfo>
   126f0:	02a42023          	sw	a0,32(s0)
   126f4:	00843423          	sd	s0,8(s0)
   126f8:	00f43c23          	sd	a5,24(s0)
   126fc:	00843823          	sd	s0,16(s0)
   12700:	00000513          	li	a0,0
   12704:	00813083          	ld	ra,8(sp)
   12708:	00013403          	ld	s0,0(sp)
   1270c:	01010113          	addi	sp,sp,16
   12710:	00008067          	ret
   12714:	fff00513          	li	a0,-1
   12718:	fedff06f          	j	12704 <__init_tp+0x68>

000000000001271c <__copy_tls>:
   1271c:	fc010113          	addi	sp,sp,-64
   12720:	9c818713          	addi	a4,gp,-1592 # 181c8 <__libc>
   12724:	02873683          	ld	a3,40(a4)
   12728:	02913423          	sd	s1,40(sp)
   1272c:	01873483          	ld	s1,24(a4)
   12730:	02813823          	sd	s0,48(sp)
   12734:	02073403          	ld	s0,32(a4)
   12738:	00369693          	slli	a3,a3,0x3
   1273c:	ff848493          	addi	s1,s1,-8
   12740:	40d484b3          	sub	s1,s1,a3
   12744:	f3800693          	li	a3,-200
   12748:	fff40413          	addi	s0,s0,-1
   1274c:	40a686b3          	sub	a3,a3,a0
   12750:	03213023          	sd	s2,32(sp)
   12754:	00d47433          	and	s0,s0,a3
   12758:	01073903          	ld	s2,16(a4)
   1275c:	01513423          	sd	s5,8(sp)
   12760:	009504b3          	add	s1,a0,s1
   12764:	00850433          	add	s0,a0,s0
   12768:	00001ab7          	lui	s5,0x1
   1276c:	01313c23          	sd	s3,24(sp)
   12770:	01413823          	sd	s4,16(sp)
   12774:	01613023          	sd	s6,0(sp)
   12778:	02113c23          	sd	ra,56(sp)
   1277c:	0c840b13          	addi	s6,s0,200
   12780:	00848a13          	addi	s4,s1,8
   12784:	9c818993          	addi	s3,gp,-1592 # 181c8 <__libc>
   12788:	800a8a93          	addi	s5,s5,-2048 # 800 <exit-0xf920>
   1278c:	02091e63          	bnez	s2,127c8 <__copy_tls+0xac>
   12790:	0289b783          	ld	a5,40(s3)
   12794:	03813083          	ld	ra,56(sp)
   12798:	00040513          	mv	a0,s0
   1279c:	00f4b023          	sd	a5,0(s1)
   127a0:	0c943023          	sd	s1,192(s0)
   127a4:	03013403          	ld	s0,48(sp)
   127a8:	02813483          	ld	s1,40(sp)
   127ac:	02013903          	ld	s2,32(sp)
   127b0:	01813983          	ld	s3,24(sp)
   127b4:	01013a03          	ld	s4,16(sp)
   127b8:	00813a83          	ld	s5,8(sp)
   127bc:	00013b03          	ld	s6,0(sp)
   127c0:	04010113          	addi	sp,sp,64
   127c4:	00008067          	ret
   127c8:	02893783          	ld	a5,40(s2)
   127cc:	00893583          	ld	a1,8(s2)
   127d0:	008a0a13          	addi	s4,s4,8
   127d4:	00fb07b3          	add	a5,s6,a5
   127d8:	015787b3          	add	a5,a5,s5
   127dc:	fefa3c23          	sd	a5,-8(s4)
   127e0:	02893503          	ld	a0,40(s2)
   127e4:	01093603          	ld	a2,16(s2)
   127e8:	00ab0533          	add	a0,s6,a0
   127ec:	7f0000ef          	jal	ra,12fdc <memcpy>
   127f0:	00093903          	ld	s2,0(s2)
   127f4:	f99ff06f          	j	1278c <__copy_tls+0x70>

00000000000127f8 <__init_tls>:
   127f8:	01853f83          	ld	t6,24(a0)
   127fc:	02853e03          	ld	t3,40(a0)
   12800:	9441a303          	lw	t1,-1724(gp) # 18144 <__default_stacksize>
   12804:	ff010113          	addi	sp,sp,-16
   12808:	6474eeb7          	lui	t4,0x6474e
   1280c:	00113423          	sd	ra,8(sp)
   12810:	00813023          	sd	s0,0(sp)
   12814:	000f8793          	mv	a5,t6
   12818:	00000f13          	li	t5,0
   1281c:	00000713          	li	a4,0
   12820:	00000613          	li	a2,0
   12824:	00600293          	li	t0,6
   12828:	00200393          	li	t2,2
   1282c:	00000813          	li	a6,0
   12830:	00700093          	li	ra,7
   12834:	551e8e93          	addi	t4,t4,1361 # 6474e551 <__global_pointer$+0x64735d51>
   12838:	00800437          	lui	s0,0x800
   1283c:	0c0e1c63          	bnez	t3,12914 <__init_tls+0x11c>
   12840:	000f0463          	beqz	t5,12848 <__init_tls+0x50>
   12844:	9461a223          	sw	t1,-1724(gp) # 18144 <__default_stacksize>
   12848:	f8818793          	addi	a5,gp,-120 # 18788 <main_tls>
   1284c:	9c818693          	addi	a3,gp,-1592 # 181c8 <__libc>
   12850:	02060a63          	beqz	a2,12884 <__init_tls+0x8c>
   12854:	01063583          	ld	a1,16(a2)
   12858:	00f6b823          	sd	a5,16(a3)
   1285c:	00e58733          	add	a4,a1,a4
   12860:	00e7b423          	sd	a4,8(a5)
   12864:	02063703          	ld	a4,32(a2)
   12868:	00e7b823          	sd	a4,16(a5)
   1286c:	02863703          	ld	a4,40(a2)
   12870:	00e7bc23          	sd	a4,24(a5)
   12874:	03063703          	ld	a4,48(a2)
   12878:	02e7b023          	sd	a4,32(a5)
   1287c:	00100713          	li	a4,1
   12880:	02e6b423          	sd	a4,40(a3)
   12884:	0187b803          	ld	a6,24(a5)
   12888:	0087b583          	ld	a1,8(a5)
   1288c:	0207b503          	ld	a0,32(a5)
   12890:	00b80733          	add	a4,a6,a1
   12894:	fff50613          	addi	a2,a0,-1
   12898:	40e00733          	neg	a4,a4
   1289c:	00c77733          	and	a4,a4,a2
   128a0:	01070733          	add	a4,a4,a6
   128a4:	00c5f633          	and	a2,a1,a2
   128a8:	00e7bc23          	sd	a4,24(a5)
   128ac:	02c7b423          	sd	a2,40(a5)
   128b0:	00700593          	li	a1,7
   128b4:	00a5e663          	bltu	a1,a0,128c0 <__init_tls+0xc8>
   128b8:	00800593          	li	a1,8
   128bc:	02b7b023          	sd	a1,32(a5)
   128c0:	0207b783          	ld	a5,32(a5)
   128c4:	0df78593          	addi	a1,a5,223
   128c8:	00c585b3          	add	a1,a1,a2
   128cc:	00e585b3          	add	a1,a1,a4
   128d0:	ff85f593          	andi	a1,a1,-8
   128d4:	02f6b023          	sd	a5,32(a3)
   128d8:	00b6bc23          	sd	a1,24(a3)
   128dc:	15000793          	li	a5,336
   128e0:	08b7fe63          	bgeu	a5,a1,1297c <__init_tls+0x184>
   128e4:	0de00893          	li	a7,222
   128e8:	00000513          	li	a0,0
   128ec:	00300613          	li	a2,3
   128f0:	02200693          	li	a3,34
   128f4:	fff00713          	li	a4,-1
   128f8:	00000793          	li	a5,0
   128fc:	00000073          	ecall
   12900:	e1dff0ef          	jal	ra,1271c <__copy_tls>
   12904:	d99ff0ef          	jal	ra,1269c <__init_tp>
   12908:	06055e63          	bgez	a0,12984 <__init_tls+0x18c>
   1290c:	00000023          	sb	zero,0(zero) # 0 <exit-0x10120>
   12910:	00100073          	ebreak
   12914:	0007a883          	lw	a7,0(a5)
   12918:	00589e63          	bne	a7,t0,12934 <__init_tls+0x13c>
   1291c:	0107b703          	ld	a4,16(a5)
   12920:	40ef8733          	sub	a4,t6,a4
   12924:	02053683          	ld	a3,32(a0)
   12928:	fffe0e13          	addi	t3,t3,-1
   1292c:	00d787b3          	add	a5,a5,a3
   12930:	f0dff06f          	j	1283c <__init_tls+0x44>
   12934:	02788863          	beq	a7,t2,12964 <__init_tls+0x16c>
   12938:	02188e63          	beq	a7,ra,12974 <__init_tls+0x17c>
   1293c:	ffd894e3          	bne	a7,t4,12924 <__init_tls+0x12c>
   12940:	0287b683          	ld	a3,40(a5)
   12944:	02031893          	slli	a7,t1,0x20
   12948:	0208d893          	srli	a7,a7,0x20
   1294c:	fcd8fce3          	bgeu	a7,a3,12924 <__init_tls+0x12c>
   12950:	00d47463          	bgeu	s0,a3,12958 <__init_tls+0x160>
   12954:	008006b7          	lui	a3,0x800
   12958:	0006831b          	sext.w	t1,a3
   1295c:	00100f13          	li	t5,1
   12960:	fc5ff06f          	j	12924 <__init_tls+0x12c>
   12964:	fc0800e3          	beqz	a6,12924 <__init_tls+0x12c>
   12968:	0107b703          	ld	a4,16(a5)
   1296c:	40e80733          	sub	a4,a6,a4
   12970:	fb5ff06f          	j	12924 <__init_tls+0x12c>
   12974:	00078613          	mv	a2,a5
   12978:	fadff06f          	j	12924 <__init_tls+0x12c>
   1297c:	e3818513          	addi	a0,gp,-456 # 18638 <builtin_tls>
   12980:	f81ff06f          	j	12900 <__init_tls+0x108>
   12984:	00813083          	ld	ra,8(sp)
   12988:	00013403          	ld	s0,0(sp)
   1298c:	01010113          	addi	sp,sp,16
   12990:	00008067          	ret

0000000000012994 <__errno_location>:
   12994:	00020513          	mv	a0,tp
   12998:	f5c50513          	addi	a0,a0,-164
   1299c:	00008067          	ret

00000000000129a0 <__strerror_l>:
   129a0:	08300793          	li	a5,131
   129a4:	00a7f463          	bgeu	a5,a0,129ac <__strerror_l+0xc>
   129a8:	00000513          	li	a0,0
   129ac:	000167b7          	lui	a5,0x16
   129b0:	06078793          	addi	a5,a5,96 # 16060 <errmsgidx>
   129b4:	00151513          	slli	a0,a0,0x1
   129b8:	00a78533          	add	a0,a5,a0
   129bc:	00055503          	lhu	a0,0(a0)
   129c0:	000167b7          	lui	a5,0x16
   129c4:	0285b583          	ld	a1,40(a1) # ffffffff80000028 <__global_pointer$+0xffffffff7ffe7828>
   129c8:	16878793          	addi	a5,a5,360 # 16168 <errmsgstr>
   129cc:	00a78533          	add	a0,a5,a0
   129d0:	02c0006f          	j	129fc <__lctrans>

00000000000129d4 <strerror>:
   129d4:	00020793          	mv	a5,tp
   129d8:	fd07b583          	ld	a1,-48(a5)
   129dc:	fc5ff06f          	j	129a0 <__strerror_l>

00000000000129e0 <_Exit>:
   129e0:	00050793          	mv	a5,a0
   129e4:	05e00893          	li	a7,94
   129e8:	00000073          	ecall
   129ec:	05d00893          	li	a7,93
   129f0:	00078513          	mv	a0,a5
   129f4:	ff5ff06f          	j	129e8 <_Exit+0x8>

00000000000129f8 <__lctrans_impl>:
   129f8:	00008067          	ret

00000000000129fc <__lctrans>:
   129fc:	ffdff06f          	j	129f8 <__lctrans_impl>

0000000000012a00 <__lctrans_cur>:
   12a00:	00020793          	mv	a5,tp
   12a04:	fd07b783          	ld	a5,-48(a5)
   12a08:	0287b583          	ld	a1,40(a5)
   12a0c:	fedff06f          	j	129f8 <__lctrans_impl>

0000000000012a10 <__fpclassifyl>:
   12a10:	00008737          	lui	a4,0x8
   12a14:	0305d693          	srli	a3,a1,0x30
   12a18:	fff70713          	addi	a4,a4,-1 # 7fff <exit-0x8121>
   12a1c:	01059593          	slli	a1,a1,0x10
   12a20:	00e6f6b3          	and	a3,a3,a4
   12a24:	00050793          	mv	a5,a0
   12a28:	0105d593          	srli	a1,a1,0x10
   12a2c:	00069a63          	bnez	a3,12a40 <__fpclassifyl+0x30>
   12a30:	00a5e5b3          	or	a1,a1,a0
   12a34:	00b03533          	snez	a0,a1
   12a38:	00250513          	addi	a0,a0,2
   12a3c:	00008067          	ret
   12a40:	00400513          	li	a0,4
   12a44:	00e69663          	bne	a3,a4,12a50 <__fpclassifyl+0x40>
   12a48:	00f5e5b3          	or	a1,a1,a5
   12a4c:	0015b513          	seqz	a0,a1
   12a50:	00008067          	ret

0000000000012a54 <__signbitl>:
   12a54:	03f5d513          	srli	a0,a1,0x3f
   12a58:	00008067          	ret

0000000000012a5c <frexpl>:
   12a5c:	00008737          	lui	a4,0x8
   12a60:	fe010113          	addi	sp,sp,-32
   12a64:	0305d793          	srli	a5,a1,0x30
   12a68:	fff70713          	addi	a4,a4,-1 # 7fff <exit-0x8121>
   12a6c:	00813823          	sd	s0,16(sp)
   12a70:	00913423          	sd	s1,8(sp)
   12a74:	01213023          	sd	s2,0(sp)
   12a78:	00113c23          	sd	ra,24(sp)
   12a7c:	00060913          	mv	s2,a2
   12a80:	00e7f633          	and	a2,a5,a4
   12a84:	00050493          	mv	s1,a0
   12a88:	00058413          	mv	s0,a1
   12a8c:	06061663          	bnez	a2,12af8 <frexpl+0x9c>
   12a90:	00000693          	li	a3,0
   12a94:	189010ef          	jal	ra,1441c <__eqtf2>
   12a98:	04050c63          	beqz	a0,12af0 <frexpl+0x94>
   12a9c:	000177b7          	lui	a5,0x17
   12aa0:	8987b683          	ld	a3,-1896(a5) # 16898 <errmsgstr+0x730>
   12aa4:	00000613          	li	a2,0
   12aa8:	00048513          	mv	a0,s1
   12aac:	00040593          	mv	a1,s0
   12ab0:	23d010ef          	jal	ra,144ec <__multf3>
   12ab4:	00090613          	mv	a2,s2
   12ab8:	fa5ff0ef          	jal	ra,12a5c <frexpl>
   12abc:	00092783          	lw	a5,0(s2)
   12ac0:	00050493          	mv	s1,a0
   12ac4:	00058413          	mv	s0,a1
   12ac8:	f887879b          	addiw	a5,a5,-120
   12acc:	00f92023          	sw	a5,0(s2)
   12ad0:	01813083          	ld	ra,24(sp)
   12ad4:	00040593          	mv	a1,s0
   12ad8:	01013403          	ld	s0,16(sp)
   12adc:	00013903          	ld	s2,0(sp)
   12ae0:	00048513          	mv	a0,s1
   12ae4:	00813483          	ld	s1,8(sp)
   12ae8:	02010113          	addi	sp,sp,32
   12aec:	00008067          	ret
   12af0:	00092023          	sw	zero,0(s2)
   12af4:	fddff06f          	j	12ad0 <frexpl+0x74>
   12af8:	0006069b          	sext.w	a3,a2
   12afc:	fce60ae3          	beq	a2,a4,12ad0 <frexpl+0x74>
   12b00:	ffffc737          	lui	a4,0xffffc
   12b04:	0027071b          	addiw	a4,a4,2
   12b08:	00e6873b          	addw	a4,a3,a4
   12b0c:	00e92023          	sw	a4,0(s2)
   12b10:	ffff8737          	lui	a4,0xffff8
   12b14:	00e7f7b3          	and	a5,a5,a4
   12b18:	00004737          	lui	a4,0x4
   12b1c:	ffe70713          	addi	a4,a4,-2 # 3ffe <exit-0xc122>
   12b20:	00e7e7b3          	or	a5,a5,a4
   12b24:	01059413          	slli	s0,a1,0x10
   12b28:	03079793          	slli	a5,a5,0x30
   12b2c:	01045413          	srli	s0,s0,0x10
   12b30:	00f46433          	or	s0,s0,a5
   12b34:	f9dff06f          	j	12ad0 <frexpl+0x74>

0000000000012b38 <wctomb>:
   12b38:	02050263          	beqz	a0,12b5c <wctomb+0x24>
   12b3c:	ff010113          	addi	sp,sp,-16
   12b40:	00000613          	li	a2,0
   12b44:	00113423          	sd	ra,8(sp)
   12b48:	129000ef          	jal	ra,13470 <wcrtomb>
   12b4c:	00813083          	ld	ra,8(sp)
   12b50:	0005051b          	sext.w	a0,a0
   12b54:	01010113          	addi	sp,sp,16
   12b58:	00008067          	ret
   12b5c:	00000513          	li	a0,0
   12b60:	00008067          	ret

0000000000012b64 <__lockfile>:
   12b64:	08c52783          	lw	a5,140(a0)
   12b68:	0007879b          	sext.w	a5,a5
   12b6c:	00020713          	mv	a4,tp
   12b70:	c00006b7          	lui	a3,0xc0000
   12b74:	f5872703          	lw	a4,-168(a4)
   12b78:	fff68693          	addi	a3,a3,-1 # ffffffffbfffffff <__global_pointer$+0xffffffffbffe77ff>
   12b7c:	00d7f7b3          	and	a5,a5,a3
   12b80:	0ae78863          	beq	a5,a4,12c30 <__lockfile+0xcc>
   12b84:	08c50793          	addi	a5,a0,140
   12b88:	00000613          	li	a2,0
   12b8c:	1607a6af          	lr.w.aqrl	a3,(a5)
   12b90:	00c69663          	bne	a3,a2,12b9c <__lockfile+0x38>
   12b94:	1ee7a5af          	sc.w.aqrl	a1,a4,(a5)
   12b98:	fe059ae3          	bnez	a1,12b8c <__lockfile+0x28>
   12b9c:	0006869b          	sext.w	a3,a3
   12ba0:	02068863          	beqz	a3,12bd0 <__lockfile+0x6c>
   12ba4:	40000837          	lui	a6,0x40000
   12ba8:	01076733          	or	a4,a4,a6
   12bac:	00000313          	li	t1,0
   12bb0:	0007071b          	sext.w	a4,a4
   12bb4:	fda00e13          	li	t3,-38
   12bb8:	1607a6af          	lr.w.aqrl	a3,(a5)
   12bbc:	00669663          	bne	a3,t1,12bc8 <__lockfile+0x64>
   12bc0:	1ee7a62f          	sc.w.aqrl	a2,a4,(a5)
   12bc4:	fe061ae3          	bnez	a2,12bb8 <__lockfile+0x54>
   12bc8:	0006869b          	sext.w	a3,a3
   12bcc:	00069663          	bnez	a3,12bd8 <__lockfile+0x74>
   12bd0:	00100513          	li	a0,1
   12bd4:	00008067          	ret
   12bd8:	0106f5b3          	and	a1,a3,a6
   12bdc:	0106e633          	or	a2,a3,a6
   12be0:	0005859b          	sext.w	a1,a1
   12be4:	0006061b          	sext.w	a2,a2
   12be8:	02058663          	beqz	a1,12c14 <__lockfile+0xb0>
   12bec:	06200893          	li	a7,98
   12bf0:	00078513          	mv	a0,a5
   12bf4:	08000593          	li	a1,128
   12bf8:	00000693          	li	a3,0
   12bfc:	00000073          	ecall
   12c00:	fbc51ce3          	bne	a0,t3,12bb8 <__lockfile+0x54>
   12c04:	00078513          	mv	a0,a5
   12c08:	00000593          	li	a1,0
   12c0c:	00000073          	ecall
   12c10:	fa9ff06f          	j	12bb8 <__lockfile+0x54>
   12c14:	1607a5af          	lr.w.aqrl	a1,(a5)
   12c18:	00d59663          	bne	a1,a3,12c24 <__lockfile+0xc0>
   12c1c:	1ec7a52f          	sc.w.aqrl	a0,a2,(a5)
   12c20:	fe051ae3          	bnez	a0,12c14 <__lockfile+0xb0>
   12c24:	0005859b          	sext.w	a1,a1
   12c28:	f8d598e3          	bne	a1,a3,12bb8 <__lockfile+0x54>
   12c2c:	fc1ff06f          	j	12bec <__lockfile+0x88>
   12c30:	00000513          	li	a0,0
   12c34:	00008067          	ret

0000000000012c38 <__unlockfile>:
   12c38:	08c50713          	addi	a4,a0,140
   12c3c:	00000613          	li	a2,0
   12c40:	08c52783          	lw	a5,140(a0)
   12c44:	0007879b          	sext.w	a5,a5
   12c48:	160726af          	lr.w.aqrl	a3,(a4)
   12c4c:	00f69663          	bne	a3,a5,12c58 <__unlockfile+0x20>
   12c50:	1ec725af          	sc.w.aqrl	a1,a2,(a4)
   12c54:	fe059ae3          	bnez	a1,12c48 <__unlockfile+0x10>
   12c58:	0006869b          	sext.w	a3,a3
   12c5c:	fed792e3          	bne	a5,a3,12c40 <__unlockfile+0x8>
   12c60:	01e7d793          	srli	a5,a5,0x1e
   12c64:	0017f793          	andi	a5,a5,1
   12c68:	02078663          	beqz	a5,12c94 <__unlockfile+0x5c>
   12c6c:	06200893          	li	a7,98
   12c70:	00070513          	mv	a0,a4
   12c74:	08100593          	li	a1,129
   12c78:	00100613          	li	a2,1
   12c7c:	00000073          	ecall
   12c80:	fda00793          	li	a5,-38
   12c84:	00f51863          	bne	a0,a5,12c94 <__unlockfile+0x5c>
   12c88:	00070513          	mv	a0,a4
   12c8c:	00100593          	li	a1,1
   12c90:	00000073          	ecall
   12c94:	00008067          	ret

0000000000012c98 <__aio_close>:
   12c98:	00008067          	ret

0000000000012c9c <__stdio_close>:
   12c9c:	07852503          	lw	a0,120(a0)
   12ca0:	ff010113          	addi	sp,sp,-16
   12ca4:	00113423          	sd	ra,8(sp)
   12ca8:	ff1ff0ef          	jal	ra,12c98 <__aio_close>
   12cac:	03900893          	li	a7,57
   12cb0:	00000073          	ecall
   12cb4:	784000ef          	jal	ra,13438 <__syscall_ret>
   12cb8:	00813083          	ld	ra,8(sp)
   12cbc:	0005051b          	sext.w	a0,a0
   12cc0:	01010113          	addi	sp,sp,16
   12cc4:	00008067          	ret

0000000000012cc8 <__stdio_seek>:
   12cc8:	07852503          	lw	a0,120(a0)
   12ccc:	7600006f          	j	1342c <__lseek>

0000000000012cd0 <__stdout_write>:
   12cd0:	fe010113          	addi	sp,sp,-32
   12cd4:	00060693          	mv	a3,a2
   12cd8:	00013637          	lui	a2,0x13
   12cdc:	67060613          	addi	a2,a2,1648 # 13670 <__stdio_write>
   12ce0:	00113c23          	sd	ra,24(sp)
   12ce4:	04c53423          	sd	a2,72(a0)
   12ce8:	00052603          	lw	a2,0(a0)
   12cec:	00050793          	mv	a5,a0
   12cf0:	00058713          	mv	a4,a1
   12cf4:	04067613          	andi	a2,a2,64
   12cf8:	02061463          	bnez	a2,12d20 <__stdout_write+0x50>
   12cfc:	000055b7          	lui	a1,0x5
   12d00:	07852503          	lw	a0,120(a0)
   12d04:	01d00893          	li	a7,29
   12d08:	41358593          	addi	a1,a1,1043 # 5413 <exit-0xad0d>
   12d0c:	00810613          	addi	a2,sp,8
   12d10:	00000073          	ecall
   12d14:	00050663          	beqz	a0,12d20 <__stdout_write+0x50>
   12d18:	fff00613          	li	a2,-1
   12d1c:	08c7a823          	sw	a2,144(a5)
   12d20:	00068613          	mv	a2,a3
   12d24:	00070593          	mv	a1,a4
   12d28:	00078513          	mv	a0,a5
   12d2c:	145000ef          	jal	ra,13670 <__stdio_write>
   12d30:	01813083          	ld	ra,24(sp)
   12d34:	02010113          	addi	sp,sp,32
   12d38:	00008067          	ret

0000000000012d3c <__towrite>:
   12d3c:	08852783          	lw	a5,136(a0)
   12d40:	fff7871b          	addiw	a4,a5,-1
   12d44:	00e7e7b3          	or	a5,a5,a4
   12d48:	08f52423          	sw	a5,136(a0)
   12d4c:	00052783          	lw	a5,0(a0)
   12d50:	0087f713          	andi	a4,a5,8
   12d54:	00070a63          	beqz	a4,12d68 <__towrite+0x2c>
   12d58:	0207e793          	ori	a5,a5,32
   12d5c:	00f52023          	sw	a5,0(a0)
   12d60:	fff00513          	li	a0,-1
   12d64:	00008067          	ret
   12d68:	05853783          	ld	a5,88(a0)
   12d6c:	06053703          	ld	a4,96(a0)
   12d70:	00053823          	sd	zero,16(a0)
   12d74:	02f53c23          	sd	a5,56(a0)
   12d78:	02f53423          	sd	a5,40(a0)
   12d7c:	00e787b3          	add	a5,a5,a4
   12d80:	00053423          	sd	zero,8(a0)
   12d84:	02f53023          	sd	a5,32(a0)
   12d88:	00000513          	li	a0,0
   12d8c:	00008067          	ret

0000000000012d90 <__towrite_needs_stdio_exit>:
   12d90:	0950006f          	j	13624 <__stdio_exit>

0000000000012d94 <__fwritex>:
   12d94:	02063783          	ld	a5,32(a2)
   12d98:	fd010113          	addi	sp,sp,-48
   12d9c:	02813023          	sd	s0,32(sp)
   12da0:	01213823          	sd	s2,16(sp)
   12da4:	01313423          	sd	s3,8(sp)
   12da8:	02113423          	sd	ra,40(sp)
   12dac:	00913c23          	sd	s1,24(sp)
   12db0:	00050993          	mv	s3,a0
   12db4:	00058913          	mv	s2,a1
   12db8:	00060413          	mv	s0,a2
   12dbc:	04078063          	beqz	a5,12dfc <__fwritex+0x68>
   12dc0:	02043783          	ld	a5,32(s0) # 800020 <__global_pointer$+0x7e7820>
   12dc4:	02843703          	ld	a4,40(s0)
   12dc8:	40e787b3          	sub	a5,a5,a4
   12dcc:	0527f263          	bgeu	a5,s2,12e10 <__fwritex+0x7c>
   12dd0:	04843783          	ld	a5,72(s0)
   12dd4:	00040513          	mv	a0,s0
   12dd8:	02013403          	ld	s0,32(sp)
   12ddc:	02813083          	ld	ra,40(sp)
   12de0:	01813483          	ld	s1,24(sp)
   12de4:	00090613          	mv	a2,s2
   12de8:	00098593          	mv	a1,s3
   12dec:	01013903          	ld	s2,16(sp)
   12df0:	00813983          	ld	s3,8(sp)
   12df4:	03010113          	addi	sp,sp,48
   12df8:	00078067          	jr	a5
   12dfc:	00060513          	mv	a0,a2
   12e00:	f3dff0ef          	jal	ra,12d3c <__towrite>
   12e04:	fa050ee3          	beqz	a0,12dc0 <__fwritex+0x2c>
   12e08:	00000513          	li	a0,0
   12e0c:	0340006f          	j	12e40 <__fwritex+0xac>
   12e10:	09042783          	lw	a5,144(s0)
   12e14:	00090493          	mv	s1,s2
   12e18:	00a00713          	li	a4,10
   12e1c:	0407d263          	bgez	a5,12e60 <__fwritex+0xcc>
   12e20:	02843503          	ld	a0,40(s0)
   12e24:	00048613          	mv	a2,s1
   12e28:	00098593          	mv	a1,s3
   12e2c:	1b0000ef          	jal	ra,12fdc <memcpy>
   12e30:	02843603          	ld	a2,40(s0)
   12e34:	00090513          	mv	a0,s2
   12e38:	009604b3          	add	s1,a2,s1
   12e3c:	02943423          	sd	s1,40(s0)
   12e40:	02813083          	ld	ra,40(sp)
   12e44:	02013403          	ld	s0,32(sp)
   12e48:	01813483          	ld	s1,24(sp)
   12e4c:	01013903          	ld	s2,16(sp)
   12e50:	00813983          	ld	s3,8(sp)
   12e54:	03010113          	addi	sp,sp,48
   12e58:	00008067          	ret
   12e5c:	00078493          	mv	s1,a5
   12e60:	02048c63          	beqz	s1,12e98 <__fwritex+0x104>
   12e64:	fff48793          	addi	a5,s1,-1
   12e68:	00f986b3          	add	a3,s3,a5
   12e6c:	0006c683          	lbu	a3,0(a3)
   12e70:	fee696e3          	bne	a3,a4,12e5c <__fwritex+0xc8>
   12e74:	04843783          	ld	a5,72(s0)
   12e78:	00048613          	mv	a2,s1
   12e7c:	00098593          	mv	a1,s3
   12e80:	00040513          	mv	a0,s0
   12e84:	000780e7          	jalr	a5
   12e88:	fa956ce3          	bltu	a0,s1,12e40 <__fwritex+0xac>
   12e8c:	009989b3          	add	s3,s3,s1
   12e90:	409904b3          	sub	s1,s2,s1
   12e94:	f8dff06f          	j	12e20 <__fwritex+0x8c>
   12e98:	00090493          	mv	s1,s2
   12e9c:	f85ff06f          	j	12e20 <__fwritex+0x8c>

0000000000012ea0 <fwrite>:
   12ea0:	fc010113          	addi	sp,sp,-64
   12ea4:	02813823          	sd	s0,48(sp)
   12ea8:	02913423          	sd	s1,40(sp)
   12eac:	03213023          	sd	s2,32(sp)
   12eb0:	01313c23          	sd	s3,24(sp)
   12eb4:	01513423          	sd	s5,8(sp)
   12eb8:	02113c23          	sd	ra,56(sp)
   12ebc:	01413823          	sd	s4,16(sp)
   12ec0:	02c58ab3          	mul	s5,a1,a2
   12ec4:	00050993          	mv	s3,a0
   12ec8:	00058913          	mv	s2,a1
   12ecc:	00068493          	mv	s1,a3
   12ed0:	00000413          	li	s0,0
   12ed4:	00058463          	beqz	a1,12edc <fwrite+0x3c>
   12ed8:	00060413          	mv	s0,a2
   12edc:	08c4a783          	lw	a5,140(s1)
   12ee0:	00000a13          	li	s4,0
   12ee4:	0007879b          	sext.w	a5,a5
   12ee8:	0007c863          	bltz	a5,12ef8 <fwrite+0x58>
   12eec:	00048513          	mv	a0,s1
   12ef0:	c75ff0ef          	jal	ra,12b64 <__lockfile>
   12ef4:	00050a13          	mv	s4,a0
   12ef8:	00098513          	mv	a0,s3
   12efc:	00048613          	mv	a2,s1
   12f00:	000a8593          	mv	a1,s5
   12f04:	e91ff0ef          	jal	ra,12d94 <__fwritex>
   12f08:	00050993          	mv	s3,a0
   12f0c:	000a0663          	beqz	s4,12f18 <fwrite+0x78>
   12f10:	00048513          	mv	a0,s1
   12f14:	d25ff0ef          	jal	ra,12c38 <__unlockfile>
   12f18:	013a8463          	beq	s5,s3,12f20 <fwrite+0x80>
   12f1c:	0329d433          	divu	s0,s3,s2
   12f20:	03813083          	ld	ra,56(sp)
   12f24:	00040513          	mv	a0,s0
   12f28:	03013403          	ld	s0,48(sp)
   12f2c:	02813483          	ld	s1,40(sp)
   12f30:	02013903          	ld	s2,32(sp)
   12f34:	01813983          	ld	s3,24(sp)
   12f38:	01013a03          	ld	s4,16(sp)
   12f3c:	00813a83          	ld	s5,8(sp)
   12f40:	04010113          	addi	sp,sp,64
   12f44:	00008067          	ret

0000000000012f48 <memchr>:
   12f48:	0ff5f593          	andi	a1,a1,255
   12f4c:	00757793          	andi	a5,a0,7
   12f50:	02078863          	beqz	a5,12f80 <memchr+0x38>
   12f54:	08060063          	beqz	a2,12fd4 <memchr+0x8c>
   12f58:	00054783          	lbu	a5,0(a0)
   12f5c:	00b79c63          	bne	a5,a1,12f74 <memchr+0x2c>
   12f60:	00c50633          	add	a2,a0,a2
   12f64:	06c50863          	beq	a0,a2,12fd4 <memchr+0x8c>
   12f68:	00054783          	lbu	a5,0(a0)
   12f6c:	06b79063          	bne	a5,a1,12fcc <memchr+0x84>
   12f70:	00008067          	ret
   12f74:	00150513          	addi	a0,a0,1
   12f78:	fff60613          	addi	a2,a2,-1
   12f7c:	fd1ff06f          	j	12f4c <memchr+0x4>
   12f80:	04060a63          	beqz	a2,12fd4 <memchr+0x8c>
   12f84:	00054783          	lbu	a5,0(a0)
   12f88:	fcb78ce3          	beq	a5,a1,12f60 <memchr+0x18>
   12f8c:	9081b683          	ld	a3,-1784(gp) # 18108 <__SDATA_BEGIN__>
   12f90:	9101b883          	ld	a7,-1776(gp) # 18110 <__SDATA_BEGIN__+0x8>
   12f94:	02d586b3          	mul	a3,a1,a3
   12f98:	9181b803          	ld	a6,-1768(gp) # 18118 <__SDATA_BEGIN__+0x10>
   12f9c:	00700313          	li	t1,7
   12fa0:	fcc370e3          	bgeu	t1,a2,12f60 <memchr+0x18>
   12fa4:	00053783          	ld	a5,0(a0)
   12fa8:	00f6c7b3          	xor	a5,a3,a5
   12fac:	01178733          	add	a4,a5,a7
   12fb0:	fff7c793          	not	a5,a5
   12fb4:	00f777b3          	and	a5,a4,a5
   12fb8:	0107f7b3          	and	a5,a5,a6
   12fbc:	fa0792e3          	bnez	a5,12f60 <memchr+0x18>
   12fc0:	00850513          	addi	a0,a0,8
   12fc4:	ff860613          	addi	a2,a2,-8
   12fc8:	fd9ff06f          	j	12fa0 <memchr+0x58>
   12fcc:	00150513          	addi	a0,a0,1
   12fd0:	f95ff06f          	j	12f64 <memchr+0x1c>
   12fd4:	00000513          	li	a0,0
   12fd8:	00008067          	ret

0000000000012fdc <memcpy>:
   12fdc:	00050793          	mv	a5,a0
   12fe0:	0035f713          	andi	a4,a1,3
   12fe4:	00070463          	beqz	a4,12fec <memcpy+0x10>
   12fe8:	02061063          	bnez	a2,13008 <memcpy+0x2c>
   12fec:	0037f693          	andi	a3,a5,3
   12ff0:	0e069463          	bnez	a3,130d8 <memcpy+0xfc>
   12ff4:	00058713          	mv	a4,a1
   12ff8:	00078693          	mv	a3,a5
   12ffc:	00c58333          	add	t1,a1,a2
   13000:	00f00813          	li	a6,15
   13004:	0440006f          	j	13048 <memcpy+0x6c>
   13008:	0005c703          	lbu	a4,0(a1)
   1300c:	00158593          	addi	a1,a1,1
   13010:	00178793          	addi	a5,a5,1
   13014:	fff60613          	addi	a2,a2,-1
   13018:	fee78fa3          	sb	a4,-1(a5)
   1301c:	fc5ff06f          	j	12fe0 <memcpy+0x4>
   13020:	00072883          	lw	a7,0(a4)
   13024:	01068693          	addi	a3,a3,16
   13028:	01070713          	addi	a4,a4,16
   1302c:	ff16a823          	sw	a7,-16(a3)
   13030:	ff472883          	lw	a7,-12(a4)
   13034:	ff16aa23          	sw	a7,-12(a3)
   13038:	ff872883          	lw	a7,-8(a4)
   1303c:	ff16ac23          	sw	a7,-8(a3)
   13040:	ffc72883          	lw	a7,-4(a4)
   13044:	ff16ae23          	sw	a7,-4(a3)
   13048:	40e308b3          	sub	a7,t1,a4
   1304c:	fd186ae3          	bltu	a6,a7,13020 <memcpy+0x44>
   13050:	00465713          	srli	a4,a2,0x4
   13054:	ff000693          	li	a3,-16
   13058:	02d706b3          	mul	a3,a4,a3
   1305c:	00471713          	slli	a4,a4,0x4
   13060:	00e787b3          	add	a5,a5,a4
   13064:	00e585b3          	add	a1,a1,a4
   13068:	00c686b3          	add	a3,a3,a2
   1306c:	00867613          	andi	a2,a2,8
   13070:	00060e63          	beqz	a2,1308c <memcpy+0xb0>
   13074:	0005a703          	lw	a4,0(a1)
   13078:	00878793          	addi	a5,a5,8
   1307c:	00858593          	addi	a1,a1,8
   13080:	fee7ac23          	sw	a4,-8(a5)
   13084:	ffc5a703          	lw	a4,-4(a1)
   13088:	fee7ae23          	sw	a4,-4(a5)
   1308c:	0046f713          	andi	a4,a3,4
   13090:	00070a63          	beqz	a4,130a4 <memcpy+0xc8>
   13094:	0005a703          	lw	a4,0(a1)
   13098:	00478793          	addi	a5,a5,4
   1309c:	00458593          	addi	a1,a1,4
   130a0:	fee7ae23          	sw	a4,-4(a5)
   130a4:	0026f713          	andi	a4,a3,2
   130a8:	00070e63          	beqz	a4,130c4 <memcpy+0xe8>
   130ac:	0005c703          	lbu	a4,0(a1)
   130b0:	00278793          	addi	a5,a5,2
   130b4:	00258593          	addi	a1,a1,2
   130b8:	fee78f23          	sb	a4,-2(a5)
   130bc:	fff5c703          	lbu	a4,-1(a1)
   130c0:	fee78fa3          	sb	a4,-1(a5)
   130c4:	0016f693          	andi	a3,a3,1
   130c8:	20068e63          	beqz	a3,132e4 <memcpy+0x308>
   130cc:	0005c703          	lbu	a4,0(a1)
   130d0:	00e78023          	sb	a4,0(a5)
   130d4:	2100006f          	j	132e4 <memcpy+0x308>
   130d8:	01f00713          	li	a4,31
   130dc:	0cc77863          	bgeu	a4,a2,131ac <memcpy+0x1d0>
   130e0:	00200313          	li	t1,2
   130e4:	0005c703          	lbu	a4,0(a1)
   130e8:	0005a803          	lw	a6,0(a1)
   130ec:	00c788b3          	add	a7,a5,a2
   130f0:	1e668c63          	beq	a3,t1,132e8 <memcpy+0x30c>
   130f4:	00300313          	li	t1,3
   130f8:	28668863          	beq	a3,t1,13388 <memcpy+0x3ac>
   130fc:	00e78023          	sb	a4,0(a5)
   13100:	0015c703          	lbu	a4,1(a1)
   13104:	00358e13          	addi	t3,a1,3
   13108:	00378313          	addi	t1,a5,3
   1310c:	00e780a3          	sb	a4,1(a5)
   13110:	0025c703          	lbu	a4,2(a1)
   13114:	01000e93          	li	t4,16
   13118:	00e78123          	sb	a4,2(a5)
   1311c:	000e0713          	mv	a4,t3
   13120:	00030793          	mv	a5,t1
   13124:	00172683          	lw	a3,1(a4)
   13128:	0188581b          	srliw	a6,a6,0x18
   1312c:	01078793          	addi	a5,a5,16
   13130:	0086959b          	slliw	a1,a3,0x8
   13134:	00b86833          	or	a6,a6,a1
   13138:	00572583          	lw	a1,5(a4)
   1313c:	ff07a823          	sw	a6,-16(a5)
   13140:	0186d69b          	srliw	a3,a3,0x18
   13144:	0085981b          	slliw	a6,a1,0x8
   13148:	0106e6b3          	or	a3,a3,a6
   1314c:	fed7aa23          	sw	a3,-12(a5)
   13150:	00972683          	lw	a3,9(a4)
   13154:	0185d59b          	srliw	a1,a1,0x18
   13158:	01070713          	addi	a4,a4,16
   1315c:	0086981b          	slliw	a6,a3,0x8
   13160:	0105e5b3          	or	a1,a1,a6
   13164:	ffd72803          	lw	a6,-3(a4)
   13168:	feb7ac23          	sw	a1,-8(a5)
   1316c:	0186d69b          	srliw	a3,a3,0x18
   13170:	0088159b          	slliw	a1,a6,0x8
   13174:	00b6e6b3          	or	a3,a3,a1
   13178:	fed7ae23          	sw	a3,-4(a5)
   1317c:	40f886b3          	sub	a3,a7,a5
   13180:	fadee2e3          	bltu	t4,a3,13124 <memcpy+0x148>
   13184:	fec60713          	addi	a4,a2,-20
   13188:	00475713          	srli	a4,a4,0x4
   1318c:	00170793          	addi	a5,a4,1
   13190:	00479793          	slli	a5,a5,0x4
   13194:	00fe05b3          	add	a1,t3,a5
   13198:	fed60613          	addi	a2,a2,-19
   1319c:	00f307b3          	add	a5,t1,a5
   131a0:	ff000693          	li	a3,-16
   131a4:	02d70733          	mul	a4,a4,a3
   131a8:	00c70633          	add	a2,a4,a2
   131ac:	01067713          	andi	a4,a2,16
   131b0:	08070663          	beqz	a4,1323c <memcpy+0x260>
   131b4:	0005c703          	lbu	a4,0(a1)
   131b8:	01078793          	addi	a5,a5,16
   131bc:	01058593          	addi	a1,a1,16
   131c0:	fee78823          	sb	a4,-16(a5)
   131c4:	ff15c703          	lbu	a4,-15(a1)
   131c8:	fee788a3          	sb	a4,-15(a5)
   131cc:	ff25c703          	lbu	a4,-14(a1)
   131d0:	fee78923          	sb	a4,-14(a5)
   131d4:	ff35c703          	lbu	a4,-13(a1)
   131d8:	fee789a3          	sb	a4,-13(a5)
   131dc:	ff45c703          	lbu	a4,-12(a1)
   131e0:	fee78a23          	sb	a4,-12(a5)
   131e4:	ff55c703          	lbu	a4,-11(a1)
   131e8:	fee78aa3          	sb	a4,-11(a5)
   131ec:	ff65c703          	lbu	a4,-10(a1)
   131f0:	fee78b23          	sb	a4,-10(a5)
   131f4:	ff75c703          	lbu	a4,-9(a1)
   131f8:	fee78ba3          	sb	a4,-9(a5)
   131fc:	ff85c703          	lbu	a4,-8(a1)
   13200:	fee78c23          	sb	a4,-8(a5)
   13204:	ff95c703          	lbu	a4,-7(a1)
   13208:	fee78ca3          	sb	a4,-7(a5)
   1320c:	ffa5c703          	lbu	a4,-6(a1)
   13210:	fee78d23          	sb	a4,-6(a5)
   13214:	ffb5c703          	lbu	a4,-5(a1)
   13218:	fee78da3          	sb	a4,-5(a5)
   1321c:	ffc5c703          	lbu	a4,-4(a1)
   13220:	fee78e23          	sb	a4,-4(a5)
   13224:	ffd5c703          	lbu	a4,-3(a1)
   13228:	fee78ea3          	sb	a4,-3(a5)
   1322c:	ffe5c703          	lbu	a4,-2(a1)
   13230:	fee78f23          	sb	a4,-2(a5)
   13234:	fff5c703          	lbu	a4,-1(a1)
   13238:	fee78fa3          	sb	a4,-1(a5)
   1323c:	00867713          	andi	a4,a2,8
   13240:	04070663          	beqz	a4,1328c <memcpy+0x2b0>
   13244:	0005c703          	lbu	a4,0(a1)
   13248:	00878793          	addi	a5,a5,8
   1324c:	00858593          	addi	a1,a1,8
   13250:	fee78c23          	sb	a4,-8(a5)
   13254:	ff95c703          	lbu	a4,-7(a1)
   13258:	fee78ca3          	sb	a4,-7(a5)
   1325c:	ffa5c703          	lbu	a4,-6(a1)
   13260:	fee78d23          	sb	a4,-6(a5)
   13264:	ffb5c703          	lbu	a4,-5(a1)
   13268:	fee78da3          	sb	a4,-5(a5)
   1326c:	ffc5c703          	lbu	a4,-4(a1)
   13270:	fee78e23          	sb	a4,-4(a5)
   13274:	ffd5c703          	lbu	a4,-3(a1)
   13278:	fee78ea3          	sb	a4,-3(a5)
   1327c:	ffe5c703          	lbu	a4,-2(a1)
   13280:	fee78f23          	sb	a4,-2(a5)
   13284:	fff5c703          	lbu	a4,-1(a1)
   13288:	fee78fa3          	sb	a4,-1(a5)
   1328c:	00467713          	andi	a4,a2,4
   13290:	02070663          	beqz	a4,132bc <memcpy+0x2e0>
   13294:	0005c703          	lbu	a4,0(a1)
   13298:	00478793          	addi	a5,a5,4
   1329c:	00458593          	addi	a1,a1,4
   132a0:	fee78e23          	sb	a4,-4(a5)
   132a4:	ffd5c703          	lbu	a4,-3(a1)
   132a8:	fee78ea3          	sb	a4,-3(a5)
   132ac:	ffe5c703          	lbu	a4,-2(a1)
   132b0:	fee78f23          	sb	a4,-2(a5)
   132b4:	fff5c703          	lbu	a4,-1(a1)
   132b8:	fee78fa3          	sb	a4,-1(a5)
   132bc:	00267713          	andi	a4,a2,2
   132c0:	00070e63          	beqz	a4,132dc <memcpy+0x300>
   132c4:	0005c703          	lbu	a4,0(a1)
   132c8:	00278793          	addi	a5,a5,2
   132cc:	00258593          	addi	a1,a1,2
   132d0:	fee78f23          	sb	a4,-2(a5)
   132d4:	fff5c703          	lbu	a4,-1(a1)
   132d8:	fee78fa3          	sb	a4,-1(a5)
   132dc:	00167613          	andi	a2,a2,1
   132e0:	de0616e3          	bnez	a2,130cc <memcpy+0xf0>
   132e4:	00008067          	ret
   132e8:	00e78023          	sb	a4,0(a5)
   132ec:	0015c703          	lbu	a4,1(a1)
   132f0:	00258e13          	addi	t3,a1,2
   132f4:	00278313          	addi	t1,a5,2
   132f8:	00e780a3          	sb	a4,1(a5)
   132fc:	01100e93          	li	t4,17
   13300:	000e0713          	mv	a4,t3
   13304:	00030793          	mv	a5,t1
   13308:	00272683          	lw	a3,2(a4)
   1330c:	0108581b          	srliw	a6,a6,0x10
   13310:	01078793          	addi	a5,a5,16
   13314:	0106959b          	slliw	a1,a3,0x10
   13318:	00b86833          	or	a6,a6,a1
   1331c:	00672583          	lw	a1,6(a4)
   13320:	ff07a823          	sw	a6,-16(a5)
   13324:	0106d69b          	srliw	a3,a3,0x10
   13328:	0105981b          	slliw	a6,a1,0x10
   1332c:	0106e6b3          	or	a3,a3,a6
   13330:	fed7aa23          	sw	a3,-12(a5)
   13334:	00a72683          	lw	a3,10(a4)
   13338:	0105d59b          	srliw	a1,a1,0x10
   1333c:	01070713          	addi	a4,a4,16
   13340:	0106981b          	slliw	a6,a3,0x10
   13344:	0105e5b3          	or	a1,a1,a6
   13348:	ffe72803          	lw	a6,-2(a4)
   1334c:	feb7ac23          	sw	a1,-8(a5)
   13350:	0106d69b          	srliw	a3,a3,0x10
   13354:	0108159b          	slliw	a1,a6,0x10
   13358:	00b6e6b3          	or	a3,a3,a1
   1335c:	fed7ae23          	sw	a3,-4(a5)
   13360:	40f886b3          	sub	a3,a7,a5
   13364:	fadee2e3          	bltu	t4,a3,13308 <memcpy+0x32c>
   13368:	fec60713          	addi	a4,a2,-20
   1336c:	00475713          	srli	a4,a4,0x4
   13370:	00170793          	addi	a5,a4,1
   13374:	00479793          	slli	a5,a5,0x4
   13378:	00fe05b3          	add	a1,t3,a5
   1337c:	fee60613          	addi	a2,a2,-18
   13380:	00f307b3          	add	a5,t1,a5
   13384:	e1dff06f          	j	131a0 <memcpy+0x1c4>
   13388:	00158593          	addi	a1,a1,1
   1338c:	00178313          	addi	t1,a5,1
   13390:	00e78023          	sb	a4,0(a5)
   13394:	01200e13          	li	t3,18
   13398:	00058713          	mv	a4,a1
   1339c:	00030793          	mv	a5,t1
   133a0:	00372683          	lw	a3,3(a4)
   133a4:	0088581b          	srliw	a6,a6,0x8
   133a8:	01078793          	addi	a5,a5,16
   133ac:	01869e9b          	slliw	t4,a3,0x18
   133b0:	01d86833          	or	a6,a6,t4
   133b4:	ff07a823          	sw	a6,-16(a5)
   133b8:	00772803          	lw	a6,7(a4)
   133bc:	0086d69b          	srliw	a3,a3,0x8
   133c0:	01070713          	addi	a4,a4,16
   133c4:	01881e9b          	slliw	t4,a6,0x18
   133c8:	01d6e6b3          	or	a3,a3,t4
   133cc:	fed7aa23          	sw	a3,-12(a5)
   133d0:	ffb72683          	lw	a3,-5(a4)
   133d4:	0088581b          	srliw	a6,a6,0x8
   133d8:	01869e9b          	slliw	t4,a3,0x18
   133dc:	01d86833          	or	a6,a6,t4
   133e0:	ff07ac23          	sw	a6,-8(a5)
   133e4:	fff72803          	lw	a6,-1(a4)
   133e8:	0086d69b          	srliw	a3,a3,0x8
   133ec:	01881e9b          	slliw	t4,a6,0x18
   133f0:	01d6e6b3          	or	a3,a3,t4
   133f4:	fed7ae23          	sw	a3,-4(a5)
   133f8:	40f886b3          	sub	a3,a7,a5
   133fc:	fade62e3          	bltu	t3,a3,133a0 <memcpy+0x3c4>
   13400:	fec60713          	addi	a4,a2,-20
   13404:	00475713          	srli	a4,a4,0x4
   13408:	00170793          	addi	a5,a4,1
   1340c:	00479793          	slli	a5,a5,0x4
   13410:	00f585b3          	add	a1,a1,a5
   13414:	fef60613          	addi	a2,a2,-17
   13418:	00f307b3          	add	a5,t1,a5
   1341c:	d85ff06f          	j	131a0 <memcpy+0x1c4>

0000000000013420 <__set_thread_area>:
   13420:	00050213          	mv	tp,a0
   13424:	00000513          	li	a0,0
   13428:	00008067          	ret

000000000001342c <__lseek>:
   1342c:	03e00893          	li	a7,62
   13430:	00000073          	ecall
   13434:	0040006f          	j	13438 <__syscall_ret>

0000000000013438 <__syscall_ret>:
   13438:	ff010113          	addi	sp,sp,-16
   1343c:	00813023          	sd	s0,0(sp)
   13440:	00113423          	sd	ra,8(sp)
   13444:	fffff7b7          	lui	a5,0xfffff
   13448:	00050413          	mv	s0,a0
   1344c:	00a7fa63          	bgeu	a5,a0,13460 <__syscall_ret+0x28>
   13450:	d44ff0ef          	jal	ra,12994 <__errno_location>
   13454:	4080043b          	negw	s0,s0
   13458:	00852023          	sw	s0,0(a0)
   1345c:	fff00513          	li	a0,-1
   13460:	00813083          	ld	ra,8(sp)
   13464:	00013403          	ld	s0,0(sp)
   13468:	01010113          	addi	sp,sp,16
   1346c:	00008067          	ret

0000000000013470 <wcrtomb>:
   13470:	00050a63          	beqz	a0,13484 <wcrtomb+0x14>
   13474:	07f00693          	li	a3,127
   13478:	0005879b          	sext.w	a5,a1
   1347c:	02b6e263          	bltu	a3,a1,134a0 <wcrtomb+0x30>
   13480:	00b50023          	sb	a1,0(a0)
   13484:	00100513          	li	a0,1
   13488:	00008067          	ret
   1348c:	00b50023          	sb	a1,0(a0)
   13490:	00100513          	li	a0,1
   13494:	00813083          	ld	ra,8(sp)
   13498:	01010113          	addi	sp,sp,16
   1349c:	00008067          	ret
   134a0:	ff010113          	addi	sp,sp,-16
   134a4:	00113423          	sd	ra,8(sp)
   134a8:	00020713          	mv	a4,tp
   134ac:	fd073703          	ld	a4,-48(a4)
   134b0:	00073703          	ld	a4,0(a4)
   134b4:	02071463          	bnez	a4,134dc <wcrtomb+0x6c>
   134b8:	ffff2737          	lui	a4,0xffff2
   134bc:	0807071b          	addiw	a4,a4,128
   134c0:	00f707bb          	addw	a5,a4,a5
   134c4:	fcf6f4e3          	bgeu	a3,a5,1348c <wcrtomb+0x1c>
   134c8:	cccff0ef          	jal	ra,12994 <__errno_location>
   134cc:	05400793          	li	a5,84
   134d0:	00f52023          	sw	a5,0(a0)
   134d4:	fff00513          	li	a0,-1
   134d8:	fbdff06f          	j	13494 <wcrtomb+0x24>
   134dc:	7ff00713          	li	a4,2047
   134e0:	02f76263          	bltu	a4,a5,13504 <wcrtomb+0x94>
   134e4:	4065d79b          	sraiw	a5,a1,0x6
   134e8:	03f5f593          	andi	a1,a1,63
   134ec:	fc07e793          	ori	a5,a5,-64
   134f0:	f805e593          	ori	a1,a1,-128
   134f4:	00f50023          	sb	a5,0(a0)
   134f8:	00b500a3          	sb	a1,1(a0)
   134fc:	00200513          	li	a0,2
   13500:	f95ff06f          	j	13494 <wcrtomb+0x24>
   13504:	0000d737          	lui	a4,0xd
   13508:	7ff70713          	addi	a4,a4,2047 # d7ff <exit-0x2921>
   1350c:	00f77a63          	bgeu	a4,a5,13520 <wcrtomb+0xb0>
   13510:	ffff2737          	lui	a4,0xffff2
   13514:	00f7073b          	addw	a4,a4,a5
   13518:	000026b7          	lui	a3,0x2
   1351c:	02d77a63          	bgeu	a4,a3,13550 <wcrtomb+0xe0>
   13520:	40c5d79b          	sraiw	a5,a1,0xc
   13524:	fe07e793          	ori	a5,a5,-32
   13528:	00f50023          	sb	a5,0(a0)
   1352c:	4065d79b          	sraiw	a5,a1,0x6
   13530:	03f7f793          	andi	a5,a5,63
   13534:	03f5f593          	andi	a1,a1,63
   13538:	f807e793          	ori	a5,a5,-128
   1353c:	f805e593          	ori	a1,a1,-128
   13540:	00f500a3          	sb	a5,1(a0)
   13544:	00b50123          	sb	a1,2(a0)
   13548:	00300513          	li	a0,3
   1354c:	f49ff06f          	j	13494 <wcrtomb+0x24>
   13550:	ffff0737          	lui	a4,0xffff0
   13554:	00f707bb          	addw	a5,a4,a5
   13558:	00100737          	lui	a4,0x100
   1355c:	f6e7f6e3          	bgeu	a5,a4,134c8 <wcrtomb+0x58>
   13560:	4125d79b          	sraiw	a5,a1,0x12
   13564:	ff07e793          	ori	a5,a5,-16
   13568:	00f50023          	sb	a5,0(a0)
   1356c:	40c5d79b          	sraiw	a5,a1,0xc
   13570:	03f7f793          	andi	a5,a5,63
   13574:	f807e793          	ori	a5,a5,-128
   13578:	00f500a3          	sb	a5,1(a0)
   1357c:	4065d79b          	sraiw	a5,a1,0x6
   13580:	03f7f793          	andi	a5,a5,63
   13584:	03f5f593          	andi	a1,a1,63
   13588:	f807e793          	ori	a5,a5,-128
   1358c:	f805e593          	ori	a1,a1,-128
   13590:	00f50123          	sb	a5,2(a0)
   13594:	00b501a3          	sb	a1,3(a0)
   13598:	00400513          	li	a0,4
   1359c:	ef9ff06f          	j	13494 <wcrtomb+0x24>

00000000000135a0 <close_file>:
   135a0:	08050063          	beqz	a0,13620 <close_file+0x80>
   135a4:	08c52783          	lw	a5,140(a0)
   135a8:	ff010113          	addi	sp,sp,-16
   135ac:	00813023          	sd	s0,0(sp)
   135b0:	00113423          	sd	ra,8(sp)
   135b4:	0007879b          	sext.w	a5,a5
   135b8:	00050413          	mv	s0,a0
   135bc:	0007c463          	bltz	a5,135c4 <close_file+0x24>
   135c0:	da4ff0ef          	jal	ra,12b64 <__lockfile>
   135c4:	02843703          	ld	a4,40(s0)
   135c8:	03843783          	ld	a5,56(s0)
   135cc:	00f70c63          	beq	a4,a5,135e4 <close_file+0x44>
   135d0:	04843783          	ld	a5,72(s0)
   135d4:	00000613          	li	a2,0
   135d8:	00000593          	li	a1,0
   135dc:	00040513          	mv	a0,s0
   135e0:	000780e7          	jalr	a5 # fffffffffffff000 <__global_pointer$+0xfffffffffffe6800>
   135e4:	00843583          	ld	a1,8(s0)
   135e8:	01043783          	ld	a5,16(s0)
   135ec:	02f58263          	beq	a1,a5,13610 <close_file+0x70>
   135f0:	05043703          	ld	a4,80(s0)
   135f4:	00040513          	mv	a0,s0
   135f8:	00013403          	ld	s0,0(sp)
   135fc:	00813083          	ld	ra,8(sp)
   13600:	00100613          	li	a2,1
   13604:	40f585b3          	sub	a1,a1,a5
   13608:	01010113          	addi	sp,sp,16
   1360c:	00070067          	jr	a4 # 100000 <__global_pointer$+0xe7800>
   13610:	00813083          	ld	ra,8(sp)
   13614:	00013403          	ld	s0,0(sp)
   13618:	01010113          	addi	sp,sp,16
   1361c:	00008067          	ret
   13620:	00008067          	ret

0000000000013624 <__stdio_exit>:
   13624:	ff010113          	addi	sp,sp,-16
   13628:	00813023          	sd	s0,0(sp)
   1362c:	00113423          	sd	ra,8(sp)
   13630:	150000ef          	jal	ra,13780 <__ofl_lock>
   13634:	00053403          	ld	s0,0(a0)
   13638:	02041463          	bnez	s0,13660 <__stdio_exit+0x3c>
   1363c:	9781b503          	ld	a0,-1672(gp) # 18178 <__stderr_used>
   13640:	f61ff0ef          	jal	ra,135a0 <close_file>
   13644:	9381b503          	ld	a0,-1736(gp) # 18138 <__stdout_used>
   13648:	f59ff0ef          	jal	ra,135a0 <close_file>
   1364c:	00013403          	ld	s0,0(sp)
   13650:	00813083          	ld	ra,8(sp)
   13654:	9781b503          	ld	a0,-1672(gp) # 18178 <__stderr_used>
   13658:	01010113          	addi	sp,sp,16
   1365c:	f45ff06f          	j	135a0 <close_file>
   13660:	00040513          	mv	a0,s0
   13664:	f3dff0ef          	jal	ra,135a0 <close_file>
   13668:	07043403          	ld	s0,112(s0)
   1366c:	fcdff06f          	j	13638 <__stdio_exit+0x14>

0000000000013670 <__stdio_write>:
   13670:	fb010113          	addi	sp,sp,-80
   13674:	03853783          	ld	a5,56(a0)
   13678:	03313423          	sd	s3,40(sp)
   1367c:	02853983          	ld	s3,40(a0)
   13680:	04813023          	sd	s0,64(sp)
   13684:	02913c23          	sd	s1,56(sp)
   13688:	40f989b3          	sub	s3,s3,a5
   1368c:	03213823          	sd	s2,48(sp)
   13690:	03413023          	sd	s4,32(sp)
   13694:	01313423          	sd	s3,8(sp)
   13698:	04113423          	sd	ra,72(sp)
   1369c:	00050413          	mv	s0,a0
   136a0:	00060913          	mv	s2,a2
   136a4:	00f13023          	sd	a5,0(sp)
   136a8:	00b13823          	sd	a1,16(sp)
   136ac:	00c13c23          	sd	a2,24(sp)
   136b0:	00c989b3          	add	s3,s3,a2
   136b4:	00200a13          	li	s4,2
   136b8:	00010493          	mv	s1,sp
   136bc:	07842503          	lw	a0,120(s0)
   136c0:	04200893          	li	a7,66
   136c4:	00048593          	mv	a1,s1
   136c8:	000a0613          	mv	a2,s4
   136cc:	00000073          	ecall
   136d0:	d69ff0ef          	jal	ra,13438 <__syscall_ret>
   136d4:	04a99063          	bne	s3,a0,13714 <__stdio_write+0xa4>
   136d8:	05843783          	ld	a5,88(s0)
   136dc:	06043703          	ld	a4,96(s0)
   136e0:	02f43c23          	sd	a5,56(s0)
   136e4:	00e78733          	add	a4,a5,a4
   136e8:	02e43023          	sd	a4,32(s0)
   136ec:	02f43423          	sd	a5,40(s0)
   136f0:	04813083          	ld	ra,72(sp)
   136f4:	04013403          	ld	s0,64(sp)
   136f8:	03813483          	ld	s1,56(sp)
   136fc:	02813983          	ld	s3,40(sp)
   13700:	02013a03          	ld	s4,32(sp)
   13704:	00090513          	mv	a0,s2
   13708:	03013903          	ld	s2,48(sp)
   1370c:	05010113          	addi	sp,sp,80
   13710:	00008067          	ret
   13714:	02055863          	bgez	a0,13744 <__stdio_write+0xd4>
   13718:	00042783          	lw	a5,0(s0)
   1371c:	02043023          	sd	zero,32(s0)
   13720:	02043c23          	sd	zero,56(s0)
   13724:	0207e793          	ori	a5,a5,32
   13728:	00f42023          	sw	a5,0(s0)
   1372c:	02043423          	sd	zero,40(s0)
   13730:	00200793          	li	a5,2
   13734:	04fa0263          	beq	s4,a5,13778 <__stdio_write+0x108>
   13738:	0084b783          	ld	a5,8(s1)
   1373c:	40f90933          	sub	s2,s2,a5
   13740:	fb1ff06f          	j	136f0 <__stdio_write+0x80>
   13744:	0084b783          	ld	a5,8(s1)
   13748:	40a989b3          	sub	s3,s3,a0
   1374c:	00a7f863          	bgeu	a5,a0,1375c <__stdio_write+0xec>
   13750:	40f50533          	sub	a0,a0,a5
   13754:	01048493          	addi	s1,s1,16
   13758:	fffa0a1b          	addiw	s4,s4,-1
   1375c:	0004b783          	ld	a5,0(s1)
   13760:	00a787b3          	add	a5,a5,a0
   13764:	00f4b023          	sd	a5,0(s1)
   13768:	0084b783          	ld	a5,8(s1)
   1376c:	40a78533          	sub	a0,a5,a0
   13770:	00a4b423          	sd	a0,8(s1)
   13774:	f49ff06f          	j	136bc <__stdio_write+0x4c>
   13778:	00000913          	li	s2,0
   1377c:	f75ff06f          	j	136f0 <__stdio_write+0x80>

0000000000013780 <__ofl_lock>:
   13780:	ff010113          	addi	sp,sp,-16
   13784:	98818513          	addi	a0,gp,-1656 # 18188 <ofl_lock>
   13788:	00113423          	sd	ra,8(sp)
   1378c:	01c000ef          	jal	ra,137a8 <__lock>
   13790:	00813083          	ld	ra,8(sp)
   13794:	98018513          	addi	a0,gp,-1664 # 18180 <ofl_head>
   13798:	01010113          	addi	sp,sp,16
   1379c:	00008067          	ret

00000000000137a0 <__ofl_unlock>:
   137a0:	98818513          	addi	a0,gp,-1656 # 18188 <ofl_lock>
   137a4:	10c0006f          	j	138b0 <__unlock>

00000000000137a8 <__lock>:
   137a8:	9c818693          	addi	a3,gp,-1592 # 181c8 <__libc>
   137ac:	0036c603          	lbu	a2,3(a3) # 2003 <exit-0xe11d>
   137b0:	00050713          	mv	a4,a0
   137b4:	0186161b          	slliw	a2,a2,0x18
   137b8:	4186561b          	sraiw	a2,a2,0x18
   137bc:	0e060863          	beqz	a2,138ac <__lock+0x104>
   137c0:	800005b7          	lui	a1,0x80000
   137c4:	00000513          	li	a0,0
   137c8:	00158593          	addi	a1,a1,1 # ffffffff80000001 <__global_pointer$+0xffffffff7ffe7801>
   137cc:	160727af          	lr.w.aqrl	a5,(a4)
   137d0:	00a79663          	bne	a5,a0,137dc <__lock+0x34>
   137d4:	1eb7282f          	sc.w.aqrl	a6,a1,(a4)
   137d8:	fe081ae3          	bnez	a6,137cc <__lock+0x24>
   137dc:	0007879b          	sext.w	a5,a5
   137e0:	00065463          	bgez	a2,137e8 <__lock+0x40>
   137e4:	000681a3          	sb	zero,3(a3)
   137e8:	0c078263          	beqz	a5,138ac <__lock+0x104>
   137ec:	800006b7          	lui	a3,0x80000
   137f0:	00a00593          	li	a1,10
   137f4:	fff6c813          	not	a6,a3
   137f8:	0016861b          	addiw	a2,a3,1
   137fc:	00078693          	mv	a3,a5
   13800:	0007d463          	bgez	a5,13808 <__lock+0x60>
   13804:	00f806bb          	addw	a3,a6,a5
   13808:	00d6053b          	addw	a0,a2,a3
   1380c:	160727af          	lr.w.aqrl	a5,(a4)
   13810:	00d79663          	bne	a5,a3,1381c <__lock+0x74>
   13814:	1ea728af          	sc.w.aqrl	a7,a0,(a4)
   13818:	fe089ae3          	bnez	a7,1380c <__lock+0x64>
   1381c:	0007879b          	sext.w	a5,a5
   13820:	08f68663          	beq	a3,a5,138ac <__lock+0x104>
   13824:	fff5859b          	addiw	a1,a1,-1
   13828:	fc059ae3          	bnez	a1,137fc <__lock+0x54>
   1382c:	00072783          	lw	a5,0(a4)
   13830:	0007861b          	sext.w	a2,a5
   13834:	0017879b          	addiw	a5,a5,1
   13838:	160726af          	lr.w.aqrl	a3,(a4)
   1383c:	00c69663          	bne	a3,a2,13848 <__lock+0xa0>
   13840:	1ef725af          	sc.w.aqrl	a1,a5,(a4)
   13844:	fe059ae3          	bnez	a1,13838 <__lock+0x90>
   13848:	0006869b          	sext.w	a3,a3
   1384c:	fed610e3          	bne	a2,a3,1382c <__lock+0x84>
   13850:	80000837          	lui	a6,0x80000
   13854:	fda00313          	li	t1,-38
   13858:	fff84e13          	not	t3,a6
   1385c:	00078693          	mv	a3,a5
   13860:	0207d863          	bgez	a5,13890 <__lock+0xe8>
   13864:	06200893          	li	a7,98
   13868:	00070513          	mv	a0,a4
   1386c:	08000593          	li	a1,128
   13870:	00078613          	mv	a2,a5
   13874:	00000693          	li	a3,0
   13878:	00000073          	ecall
   1387c:	00651863          	bne	a0,t1,1388c <__lock+0xe4>
   13880:	00070513          	mv	a0,a4
   13884:	00000593          	li	a1,0
   13888:	00000073          	ecall
   1388c:	00fe06bb          	addw	a3,t3,a5
   13890:	00d8063b          	addw	a2,a6,a3
   13894:	160727af          	lr.w.aqrl	a5,(a4)
   13898:	00d79663          	bne	a5,a3,138a4 <__lock+0xfc>
   1389c:	1ec725af          	sc.w.aqrl	a1,a2,(a4)
   138a0:	fe059ae3          	bnez	a1,13894 <__lock+0xec>
   138a4:	0007879b          	sext.w	a5,a5
   138a8:	faf69ae3          	bne	a3,a5,1385c <__lock+0xb4>
   138ac:	00008067          	ret

00000000000138b0 <__unlock>:
   138b0:	00052703          	lw	a4,0(a0)
   138b4:	00050793          	mv	a5,a0
   138b8:	0007071b          	sext.w	a4,a4
   138bc:	06075263          	bgez	a4,13920 <__unlock+0x70>
   138c0:	800005b7          	lui	a1,0x80000
   138c4:	fff5c593          	not	a1,a1
   138c8:	0007a703          	lw	a4,0(a5)
   138cc:	0007069b          	sext.w	a3,a4
   138d0:	00b7073b          	addw	a4,a4,a1
   138d4:	1607a62f          	lr.w.aqrl	a2,(a5)
   138d8:	00d61663          	bne	a2,a3,138e4 <__unlock+0x34>
   138dc:	1ee7a52f          	sc.w.aqrl	a0,a4,(a5)
   138e0:	fe051ae3          	bnez	a0,138d4 <__unlock+0x24>
   138e4:	0006071b          	sext.w	a4,a2
   138e8:	fee690e3          	bne	a3,a4,138c8 <__unlock+0x18>
   138ec:	80000737          	lui	a4,0x80000
   138f0:	00170713          	addi	a4,a4,1 # ffffffff80000001 <__global_pointer$+0xffffffff7ffe7801>
   138f4:	02e68663          	beq	a3,a4,13920 <__unlock+0x70>
   138f8:	06200893          	li	a7,98
   138fc:	00078513          	mv	a0,a5
   13900:	08100593          	li	a1,129
   13904:	00100613          	li	a2,1
   13908:	00000073          	ecall
   1390c:	fda00713          	li	a4,-38
   13910:	00e51863          	bne	a0,a4,13920 <__unlock+0x70>
   13914:	00078513          	mv	a0,a5
   13918:	00100593          	li	a1,1
   1391c:	00000073          	ecall
   13920:	00008067          	ret

0000000000013924 <__addtf3>:
   13924:	fd010113          	addi	sp,sp,-48
   13928:	02113423          	sd	ra,40(sp)
   1392c:	02813023          	sd	s0,32(sp)
   13930:	00913c23          	sd	s1,24(sp)
   13934:	01213823          	sd	s2,16(sp)
   13938:	01313423          	sd	s3,8(sp)
   1393c:	01413023          	sd	s4,0(sp)
   13940:	002024f3          	frrm	s1
   13944:	fff00e93          	li	t4,-1
   13948:	010ed713          	srli	a4,t4,0x10
   1394c:	0305d413          	srli	s0,a1,0x30
   13950:	03f5d913          	srli	s2,a1,0x3f
   13954:	00e5f5b3          	and	a1,a1,a4
   13958:	00359593          	slli	a1,a1,0x3
   1395c:	03d55793          	srli	a5,a0,0x3d
   13960:	00008337          	lui	t1,0x8
   13964:	fff30e13          	addi	t3,t1,-1 # 7fff <exit-0x8121>
   13968:	00b7e7b3          	or	a5,a5,a1
   1396c:	03f6d893          	srli	a7,a3,0x3f
   13970:	0306d593          	srli	a1,a3,0x30
   13974:	00e6f6b3          	and	a3,a3,a4
   13978:	00369693          	slli	a3,a3,0x3
   1397c:	03d65713          	srli	a4,a2,0x3d
   13980:	01c47433          	and	s0,s0,t3
   13984:	01c5f5b3          	and	a1,a1,t3
   13988:	00d76733          	or	a4,a4,a3
   1398c:	40b406bb          	subw	a3,s0,a1
   13990:	0004849b          	sext.w	s1,s1
   13994:	00351513          	slli	a0,a0,0x3
   13998:	00361613          	slli	a2,a2,0x3
   1399c:	0006881b          	sext.w	a6,a3
   139a0:	4d191a63          	bne	s2,a7,13e74 <__addtf3+0x550>
   139a4:	13005e63          	blez	a6,13ae0 <__addtf3+0x1bc>
   139a8:	0a059863          	bnez	a1,13a58 <__addtf3+0x134>
   139ac:	00c765b3          	or	a1,a4,a2
   139b0:	02059263          	bnez	a1,139d4 <__addtf3+0xb0>
   139b4:	4dc41a63          	bne	s0,t3,13e88 <__addtf3+0x564>
   139b8:	00a7e733          	or	a4,a5,a0
   139bc:	18070ee3          	beqz	a4,14358 <__addtf3+0xa34>
   139c0:	0327d713          	srli	a4,a5,0x32
   139c4:	00040593          	mv	a1,s0
   139c8:	00000813          	li	a6,0
   139cc:	3e071a63          	bnez	a4,13dc0 <__addtf3+0x49c>
   139d0:	1440006f          	j	13b14 <__addtf3+0x1f0>
   139d4:	fff6881b          	addiw	a6,a3,-1
   139d8:	06081463          	bnez	a6,13a40 <__addtf3+0x11c>
   139dc:	00a60633          	add	a2,a2,a0
   139e0:	00a63533          	sltu	a0,a2,a0
   139e4:	00f70733          	add	a4,a4,a5
   139e8:	00a70733          	add	a4,a4,a0
   139ec:	00040593          	mv	a1,s0
   139f0:	00060513          	mv	a0,a2
   139f4:	03375793          	srli	a5,a4,0x33
   139f8:	0017f793          	andi	a5,a5,1
   139fc:	0c078ee3          	beqz	a5,142d8 <__addtf3+0x9b4>
   13a00:	000086b7          	lui	a3,0x8
   13a04:	00158593          	addi	a1,a1,1 # ffffffff80000001 <__global_pointer$+0xffffffff7ffe7801>
   13a08:	fff68793          	addi	a5,a3,-1 # 7fff <exit-0x8121>
   13a0c:	42f58463          	beq	a1,a5,13e34 <__addtf3+0x510>
   13a10:	fff00793          	li	a5,-1
   13a14:	03379793          	slli	a5,a5,0x33
   13a18:	fff78793          	addi	a5,a5,-1
   13a1c:	00f777b3          	and	a5,a4,a5
   13a20:	00155713          	srli	a4,a0,0x1
   13a24:	00157513          	andi	a0,a0,1
   13a28:	00a76533          	or	a0,a4,a0
   13a2c:	03f79713          	slli	a4,a5,0x3f
   13a30:	00a76533          	or	a0,a4,a0
   13a34:	0017d793          	srli	a5,a5,0x1
   13a38:	00000813          	li	a6,0
   13a3c:	3840006f          	j	13dc0 <__addtf3+0x49c>
   13a40:	03c41463          	bne	s0,t3,13a68 <__addtf3+0x144>
   13a44:	00a7e733          	or	a4,a5,a0
   13a48:	100708e3          	beqz	a4,14358 <__addtf3+0xa34>
   13a4c:	0327d713          	srli	a4,a5,0x32
   13a50:	00177713          	andi	a4,a4,1
   13a54:	f71ff06f          	j	139c4 <__addtf3+0xa0>
   13a58:	ffc406e3          	beq	s0,t3,13a44 <__addtf3+0x120>
   13a5c:	00100693          	li	a3,1
   13a60:	03369693          	slli	a3,a3,0x33
   13a64:	00d76733          	or	a4,a4,a3
   13a68:	07400693          	li	a3,116
   13a6c:	0706c463          	blt	a3,a6,13ad4 <__addtf3+0x1b0>
   13a70:	03f00693          	li	a3,63
   13a74:	0306c663          	blt	a3,a6,13aa0 <__addtf3+0x17c>
   13a78:	04000593          	li	a1,64
   13a7c:	410585bb          	subw	a1,a1,a6
   13a80:	00b716b3          	sll	a3,a4,a1
   13a84:	010658b3          	srl	a7,a2,a6
   13a88:	00b61633          	sll	a2,a2,a1
   13a8c:	0116e6b3          	or	a3,a3,a7
   13a90:	00c03633          	snez	a2,a2
   13a94:	00c6e633          	or	a2,a3,a2
   13a98:	01075733          	srl	a4,a4,a6
   13a9c:	f41ff06f          	j	139dc <__addtf3+0xb8>
   13aa0:	fc08069b          	addiw	a3,a6,-64
   13aa4:	04000893          	li	a7,64
   13aa8:	00d756b3          	srl	a3,a4,a3
   13aac:	00000593          	li	a1,0
   13ab0:	01180863          	beq	a6,a7,13ac0 <__addtf3+0x19c>
   13ab4:	08000593          	li	a1,128
   13ab8:	410585bb          	subw	a1,a1,a6
   13abc:	00b715b3          	sll	a1,a4,a1
   13ac0:	00c5e633          	or	a2,a1,a2
   13ac4:	00c03633          	snez	a2,a2
   13ac8:	00c6e633          	or	a2,a3,a2
   13acc:	00000713          	li	a4,0
   13ad0:	f0dff06f          	j	139dc <__addtf3+0xb8>
   13ad4:	00c76633          	or	a2,a4,a2
   13ad8:	00c03633          	snez	a2,a2
   13adc:	ff1ff06f          	j	13acc <__addtf3+0x1a8>
   13ae0:	12080063          	beqz	a6,13c00 <__addtf3+0x2dc>
   13ae4:	08041063          	bnez	s0,13b64 <__addtf3+0x240>
   13ae8:	00a7e833          	or	a6,a5,a0
   13aec:	02081863          	bnez	a6,13b1c <__addtf3+0x1f8>
   13af0:	00060513          	mv	a0,a2
   13af4:	7fc59263          	bne	a1,t3,142d8 <__addtf3+0x9b4>
   13af8:	00c76533          	or	a0,a4,a2
   13afc:	040502e3          	beqz	a0,14340 <__addtf3+0xa1c>
   13b00:	03275793          	srli	a5,a4,0x32
   13b04:	0017f793          	andi	a5,a5,1
   13b08:	040792e3          	bnez	a5,1434c <__addtf3+0xa28>
   13b0c:	00070793          	mv	a5,a4
   13b10:	00060513          	mv	a0,a2
   13b14:	01000693          	li	a3,16
   13b18:	1400006f          	j	13c58 <__addtf3+0x334>
   13b1c:	fff6c693          	not	a3,a3
   13b20:	0006869b          	sext.w	a3,a3
   13b24:	00069c63          	bnez	a3,13b3c <__addtf3+0x218>
   13b28:	00c50533          	add	a0,a0,a2
   13b2c:	00e78733          	add	a4,a5,a4
   13b30:	00c53633          	sltu	a2,a0,a2
   13b34:	00c70733          	add	a4,a4,a2
   13b38:	ebdff06f          	j	139f4 <__addtf3+0xd0>
   13b3c:	03c59e63          	bne	a1,t3,13b78 <__addtf3+0x254>
   13b40:	00c76533          	or	a0,a4,a2
   13b44:	7e050e63          	beqz	a0,14340 <__addtf3+0xa1c>
   13b48:	03275793          	srli	a5,a4,0x32
   13b4c:	0017f793          	andi	a5,a5,1
   13b50:	7e079e63          	bnez	a5,1434c <__addtf3+0xa28>
   13b54:	00070793          	mv	a5,a4
   13b58:	00060513          	mv	a0,a2
   13b5c:	00000813          	li	a6,0
   13b60:	fb5ff06f          	j	13b14 <__addtf3+0x1f0>
   13b64:	fdc58ee3          	beq	a1,t3,13b40 <__addtf3+0x21c>
   13b68:	00100813          	li	a6,1
   13b6c:	03381813          	slli	a6,a6,0x33
   13b70:	40d006bb          	negw	a3,a3
   13b74:	0107e7b3          	or	a5,a5,a6
   13b78:	07400813          	li	a6,116
   13b7c:	06d84c63          	blt	a6,a3,13bf4 <__addtf3+0x2d0>
   13b80:	03f00813          	li	a6,63
   13b84:	02d84e63          	blt	a6,a3,13bc0 <__addtf3+0x29c>
   13b88:	04000893          	li	a7,64
   13b8c:	40d888bb          	subw	a7,a7,a3
   13b90:	00d55333          	srl	t1,a0,a3
   13b94:	01179833          	sll	a6,a5,a7
   13b98:	01151533          	sll	a0,a0,a7
   13b9c:	00686833          	or	a6,a6,t1
   13ba0:	00a03533          	snez	a0,a0
   13ba4:	00a86533          	or	a0,a6,a0
   13ba8:	00d7d6b3          	srl	a3,a5,a3
   13bac:	00c50533          	add	a0,a0,a2
   13bb0:	00e686b3          	add	a3,a3,a4
   13bb4:	00c53633          	sltu	a2,a0,a2
   13bb8:	00c68733          	add	a4,a3,a2
   13bbc:	e39ff06f          	j	139f4 <__addtf3+0xd0>
   13bc0:	fc06881b          	addiw	a6,a3,-64
   13bc4:	04000313          	li	t1,64
   13bc8:	0107d833          	srl	a6,a5,a6
   13bcc:	00000893          	li	a7,0
   13bd0:	00668863          	beq	a3,t1,13be0 <__addtf3+0x2bc>
   13bd4:	08000893          	li	a7,128
   13bd8:	40d886bb          	subw	a3,a7,a3
   13bdc:	00d798b3          	sll	a7,a5,a3
   13be0:	00a8e533          	or	a0,a7,a0
   13be4:	00a03533          	snez	a0,a0
   13be8:	00a86533          	or	a0,a6,a0
   13bec:	00000693          	li	a3,0
   13bf0:	fbdff06f          	j	13bac <__addtf3+0x288>
   13bf4:	00a7e533          	or	a0,a5,a0
   13bf8:	00a03533          	snez	a0,a0
   13bfc:	ff1ff06f          	j	13bec <__addtf3+0x2c8>
   13c00:	00140893          	addi	a7,s0,1
   13c04:	ffe30693          	addi	a3,t1,-2
   13c08:	00d8f333          	and	t1,a7,a3
   13c0c:	18031663          	bnez	t1,13d98 <__addtf3+0x474>
   13c10:	00a7e8b3          	or	a7,a5,a0
   13c14:	06041063          	bnez	s0,13c74 <__addtf3+0x350>
   13c18:	6c088c63          	beqz	a7,142f0 <__addtf3+0x9cc>
   13c1c:	00c766b3          	or	a3,a4,a2
   13c20:	48068c63          	beqz	a3,140b8 <__addtf3+0x794>
   13c24:	00c50633          	add	a2,a0,a2
   13c28:	00e787b3          	add	a5,a5,a4
   13c2c:	00a63533          	sltu	a0,a2,a0
   13c30:	00a787b3          	add	a5,a5,a0
   13c34:	0337d713          	srli	a4,a5,0x33
   13c38:	00177713          	andi	a4,a4,1
   13c3c:	6a070c63          	beqz	a4,142f4 <__addtf3+0x9d0>
   13c40:	033e9713          	slli	a4,t4,0x33
   13c44:	fff70713          	addi	a4,a4,-1
   13c48:	00e7f7b3          	and	a5,a5,a4
   13c4c:	00060513          	mv	a0,a2
   13c50:	00000693          	li	a3,0
   13c54:	00100593          	li	a1,1
   13c58:	00757713          	andi	a4,a0,7
   13c5c:	1a071063          	bnez	a4,13dfc <__addtf3+0x4d8>
   13c60:	08080663          	beqz	a6,13cec <__addtf3+0x3c8>
   13c64:	0016f713          	andi	a4,a3,1
   13c68:	08070263          	beqz	a4,13cec <__addtf3+0x3c8>
   13c6c:	0026e693          	ori	a3,a3,2
   13c70:	07c0006f          	j	13cec <__addtf3+0x3c8>
   13c74:	03c41c63          	bne	s0,t3,13cac <__addtf3+0x388>
   13c78:	78088c63          	beqz	a7,14410 <__addtf3+0xaec>
   13c7c:	0327d693          	srli	a3,a5,0x32
   13c80:	0016f693          	andi	a3,a3,1
   13c84:	0016b693          	seqz	a3,a3
   13c88:	00469693          	slli	a3,a3,0x4
   13c8c:	04859063          	bne	a1,s0,13ccc <__addtf3+0x3a8>
   13c90:	00c765b3          	or	a1,a4,a2
   13c94:	02058063          	beqz	a1,13cb4 <__addtf3+0x390>
   13c98:	03275593          	srli	a1,a4,0x32
   13c9c:	0015f593          	andi	a1,a1,1
   13ca0:	00059a63          	bnez	a1,13cb4 <__addtf3+0x390>
   13ca4:	01000693          	li	a3,16
   13ca8:	00c0006f          	j	13cb4 <__addtf3+0x390>
   13cac:	00000693          	li	a3,0
   13cb0:	ffc580e3          	beq	a1,t3,13c90 <__addtf3+0x36c>
   13cb4:	00089c63          	bnez	a7,13ccc <__addtf3+0x3a8>
   13cb8:	00070793          	mv	a5,a4
   13cbc:	00060513          	mv	a0,a2
   13cc0:	000085b7          	lui	a1,0x8
   13cc4:	fff58593          	addi	a1,a1,-1 # 7fff <exit-0x8121>
   13cc8:	f91ff06f          	j	13c58 <__addtf3+0x334>
   13ccc:	00c76633          	or	a2,a4,a2
   13cd0:	fe0608e3          	beqz	a2,13cc0 <__addtf3+0x39c>
   13cd4:	00100793          	li	a5,1
   13cd8:	000085b7          	lui	a1,0x8
   13cdc:	00000913          	li	s2,0
   13ce0:	03279793          	slli	a5,a5,0x32
   13ce4:	00000513          	li	a0,0
   13ce8:	fff58593          	addi	a1,a1,-1 # 7fff <exit-0x8121>
   13cec:	0337d713          	srli	a4,a5,0x33
   13cf0:	00177713          	andi	a4,a4,1
   13cf4:	02070263          	beqz	a4,13d18 <__addtf3+0x3f4>
   13cf8:	00008737          	lui	a4,0x8
   13cfc:	00158593          	addi	a1,a1,1
   13d00:	fff70613          	addi	a2,a4,-1 # 7fff <exit-0x8121>
   13d04:	6cc58463          	beq	a1,a2,143cc <__addtf3+0xaa8>
   13d08:	fff00713          	li	a4,-1
   13d0c:	03371713          	slli	a4,a4,0x33
   13d10:	fff70713          	addi	a4,a4,-1
   13d14:	00e7f7b3          	and	a5,a5,a4
   13d18:	00355713          	srli	a4,a0,0x3
   13d1c:	03d79513          	slli	a0,a5,0x3d
   13d20:	00e56533          	or	a0,a0,a4
   13d24:	00008737          	lui	a4,0x8
   13d28:	fff70713          	addi	a4,a4,-1 # 7fff <exit-0x8121>
   13d2c:	0037d793          	srli	a5,a5,0x3
   13d30:	02e59063          	bne	a1,a4,13d50 <__addtf3+0x42c>
   13d34:	00f56533          	or	a0,a0,a5
   13d38:	00000793          	li	a5,0
   13d3c:	00050a63          	beqz	a0,13d50 <__addtf3+0x42c>
   13d40:	00100793          	li	a5,1
   13d44:	02f79793          	slli	a5,a5,0x2f
   13d48:	00000513          	li	a0,0
   13d4c:	00000913          	li	s2,0
   13d50:	03159593          	slli	a1,a1,0x31
   13d54:	00f91913          	slli	s2,s2,0xf
   13d58:	0315d593          	srli	a1,a1,0x31
   13d5c:	00b965b3          	or	a1,s2,a1
   13d60:	01079793          	slli	a5,a5,0x10
   13d64:	03059913          	slli	s2,a1,0x30
   13d68:	0107d593          	srli	a1,a5,0x10
   13d6c:	0125e5b3          	or	a1,a1,s2
   13d70:	00068463          	beqz	a3,13d78 <__addtf3+0x454>
   13d74:	0016a073          	csrs	fflags,a3
   13d78:	02813083          	ld	ra,40(sp)
   13d7c:	02013403          	ld	s0,32(sp)
   13d80:	01813483          	ld	s1,24(sp)
   13d84:	01013903          	ld	s2,16(sp)
   13d88:	00813983          	ld	s3,8(sp)
   13d8c:	00013a03          	ld	s4,0(sp)
   13d90:	03010113          	addi	sp,sp,48
   13d94:	00008067          	ret
   13d98:	03c88863          	beq	a7,t3,13dc8 <__addtf3+0x4a4>
   13d9c:	00c50633          	add	a2,a0,a2
   13da0:	00a63533          	sltu	a0,a2,a0
   13da4:	00e787b3          	add	a5,a5,a4
   13da8:	00a787b3          	add	a5,a5,a0
   13dac:	03f79513          	slli	a0,a5,0x3f
   13db0:	00165613          	srli	a2,a2,0x1
   13db4:	00c56533          	or	a0,a0,a2
   13db8:	0017d793          	srli	a5,a5,0x1
   13dbc:	00088593          	mv	a1,a7
   13dc0:	00000693          	li	a3,0
   13dc4:	e95ff06f          	j	13c58 <__addtf3+0x334>
   13dc8:	00048863          	beqz	s1,13dd8 <__addtf3+0x4b4>
   13dcc:	00300793          	li	a5,3
   13dd0:	00f49863          	bne	s1,a5,13de0 <__addtf3+0x4bc>
   13dd4:	00091c63          	bnez	s2,13dec <__addtf3+0x4c8>
   13dd8:	00088593          	mv	a1,a7
   13ddc:	0680006f          	j	13e44 <__addtf3+0x520>
   13de0:	00200793          	li	a5,2
   13de4:	00f49463          	bne	s1,a5,13dec <__addtf3+0x4c8>
   13de8:	fe0918e3          	bnez	s2,13dd8 <__addtf3+0x4b4>
   13dec:	fff00793          	li	a5,-1
   13df0:	fff00513          	li	a0,-1
   13df4:	00068593          	mv	a1,a3
   13df8:	00500693          	li	a3,5
   13dfc:	00200713          	li	a4,2
   13e00:	0016e693          	ori	a3,a3,1
   13e04:	5ae48e63          	beq	s1,a4,143c0 <__addtf3+0xa9c>
   13e08:	00300713          	li	a4,3
   13e0c:	5ae48463          	beq	s1,a4,143b4 <__addtf3+0xa90>
   13e10:	5a049a63          	bnez	s1,143c4 <__addtf3+0xaa0>
   13e14:	00f57713          	andi	a4,a0,15
   13e18:	00400613          	li	a2,4
   13e1c:	5ac70463          	beq	a4,a2,143c4 <__addtf3+0xaa0>
   13e20:	00450713          	addi	a4,a0,4
   13e24:	00a73533          	sltu	a0,a4,a0
   13e28:	00a787b3          	add	a5,a5,a0
   13e2c:	00070513          	mv	a0,a4
   13e30:	5940006f          	j	143c4 <__addtf3+0xaa0>
   13e34:	00048863          	beqz	s1,13e44 <__addtf3+0x520>
   13e38:	00300793          	li	a5,3
   13e3c:	00f49c63          	bne	s1,a5,13e54 <__addtf3+0x530>
   13e40:	02091063          	bnez	s2,13e60 <__addtf3+0x53c>
   13e44:	00000793          	li	a5,0
   13e48:	00000513          	li	a0,0
   13e4c:	00500693          	li	a3,5
   13e50:	e9dff06f          	j	13cec <__addtf3+0x3c8>
   13e54:	00200793          	li	a5,2
   13e58:	00f49463          	bne	s1,a5,13e60 <__addtf3+0x53c>
   13e5c:	fe0914e3          	bnez	s2,13e44 <__addtf3+0x520>
   13e60:	fff00793          	li	a5,-1
   13e64:	fff00513          	li	a0,-1
   13e68:	ffe68593          	addi	a1,a3,-2
   13e6c:	00000813          	li	a6,0
   13e70:	f89ff06f          	j	13df8 <__addtf3+0x4d4>
   13e74:	0f005863          	blez	a6,13f64 <__addtf3+0x640>
   13e78:	08059c63          	bnez	a1,13f10 <__addtf3+0x5ec>
   13e7c:	00c765b3          	or	a1,a4,a2
   13e80:	00059a63          	bnez	a1,13e94 <__addtf3+0x570>
   13e84:	bdc400e3          	beq	s0,t3,13a44 <__addtf3+0x120>
   13e88:	00078713          	mv	a4,a5
   13e8c:	00040593          	mv	a1,s0
   13e90:	4480006f          	j	142d8 <__addtf3+0x9b4>
   13e94:	fff6881b          	addiw	a6,a3,-1
   13e98:	02081e63          	bnez	a6,13ed4 <__addtf3+0x5b0>
   13e9c:	40c50633          	sub	a2,a0,a2
   13ea0:	00c53533          	sltu	a0,a0,a2
   13ea4:	40e78733          	sub	a4,a5,a4
   13ea8:	40a70733          	sub	a4,a4,a0
   13eac:	00040593          	mv	a1,s0
   13eb0:	00060513          	mv	a0,a2
   13eb4:	03375793          	srli	a5,a4,0x33
   13eb8:	0017f793          	andi	a5,a5,1
   13ebc:	40078e63          	beqz	a5,142d8 <__addtf3+0x9b4>
   13ec0:	00d71713          	slli	a4,a4,0xd
   13ec4:	00d75993          	srli	s3,a4,0xd
   13ec8:	00050a13          	mv	s4,a0
   13ecc:	00058413          	mv	s0,a1
   13ed0:	3240006f          	j	141f4 <__addtf3+0x8d0>
   13ed4:	b7c408e3          	beq	s0,t3,13a44 <__addtf3+0x120>
   13ed8:	07400693          	li	a3,116
   13edc:	0706ce63          	blt	a3,a6,13f58 <__addtf3+0x634>
   13ee0:	03f00693          	li	a3,63
   13ee4:	0506c063          	blt	a3,a6,13f24 <__addtf3+0x600>
   13ee8:	04000593          	li	a1,64
   13eec:	410585bb          	subw	a1,a1,a6
   13ef0:	00b716b3          	sll	a3,a4,a1
   13ef4:	010658b3          	srl	a7,a2,a6
   13ef8:	00b61633          	sll	a2,a2,a1
   13efc:	0116e6b3          	or	a3,a3,a7
   13f00:	00c03633          	snez	a2,a2
   13f04:	00c6e633          	or	a2,a3,a2
   13f08:	01075733          	srl	a4,a4,a6
   13f0c:	f91ff06f          	j	13e9c <__addtf3+0x578>
   13f10:	b3c40ae3          	beq	s0,t3,13a44 <__addtf3+0x120>
   13f14:	00100693          	li	a3,1
   13f18:	03369693          	slli	a3,a3,0x33
   13f1c:	00d76733          	or	a4,a4,a3
   13f20:	fb9ff06f          	j	13ed8 <__addtf3+0x5b4>
   13f24:	fc08069b          	addiw	a3,a6,-64
   13f28:	04000893          	li	a7,64
   13f2c:	00d756b3          	srl	a3,a4,a3
   13f30:	00000593          	li	a1,0
   13f34:	01180863          	beq	a6,a7,13f44 <__addtf3+0x620>
   13f38:	08000593          	li	a1,128
   13f3c:	410585bb          	subw	a1,a1,a6
   13f40:	00b715b3          	sll	a1,a4,a1
   13f44:	00c5e633          	or	a2,a1,a2
   13f48:	00c03633          	snez	a2,a2
   13f4c:	00c6e633          	or	a2,a3,a2
   13f50:	00000713          	li	a4,0
   13f54:	f49ff06f          	j	13e9c <__addtf3+0x578>
   13f58:	00c76633          	or	a2,a4,a2
   13f5c:	00c03633          	snez	a2,a2
   13f60:	ff1ff06f          	j	13f50 <__addtf3+0x62c>
   13f64:	12080063          	beqz	a6,14084 <__addtf3+0x760>
   13f68:	08041063          	bnez	s0,13fe8 <__addtf3+0x6c4>
   13f6c:	00a7e833          	or	a6,a5,a0
   13f70:	02081663          	bnez	a6,13f9c <__addtf3+0x678>
   13f74:	37c59863          	bne	a1,t3,142e4 <__addtf3+0x9c0>
   13f78:	00c76533          	or	a0,a4,a2
   13f7c:	3e050663          	beqz	a0,14368 <__addtf3+0xa44>
   13f80:	03275793          	srli	a5,a4,0x32
   13f84:	0017f793          	andi	a5,a5,1
   13f88:	3e079663          	bnez	a5,14374 <__addtf3+0xa50>
   13f8c:	00070793          	mv	a5,a4
   13f90:	00060513          	mv	a0,a2
   13f94:	00088913          	mv	s2,a7
   13f98:	b7dff06f          	j	13b14 <__addtf3+0x1f0>
   13f9c:	fff6c693          	not	a3,a3
   13fa0:	0006869b          	sext.w	a3,a3
   13fa4:	00069e63          	bnez	a3,13fc0 <__addtf3+0x69c>
   13fa8:	40a60533          	sub	a0,a2,a0
   13fac:	40f70733          	sub	a4,a4,a5
   13fb0:	00a63633          	sltu	a2,a2,a0
   13fb4:	40c70733          	sub	a4,a4,a2
   13fb8:	00088913          	mv	s2,a7
   13fbc:	ef9ff06f          	j	13eb4 <__addtf3+0x590>
   13fc0:	03c59e63          	bne	a1,t3,13ffc <__addtf3+0x6d8>
   13fc4:	00c76533          	or	a0,a4,a2
   13fc8:	3a050063          	beqz	a0,14368 <__addtf3+0xa44>
   13fcc:	03275793          	srli	a5,a4,0x32
   13fd0:	0017f793          	andi	a5,a5,1
   13fd4:	3a079063          	bnez	a5,14374 <__addtf3+0xa50>
   13fd8:	00070793          	mv	a5,a4
   13fdc:	00060513          	mv	a0,a2
   13fe0:	00088913          	mv	s2,a7
   13fe4:	b79ff06f          	j	13b5c <__addtf3+0x238>
   13fe8:	fdc58ee3          	beq	a1,t3,13fc4 <__addtf3+0x6a0>
   13fec:	00100813          	li	a6,1
   13ff0:	03381813          	slli	a6,a6,0x33
   13ff4:	40d006bb          	negw	a3,a3
   13ff8:	0107e7b3          	or	a5,a5,a6
   13ffc:	07400813          	li	a6,116
   14000:	06d84c63          	blt	a6,a3,14078 <__addtf3+0x754>
   14004:	03f00813          	li	a6,63
   14008:	02d84e63          	blt	a6,a3,14044 <__addtf3+0x720>
   1400c:	04000313          	li	t1,64
   14010:	40d3033b          	subw	t1,t1,a3
   14014:	00679833          	sll	a6,a5,t1
   14018:	00d55e33          	srl	t3,a0,a3
   1401c:	00651533          	sll	a0,a0,t1
   14020:	01c86833          	or	a6,a6,t3
   14024:	00a03533          	snez	a0,a0
   14028:	00a86533          	or	a0,a6,a0
   1402c:	00d7d7b3          	srl	a5,a5,a3
   14030:	40a60533          	sub	a0,a2,a0
   14034:	40f707b3          	sub	a5,a4,a5
   14038:	00a63633          	sltu	a2,a2,a0
   1403c:	40c78733          	sub	a4,a5,a2
   14040:	f79ff06f          	j	13fb8 <__addtf3+0x694>
   14044:	fc06881b          	addiw	a6,a3,-64
   14048:	04000e13          	li	t3,64
   1404c:	0107d833          	srl	a6,a5,a6
   14050:	00000313          	li	t1,0
   14054:	01c68863          	beq	a3,t3,14064 <__addtf3+0x740>
   14058:	08000313          	li	t1,128
   1405c:	40d306bb          	subw	a3,t1,a3
   14060:	00d79333          	sll	t1,a5,a3
   14064:	00a36533          	or	a0,t1,a0
   14068:	00a03533          	snez	a0,a0
   1406c:	00a86533          	or	a0,a6,a0
   14070:	00000793          	li	a5,0
   14074:	fbdff06f          	j	14030 <__addtf3+0x70c>
   14078:	00a7e533          	or	a0,a5,a0
   1407c:	00a03533          	snez	a0,a0
   14080:	ff1ff06f          	j	14070 <__addtf3+0x74c>
   14084:	00140e93          	addi	t4,s0,1
   14088:	ffe30693          	addi	a3,t1,-2
   1408c:	00def6b3          	and	a3,t4,a3
   14090:	12069a63          	bnez	a3,141c4 <__addtf3+0x8a0>
   14094:	00a7eeb3          	or	t4,a5,a0
   14098:	00c76333          	or	t1,a4,a2
   1409c:	0c041663          	bnez	s0,14168 <__addtf3+0x844>
   140a0:	060e9c63          	bnez	t4,14118 <__addtf3+0x7f4>
   140a4:	24031c63          	bnez	t1,142fc <__addtf3+0x9d8>
   140a8:	ffe48913          	addi	s2,s1,-2
   140ac:	00193913          	seqz	s2,s2
   140b0:	00000793          	li	a5,0
   140b4:	00000513          	li	a0,0
   140b8:	00f56733          	or	a4,a0,a5
   140bc:	2e070463          	beqz	a4,143a4 <__addtf3+0xa80>
   140c0:	03f55713          	srli	a4,a0,0x3f
   140c4:	00179813          	slli	a6,a5,0x1
   140c8:	00e80833          	add	a6,a6,a4
   140cc:	00151713          	slli	a4,a0,0x1
   140d0:	00777613          	andi	a2,a4,7
   140d4:	00000693          	li	a3,0
   140d8:	02060663          	beqz	a2,14104 <__addtf3+0x7e0>
   140dc:	00200693          	li	a3,2
   140e0:	24d48a63          	beq	s1,a3,14334 <__addtf3+0xa10>
   140e4:	00300693          	li	a3,3
   140e8:	22d48663          	beq	s1,a3,14314 <__addtf3+0x9f0>
   140ec:	00100693          	li	a3,1
   140f0:	00049a63          	bnez	s1,14104 <__addtf3+0x7e0>
   140f4:	00f77613          	andi	a2,a4,15
   140f8:	00400593          	li	a1,4
   140fc:	ffc73713          	sltiu	a4,a4,-4
   14100:	22b61063          	bne	a2,a1,14320 <__addtf3+0x9fc>
   14104:	03485813          	srli	a6,a6,0x34
   14108:	00184813          	xori	a6,a6,1
   1410c:	00187813          	andi	a6,a6,1
   14110:	00000593          	li	a1,0
   14114:	b45ff06f          	j	13c58 <__addtf3+0x334>
   14118:	fa0300e3          	beqz	t1,140b8 <__addtf3+0x794>
   1411c:	40c505b3          	sub	a1,a0,a2
   14120:	00b53833          	sltu	a6,a0,a1
   14124:	40e786b3          	sub	a3,a5,a4
   14128:	410686b3          	sub	a3,a3,a6
   1412c:	0336d813          	srli	a6,a3,0x33
   14130:	00187813          	andi	a6,a6,1
   14134:	00080e63          	beqz	a6,14150 <__addtf3+0x82c>
   14138:	40a60533          	sub	a0,a2,a0
   1413c:	40f707b3          	sub	a5,a4,a5
   14140:	00a63633          	sltu	a2,a2,a0
   14144:	40c787b3          	sub	a5,a5,a2
   14148:	00088913          	mv	s2,a7
   1414c:	f6dff06f          	j	140b8 <__addtf3+0x794>
   14150:	00d5e533          	or	a0,a1,a3
   14154:	1a051a63          	bnez	a0,14308 <__addtf3+0x9e4>
   14158:	ffe48913          	addi	s2,s1,-2
   1415c:	00193913          	seqz	s2,s2
   14160:	00000793          	li	a5,0
   14164:	f55ff06f          	j	140b8 <__addtf3+0x794>
   14168:	03c41a63          	bne	s0,t3,1419c <__addtf3+0x878>
   1416c:	280e8c63          	beqz	t4,14404 <__addtf3+0xae0>
   14170:	0327d693          	srli	a3,a5,0x32
   14174:	0016f693          	andi	a3,a3,1
   14178:	0016b693          	seqz	a3,a3
   1417c:	00469693          	slli	a3,a3,0x4
   14180:	02859e63          	bne	a1,s0,141bc <__addtf3+0x898>
   14184:	02030063          	beqz	t1,141a4 <__addtf3+0x880>
   14188:	03275593          	srli	a1,a4,0x32
   1418c:	0015f593          	andi	a1,a1,1
   14190:	00059a63          	bnez	a1,141a4 <__addtf3+0x880>
   14194:	01000693          	li	a3,16
   14198:	00c0006f          	j	141a4 <__addtf3+0x880>
   1419c:	00000693          	li	a3,0
   141a0:	ffc582e3          	beq	a1,t3,14184 <__addtf3+0x860>
   141a4:	000e9c63          	bnez	t4,141bc <__addtf3+0x898>
   141a8:	1c030e63          	beqz	t1,14384 <__addtf3+0xa60>
   141ac:	00070793          	mv	a5,a4
   141b0:	00060513          	mv	a0,a2
   141b4:	00088913          	mv	s2,a7
   141b8:	b09ff06f          	j	13cc0 <__addtf3+0x39c>
   141bc:	b00302e3          	beqz	t1,13cc0 <__addtf3+0x39c>
   141c0:	b15ff06f          	j	13cd4 <__addtf3+0x3b0>
   141c4:	40c50a33          	sub	s4,a0,a2
   141c8:	014536b3          	sltu	a3,a0,s4
   141cc:	40e789b3          	sub	s3,a5,a4
   141d0:	40d989b3          	sub	s3,s3,a3
   141d4:	0339d693          	srli	a3,s3,0x33
   141d8:	0016f693          	andi	a3,a3,1
   141dc:	08068663          	beqz	a3,14268 <__addtf3+0x944>
   141e0:	40a60a33          	sub	s4,a2,a0
   141e4:	40f70733          	sub	a4,a4,a5
   141e8:	01463633          	sltu	a2,a2,s4
   141ec:	40c709b3          	sub	s3,a4,a2
   141f0:	00088913          	mv	s2,a7
   141f4:	08098063          	beqz	s3,14274 <__addtf3+0x950>
   141f8:	00098513          	mv	a0,s3
   141fc:	1f9010ef          	jal	ra,15bf4 <__clzdi2>
   14200:	0005051b          	sext.w	a0,a0
   14204:	ff45059b          	addiw	a1,a0,-12
   14208:	03f00793          	li	a5,63
   1420c:	00058693          	mv	a3,a1
   14210:	06b7ca63          	blt	a5,a1,14284 <__addtf3+0x960>
   14214:	04000713          	li	a4,64
   14218:	40b7073b          	subw	a4,a4,a1
   1421c:	00b999b3          	sll	s3,s3,a1
   14220:	00ea5733          	srl	a4,s4,a4
   14224:	01376733          	or	a4,a4,s3
   14228:	00ba1533          	sll	a0,s4,a1
   1422c:	0885cc63          	blt	a1,s0,142c4 <__addtf3+0x9a0>
   14230:	4086843b          	subw	s0,a3,s0
   14234:	0014079b          	addiw	a5,s0,1
   14238:	03f00693          	li	a3,63
   1423c:	04f6cc63          	blt	a3,a5,14294 <__addtf3+0x970>
   14240:	04000693          	li	a3,64
   14244:	40f686bb          	subw	a3,a3,a5
   14248:	00f555b3          	srl	a1,a0,a5
   1424c:	00d71633          	sll	a2,a4,a3
   14250:	00d51533          	sll	a0,a0,a3
   14254:	00b66633          	or	a2,a2,a1
   14258:	00a03533          	snez	a0,a0
   1425c:	00a66533          	or	a0,a2,a0
   14260:	00f757b3          	srl	a5,a4,a5
   14264:	e55ff06f          	j	140b8 <__addtf3+0x794>
   14268:	013a6533          	or	a0,s4,s3
   1426c:	f80514e3          	bnez	a0,141f4 <__addtf3+0x8d0>
   14270:	ee9ff06f          	j	14158 <__addtf3+0x834>
   14274:	000a0513          	mv	a0,s4
   14278:	17d010ef          	jal	ra,15bf4 <__clzdi2>
   1427c:	0405051b          	addiw	a0,a0,64
   14280:	f85ff06f          	j	14204 <__addtf3+0x8e0>
   14284:	fb45071b          	addiw	a4,a0,-76
   14288:	00ea1733          	sll	a4,s4,a4
   1428c:	00000513          	li	a0,0
   14290:	f9dff06f          	j	1422c <__addtf3+0x908>
   14294:	fc14041b          	addiw	s0,s0,-63
   14298:	04000593          	li	a1,64
   1429c:	00875433          	srl	s0,a4,s0
   142a0:	00000693          	li	a3,0
   142a4:	00b78863          	beq	a5,a1,142b4 <__addtf3+0x990>
   142a8:	08000693          	li	a3,128
   142ac:	40f686bb          	subw	a3,a3,a5
   142b0:	00d716b3          	sll	a3,a4,a3
   142b4:	00d56533          	or	a0,a0,a3
   142b8:	00a03533          	snez	a0,a0
   142bc:	00a46533          	or	a0,s0,a0
   142c0:	ea1ff06f          	j	14160 <__addtf3+0x83c>
   142c4:	fff00793          	li	a5,-1
   142c8:	03379793          	slli	a5,a5,0x33
   142cc:	fff78793          	addi	a5,a5,-1
   142d0:	40b405b3          	sub	a1,s0,a1
   142d4:	00f77733          	and	a4,a4,a5
   142d8:	00070793          	mv	a5,a4
   142dc:	dc058ee3          	beqz	a1,140b8 <__addtf3+0x794>
   142e0:	f58ff06f          	j	13a38 <__addtf3+0x114>
   142e4:	00060513          	mv	a0,a2
   142e8:	00088913          	mv	s2,a7
   142ec:	fedff06f          	j	142d8 <__addtf3+0x9b4>
   142f0:	00070793          	mv	a5,a4
   142f4:	00060513          	mv	a0,a2
   142f8:	dc1ff06f          	j	140b8 <__addtf3+0x794>
   142fc:	00070793          	mv	a5,a4
   14300:	00060513          	mv	a0,a2
   14304:	e45ff06f          	j	14148 <__addtf3+0x824>
   14308:	00068793          	mv	a5,a3
   1430c:	00058513          	mv	a0,a1
   14310:	da9ff06f          	j	140b8 <__addtf3+0x794>
   14314:	00100693          	li	a3,1
   14318:	de0916e3          	bnez	s2,14104 <__addtf3+0x7e0>
   1431c:	ff873713          	sltiu	a4,a4,-8
   14320:	00174713          	xori	a4,a4,1
   14324:	02071713          	slli	a4,a4,0x20
   14328:	02075713          	srli	a4,a4,0x20
   1432c:	00e80833          	add	a6,a6,a4
   14330:	dd5ff06f          	j	14104 <__addtf3+0x7e0>
   14334:	00100693          	li	a3,1
   14338:	dc0906e3          	beqz	s2,14104 <__addtf3+0x7e0>
   1433c:	fe1ff06f          	j	1431c <__addtf3+0x9f8>
   14340:	00000793          	li	a5,0
   14344:	00000693          	li	a3,0
   14348:	9a5ff06f          	j	13cec <__addtf3+0x3c8>
   1434c:	00070793          	mv	a5,a4
   14350:	00060513          	mv	a0,a2
   14354:	ee4ff06f          	j	13a38 <__addtf3+0x114>
   14358:	00000793          	li	a5,0
   1435c:	00000513          	li	a0,0
   14360:	00040593          	mv	a1,s0
   14364:	fe1ff06f          	j	14344 <__addtf3+0xa20>
   14368:	00000793          	li	a5,0
   1436c:	00088913          	mv	s2,a7
   14370:	fd5ff06f          	j	14344 <__addtf3+0xa20>
   14374:	00070793          	mv	a5,a4
   14378:	00060513          	mv	a0,a2
   1437c:	00088913          	mv	s2,a7
   14380:	eb8ff06f          	j	13a38 <__addtf3+0x114>
   14384:	00100793          	li	a5,1
   14388:	000085b7          	lui	a1,0x8
   1438c:	00000513          	li	a0,0
   14390:	00000913          	li	s2,0
   14394:	03279793          	slli	a5,a5,0x32
   14398:	fff58593          	addi	a1,a1,-1 # 7fff <exit-0x8121>
   1439c:	01000693          	li	a3,16
   143a0:	94dff06f          	j	13cec <__addtf3+0x3c8>
   143a4:	00000793          	li	a5,0
   143a8:	00000513          	li	a0,0
   143ac:	00000593          	li	a1,0
   143b0:	f95ff06f          	j	14344 <__addtf3+0xa20>
   143b4:	00091863          	bnez	s2,143c4 <__addtf3+0xaa0>
   143b8:	00850713          	addi	a4,a0,8
   143bc:	a69ff06f          	j	13e24 <__addtf3+0x500>
   143c0:	fe091ce3          	bnez	s2,143b8 <__addtf3+0xa94>
   143c4:	8a0814e3          	bnez	a6,13c6c <__addtf3+0x348>
   143c8:	925ff06f          	j	13cec <__addtf3+0x3c8>
   143cc:	00000513          	li	a0,0
   143d0:	02048463          	beqz	s1,143f8 <__addtf3+0xad4>
   143d4:	00300793          	li	a5,3
   143d8:	00f49a63          	bne	s1,a5,143ec <__addtf3+0xac8>
   143dc:	00090e63          	beqz	s2,143f8 <__addtf3+0xad4>
   143e0:	fff00513          	li	a0,-1
   143e4:	ffe70593          	addi	a1,a4,-2
   143e8:	0100006f          	j	143f8 <__addtf3+0xad4>
   143ec:	00200793          	li	a5,2
   143f0:	fef498e3          	bne	s1,a5,143e0 <__addtf3+0xabc>
   143f4:	fe0906e3          	beqz	s2,143e0 <__addtf3+0xabc>
   143f8:	0056e693          	ori	a3,a3,5
   143fc:	00050793          	mv	a5,a0
   14400:	919ff06f          	j	13d18 <__addtf3+0x3f4>
   14404:	00000693          	li	a3,0
   14408:	da8590e3          	bne	a1,s0,141a8 <__addtf3+0x884>
   1440c:	d79ff06f          	j	14184 <__addtf3+0x860>
   14410:	00000693          	li	a3,0
   14414:	8a8592e3          	bne	a1,s0,13cb8 <__addtf3+0x394>
   14418:	879ff06f          	j	13c90 <__addtf3+0x36c>

000000000001441c <__eqtf2>:
   1441c:	00050813          	mv	a6,a0
   14420:	002027f3          	frrm	a5
   14424:	00008537          	lui	a0,0x8
   14428:	0305d893          	srli	a7,a1,0x30
   1442c:	fff50513          	addi	a0,a0,-1 # 7fff <exit-0x8121>
   14430:	fff00793          	li	a5,-1
   14434:	0107d793          	srli	a5,a5,0x10
   14438:	0306d313          	srli	t1,a3,0x30
   1443c:	00a8f8b3          	and	a7,a7,a0
   14440:	00f5f733          	and	a4,a1,a5
   14444:	00a37333          	and	t1,t1,a0
   14448:	00f6f7b3          	and	a5,a3,a5
   1444c:	03f5d593          	srli	a1,a1,0x3f
   14450:	03f6d693          	srli	a3,a3,0x3f
   14454:	00a89a63          	bne	a7,a0,14468 <__eqtf2+0x4c>
   14458:	01076533          	or	a0,a4,a6
   1445c:	02051663          	bnez	a0,14488 <__eqtf2+0x6c>
   14460:	05131863          	bne	t1,a7,144b0 <__eqtf2+0x94>
   14464:	0080006f          	j	1446c <__eqtf2+0x50>
   14468:	04a31863          	bne	t1,a0,144b8 <__eqtf2+0x9c>
   1446c:	00c7e533          	or	a0,a5,a2
   14470:	04050463          	beqz	a0,144b8 <__eqtf2+0x9c>
   14474:	000086b7          	lui	a3,0x8
   14478:	fff68693          	addi	a3,a3,-1 # 7fff <exit-0x8121>
   1447c:	02d89663          	bne	a7,a3,144a8 <__eqtf2+0x8c>
   14480:	01076533          	or	a0,a4,a6
   14484:	02050263          	beqz	a0,144a8 <__eqtf2+0x8c>
   14488:	02f75713          	srli	a4,a4,0x2f
   1448c:	04070c63          	beqz	a4,144e4 <__eqtf2+0xc8>
   14490:	00008737          	lui	a4,0x8
   14494:	fff70713          	addi	a4,a4,-1 # 7fff <exit-0x8121>
   14498:	00100513          	li	a0,1
   1449c:	00e31c63          	bne	t1,a4,144b4 <__eqtf2+0x98>
   144a0:	00c7e633          	or	a2,a5,a2
   144a4:	00060863          	beqz	a2,144b4 <__eqtf2+0x98>
   144a8:	02f7d793          	srli	a5,a5,0x2f
   144ac:	02078c63          	beqz	a5,144e4 <__eqtf2+0xc8>
   144b0:	00100513          	li	a0,1
   144b4:	00008067          	ret
   144b8:	00100513          	li	a0,1
   144bc:	fe689ce3          	bne	a7,t1,144b4 <__eqtf2+0x98>
   144c0:	fef71ae3          	bne	a4,a5,144b4 <__eqtf2+0x98>
   144c4:	fec818e3          	bne	a6,a2,144b4 <__eqtf2+0x98>
   144c8:	00d58a63          	beq	a1,a3,144dc <__eqtf2+0xc0>
   144cc:	fe0894e3          	bnez	a7,144b4 <__eqtf2+0x98>
   144d0:	01076533          	or	a0,a4,a6
   144d4:	00a03533          	snez	a0,a0
   144d8:	00008067          	ret
   144dc:	00000513          	li	a0,0
   144e0:	00008067          	ret
   144e4:	00186073          	csrsi	fflags,16
   144e8:	fc9ff06f          	j	144b0 <__eqtf2+0x94>

00000000000144ec <__multf3>:
   144ec:	fa010113          	addi	sp,sp,-96
   144f0:	03613023          	sd	s6,32(sp)
   144f4:	01913423          	sd	s9,8(sp)
   144f8:	04113c23          	sd	ra,88(sp)
   144fc:	04813823          	sd	s0,80(sp)
   14500:	04913423          	sd	s1,72(sp)
   14504:	05213023          	sd	s2,64(sp)
   14508:	03313c23          	sd	s3,56(sp)
   1450c:	03413823          	sd	s4,48(sp)
   14510:	03513423          	sd	s5,40(sp)
   14514:	01713c23          	sd	s7,24(sp)
   14518:	01813823          	sd	s8,16(sp)
   1451c:	00060c93          	mv	s9,a2
   14520:	00068b13          	mv	s6,a3
   14524:	00202973          	frrm	s2
   14528:	00008737          	lui	a4,0x8
   1452c:	0305da93          	srli	s5,a1,0x30
   14530:	fff70713          	addi	a4,a4,-1 # 7fff <exit-0x8121>
   14534:	01059993          	slli	s3,a1,0x10
   14538:	00eaf7b3          	and	a5,s5,a4
   1453c:	0009091b          	sext.w	s2,s2
   14540:	0109d993          	srli	s3,s3,0x10
   14544:	03f5db93          	srli	s7,a1,0x3f
   14548:	04078263          	beqz	a5,1458c <__multf3+0xa0>
   1454c:	00050a13          	mv	s4,a0
   14550:	00078a9b          	sext.w	s5,a5
   14554:	0ae78663          	beq	a5,a4,14600 <__multf3+0x114>
   14558:	00399993          	slli	s3,s3,0x3
   1455c:	03d55713          	srli	a4,a0,0x3d
   14560:	01376733          	or	a4,a4,s3
   14564:	ffffcab7          	lui	s5,0xffffc
   14568:	00100993          	li	s3,1
   1456c:	03399993          	slli	s3,s3,0x33
   14570:	001a8a93          	addi	s5,s5,1 # ffffffffffffc001 <__global_pointer$+0xfffffffffffe3801>
   14574:	013769b3          	or	s3,a4,s3
   14578:	00351a13          	slli	s4,a0,0x3
   1457c:	01578ab3          	add	s5,a5,s5
   14580:	00000c13          	li	s8,0
   14584:	00000493          	li	s1,0
   14588:	0940006f          	j	1461c <__multf3+0x130>
   1458c:	00a9e7b3          	or	a5,s3,a0
   14590:	00050413          	mv	s0,a0
   14594:	10078e63          	beqz	a5,146b0 <__multf3+0x1c4>
   14598:	04098663          	beqz	s3,145e4 <__multf3+0xf8>
   1459c:	00098513          	mv	a0,s3
   145a0:	654010ef          	jal	ra,15bf4 <__clzdi2>
   145a4:	0005079b          	sext.w	a5,a0
   145a8:	ff178693          	addi	a3,a5,-15
   145ac:	03c00613          	li	a2,60
   145b0:	0006871b          	sext.w	a4,a3
   145b4:	02d64e63          	blt	a2,a3,145f0 <__multf3+0x104>
   145b8:	03d00693          	li	a3,61
   145bc:	00370a1b          	addiw	s4,a4,3
   145c0:	40e6873b          	subw	a4,a3,a4
   145c4:	014999b3          	sll	s3,s3,s4
   145c8:	00e45733          	srl	a4,s0,a4
   145cc:	013769b3          	or	s3,a4,s3
   145d0:	01441a33          	sll	s4,s0,s4
   145d4:	ffffcab7          	lui	s5,0xffffc
   145d8:	011a8a93          	addi	s5,s5,17 # ffffffffffffc011 <__global_pointer$+0xfffffffffffe3811>
   145dc:	40fa8ab3          	sub	s5,s5,a5
   145e0:	fa1ff06f          	j	14580 <__multf3+0x94>
   145e4:	610010ef          	jal	ra,15bf4 <__clzdi2>
   145e8:	0405079b          	addiw	a5,a0,64
   145ec:	fbdff06f          	j	145a8 <__multf3+0xbc>
   145f0:	fc37071b          	addiw	a4,a4,-61
   145f4:	00e419b3          	sll	s3,s0,a4
   145f8:	00000a13          	li	s4,0
   145fc:	fd9ff06f          	j	145d4 <__multf3+0xe8>
   14600:	00a9e7b3          	or	a5,s3,a0
   14604:	0c078063          	beqz	a5,146c4 <__multf3+0x1d8>
   14608:	02f9d793          	srli	a5,s3,0x2f
   1460c:	0017f793          	andi	a5,a5,1
   14610:	00300c13          	li	s8,3
   14614:	01000493          	li	s1,16
   14618:	f60796e3          	bnez	a5,14584 <__multf3+0x98>
   1461c:	000086b7          	lui	a3,0x8
   14620:	030b5513          	srli	a0,s6,0x30
   14624:	fff68693          	addi	a3,a3,-1 # 7fff <exit-0x8121>
   14628:	010b1413          	slli	s0,s6,0x10
   1462c:	00d57733          	and	a4,a0,a3
   14630:	000c8793          	mv	a5,s9
   14634:	01045413          	srli	s0,s0,0x10
   14638:	03fb5b13          	srli	s6,s6,0x3f
   1463c:	08070c63          	beqz	a4,146d4 <__multf3+0x1e8>
   14640:	0007051b          	sext.w	a0,a4
   14644:	10d70263          	beq	a4,a3,14748 <__multf3+0x25c>
   14648:	00341413          	slli	s0,s0,0x3
   1464c:	03dcd693          	srli	a3,s9,0x3d
   14650:	0086e6b3          	or	a3,a3,s0
   14654:	ffffc537          	lui	a0,0xffffc
   14658:	00100413          	li	s0,1
   1465c:	03341413          	slli	s0,s0,0x33
   14660:	00150513          	addi	a0,a0,1 # ffffffffffffc001 <__global_pointer$+0xfffffffffffe3801>
   14664:	0086e433          	or	s0,a3,s0
   14668:	003c9793          	slli	a5,s9,0x3
   1466c:	00a70533          	add	a0,a4,a0
   14670:	00000713          	li	a4,0
   14674:	002c1693          	slli	a3,s8,0x2
   14678:	00e6e6b3          	or	a3,a3,a4
   1467c:	01550ab3          	add	s5,a0,s5
   14680:	fff68693          	addi	a3,a3,-1
   14684:	00e00593          	li	a1,14
   14688:	016bc633          	xor	a2,s7,s6
   1468c:	001a8813          	addi	a6,s5,1
   14690:	16d5ee63          	bltu	a1,a3,1480c <__multf3+0x320>
   14694:	00002597          	auipc	a1,0x2
   14698:	20c58593          	addi	a1,a1,524 # 168a0 <errmsgstr+0x738>
   1469c:	00269693          	slli	a3,a3,0x2
   146a0:	00b686b3          	add	a3,a3,a1
   146a4:	0006a683          	lw	a3,0(a3)
   146a8:	00b686b3          	add	a3,a3,a1
   146ac:	00068067          	jr	a3
   146b0:	00000993          	li	s3,0
   146b4:	00000a13          	li	s4,0
   146b8:	00000a93          	li	s5,0
   146bc:	00100c13          	li	s8,1
   146c0:	ec5ff06f          	j	14584 <__multf3+0x98>
   146c4:	00000993          	li	s3,0
   146c8:	00000a13          	li	s4,0
   146cc:	00200c13          	li	s8,2
   146d0:	eb5ff06f          	j	14584 <__multf3+0x98>
   146d4:	008ce7b3          	or	a5,s9,s0
   146d8:	08078863          	beqz	a5,14768 <__multf3+0x27c>
   146dc:	04040663          	beqz	s0,14728 <__multf3+0x23c>
   146e0:	00040513          	mv	a0,s0
   146e4:	510010ef          	jal	ra,15bf4 <__clzdi2>
   146e8:	0005071b          	sext.w	a4,a0
   146ec:	ff170793          	addi	a5,a4,-15
   146f0:	03c00613          	li	a2,60
   146f4:	0007869b          	sext.w	a3,a5
   146f8:	04f64063          	blt	a2,a5,14738 <__multf3+0x24c>
   146fc:	03d00613          	li	a2,61
   14700:	0036879b          	addiw	a5,a3,3
   14704:	40d606bb          	subw	a3,a2,a3
   14708:	00f41433          	sll	s0,s0,a5
   1470c:	00dcd6b3          	srl	a3,s9,a3
   14710:	0086e433          	or	s0,a3,s0
   14714:	00fc97b3          	sll	a5,s9,a5
   14718:	ffffc537          	lui	a0,0xffffc
   1471c:	01150513          	addi	a0,a0,17 # ffffffffffffc011 <__global_pointer$+0xfffffffffffe3811>
   14720:	40e50533          	sub	a0,a0,a4
   14724:	f4dff06f          	j	14670 <__multf3+0x184>
   14728:	000c8513          	mv	a0,s9
   1472c:	4c8010ef          	jal	ra,15bf4 <__clzdi2>
   14730:	0405071b          	addiw	a4,a0,64
   14734:	fb9ff06f          	j	146ec <__multf3+0x200>
   14738:	fc36869b          	addiw	a3,a3,-61
   1473c:	00dc9433          	sll	s0,s9,a3
   14740:	00000793          	li	a5,0
   14744:	fd5ff06f          	j	14718 <__multf3+0x22c>
   14748:	008ce733          	or	a4,s9,s0
   1474c:	02070863          	beqz	a4,1477c <__multf3+0x290>
   14750:	02f45713          	srli	a4,s0,0x2f
   14754:	00177713          	andi	a4,a4,1
   14758:	02071a63          	bnez	a4,1478c <__multf3+0x2a0>
   1475c:	00300713          	li	a4,3
   14760:	01000493          	li	s1,16
   14764:	f11ff06f          	j	14674 <__multf3+0x188>
   14768:	00000413          	li	s0,0
   1476c:	00000793          	li	a5,0
   14770:	00000513          	li	a0,0
   14774:	00100713          	li	a4,1
   14778:	efdff06f          	j	14674 <__multf3+0x188>
   1477c:	00000413          	li	s0,0
   14780:	00000793          	li	a5,0
   14784:	00200713          	li	a4,2
   14788:	eedff06f          	j	14674 <__multf3+0x188>
   1478c:	00300713          	li	a4,3
   14790:	ee5ff06f          	j	14674 <__multf3+0x188>
   14794:	00100413          	li	s0,1
   14798:	00008737          	lui	a4,0x8
   1479c:	02f41413          	slli	s0,s0,0x2f
   147a0:	00000513          	li	a0,0
   147a4:	fff70713          	addi	a4,a4,-1 # 7fff <exit-0x8121>
   147a8:	00000613          	li	a2,0
   147ac:	01000493          	li	s1,16
   147b0:	03171713          	slli	a4,a4,0x31
   147b4:	03175713          	srli	a4,a4,0x31
   147b8:	00f61613          	slli	a2,a2,0xf
   147bc:	01041413          	slli	s0,s0,0x10
   147c0:	00e66733          	or	a4,a2,a4
   147c4:	03071713          	slli	a4,a4,0x30
   147c8:	01045593          	srli	a1,s0,0x10
   147cc:	00e5e5b3          	or	a1,a1,a4
   147d0:	00048463          	beqz	s1,147d8 <__multf3+0x2ec>
   147d4:	0014a073          	csrs	fflags,s1
   147d8:	05813083          	ld	ra,88(sp)
   147dc:	05013403          	ld	s0,80(sp)
   147e0:	04813483          	ld	s1,72(sp)
   147e4:	04013903          	ld	s2,64(sp)
   147e8:	03813983          	ld	s3,56(sp)
   147ec:	03013a03          	ld	s4,48(sp)
   147f0:	02813a83          	ld	s5,40(sp)
   147f4:	02013b03          	ld	s6,32(sp)
   147f8:	01813b83          	ld	s7,24(sp)
   147fc:	01013c03          	ld	s8,16(sp)
   14800:	00813c83          	ld	s9,8(sp)
   14804:	06010113          	addi	sp,sp,96
   14808:	00008067          	ret
   1480c:	fff00513          	li	a0,-1
   14810:	02055513          	srli	a0,a0,0x20
   14814:	014983b3          	add	t2,s3,s4
   14818:	00878f33          	add	t5,a5,s0
   1481c:	020a5e93          	srli	t4,s4,0x20
   14820:	0207d693          	srli	a3,a5,0x20
   14824:	0143bfb3          	sltu	t6,t2,s4
   14828:	00ff32b3          	sltu	t0,t5,a5
   1482c:	00aa7a33          	and	s4,s4,a0
   14830:	00a7f7b3          	and	a5,a5,a0
   14834:	03478533          	mul	a0,a5,s4
   14838:	000f8e13          	mv	t3,t6
   1483c:	00028313          	mv	t1,t0
   14840:	02fe87b3          	mul	a5,t4,a5
   14844:	02de8733          	mul	a4,t4,a3
   14848:	034686b3          	mul	a3,a3,s4
   1484c:	02055a13          	srli	s4,a0,0x20
   14850:	00f686b3          	add	a3,a3,a5
   14854:	00da0a33          	add	s4,s4,a3
   14858:	00fa7863          	bgeu	s4,a5,14868 <__multf3+0x37c>
   1485c:	00100793          	li	a5,1
   14860:	02079793          	slli	a5,a5,0x20
   14864:	00f70733          	add	a4,a4,a5
   14868:	fff00693          	li	a3,-1
   1486c:	0206d693          	srli	a3,a3,0x20
   14870:	00da75b3          	and	a1,s4,a3
   14874:	00d57533          	and	a0,a0,a3
   14878:	02059593          	slli	a1,a1,0x20
   1487c:	0203d893          	srli	a7,t2,0x20
   14880:	020f5793          	srli	a5,t5,0x20
   14884:	020a5e93          	srli	t4,s4,0x20
   14888:	00a585b3          	add	a1,a1,a0
   1488c:	00d3f533          	and	a0,t2,a3
   14890:	00df76b3          	and	a3,t5,a3
   14894:	02f88b33          	mul	s6,a7,a5
   14898:	00ee8eb3          	add	t4,t4,a4
   1489c:	02a787b3          	mul	a5,a5,a0
   148a0:	02a68733          	mul	a4,a3,a0
   148a4:	02d886b3          	mul	a3,a7,a3
   148a8:	00d78533          	add	a0,a5,a3
   148ac:	02075793          	srli	a5,a4,0x20
   148b0:	00a787b3          	add	a5,a5,a0
   148b4:	00d7f863          	bgeu	a5,a3,148c4 <__multf3+0x3d8>
   148b8:	00100693          	li	a3,1
   148bc:	02069693          	slli	a3,a3,0x20
   148c0:	00db0b33          	add	s6,s6,a3
   148c4:	fff00893          	li	a7,-1
   148c8:	0208d893          	srli	a7,a7,0x20
   148cc:	0117f6b3          	and	a3,a5,a7
   148d0:	02045b93          	srli	s7,s0,0x20
   148d4:	01177533          	and	a0,a4,a7
   148d8:	0207da13          	srli	s4,a5,0x20
   148dc:	0209d793          	srli	a5,s3,0x20
   148e0:	0119f9b3          	and	s3,s3,a7
   148e4:	011478b3          	and	a7,s0,a7
   148e8:	03198433          	mul	s0,s3,a7
   148ec:	02069693          	slli	a3,a3,0x20
   148f0:	00a68533          	add	a0,a3,a0
   148f4:	031788b3          	mul	a7,a5,a7
   148f8:	037787b3          	mul	a5,a5,s7
   148fc:	033b8bb3          	mul	s7,s7,s3
   14900:	02045993          	srli	s3,s0,0x20
   14904:	011b8bb3          	add	s7,s7,a7
   14908:	017989b3          	add	s3,s3,s7
   1490c:	0119f863          	bgeu	s3,a7,1491c <__multf3+0x430>
   14910:	00100713          	li	a4,1
   14914:	02071713          	slli	a4,a4,0x20
   14918:	00e787b3          	add	a5,a5,a4
   1491c:	0209d693          	srli	a3,s3,0x20
   14920:	00f687b3          	add	a5,a3,a5
   14924:	fff00693          	li	a3,-1
   14928:	0206d693          	srli	a3,a3,0x20
   1492c:	00d9f733          	and	a4,s3,a3
   14930:	00d47433          	and	s0,s0,a3
   14934:	01d506b3          	add	a3,a0,t4
   14938:	01d6b533          	sltu	a0,a3,t4
   1493c:	00aa08b3          	add	a7,s4,a0
   14940:	40600333          	neg	t1,t1
   14944:	016888b3          	add	a7,a7,s6
   14948:	007373b3          	and	t2,t1,t2
   1494c:	41c00e33          	neg	t3,t3
   14950:	011383b3          	add	t2,t2,a7
   14954:	01ee7f33          	and	t5,t3,t5
   14958:	00a8b533          	sltu	a0,a7,a0
   1495c:	005fffb3          	and	t6,t6,t0
   14960:	007f0f33          	add	t5,t5,t2
   14964:	0113b8b3          	sltu	a7,t2,a7
   14968:	01f50533          	add	a0,a0,t6
   1496c:	40b68333          	sub	t1,a3,a1
   14970:	01150533          	add	a0,a0,a7
   14974:	0066be33          	sltu	t3,a3,t1
   14978:	41df08b3          	sub	a7,t5,t4
   1497c:	02071713          	slli	a4,a4,0x20
   14980:	007f33b3          	sltu	t2,t5,t2
   14984:	011f3fb3          	sltu	t6,t5,a7
   14988:	00870733          	add	a4,a4,s0
   1498c:	41c888b3          	sub	a7,a7,t3
   14990:	00750533          	add	a0,a0,t2
   14994:	00000e13          	li	t3,0
   14998:	0066f663          	bgeu	a3,t1,149a4 <__multf3+0x4b8>
   1499c:	41ee8f33          	sub	t5,t4,t5
   149a0:	001f3e13          	seqz	t3,t5
   149a4:	01fe6f33          	or	t5,t3,t6
   149a8:	40e30e33          	sub	t3,t1,a4
   149ac:	40f886b3          	sub	a3,a7,a5
   149b0:	00f50533          	add	a0,a0,a5
   149b4:	01c337b3          	sltu	a5,t1,t3
   149b8:	00d8b8b3          	sltu	a7,a7,a3
   149bc:	40f707b3          	sub	a5,a4,a5
   149c0:	00000e93          	li	t4,0
   149c4:	01c37463          	bgeu	t1,t3,149cc <__multf3+0x4e0>
   149c8:	0016be93          	seqz	t4,a3
   149cc:	00f686b3          	add	a3,a3,a5
   149d0:	00e6b733          	sltu	a4,a3,a4
   149d4:	00a70733          	add	a4,a4,a0
   149d8:	41e70733          	sub	a4,a4,t5
   149dc:	011ee8b3          	or	a7,t4,a7
   149e0:	41170733          	sub	a4,a4,a7
   149e4:	00de1793          	slli	a5,t3,0xd
   149e8:	00d71713          	slli	a4,a4,0xd
   149ec:	0336d413          	srli	s0,a3,0x33
   149f0:	00b7e7b3          	or	a5,a5,a1
   149f4:	00876433          	or	s0,a4,s0
   149f8:	00f037b3          	snez	a5,a5
   149fc:	033e5513          	srli	a0,t3,0x33
   14a00:	03475713          	srli	a4,a4,0x34
   14a04:	00a7e7b3          	or	a5,a5,a0
   14a08:	00d69693          	slli	a3,a3,0xd
   14a0c:	00177713          	andi	a4,a4,1
   14a10:	00d7e7b3          	or	a5,a5,a3
   14a14:	0a070463          	beqz	a4,14abc <__multf3+0x5d0>
   14a18:	0017d713          	srli	a4,a5,0x1
   14a1c:	0017f793          	andi	a5,a5,1
   14a20:	03f41513          	slli	a0,s0,0x3f
   14a24:	00f767b3          	or	a5,a4,a5
   14a28:	00a7e7b3          	or	a5,a5,a0
   14a2c:	00145413          	srli	s0,s0,0x1
   14a30:	00004737          	lui	a4,0x4
   14a34:	fff70713          	addi	a4,a4,-1 # 3fff <exit-0xc121>
   14a38:	00e80733          	add	a4,a6,a4
   14a3c:	12e05263          	blez	a4,14b60 <__multf3+0x674>
   14a40:	0077f693          	andi	a3,a5,7
   14a44:	08068863          	beqz	a3,14ad4 <__multf3+0x5e8>
   14a48:	00200693          	li	a3,2
   14a4c:	0014e493          	ori	s1,s1,1
   14a50:	08d90063          	beq	s2,a3,14ad0 <__multf3+0x5e4>
   14a54:	00300693          	li	a3,3
   14a58:	06d90663          	beq	s2,a3,14ac4 <__multf3+0x5d8>
   14a5c:	06091c63          	bnez	s2,14ad4 <__multf3+0x5e8>
   14a60:	00f7f693          	andi	a3,a5,15
   14a64:	00400593          	li	a1,4
   14a68:	06b68663          	beq	a3,a1,14ad4 <__multf3+0x5e8>
   14a6c:	00478693          	addi	a3,a5,4
   14a70:	00f6b7b3          	sltu	a5,a3,a5
   14a74:	00f40433          	add	s0,s0,a5
   14a78:	00068793          	mv	a5,a3
   14a7c:	0580006f          	j	14ad4 <__multf3+0x5e8>
   14a80:	000b8613          	mv	a2,s7
   14a84:	00098413          	mv	s0,s3
   14a88:	000a0793          	mv	a5,s4
   14a8c:	000c0713          	mv	a4,s8
   14a90:	00200693          	li	a3,2
   14a94:	2ad70063          	beq	a4,a3,14d34 <__multf3+0x848>
   14a98:	00300693          	li	a3,3
   14a9c:	2ad70663          	beq	a4,a3,14d48 <__multf3+0x85c>
   14aa0:	00100693          	li	a3,1
   14aa4:	f8d716e3          	bne	a4,a3,14a30 <__multf3+0x544>
   14aa8:	00000413          	li	s0,0
   14aac:	00000513          	li	a0,0
   14ab0:	2600006f          	j	14d10 <__multf3+0x824>
   14ab4:	000b0613          	mv	a2,s6
   14ab8:	fd9ff06f          	j	14a90 <__multf3+0x5a4>
   14abc:	000a8813          	mv	a6,s5
   14ac0:	f71ff06f          	j	14a30 <__multf3+0x544>
   14ac4:	00061863          	bnez	a2,14ad4 <__multf3+0x5e8>
   14ac8:	00878693          	addi	a3,a5,8
   14acc:	fa5ff06f          	j	14a70 <__multf3+0x584>
   14ad0:	fe061ce3          	bnez	a2,14ac8 <__multf3+0x5dc>
   14ad4:	03445693          	srli	a3,s0,0x34
   14ad8:	0016f693          	andi	a3,a3,1
   14adc:	00068e63          	beqz	a3,14af8 <__multf3+0x60c>
   14ae0:	fff00713          	li	a4,-1
   14ae4:	03471713          	slli	a4,a4,0x34
   14ae8:	fff70713          	addi	a4,a4,-1
   14aec:	00e47433          	and	s0,s0,a4
   14af0:	00004737          	lui	a4,0x4
   14af4:	00e80733          	add	a4,a6,a4
   14af8:	000086b7          	lui	a3,0x8
   14afc:	ffe68593          	addi	a1,a3,-2 # 7ffe <exit-0x8122>
   14b00:	00e5cc63          	blt	a1,a4,14b18 <__multf3+0x62c>
   14b04:	03d41513          	slli	a0,s0,0x3d
   14b08:	0037d793          	srli	a5,a5,0x3
   14b0c:	00f56533          	or	a0,a0,a5
   14b10:	00345413          	srli	s0,s0,0x3
   14b14:	c9dff06f          	j	147b0 <__multf3+0x2c4>
   14b18:	00200793          	li	a5,2
   14b1c:	02f90a63          	beq	s2,a5,14b50 <__multf3+0x664>
   14b20:	00300793          	li	a5,3
   14b24:	fff68713          	addi	a4,a3,-1
   14b28:	00f90863          	beq	s2,a5,14b38 <__multf3+0x64c>
   14b2c:	00091863          	bnez	s2,14b3c <__multf3+0x650>
   14b30:	00000513          	li	a0,0
   14b34:	0100006f          	j	14b44 <__multf3+0x658>
   14b38:	fe060ce3          	beqz	a2,14b30 <__multf3+0x644>
   14b3c:	fff00513          	li	a0,-1
   14b40:	00058713          	mv	a4,a1
   14b44:	0054e493          	ori	s1,s1,5
   14b48:	00050413          	mv	s0,a0
   14b4c:	c65ff06f          	j	147b0 <__multf3+0x2c4>
   14b50:	fe0606e3          	beqz	a2,14b3c <__multf3+0x650>
   14b54:	00000513          	li	a0,0
   14b58:	fff68713          	addi	a4,a3,-1
   14b5c:	fe9ff06f          	j	14b44 <__multf3+0x658>
   14b60:	00100693          	li	a3,1
   14b64:	06071463          	bnez	a4,14bcc <__multf3+0x6e0>
   14b68:	0077f593          	andi	a1,a5,7
   14b6c:	00040693          	mv	a3,s0
   14b70:	04058863          	beqz	a1,14bc0 <__multf3+0x6d4>
   14b74:	00200593          	li	a1,2
   14b78:	0014e493          	ori	s1,s1,1
   14b7c:	04b90063          	beq	s2,a1,14bbc <__multf3+0x6d0>
   14b80:	00300593          	li	a1,3
   14b84:	02b90663          	beq	s2,a1,14bb0 <__multf3+0x6c4>
   14b88:	02091c63          	bnez	s2,14bc0 <__multf3+0x6d4>
   14b8c:	00f7f593          	andi	a1,a5,15
   14b90:	00400513          	li	a0,4
   14b94:	02a58663          	beq	a1,a0,14bc0 <__multf3+0x6d4>
   14b98:	ffc7b693          	sltiu	a3,a5,-4
   14b9c:	0016c693          	xori	a3,a3,1
   14ba0:	02069693          	slli	a3,a3,0x20
   14ba4:	0206d693          	srli	a3,a3,0x20
   14ba8:	008686b3          	add	a3,a3,s0
   14bac:	0140006f          	j	14bc0 <__multf3+0x6d4>
   14bb0:	00061863          	bnez	a2,14bc0 <__multf3+0x6d4>
   14bb4:	ff87b693          	sltiu	a3,a5,-8
   14bb8:	fe5ff06f          	j	14b9c <__multf3+0x6b0>
   14bbc:	fe061ce3          	bnez	a2,14bb4 <__multf3+0x6c8>
   14bc0:	0346d693          	srli	a3,a3,0x34
   14bc4:	0016c693          	xori	a3,a3,1
   14bc8:	0016f693          	andi	a3,a3,1
   14bcc:	00100813          	li	a6,1
   14bd0:	40e80833          	sub	a6,a6,a4
   14bd4:	07400713          	li	a4,116
   14bd8:	11074263          	blt	a4,a6,14cdc <__multf3+0x7f0>
   14bdc:	03f00593          	li	a1,63
   14be0:	0008071b          	sext.w	a4,a6
   14be4:	0705c463          	blt	a1,a6,14c4c <__multf3+0x760>
   14be8:	04000593          	li	a1,64
   14bec:	40e585bb          	subw	a1,a1,a4
   14bf0:	00b41533          	sll	a0,s0,a1
   14bf4:	00e7d833          	srl	a6,a5,a4
   14bf8:	00b797b3          	sll	a5,a5,a1
   14bfc:	01056533          	or	a0,a0,a6
   14c00:	00f037b3          	snez	a5,a5
   14c04:	00f56533          	or	a0,a0,a5
   14c08:	00e45433          	srl	s0,s0,a4
   14c0c:	00757793          	andi	a5,a0,7
   14c10:	08078063          	beqz	a5,14c90 <__multf3+0x7a4>
   14c14:	00200793          	li	a5,2
   14c18:	0014e493          	ori	s1,s1,1
   14c1c:	06f90863          	beq	s2,a5,14c8c <__multf3+0x7a0>
   14c20:	00300793          	li	a5,3
   14c24:	04f90e63          	beq	s2,a5,14c80 <__multf3+0x794>
   14c28:	06091463          	bnez	s2,14c90 <__multf3+0x7a4>
   14c2c:	00f57793          	andi	a5,a0,15
   14c30:	00400713          	li	a4,4
   14c34:	04e78e63          	beq	a5,a4,14c90 <__multf3+0x7a4>
   14c38:	00450793          	addi	a5,a0,4
   14c3c:	00a7b533          	sltu	a0,a5,a0
   14c40:	00a40433          	add	s0,s0,a0
   14c44:	00078513          	mv	a0,a5
   14c48:	0480006f          	j	14c90 <__multf3+0x7a4>
   14c4c:	fc07051b          	addiw	a0,a4,-64
   14c50:	04000893          	li	a7,64
   14c54:	00a45533          	srl	a0,s0,a0
   14c58:	00000593          	li	a1,0
   14c5c:	01180863          	beq	a6,a7,14c6c <__multf3+0x780>
   14c60:	08000593          	li	a1,128
   14c64:	40e5873b          	subw	a4,a1,a4
   14c68:	00e415b3          	sll	a1,s0,a4
   14c6c:	00f5e7b3          	or	a5,a1,a5
   14c70:	00f037b3          	snez	a5,a5
   14c74:	00f56533          	or	a0,a0,a5
   14c78:	00000413          	li	s0,0
   14c7c:	f91ff06f          	j	14c0c <__multf3+0x720>
   14c80:	00061863          	bnez	a2,14c90 <__multf3+0x7a4>
   14c84:	00850793          	addi	a5,a0,8
   14c88:	fb5ff06f          	j	14c3c <__multf3+0x750>
   14c8c:	fe061ce3          	bnez	a2,14c84 <__multf3+0x798>
   14c90:	03345793          	srli	a5,s0,0x33
   14c94:	0017f793          	andi	a5,a5,1
   14c98:	02078063          	beqz	a5,14cb8 <__multf3+0x7cc>
   14c9c:	0014e493          	ori	s1,s1,1
   14ca0:	00000413          	li	s0,0
   14ca4:	00000513          	li	a0,0
   14ca8:	00100713          	li	a4,1
   14cac:	b00682e3          	beqz	a3,147b0 <__multf3+0x2c4>
   14cb0:	0024e493          	ori	s1,s1,2
   14cb4:	afdff06f          	j	147b0 <__multf3+0x2c4>
   14cb8:	03d41793          	slli	a5,s0,0x3d
   14cbc:	00355513          	srli	a0,a0,0x3
   14cc0:	00a7e533          	or	a0,a5,a0
   14cc4:	00345413          	srli	s0,s0,0x3
   14cc8:	00000713          	li	a4,0
   14ccc:	ae0682e3          	beqz	a3,147b0 <__multf3+0x2c4>
   14cd0:	0014f793          	andi	a5,s1,1
   14cd4:	ac078ee3          	beqz	a5,147b0 <__multf3+0x2c4>
   14cd8:	fd9ff06f          	j	14cb0 <__multf3+0x7c4>
   14cdc:	0087e533          	or	a0,a5,s0
   14ce0:	02050463          	beqz	a0,14d08 <__multf3+0x81c>
   14ce4:	00200793          	li	a5,2
   14ce8:	0014e493          	ori	s1,s1,1
   14cec:	02f90e63          	beq	s2,a5,14d28 <__multf3+0x83c>
   14cf0:	00300793          	li	a5,3
   14cf4:	02f90263          	beq	s2,a5,14d18 <__multf3+0x82c>
   14cf8:	00100793          	li	a5,1
   14cfc:	00091463          	bnez	s2,14d04 <__multf3+0x818>
   14d00:	00500793          	li	a5,5
   14d04:	0037d513          	srli	a0,a5,0x3
   14d08:	0024e493          	ori	s1,s1,2
   14d0c:	00000413          	li	s0,0
   14d10:	00000713          	li	a4,0
   14d14:	a9dff06f          	j	147b0 <__multf3+0x2c4>
   14d18:	00900793          	li	a5,9
   14d1c:	fe0604e3          	beqz	a2,14d04 <__multf3+0x818>
   14d20:	00100793          	li	a5,1
   14d24:	fe1ff06f          	j	14d04 <__multf3+0x818>
   14d28:	00900793          	li	a5,9
   14d2c:	fc061ce3          	bnez	a2,14d04 <__multf3+0x818>
   14d30:	ff1ff06f          	j	14d20 <__multf3+0x834>
   14d34:	00008737          	lui	a4,0x8
   14d38:	00000413          	li	s0,0
   14d3c:	00000513          	li	a0,0
   14d40:	fff70713          	addi	a4,a4,-1 # 7fff <exit-0x8121>
   14d44:	a6dff06f          	j	147b0 <__multf3+0x2c4>
   14d48:	00100413          	li	s0,1
   14d4c:	00008737          	lui	a4,0x8
   14d50:	02f41413          	slli	s0,s0,0x2f
   14d54:	00000513          	li	a0,0
   14d58:	fff70713          	addi	a4,a4,-1 # 7fff <exit-0x8121>
   14d5c:	00000613          	li	a2,0
   14d60:	a51ff06f          	j	147b0 <__multf3+0x2c4>

0000000000014d64 <__subtf3>:
   14d64:	fd010113          	addi	sp,sp,-48
   14d68:	02113423          	sd	ra,40(sp)
   14d6c:	02813023          	sd	s0,32(sp)
   14d70:	00913c23          	sd	s1,24(sp)
   14d74:	01213823          	sd	s2,16(sp)
   14d78:	01313423          	sd	s3,8(sp)
   14d7c:	01413023          	sd	s4,0(sp)
   14d80:	00202473          	frrm	s0
   14d84:	fff00713          	li	a4,-1
   14d88:	01075713          	srli	a4,a4,0x10
   14d8c:	00008837          	lui	a6,0x8
   14d90:	0305d893          	srli	a7,a1,0x30
   14d94:	fff80813          	addi	a6,a6,-1 # 7fff <exit-0x8121>
   14d98:	0306de93          	srli	t4,a3,0x30
   14d9c:	03f5d493          	srli	s1,a1,0x3f
   14da0:	03f6d313          	srli	t1,a3,0x3f
   14da4:	00e5f5b3          	and	a1,a1,a4
   14da8:	00e6f6b3          	and	a3,a3,a4
   14dac:	00359593          	slli	a1,a1,0x3
   14db0:	03d55793          	srli	a5,a0,0x3d
   14db4:	03d65713          	srli	a4,a2,0x3d
   14db8:	0108f8b3          	and	a7,a7,a6
   14dbc:	010efeb3          	and	t4,t4,a6
   14dc0:	00369693          	slli	a3,a3,0x3
   14dc4:	00b7e7b3          	or	a5,a5,a1
   14dc8:	0004041b          	sext.w	s0,s0
   14dcc:	00088993          	mv	s3,a7
   14dd0:	00351513          	slli	a0,a0,0x3
   14dd4:	000e8593          	mv	a1,t4
   14dd8:	00d76733          	or	a4,a4,a3
   14ddc:	00361613          	slli	a2,a2,0x3
   14de0:	010e9663          	bne	t4,a6,14dec <__subtf3+0x88>
   14de4:	00c766b3          	or	a3,a4,a2
   14de8:	00069463          	bnez	a3,14df0 <__subtf3+0x8c>
   14dec:	00134313          	xori	t1,t1,1
   14df0:	41d886bb          	subw	a3,a7,t4
   14df4:	00008e37          	lui	t3,0x8
   14df8:	0006881b          	sext.w	a6,a3
   14dfc:	fffe0f13          	addi	t5,t3,-1 # 7fff <exit-0x8121>
   14e00:	4c931663          	bne	t1,s1,152cc <__subtf3+0x568>
   14e04:	13005c63          	blez	a6,14f3c <__subtf3+0x1d8>
   14e08:	0a0e9663          	bnez	t4,14eb4 <__subtf3+0x150>
   14e0c:	00c765b3          	or	a1,a4,a2
   14e10:	00059a63          	bnez	a1,14e24 <__subtf3+0xc0>
   14e14:	09e88063          	beq	a7,t5,14e94 <__subtf3+0x130>
   14e18:	00078713          	mv	a4,a5
   14e1c:	00088593          	mv	a1,a7
   14e20:	1010006f          	j	15720 <__subtf3+0x9bc>
   14e24:	fff6881b          	addiw	a6,a3,-1
   14e28:	06081463          	bnez	a6,14e90 <__subtf3+0x12c>
   14e2c:	00a60633          	add	a2,a2,a0
   14e30:	00a63533          	sltu	a0,a2,a0
   14e34:	00f70733          	add	a4,a4,a5
   14e38:	00a70733          	add	a4,a4,a0
   14e3c:	00088593          	mv	a1,a7
   14e40:	00060513          	mv	a0,a2
   14e44:	03375793          	srli	a5,a4,0x33
   14e48:	0017f793          	andi	a5,a5,1
   14e4c:	0c078ae3          	beqz	a5,15720 <__subtf3+0x9bc>
   14e50:	000086b7          	lui	a3,0x8
   14e54:	00158593          	addi	a1,a1,1
   14e58:	fff68793          	addi	a5,a3,-1 # 7fff <exit-0x8121>
   14e5c:	42f58e63          	beq	a1,a5,15298 <__subtf3+0x534>
   14e60:	fff00793          	li	a5,-1
   14e64:	03379793          	slli	a5,a5,0x33
   14e68:	fff78793          	addi	a5,a5,-1
   14e6c:	00f777b3          	and	a5,a4,a5
   14e70:	00155713          	srli	a4,a0,0x1
   14e74:	00157513          	andi	a0,a0,1
   14e78:	00a76533          	or	a0,a4,a0
   14e7c:	03f79713          	slli	a4,a5,0x3f
   14e80:	00a76533          	or	a0,a4,a0
   14e84:	0017d793          	srli	a5,a5,0x1
   14e88:	00000813          	li	a6,0
   14e8c:	3900006f          	j	1521c <__subtf3+0x4b8>
   14e90:	03e89a63          	bne	a7,t5,14ec4 <__subtf3+0x160>
   14e94:	00a7e733          	or	a4,a5,a0
   14e98:	100704e3          	beqz	a4,157a0 <__subtf3+0xa3c>
   14e9c:	0327d713          	srli	a4,a5,0x32
   14ea0:	00177713          	andi	a4,a4,1
   14ea4:	00088593          	mv	a1,a7
   14ea8:	00000813          	li	a6,0
   14eac:	36071863          	bnez	a4,1521c <__subtf3+0x4b8>
   14eb0:	0c00006f          	j	14f70 <__subtf3+0x20c>
   14eb4:	ffe880e3          	beq	a7,t5,14e94 <__subtf3+0x130>
   14eb8:	00100693          	li	a3,1
   14ebc:	03369693          	slli	a3,a3,0x33
   14ec0:	00d76733          	or	a4,a4,a3
   14ec4:	07400693          	li	a3,116
   14ec8:	0706c463          	blt	a3,a6,14f30 <__subtf3+0x1cc>
   14ecc:	03f00693          	li	a3,63
   14ed0:	0306c663          	blt	a3,a6,14efc <__subtf3+0x198>
   14ed4:	04000593          	li	a1,64
   14ed8:	410585bb          	subw	a1,a1,a6
   14edc:	00b716b3          	sll	a3,a4,a1
   14ee0:	01065333          	srl	t1,a2,a6
   14ee4:	00b61633          	sll	a2,a2,a1
   14ee8:	0066e6b3          	or	a3,a3,t1
   14eec:	00c03633          	snez	a2,a2
   14ef0:	00c6e633          	or	a2,a3,a2
   14ef4:	01075733          	srl	a4,a4,a6
   14ef8:	f35ff06f          	j	14e2c <__subtf3+0xc8>
   14efc:	fc08069b          	addiw	a3,a6,-64
   14f00:	04000313          	li	t1,64
   14f04:	00d756b3          	srl	a3,a4,a3
   14f08:	00000593          	li	a1,0
   14f0c:	00680863          	beq	a6,t1,14f1c <__subtf3+0x1b8>
   14f10:	08000593          	li	a1,128
   14f14:	410585bb          	subw	a1,a1,a6
   14f18:	00b715b3          	sll	a1,a4,a1
   14f1c:	00c5e633          	or	a2,a1,a2
   14f20:	00c03633          	snez	a2,a2
   14f24:	00c6e633          	or	a2,a3,a2
   14f28:	00000713          	li	a4,0
   14f2c:	f01ff06f          	j	14e2c <__subtf3+0xc8>
   14f30:	00c76633          	or	a2,a4,a2
   14f34:	00c03633          	snez	a2,a2
   14f38:	ff1ff06f          	j	14f28 <__subtf3+0x1c4>
   14f3c:	12080063          	beqz	a6,1505c <__subtf3+0x2f8>
   14f40:	08089063          	bnez	a7,14fc0 <__subtf3+0x25c>
   14f44:	00a7e833          	or	a6,a5,a0
   14f48:	02081863          	bnez	a6,14f78 <__subtf3+0x214>
   14f4c:	00060513          	mv	a0,a2
   14f50:	7dee9863          	bne	t4,t5,15720 <__subtf3+0x9bc>
   14f54:	00c76533          	or	a0,a4,a2
   14f58:	020508e3          	beqz	a0,15788 <__subtf3+0xa24>
   14f5c:	03275793          	srli	a5,a4,0x32
   14f60:	0017f793          	andi	a5,a5,1
   14f64:	020798e3          	bnez	a5,15794 <__subtf3+0xa30>
   14f68:	00070793          	mv	a5,a4
   14f6c:	00060513          	mv	a0,a2
   14f70:	01000693          	li	a3,16
   14f74:	1440006f          	j	150b8 <__subtf3+0x354>
   14f78:	fff6c693          	not	a3,a3
   14f7c:	0006869b          	sext.w	a3,a3
   14f80:	00069c63          	bnez	a3,14f98 <__subtf3+0x234>
   14f84:	00c50533          	add	a0,a0,a2
   14f88:	00e78733          	add	a4,a5,a4
   14f8c:	00c53633          	sltu	a2,a0,a2
   14f90:	00c70733          	add	a4,a4,a2
   14f94:	eb1ff06f          	j	14e44 <__subtf3+0xe0>
   14f98:	03ee9e63          	bne	t4,t5,14fd4 <__subtf3+0x270>
   14f9c:	00c76533          	or	a0,a4,a2
   14fa0:	7e050463          	beqz	a0,15788 <__subtf3+0xa24>
   14fa4:	03275793          	srli	a5,a4,0x32
   14fa8:	0017f793          	andi	a5,a5,1
   14fac:	7e079463          	bnez	a5,15794 <__subtf3+0xa30>
   14fb0:	00070793          	mv	a5,a4
   14fb4:	00060513          	mv	a0,a2
   14fb8:	00000813          	li	a6,0
   14fbc:	fb5ff06f          	j	14f70 <__subtf3+0x20c>
   14fc0:	fdee8ee3          	beq	t4,t5,14f9c <__subtf3+0x238>
   14fc4:	00100813          	li	a6,1
   14fc8:	03381813          	slli	a6,a6,0x33
   14fcc:	40d006bb          	negw	a3,a3
   14fd0:	0107e7b3          	or	a5,a5,a6
   14fd4:	07400813          	li	a6,116
   14fd8:	06d84c63          	blt	a6,a3,15050 <__subtf3+0x2ec>
   14fdc:	03f00813          	li	a6,63
   14fe0:	02d84e63          	blt	a6,a3,1501c <__subtf3+0x2b8>
   14fe4:	04000893          	li	a7,64
   14fe8:	40d888bb          	subw	a7,a7,a3
   14fec:	00d55333          	srl	t1,a0,a3
   14ff0:	01179833          	sll	a6,a5,a7
   14ff4:	01151533          	sll	a0,a0,a7
   14ff8:	00686833          	or	a6,a6,t1
   14ffc:	00a03533          	snez	a0,a0
   15000:	00a86533          	or	a0,a6,a0
   15004:	00d7d6b3          	srl	a3,a5,a3
   15008:	00c50533          	add	a0,a0,a2
   1500c:	00e686b3          	add	a3,a3,a4
   15010:	00c53633          	sltu	a2,a0,a2
   15014:	00c68733          	add	a4,a3,a2
   15018:	e2dff06f          	j	14e44 <__subtf3+0xe0>
   1501c:	fc06881b          	addiw	a6,a3,-64
   15020:	04000313          	li	t1,64
   15024:	0107d833          	srl	a6,a5,a6
   15028:	00000893          	li	a7,0
   1502c:	00668863          	beq	a3,t1,1503c <__subtf3+0x2d8>
   15030:	08000893          	li	a7,128
   15034:	40d886bb          	subw	a3,a7,a3
   15038:	00d798b3          	sll	a7,a5,a3
   1503c:	00a8e533          	or	a0,a7,a0
   15040:	00a03533          	snez	a0,a0
   15044:	00a86533          	or	a0,a6,a0
   15048:	00000693          	li	a3,0
   1504c:	fbdff06f          	j	15008 <__subtf3+0x2a4>
   15050:	00a7e533          	or	a0,a5,a0
   15054:	00a03533          	snez	a0,a0
   15058:	ff1ff06f          	j	15048 <__subtf3+0x2e4>
   1505c:	00188593          	addi	a1,a7,1
   15060:	ffee0693          	addi	a3,t3,-2
   15064:	00d5f333          	and	t1,a1,a3
   15068:	18031863          	bnez	t1,151f8 <__subtf3+0x494>
   1506c:	00a7e5b3          	or	a1,a5,a0
   15070:	06089263          	bnez	a7,150d4 <__subtf3+0x370>
   15074:	6c058263          	beqz	a1,15738 <__subtf3+0x9d4>
   15078:	00c766b3          	or	a3,a4,a2
   1507c:	48068263          	beqz	a3,15500 <__subtf3+0x79c>
   15080:	00c50633          	add	a2,a0,a2
   15084:	00e787b3          	add	a5,a5,a4
   15088:	00a63533          	sltu	a0,a2,a0
   1508c:	00a787b3          	add	a5,a5,a0
   15090:	0337d713          	srli	a4,a5,0x33
   15094:	00177713          	andi	a4,a4,1
   15098:	6a070263          	beqz	a4,1573c <__subtf3+0x9d8>
   1509c:	fff00713          	li	a4,-1
   150a0:	03371713          	slli	a4,a4,0x33
   150a4:	fff70713          	addi	a4,a4,-1
   150a8:	00e7f7b3          	and	a5,a5,a4
   150ac:	00060513          	mv	a0,a2
   150b0:	00000693          	li	a3,0
   150b4:	00100593          	li	a1,1
   150b8:	00757713          	andi	a4,a0,7
   150bc:	1a071263          	bnez	a4,15260 <__subtf3+0x4fc>
   150c0:	08080663          	beqz	a6,1514c <__subtf3+0x3e8>
   150c4:	0016f713          	andi	a4,a3,1
   150c8:	08070263          	beqz	a4,1514c <__subtf3+0x3e8>
   150cc:	0026e693          	ori	a3,a3,2
   150d0:	07c0006f          	j	1514c <__subtf3+0x3e8>
   150d4:	03e89c63          	bne	a7,t5,1510c <__subtf3+0x3a8>
   150d8:	78058063          	beqz	a1,15858 <__subtf3+0xaf4>
   150dc:	0327d693          	srli	a3,a5,0x32
   150e0:	0016f693          	andi	a3,a3,1
   150e4:	0016b693          	seqz	a3,a3
   150e8:	00469693          	slli	a3,a3,0x4
   150ec:	051e9063          	bne	t4,a7,1512c <__subtf3+0x3c8>
   150f0:	00c768b3          	or	a7,a4,a2
   150f4:	02088063          	beqz	a7,15114 <__subtf3+0x3b0>
   150f8:	03275893          	srli	a7,a4,0x32
   150fc:	0018f893          	andi	a7,a7,1
   15100:	00089a63          	bnez	a7,15114 <__subtf3+0x3b0>
   15104:	01000693          	li	a3,16
   15108:	00c0006f          	j	15114 <__subtf3+0x3b0>
   1510c:	00000693          	li	a3,0
   15110:	ffee80e3          	beq	t4,t5,150f0 <__subtf3+0x38c>
   15114:	00059c63          	bnez	a1,1512c <__subtf3+0x3c8>
   15118:	00070793          	mv	a5,a4
   1511c:	00060513          	mv	a0,a2
   15120:	000085b7          	lui	a1,0x8
   15124:	fff58593          	addi	a1,a1,-1 # 7fff <exit-0x8121>
   15128:	f91ff06f          	j	150b8 <__subtf3+0x354>
   1512c:	00c76633          	or	a2,a4,a2
   15130:	fe0608e3          	beqz	a2,15120 <__subtf3+0x3bc>
   15134:	00100793          	li	a5,1
   15138:	000085b7          	lui	a1,0x8
   1513c:	00000493          	li	s1,0
   15140:	03279793          	slli	a5,a5,0x32
   15144:	00000513          	li	a0,0
   15148:	fff58593          	addi	a1,a1,-1 # 7fff <exit-0x8121>
   1514c:	0337d713          	srli	a4,a5,0x33
   15150:	00177713          	andi	a4,a4,1
   15154:	02070263          	beqz	a4,15178 <__subtf3+0x414>
   15158:	00008737          	lui	a4,0x8
   1515c:	00158593          	addi	a1,a1,1
   15160:	fff70613          	addi	a2,a4,-1 # 7fff <exit-0x8121>
   15164:	6ac58863          	beq	a1,a2,15814 <__subtf3+0xab0>
   15168:	fff00713          	li	a4,-1
   1516c:	03371713          	slli	a4,a4,0x33
   15170:	fff70713          	addi	a4,a4,-1
   15174:	00e7f7b3          	and	a5,a5,a4
   15178:	00355713          	srli	a4,a0,0x3
   1517c:	03d79513          	slli	a0,a5,0x3d
   15180:	00e56533          	or	a0,a0,a4
   15184:	00008737          	lui	a4,0x8
   15188:	fff70713          	addi	a4,a4,-1 # 7fff <exit-0x8121>
   1518c:	0037d793          	srli	a5,a5,0x3
   15190:	02e59063          	bne	a1,a4,151b0 <__subtf3+0x44c>
   15194:	00f56533          	or	a0,a0,a5
   15198:	00000793          	li	a5,0
   1519c:	00050a63          	beqz	a0,151b0 <__subtf3+0x44c>
   151a0:	00100793          	li	a5,1
   151a4:	02f79793          	slli	a5,a5,0x2f
   151a8:	00000513          	li	a0,0
   151ac:	00000493          	li	s1,0
   151b0:	03159593          	slli	a1,a1,0x31
   151b4:	00f4949b          	slliw	s1,s1,0xf
   151b8:	0315d593          	srli	a1,a1,0x31
   151bc:	0095e5b3          	or	a1,a1,s1
   151c0:	01079793          	slli	a5,a5,0x10
   151c4:	03059493          	slli	s1,a1,0x30
   151c8:	0107d593          	srli	a1,a5,0x10
   151cc:	0095e5b3          	or	a1,a1,s1
   151d0:	00068463          	beqz	a3,151d8 <__subtf3+0x474>
   151d4:	0016a073          	csrs	fflags,a3
   151d8:	02813083          	ld	ra,40(sp)
   151dc:	02013403          	ld	s0,32(sp)
   151e0:	01813483          	ld	s1,24(sp)
   151e4:	01013903          	ld	s2,16(sp)
   151e8:	00813983          	ld	s3,8(sp)
   151ec:	00013a03          	ld	s4,0(sp)
   151f0:	03010113          	addi	sp,sp,48
   151f4:	00008067          	ret
   151f8:	03e58663          	beq	a1,t5,15224 <__subtf3+0x4c0>
   151fc:	00c50633          	add	a2,a0,a2
   15200:	00a63533          	sltu	a0,a2,a0
   15204:	00e787b3          	add	a5,a5,a4
   15208:	00a787b3          	add	a5,a5,a0
   1520c:	03f79513          	slli	a0,a5,0x3f
   15210:	00165613          	srli	a2,a2,0x1
   15214:	00c56533          	or	a0,a0,a2
   15218:	0017d793          	srli	a5,a5,0x1
   1521c:	00000693          	li	a3,0
   15220:	e99ff06f          	j	150b8 <__subtf3+0x354>
   15224:	00040863          	beqz	s0,15234 <__subtf3+0x4d0>
   15228:	00300793          	li	a5,3
   1522c:	00f41c63          	bne	s0,a5,15244 <__subtf3+0x4e0>
   15230:	02049063          	bnez	s1,15250 <__subtf3+0x4ec>
   15234:	00000793          	li	a5,0
   15238:	00000513          	li	a0,0
   1523c:	00500693          	li	a3,5
   15240:	f0dff06f          	j	1514c <__subtf3+0x3e8>
   15244:	00200793          	li	a5,2
   15248:	00f41463          	bne	s0,a5,15250 <__subtf3+0x4ec>
   1524c:	fe0494e3          	bnez	s1,15234 <__subtf3+0x4d0>
   15250:	fff00793          	li	a5,-1
   15254:	fff00513          	li	a0,-1
   15258:	00068593          	mv	a1,a3
   1525c:	00500693          	li	a3,5
   15260:	00200713          	li	a4,2
   15264:	0016e693          	ori	a3,a3,1
   15268:	5ae40063          	beq	s0,a4,15808 <__subtf3+0xaa4>
   1526c:	00300713          	li	a4,3
   15270:	58e40663          	beq	s0,a4,157fc <__subtf3+0xa98>
   15274:	58041c63          	bnez	s0,1580c <__subtf3+0xaa8>
   15278:	00f57713          	andi	a4,a0,15
   1527c:	00400613          	li	a2,4
   15280:	58c70663          	beq	a4,a2,1580c <__subtf3+0xaa8>
   15284:	00450713          	addi	a4,a0,4
   15288:	00a73533          	sltu	a0,a4,a0
   1528c:	00a787b3          	add	a5,a5,a0
   15290:	00070513          	mv	a0,a4
   15294:	5780006f          	j	1580c <__subtf3+0xaa8>
   15298:	f8040ee3          	beqz	s0,15234 <__subtf3+0x4d0>
   1529c:	00300793          	li	a5,3
   152a0:	00f41e63          	bne	s0,a5,152bc <__subtf3+0x558>
   152a4:	f80488e3          	beqz	s1,15234 <__subtf3+0x4d0>
   152a8:	fff00793          	li	a5,-1
   152ac:	fff00513          	li	a0,-1
   152b0:	ffe68593          	addi	a1,a3,-2
   152b4:	00000813          	li	a6,0
   152b8:	fa5ff06f          	j	1525c <__subtf3+0x4f8>
   152bc:	00200793          	li	a5,2
   152c0:	fef414e3          	bne	s0,a5,152a8 <__subtf3+0x544>
   152c4:	f60498e3          	bnez	s1,15234 <__subtf3+0x4d0>
   152c8:	fe1ff06f          	j	152a8 <__subtf3+0x544>
   152cc:	0f005063          	blez	a6,153ac <__subtf3+0x648>
   152d0:	080e9463          	bnez	t4,15358 <__subtf3+0x5f4>
   152d4:	00c765b3          	or	a1,a4,a2
   152d8:	b2058ee3          	beqz	a1,14e14 <__subtf3+0xb0>
   152dc:	fff6881b          	addiw	a6,a3,-1
   152e0:	02081e63          	bnez	a6,1531c <__subtf3+0x5b8>
   152e4:	40c50633          	sub	a2,a0,a2
   152e8:	00c53533          	sltu	a0,a0,a2
   152ec:	40e78733          	sub	a4,a5,a4
   152f0:	40a70733          	sub	a4,a4,a0
   152f4:	00088593          	mv	a1,a7
   152f8:	00060513          	mv	a0,a2
   152fc:	03375793          	srli	a5,a4,0x33
   15300:	0017f793          	andi	a5,a5,1
   15304:	40078e63          	beqz	a5,15720 <__subtf3+0x9bc>
   15308:	00d71713          	slli	a4,a4,0xd
   1530c:	00d75913          	srli	s2,a4,0xd
   15310:	00050a13          	mv	s4,a0
   15314:	00058993          	mv	s3,a1
   15318:	3240006f          	j	1563c <__subtf3+0x8d8>
   1531c:	b7e88ce3          	beq	a7,t5,14e94 <__subtf3+0x130>
   15320:	07400693          	li	a3,116
   15324:	0706ce63          	blt	a3,a6,153a0 <__subtf3+0x63c>
   15328:	03f00693          	li	a3,63
   1532c:	0506c063          	blt	a3,a6,1536c <__subtf3+0x608>
   15330:	04000593          	li	a1,64
   15334:	410585bb          	subw	a1,a1,a6
   15338:	00b716b3          	sll	a3,a4,a1
   1533c:	01065333          	srl	t1,a2,a6
   15340:	00b61633          	sll	a2,a2,a1
   15344:	0066e6b3          	or	a3,a3,t1
   15348:	00c03633          	snez	a2,a2
   1534c:	00c6e633          	or	a2,a3,a2
   15350:	01075733          	srl	a4,a4,a6
   15354:	f91ff06f          	j	152e4 <__subtf3+0x580>
   15358:	b3e88ee3          	beq	a7,t5,14e94 <__subtf3+0x130>
   1535c:	00100693          	li	a3,1
   15360:	03369693          	slli	a3,a3,0x33
   15364:	00d76733          	or	a4,a4,a3
   15368:	fb9ff06f          	j	15320 <__subtf3+0x5bc>
   1536c:	fc08069b          	addiw	a3,a6,-64
   15370:	04000313          	li	t1,64
   15374:	00d756b3          	srl	a3,a4,a3
   15378:	00000593          	li	a1,0
   1537c:	00680863          	beq	a6,t1,1538c <__subtf3+0x628>
   15380:	08000593          	li	a1,128
   15384:	410585bb          	subw	a1,a1,a6
   15388:	00b715b3          	sll	a1,a4,a1
   1538c:	00c5e633          	or	a2,a1,a2
   15390:	00c03633          	snez	a2,a2
   15394:	00c6e633          	or	a2,a3,a2
   15398:	00000713          	li	a4,0
   1539c:	f49ff06f          	j	152e4 <__subtf3+0x580>
   153a0:	00c76633          	or	a2,a4,a2
   153a4:	00c03633          	snez	a2,a2
   153a8:	ff1ff06f          	j	15398 <__subtf3+0x634>
   153ac:	12080063          	beqz	a6,154cc <__subtf3+0x768>
   153b0:	08089063          	bnez	a7,15430 <__subtf3+0x6cc>
   153b4:	00a7e833          	or	a6,a5,a0
   153b8:	02081663          	bnez	a6,153e4 <__subtf3+0x680>
   153bc:	37ee9863          	bne	t4,t5,1572c <__subtf3+0x9c8>
   153c0:	00c76533          	or	a0,a4,a2
   153c4:	3e050663          	beqz	a0,157b0 <__subtf3+0xa4c>
   153c8:	03275793          	srli	a5,a4,0x32
   153cc:	0017f793          	andi	a5,a5,1
   153d0:	3e079663          	bnez	a5,157bc <__subtf3+0xa58>
   153d4:	00070793          	mv	a5,a4
   153d8:	00060513          	mv	a0,a2
   153dc:	00030493          	mv	s1,t1
   153e0:	b91ff06f          	j	14f70 <__subtf3+0x20c>
   153e4:	fff6c693          	not	a3,a3
   153e8:	0006869b          	sext.w	a3,a3
   153ec:	00069e63          	bnez	a3,15408 <__subtf3+0x6a4>
   153f0:	40a60533          	sub	a0,a2,a0
   153f4:	40f70733          	sub	a4,a4,a5
   153f8:	00a63633          	sltu	a2,a2,a0
   153fc:	40c70733          	sub	a4,a4,a2
   15400:	00030493          	mv	s1,t1
   15404:	ef9ff06f          	j	152fc <__subtf3+0x598>
   15408:	03ee9e63          	bne	t4,t5,15444 <__subtf3+0x6e0>
   1540c:	00c76533          	or	a0,a4,a2
   15410:	3a050063          	beqz	a0,157b0 <__subtf3+0xa4c>
   15414:	03275793          	srli	a5,a4,0x32
   15418:	0017f793          	andi	a5,a5,1
   1541c:	3a079063          	bnez	a5,157bc <__subtf3+0xa58>
   15420:	00070793          	mv	a5,a4
   15424:	00060513          	mv	a0,a2
   15428:	00030493          	mv	s1,t1
   1542c:	b8dff06f          	j	14fb8 <__subtf3+0x254>
   15430:	fdee8ee3          	beq	t4,t5,1540c <__subtf3+0x6a8>
   15434:	00100813          	li	a6,1
   15438:	03381813          	slli	a6,a6,0x33
   1543c:	40d006bb          	negw	a3,a3
   15440:	0107e7b3          	or	a5,a5,a6
   15444:	07400813          	li	a6,116
   15448:	06d84c63          	blt	a6,a3,154c0 <__subtf3+0x75c>
   1544c:	03f00813          	li	a6,63
   15450:	02d84e63          	blt	a6,a3,1548c <__subtf3+0x728>
   15454:	04000893          	li	a7,64
   15458:	40d888bb          	subw	a7,a7,a3
   1545c:	01179833          	sll	a6,a5,a7
   15460:	00d55e33          	srl	t3,a0,a3
   15464:	01151533          	sll	a0,a0,a7
   15468:	01c86833          	or	a6,a6,t3
   1546c:	00a03533          	snez	a0,a0
   15470:	00a86533          	or	a0,a6,a0
   15474:	00d7d7b3          	srl	a5,a5,a3
   15478:	40a60533          	sub	a0,a2,a0
   1547c:	40f707b3          	sub	a5,a4,a5
   15480:	00a63633          	sltu	a2,a2,a0
   15484:	40c78733          	sub	a4,a5,a2
   15488:	f79ff06f          	j	15400 <__subtf3+0x69c>
   1548c:	fc06881b          	addiw	a6,a3,-64
   15490:	04000e13          	li	t3,64
   15494:	0107d833          	srl	a6,a5,a6
   15498:	00000893          	li	a7,0
   1549c:	01c68863          	beq	a3,t3,154ac <__subtf3+0x748>
   154a0:	08000893          	li	a7,128
   154a4:	40d886bb          	subw	a3,a7,a3
   154a8:	00d798b3          	sll	a7,a5,a3
   154ac:	00a8e533          	or	a0,a7,a0
   154b0:	00a03533          	snez	a0,a0
   154b4:	00a86533          	or	a0,a6,a0
   154b8:	00000793          	li	a5,0
   154bc:	fbdff06f          	j	15478 <__subtf3+0x714>
   154c0:	00a7e533          	or	a0,a5,a0
   154c4:	00a03533          	snez	a0,a0
   154c8:	ff1ff06f          	j	154b8 <__subtf3+0x754>
   154cc:	00188593          	addi	a1,a7,1
   154d0:	ffee0693          	addi	a3,t3,-2
   154d4:	00d5f6b3          	and	a3,a1,a3
   154d8:	12069a63          	bnez	a3,1560c <__subtf3+0x8a8>
   154dc:	00c765b3          	or	a1,a4,a2
   154e0:	00a7ee33          	or	t3,a5,a0
   154e4:	0c089663          	bnez	a7,155b0 <__subtf3+0x84c>
   154e8:	060e1c63          	bnez	t3,15560 <__subtf3+0x7fc>
   154ec:	24059c63          	bnez	a1,15744 <__subtf3+0x9e0>
   154f0:	ffe40493          	addi	s1,s0,-2
   154f4:	0014b493          	seqz	s1,s1
   154f8:	00000793          	li	a5,0
   154fc:	00000513          	li	a0,0
   15500:	00f56733          	or	a4,a0,a5
   15504:	2e070463          	beqz	a4,157ec <__subtf3+0xa88>
   15508:	03f55713          	srli	a4,a0,0x3f
   1550c:	00179813          	slli	a6,a5,0x1
   15510:	00e80833          	add	a6,a6,a4
   15514:	00151713          	slli	a4,a0,0x1
   15518:	00777613          	andi	a2,a4,7
   1551c:	00000693          	li	a3,0
   15520:	02060663          	beqz	a2,1554c <__subtf3+0x7e8>
   15524:	00200693          	li	a3,2
   15528:	24d40a63          	beq	s0,a3,1577c <__subtf3+0xa18>
   1552c:	00300693          	li	a3,3
   15530:	22d40663          	beq	s0,a3,1575c <__subtf3+0x9f8>
   15534:	00100693          	li	a3,1
   15538:	00041a63          	bnez	s0,1554c <__subtf3+0x7e8>
   1553c:	00f77613          	andi	a2,a4,15
   15540:	00400593          	li	a1,4
   15544:	ffc73713          	sltiu	a4,a4,-4
   15548:	22b61063          	bne	a2,a1,15768 <__subtf3+0xa04>
   1554c:	03485813          	srli	a6,a6,0x34
   15550:	00184813          	xori	a6,a6,1
   15554:	00187813          	andi	a6,a6,1
   15558:	00000593          	li	a1,0
   1555c:	b5dff06f          	j	150b8 <__subtf3+0x354>
   15560:	fa0580e3          	beqz	a1,15500 <__subtf3+0x79c>
   15564:	40c505b3          	sub	a1,a0,a2
   15568:	00b53833          	sltu	a6,a0,a1
   1556c:	40e786b3          	sub	a3,a5,a4
   15570:	410686b3          	sub	a3,a3,a6
   15574:	0336d813          	srli	a6,a3,0x33
   15578:	00187813          	andi	a6,a6,1
   1557c:	00080e63          	beqz	a6,15598 <__subtf3+0x834>
   15580:	40a60533          	sub	a0,a2,a0
   15584:	40f707b3          	sub	a5,a4,a5
   15588:	00a63633          	sltu	a2,a2,a0
   1558c:	40c787b3          	sub	a5,a5,a2
   15590:	00030493          	mv	s1,t1
   15594:	f6dff06f          	j	15500 <__subtf3+0x79c>
   15598:	00d5e533          	or	a0,a1,a3
   1559c:	1a051a63          	bnez	a0,15750 <__subtf3+0x9ec>
   155a0:	ffe40493          	addi	s1,s0,-2
   155a4:	0014b493          	seqz	s1,s1
   155a8:	00000793          	li	a5,0
   155ac:	f55ff06f          	j	15500 <__subtf3+0x79c>
   155b0:	03e89a63          	bne	a7,t5,155e4 <__subtf3+0x880>
   155b4:	280e0c63          	beqz	t3,1584c <__subtf3+0xae8>
   155b8:	0327d693          	srli	a3,a5,0x32
   155bc:	0016f693          	andi	a3,a3,1
   155c0:	0016b693          	seqz	a3,a3
   155c4:	00469693          	slli	a3,a3,0x4
   155c8:	031e9e63          	bne	t4,a7,15604 <__subtf3+0x8a0>
   155cc:	02058063          	beqz	a1,155ec <__subtf3+0x888>
   155d0:	03275893          	srli	a7,a4,0x32
   155d4:	0018f893          	andi	a7,a7,1
   155d8:	00089a63          	bnez	a7,155ec <__subtf3+0x888>
   155dc:	01000693          	li	a3,16
   155e0:	00c0006f          	j	155ec <__subtf3+0x888>
   155e4:	00000693          	li	a3,0
   155e8:	ffee82e3          	beq	t4,t5,155cc <__subtf3+0x868>
   155ec:	000e1c63          	bnez	t3,15604 <__subtf3+0x8a0>
   155f0:	1c058e63          	beqz	a1,157cc <__subtf3+0xa68>
   155f4:	00070793          	mv	a5,a4
   155f8:	00060513          	mv	a0,a2
   155fc:	00030493          	mv	s1,t1
   15600:	b21ff06f          	j	15120 <__subtf3+0x3bc>
   15604:	b0058ee3          	beqz	a1,15120 <__subtf3+0x3bc>
   15608:	b2dff06f          	j	15134 <__subtf3+0x3d0>
   1560c:	40c50a33          	sub	s4,a0,a2
   15610:	014536b3          	sltu	a3,a0,s4
   15614:	40e78933          	sub	s2,a5,a4
   15618:	40d90933          	sub	s2,s2,a3
   1561c:	03395693          	srli	a3,s2,0x33
   15620:	0016f693          	andi	a3,a3,1
   15624:	08068663          	beqz	a3,156b0 <__subtf3+0x94c>
   15628:	40a60a33          	sub	s4,a2,a0
   1562c:	40f70733          	sub	a4,a4,a5
   15630:	01463633          	sltu	a2,a2,s4
   15634:	40c70933          	sub	s2,a4,a2
   15638:	00030493          	mv	s1,t1
   1563c:	08090063          	beqz	s2,156bc <__subtf3+0x958>
   15640:	00090513          	mv	a0,s2
   15644:	5b0000ef          	jal	ra,15bf4 <__clzdi2>
   15648:	0005051b          	sext.w	a0,a0
   1564c:	ff45059b          	addiw	a1,a0,-12
   15650:	03f00793          	li	a5,63
   15654:	00058693          	mv	a3,a1
   15658:	06b7ca63          	blt	a5,a1,156cc <__subtf3+0x968>
   1565c:	04000713          	li	a4,64
   15660:	40b7073b          	subw	a4,a4,a1
   15664:	00b91933          	sll	s2,s2,a1
   15668:	00ea5733          	srl	a4,s4,a4
   1566c:	01276733          	or	a4,a4,s2
   15670:	00ba1533          	sll	a0,s4,a1
   15674:	0935cc63          	blt	a1,s3,1570c <__subtf3+0x9a8>
   15678:	413686bb          	subw	a3,a3,s3
   1567c:	0016879b          	addiw	a5,a3,1
   15680:	03f00613          	li	a2,63
   15684:	04f64c63          	blt	a2,a5,156dc <__subtf3+0x978>
   15688:	04000693          	li	a3,64
   1568c:	40f686bb          	subw	a3,a3,a5
   15690:	00f555b3          	srl	a1,a0,a5
   15694:	00d71633          	sll	a2,a4,a3
   15698:	00d51533          	sll	a0,a0,a3
   1569c:	00b66633          	or	a2,a2,a1
   156a0:	00a03533          	snez	a0,a0
   156a4:	00a66533          	or	a0,a2,a0
   156a8:	00f757b3          	srl	a5,a4,a5
   156ac:	e55ff06f          	j	15500 <__subtf3+0x79c>
   156b0:	012a6533          	or	a0,s4,s2
   156b4:	f80514e3          	bnez	a0,1563c <__subtf3+0x8d8>
   156b8:	ee9ff06f          	j	155a0 <__subtf3+0x83c>
   156bc:	000a0513          	mv	a0,s4
   156c0:	534000ef          	jal	ra,15bf4 <__clzdi2>
   156c4:	0405051b          	addiw	a0,a0,64
   156c8:	f85ff06f          	j	1564c <__subtf3+0x8e8>
   156cc:	fb45071b          	addiw	a4,a0,-76
   156d0:	00ea1733          	sll	a4,s4,a4
   156d4:	00000513          	li	a0,0
   156d8:	f9dff06f          	j	15674 <__subtf3+0x910>
   156dc:	fc16869b          	addiw	a3,a3,-63
   156e0:	04000813          	li	a6,64
   156e4:	00d75633          	srl	a2,a4,a3
   156e8:	00000693          	li	a3,0
   156ec:	01078863          	beq	a5,a6,156fc <__subtf3+0x998>
   156f0:	08000693          	li	a3,128
   156f4:	40f686bb          	subw	a3,a3,a5
   156f8:	00d716b3          	sll	a3,a4,a3
   156fc:	00d56533          	or	a0,a0,a3
   15700:	00a03533          	snez	a0,a0
   15704:	00a66533          	or	a0,a2,a0
   15708:	ea1ff06f          	j	155a8 <__subtf3+0x844>
   1570c:	fff00793          	li	a5,-1
   15710:	03379793          	slli	a5,a5,0x33
   15714:	fff78793          	addi	a5,a5,-1
   15718:	40b985b3          	sub	a1,s3,a1
   1571c:	00f77733          	and	a4,a4,a5
   15720:	00070793          	mv	a5,a4
   15724:	dc058ee3          	beqz	a1,15500 <__subtf3+0x79c>
   15728:	f60ff06f          	j	14e88 <__subtf3+0x124>
   1572c:	00060513          	mv	a0,a2
   15730:	00030493          	mv	s1,t1
   15734:	fedff06f          	j	15720 <__subtf3+0x9bc>
   15738:	00070793          	mv	a5,a4
   1573c:	00060513          	mv	a0,a2
   15740:	dc1ff06f          	j	15500 <__subtf3+0x79c>
   15744:	00070793          	mv	a5,a4
   15748:	00060513          	mv	a0,a2
   1574c:	e45ff06f          	j	15590 <__subtf3+0x82c>
   15750:	00068793          	mv	a5,a3
   15754:	00058513          	mv	a0,a1
   15758:	da9ff06f          	j	15500 <__subtf3+0x79c>
   1575c:	00100693          	li	a3,1
   15760:	de0496e3          	bnez	s1,1554c <__subtf3+0x7e8>
   15764:	ff873713          	sltiu	a4,a4,-8
   15768:	00174713          	xori	a4,a4,1
   1576c:	02071713          	slli	a4,a4,0x20
   15770:	02075713          	srli	a4,a4,0x20
   15774:	00e80833          	add	a6,a6,a4
   15778:	dd5ff06f          	j	1554c <__subtf3+0x7e8>
   1577c:	00100693          	li	a3,1
   15780:	dc0486e3          	beqz	s1,1554c <__subtf3+0x7e8>
   15784:	fe1ff06f          	j	15764 <__subtf3+0xa00>
   15788:	00000793          	li	a5,0
   1578c:	00000693          	li	a3,0
   15790:	9bdff06f          	j	1514c <__subtf3+0x3e8>
   15794:	00070793          	mv	a5,a4
   15798:	00060513          	mv	a0,a2
   1579c:	eecff06f          	j	14e88 <__subtf3+0x124>
   157a0:	00000793          	li	a5,0
   157a4:	00000513          	li	a0,0
   157a8:	00088593          	mv	a1,a7
   157ac:	fe1ff06f          	j	1578c <__subtf3+0xa28>
   157b0:	00000793          	li	a5,0
   157b4:	00030493          	mv	s1,t1
   157b8:	fd5ff06f          	j	1578c <__subtf3+0xa28>
   157bc:	00070793          	mv	a5,a4
   157c0:	00060513          	mv	a0,a2
   157c4:	00030493          	mv	s1,t1
   157c8:	ec0ff06f          	j	14e88 <__subtf3+0x124>
   157cc:	00100793          	li	a5,1
   157d0:	000085b7          	lui	a1,0x8
   157d4:	00000513          	li	a0,0
   157d8:	00000493          	li	s1,0
   157dc:	03279793          	slli	a5,a5,0x32
   157e0:	fff58593          	addi	a1,a1,-1 # 7fff <exit-0x8121>
   157e4:	01000693          	li	a3,16
   157e8:	965ff06f          	j	1514c <__subtf3+0x3e8>
   157ec:	00000793          	li	a5,0
   157f0:	00000513          	li	a0,0
   157f4:	00000593          	li	a1,0
   157f8:	f95ff06f          	j	1578c <__subtf3+0xa28>
   157fc:	00049863          	bnez	s1,1580c <__subtf3+0xaa8>
   15800:	00850713          	addi	a4,a0,8
   15804:	a85ff06f          	j	15288 <__subtf3+0x524>
   15808:	fe049ce3          	bnez	s1,15800 <__subtf3+0xa9c>
   1580c:	8c0810e3          	bnez	a6,150cc <__subtf3+0x368>
   15810:	93dff06f          	j	1514c <__subtf3+0x3e8>
   15814:	00000513          	li	a0,0
   15818:	02040463          	beqz	s0,15840 <__subtf3+0xadc>
   1581c:	00300793          	li	a5,3
   15820:	00f41a63          	bne	s0,a5,15834 <__subtf3+0xad0>
   15824:	00048e63          	beqz	s1,15840 <__subtf3+0xadc>
   15828:	fff00513          	li	a0,-1
   1582c:	ffe70593          	addi	a1,a4,-2
   15830:	0100006f          	j	15840 <__subtf3+0xadc>
   15834:	00200793          	li	a5,2
   15838:	fef418e3          	bne	s0,a5,15828 <__subtf3+0xac4>
   1583c:	fe0486e3          	beqz	s1,15828 <__subtf3+0xac4>
   15840:	0056e693          	ori	a3,a3,5
   15844:	00050793          	mv	a5,a0
   15848:	931ff06f          	j	15178 <__subtf3+0x414>
   1584c:	00000693          	li	a3,0
   15850:	db1e90e3          	bne	t4,a7,155f0 <__subtf3+0x88c>
   15854:	d79ff06f          	j	155cc <__subtf3+0x868>
   15858:	00000693          	li	a3,0
   1585c:	8b1e9ee3          	bne	t4,a7,15118 <__subtf3+0x3b4>
   15860:	891ff06f          	j	150f0 <__subtf3+0x38c>

0000000000015864 <__fixtfsi>:
   15864:	00050613          	mv	a2,a0
   15868:	002027f3          	frrm	a5
   1586c:	00004837          	lui	a6,0x4
   15870:	00159693          	slli	a3,a1,0x1
   15874:	01059793          	slli	a5,a1,0x10
   15878:	0316d693          	srli	a3,a3,0x31
   1587c:	ffe80713          	addi	a4,a6,-2 # 3ffe <exit-0xc122>
   15880:	0107d793          	srli	a5,a5,0x10
   15884:	03f5d593          	srli	a1,a1,0x3f
   15888:	00d74c63          	blt	a4,a3,158a0 <__fixtfsi+0x3c>
   1588c:	08069c63          	bnez	a3,15924 <__fixtfsi+0xc0>
   15890:	00f567b3          	or	a5,a0,a5
   15894:	00000513          	li	a0,0
   15898:	04079063          	bnez	a5,158d8 <__fixtfsi+0x74>
   1589c:	00008067          	ret
   158a0:	01d80713          	addi	a4,a6,29
   158a4:	02d75e63          	bge	a4,a3,158e0 <__fixtfsi+0x7c>
   158a8:	80000737          	lui	a4,0x80000
   158ac:	fff74713          	not	a4,a4
   158b0:	00b7053b          	addw	a0,a4,a1
   158b4:	06058c63          	beqz	a1,1592c <__fixtfsi+0xc8>
   158b8:	01e80813          	addi	a6,a6,30
   158bc:	01000713          	li	a4,16
   158c0:	07069863          	bne	a3,a6,15930 <__fixtfsi+0xcc>
   158c4:	0117d693          	srli	a3,a5,0x11
   158c8:	06069463          	bnez	a3,15930 <__fixtfsi+0xcc>
   158cc:	02f79793          	slli	a5,a5,0x2f
   158d0:	00c7e7b3          	or	a5,a5,a2
   158d4:	04078663          	beqz	a5,15920 <__fixtfsi+0xbc>
   158d8:	00100713          	li	a4,1
   158dc:	0540006f          	j	15930 <__fixtfsi+0xcc>
   158e0:	00100513          	li	a0,1
   158e4:	03051513          	slli	a0,a0,0x30
   158e8:	00a7e7b3          	or	a5,a5,a0
   158ec:	ffffc737          	lui	a4,0xffffc
   158f0:	00004537          	lui	a0,0x4
   158f4:	02f5051b          	addiw	a0,a0,47
   158f8:	0117071b          	addiw	a4,a4,17
   158fc:	00d7073b          	addw	a4,a4,a3
   15900:	40d506bb          	subw	a3,a0,a3
   15904:	00e79733          	sll	a4,a5,a4
   15908:	00d7d7b3          	srl	a5,a5,a3
   1590c:	00c76733          	or	a4,a4,a2
   15910:	0007851b          	sext.w	a0,a5
   15914:	00058463          	beqz	a1,1591c <__fixtfsi+0xb8>
   15918:	40a0053b          	negw	a0,a0
   1591c:	fa071ee3          	bnez	a4,158d8 <__fixtfsi+0x74>
   15920:	00008067          	ret
   15924:	00000513          	li	a0,0
   15928:	fb1ff06f          	j	158d8 <__fixtfsi+0x74>
   1592c:	01000713          	li	a4,16
   15930:	00172073          	csrs	fflags,a4
   15934:	fedff06f          	j	15920 <__fixtfsi+0xbc>

0000000000015938 <__fixunstfsi>:
   15938:	00050693          	mv	a3,a0
   1593c:	002027f3          	frrm	a5
   15940:	00004637          	lui	a2,0x4
   15944:	00159713          	slli	a4,a1,0x1
   15948:	01059793          	slli	a5,a1,0x10
   1594c:	03175713          	srli	a4,a4,0x31
   15950:	ffe60513          	addi	a0,a2,-2 # 3ffe <exit-0xc122>
   15954:	0107d793          	srli	a5,a5,0x10
   15958:	03f5d593          	srli	a1,a1,0x3f
   1595c:	00e54c63          	blt	a0,a4,15974 <__fixunstfsi+0x3c>
   15960:	06071c63          	bnez	a4,159d8 <__fixunstfsi+0xa0>
   15964:	00f6e7b3          	or	a5,a3,a5
   15968:	06079863          	bnez	a5,159d8 <__fixunstfsi+0xa0>
   1596c:	00000513          	li	a0,0
   15970:	00008067          	ret
   15974:	01e60513          	addi	a0,a2,30
   15978:	00059463          	bnez	a1,15980 <__fixunstfsi+0x48>
   1597c:	01f60513          	addi	a0,a2,31
   15980:	04a75463          	bge	a4,a0,159c8 <__fixunstfsi+0x90>
   15984:	06059063          	bnez	a1,159e4 <__fixunstfsi+0xac>
   15988:	00100613          	li	a2,1
   1598c:	03061613          	slli	a2,a2,0x30
   15990:	00c7e7b3          	or	a5,a5,a2
   15994:	000045b7          	lui	a1,0x4
   15998:	ffffc637          	lui	a2,0xffffc
   1599c:	02f5859b          	addiw	a1,a1,47
   159a0:	0116061b          	addiw	a2,a2,17
   159a4:	40e585bb          	subw	a1,a1,a4
   159a8:	00e6073b          	addw	a4,a2,a4
   159ac:	00b7d5b3          	srl	a1,a5,a1
   159b0:	00e797b3          	sll	a5,a5,a4
   159b4:	00d7e7b3          	or	a5,a5,a3
   159b8:	0005851b          	sext.w	a0,a1
   159bc:	00078c63          	beqz	a5,159d4 <__fixunstfsi+0x9c>
   159c0:	00100793          	li	a5,1
   159c4:	00c0006f          	j	159d0 <__fixunstfsi+0x98>
   159c8:	fff58513          	addi	a0,a1,-1 # 3fff <exit-0xc121>
   159cc:	01000793          	li	a5,16
   159d0:	0017a073          	csrs	fflags,a5
   159d4:	00008067          	ret
   159d8:	00100793          	li	a5,1
   159dc:	00000513          	li	a0,0
   159e0:	ff1ff06f          	j	159d0 <__fixunstfsi+0x98>
   159e4:	01000793          	li	a5,16
   159e8:	ff5ff06f          	j	159dc <__fixunstfsi+0xa4>

00000000000159ec <__floatsitf>:
   159ec:	fe010113          	addi	sp,sp,-32
   159f0:	00113c23          	sd	ra,24(sp)
   159f4:	00813823          	sd	s0,16(sp)
   159f8:	00913423          	sd	s1,8(sp)
   159fc:	06050463          	beqz	a0,15a64 <__floatsitf+0x78>
   15a00:	0005079b          	sext.w	a5,a0
   15a04:	03f55493          	srli	s1,a0,0x3f
   15a08:	00055463          	bgez	a0,15a10 <__floatsitf+0x24>
   15a0c:	40f007bb          	negw	a5,a5
   15a10:	02079413          	slli	s0,a5,0x20
   15a14:	02045413          	srli	s0,s0,0x20
   15a18:	00040513          	mv	a0,s0
   15a1c:	1d8000ef          	jal	ra,15bf4 <__clzdi2>
   15a20:	000045b7          	lui	a1,0x4
   15a24:	03e5859b          	addiw	a1,a1,62
   15a28:	ff15079b          	addiw	a5,a0,-15
   15a2c:	40a585bb          	subw	a1,a1,a0
   15a30:	00f417b3          	sll	a5,s0,a5
   15a34:	01813083          	ld	ra,24(sp)
   15a38:	01013403          	ld	s0,16(sp)
   15a3c:	00f4949b          	slliw	s1,s1,0xf
   15a40:	0095e5b3          	or	a1,a1,s1
   15a44:	01079793          	slli	a5,a5,0x10
   15a48:	03059593          	slli	a1,a1,0x30
   15a4c:	0107d793          	srli	a5,a5,0x10
   15a50:	00813483          	ld	s1,8(sp)
   15a54:	00000513          	li	a0,0
   15a58:	00b7e5b3          	or	a1,a5,a1
   15a5c:	02010113          	addi	sp,sp,32
   15a60:	00008067          	ret
   15a64:	00000793          	li	a5,0
   15a68:	00000593          	li	a1,0
   15a6c:	00000493          	li	s1,0
   15a70:	fc5ff06f          	j	15a34 <__floatsitf+0x48>

0000000000015a74 <__floatunsitf>:
   15a74:	ff010113          	addi	sp,sp,-16
   15a78:	00113423          	sd	ra,8(sp)
   15a7c:	00813023          	sd	s0,0(sp)
   15a80:	04050663          	beqz	a0,15acc <__floatunsitf+0x58>
   15a84:	02051413          	slli	s0,a0,0x20
   15a88:	02045413          	srli	s0,s0,0x20
   15a8c:	00040513          	mv	a0,s0
   15a90:	164000ef          	jal	ra,15bf4 <__clzdi2>
   15a94:	000045b7          	lui	a1,0x4
   15a98:	03e5859b          	addiw	a1,a1,62
   15a9c:	40a585bb          	subw	a1,a1,a0
   15aa0:	ff15051b          	addiw	a0,a0,-15
   15aa4:	00a41433          	sll	s0,s0,a0
   15aa8:	01041413          	slli	s0,s0,0x10
   15aac:	01045413          	srli	s0,s0,0x10
   15ab0:	03059593          	slli	a1,a1,0x30
   15ab4:	00813083          	ld	ra,8(sp)
   15ab8:	00b465b3          	or	a1,s0,a1
   15abc:	00013403          	ld	s0,0(sp)
   15ac0:	00000513          	li	a0,0
   15ac4:	01010113          	addi	sp,sp,16
   15ac8:	00008067          	ret
   15acc:	00000413          	li	s0,0
   15ad0:	00000593          	li	a1,0
   15ad4:	fd5ff06f          	j	15aa8 <__floatunsitf+0x34>

0000000000015ad8 <__extenddftf2>:
   15ad8:	fe010113          	addi	sp,sp,-32
   15adc:	00113c23          	sd	ra,24(sp)
   15ae0:	00813823          	sd	s0,16(sp)
   15ae4:	00913423          	sd	s1,8(sp)
   15ae8:	002027f3          	frrm	a5
   15aec:	03455793          	srli	a5,a0,0x34
   15af0:	7ff7f793          	andi	a5,a5,2047
   15af4:	00178713          	addi	a4,a5,1
   15af8:	00c51413          	slli	s0,a0,0xc
   15afc:	7fe77713          	andi	a4,a4,2046
   15b00:	00c45413          	srli	s0,s0,0xc
   15b04:	03f55493          	srli	s1,a0,0x3f
   15b08:	02070063          	beqz	a4,15b28 <__extenddftf2+0x50>
   15b0c:	00004737          	lui	a4,0x4
   15b10:	c0070713          	addi	a4,a4,-1024 # 3c00 <exit-0xc520>
   15b14:	00445593          	srli	a1,s0,0x4
   15b18:	00e787b3          	add	a5,a5,a4
   15b1c:	03c41413          	slli	s0,s0,0x3c
   15b20:	00000713          	li	a4,0
   15b24:	0880006f          	j	15bac <__extenddftf2+0xd4>
   15b28:	04079a63          	bnez	a5,15b7c <__extenddftf2+0xa4>
   15b2c:	00000593          	li	a1,0
   15b30:	fe0408e3          	beqz	s0,15b20 <__extenddftf2+0x48>
   15b34:	00040513          	mv	a0,s0
   15b38:	0bc000ef          	jal	ra,15bf4 <__clzdi2>
   15b3c:	0005071b          	sext.w	a4,a0
   15b40:	00e00793          	li	a5,14
   15b44:	02e7c463          	blt	a5,a4,15b6c <__extenddftf2+0x94>
   15b48:	00f00593          	li	a1,15
   15b4c:	40a585bb          	subw	a1,a1,a0
   15b50:	0315079b          	addiw	a5,a0,49
   15b54:	00b455b3          	srl	a1,s0,a1
   15b58:	00f41433          	sll	s0,s0,a5
   15b5c:	00004737          	lui	a4,0x4
   15b60:	c0c7071b          	addiw	a4,a4,-1012
   15b64:	40a707bb          	subw	a5,a4,a0
   15b68:	fb9ff06f          	j	15b20 <__extenddftf2+0x48>
   15b6c:	ff15059b          	addiw	a1,a0,-15
   15b70:	00b415b3          	sll	a1,s0,a1
   15b74:	00000413          	li	s0,0
   15b78:	fe5ff06f          	j	15b5c <__extenddftf2+0x84>
   15b7c:	06040463          	beqz	s0,15be4 <__extenddftf2+0x10c>
   15b80:	00100793          	li	a5,1
   15b84:	03379713          	slli	a4,a5,0x33
   15b88:	00e47733          	and	a4,s0,a4
   15b8c:	00445593          	srli	a1,s0,0x4
   15b90:	02f79793          	slli	a5,a5,0x2f
   15b94:	00173713          	seqz	a4,a4
   15b98:	00f5e5b3          	or	a1,a1,a5
   15b9c:	000087b7          	lui	a5,0x8
   15ba0:	00471713          	slli	a4,a4,0x4
   15ba4:	03c41413          	slli	s0,s0,0x3c
   15ba8:	fff78793          	addi	a5,a5,-1 # 7fff <exit-0x8121>
   15bac:	00f4951b          	slliw	a0,s1,0xf
   15bb0:	01059593          	slli	a1,a1,0x10
   15bb4:	00a7e7b3          	or	a5,a5,a0
   15bb8:	03079793          	slli	a5,a5,0x30
   15bbc:	0105d593          	srli	a1,a1,0x10
   15bc0:	00f5e5b3          	or	a1,a1,a5
   15bc4:	00070463          	beqz	a4,15bcc <__extenddftf2+0xf4>
   15bc8:	00172073          	csrs	fflags,a4
   15bcc:	01813083          	ld	ra,24(sp)
   15bd0:	00040513          	mv	a0,s0
   15bd4:	01013403          	ld	s0,16(sp)
   15bd8:	00813483          	ld	s1,8(sp)
   15bdc:	02010113          	addi	sp,sp,32
   15be0:	00008067          	ret
   15be4:	000087b7          	lui	a5,0x8
   15be8:	00000593          	li	a1,0
   15bec:	fff78793          	addi	a5,a5,-1 # 7fff <exit-0x8121>
   15bf0:	f31ff06f          	j	15b20 <__extenddftf2+0x48>

0000000000015bf4 <__clzdi2>:
   15bf4:	03800793          	li	a5,56
   15bf8:	00f55733          	srl	a4,a0,a5
   15bfc:	0ff77713          	andi	a4,a4,255
   15c00:	00071663          	bnez	a4,15c0c <__clzdi2+0x18>
   15c04:	ff878793          	addi	a5,a5,-8
   15c08:	fe0798e3          	bnez	a5,15bf8 <__clzdi2+0x4>
   15c0c:	04000713          	li	a4,64
   15c10:	40f70733          	sub	a4,a4,a5
   15c14:	00f55533          	srl	a0,a0,a5
   15c18:	00002797          	auipc	a5,0x2
   15c1c:	4e87b783          	ld	a5,1256(a5) # 18100 <_GLOBAL_OFFSET_TABLE_+0x8>
   15c20:	00a78533          	add	a0,a5,a0
   15c24:	00054503          	lbu	a0,0(a0) # 4000 <exit-0xc120>
   15c28:	40a7053b          	subw	a0,a4,a0
   15c2c:	00008067          	ret
