
../../out/aarch64/1-fn-ptr.elf:     file format elf64-littleaarch64


Disassembly of section .init:

0000000000400120 <_init>:
  400120:	a9bf7bfd 	stp	x29, x30, [sp, #-16]!
  400124:	910003fd 	mov	x29, sp
  400128:	a8c17bfd 	ldp	x29, x30, [sp], #16
  40012c:	d65f03c0 	ret

Disassembly of section .text:

0000000000400130 <exit>:
  400130:	a9bf7bf3 	stp	x19, x30, [sp, #-16]!
  400134:	2a0003f3 	mov	w19, w0
  400138:	94000126 	bl	4005d0 <__funcs_on_exit>
  40013c:	94000126 	bl	4005d4 <__libc_exit_fini>
  400140:	94000b49 	bl	402e64 <__stdio_exit>
  400144:	2a1303e0 	mov	w0, w19
  400148:	94000911 	bl	40258c <_Exit>

000000000040014c <_start>:
  40014c:	d280001d 	mov	x29, #0x0                   	// #0
  400150:	d280001e 	mov	x30, #0x0                   	// #0
  400154:	910003e0 	mov	x0, sp
  400158:	90000001 	adrp	x1, 400000 <_init-0x120>
  40015c:	91000021 	add	x1, x1, #0x0
  400160:	927cec1f 	and	sp, x0, #0xfffffffffffffff0
  400164:	14000001 	b	400168 <_start_c>

0000000000400168 <_start_c>:
  400168:	aa0003e2 	mov	x2, x0
  40016c:	b0000020 	adrp	x0, 405000 <__sfp_handle_exceptions+0x64>
  400170:	d2800005 	mov	x5, #0x0                   	// #0
  400174:	f9401004 	ldr	x4, [x0, #32]
  400178:	b0000020 	adrp	x0, 405000 <__sfp_handle_exceptions+0x64>
  40017c:	f8408441 	ldr	x1, [x2], #8
  400180:	f9401403 	ldr	x3, [x0, #40]
  400184:	90000000 	adrp	x0, 400000 <_init-0x120>
  400188:	910c9000 	add	x0, x0, #0x324
  40018c:	140000ff 	b	400588 <__libc_start_main>

0000000000400190 <deregister_tm_clones>:
  400190:	d00000a0 	adrp	x0, 416000 <__stdout_FILE+0x10>
  400194:	9103a001 	add	x1, x0, #0xe8
  400198:	d00000a0 	adrp	x0, 416000 <__stdout_FILE+0x10>
  40019c:	9103a000 	add	x0, x0, #0xe8
  4001a0:	eb00003f 	cmp	x1, x0
  4001a4:	54000160 	b.eq	4001d0 <deregister_tm_clones+0x40>  // b.none
  4001a8:	d10043ff 	sub	sp, sp, #0x10
  4001ac:	b0000021 	adrp	x1, 405000 <__sfp_handle_exceptions+0x64>
  4001b0:	f9401821 	ldr	x1, [x1, #48]
  4001b4:	f90007e1 	str	x1, [sp, #8]
  4001b8:	b4000081 	cbz	x1, 4001c8 <deregister_tm_clones+0x38>
  4001bc:	aa0103f0 	mov	x16, x1
  4001c0:	910043ff 	add	sp, sp, #0x10
  4001c4:	d61f0200 	br	x16
  4001c8:	910043ff 	add	sp, sp, #0x10
  4001cc:	d65f03c0 	ret
  4001d0:	d65f03c0 	ret

00000000004001d4 <register_tm_clones>:
  4001d4:	d00000a0 	adrp	x0, 416000 <__stdout_FILE+0x10>
  4001d8:	9103a001 	add	x1, x0, #0xe8
  4001dc:	d00000a0 	adrp	x0, 416000 <__stdout_FILE+0x10>
  4001e0:	9103a000 	add	x0, x0, #0xe8
  4001e4:	cb000021 	sub	x1, x1, x0
  4001e8:	d2800042 	mov	x2, #0x2                   	// #2
  4001ec:	9343fc21 	asr	x1, x1, #3
  4001f0:	9ac20c21 	sdiv	x1, x1, x2
  4001f4:	b4000161 	cbz	x1, 400220 <register_tm_clones+0x4c>
  4001f8:	d10043ff 	sub	sp, sp, #0x10
  4001fc:	b0000022 	adrp	x2, 405000 <__sfp_handle_exceptions+0x64>
  400200:	f9401c42 	ldr	x2, [x2, #56]
  400204:	f90007e2 	str	x2, [sp, #8]
  400208:	b4000082 	cbz	x2, 400218 <register_tm_clones+0x44>
  40020c:	aa0203f0 	mov	x16, x2
  400210:	910043ff 	add	sp, sp, #0x10
  400214:	d61f0200 	br	x16
  400218:	910043ff 	add	sp, sp, #0x10
  40021c:	d65f03c0 	ret
  400220:	d65f03c0 	ret

0000000000400224 <__do_global_dtors_aux>:
  400224:	d00000a0 	adrp	x0, 416000 <__stdout_FILE+0x10>
  400228:	3943a001 	ldrb	w1, [x0, #232]
  40022c:	35000221 	cbnz	w1, 400270 <__do_global_dtors_aux+0x4c>
  400230:	a9be7bfd 	stp	x29, x30, [sp, #-32]!
  400234:	910003fd 	mov	x29, sp
  400238:	f9000bf3 	str	x19, [sp, #16]
  40023c:	aa0003f3 	mov	x19, x0
  400240:	97ffffd4 	bl	400190 <deregister_tm_clones>
  400244:	b0000020 	adrp	x0, 405000 <__sfp_handle_exceptions+0x64>
  400248:	f9402000 	ldr	x0, [x0, #64]
  40024c:	b4000080 	cbz	x0, 40025c <__do_global_dtors_aux+0x38>
  400250:	b0000020 	adrp	x0, 405000 <__sfp_handle_exceptions+0x64>
  400254:	912f2000 	add	x0, x0, #0xbc8
  400258:	d503201f 	nop
  40025c:	52800020 	mov	w0, #0x1                   	// #1
  400260:	3903a260 	strb	w0, [x19, #232]
  400264:	f9400bf3 	ldr	x19, [sp, #16]
  400268:	a8c27bfd 	ldp	x29, x30, [sp], #32
  40026c:	d65f03c0 	ret
  400270:	d65f03c0 	ret

0000000000400274 <frame_dummy>:
  400274:	b0000020 	adrp	x0, 405000 <__sfp_handle_exceptions+0x64>
  400278:	f9402400 	ldr	x0, [x0, #72]
  40027c:	b4000120 	cbz	x0, 4002a0 <frame_dummy+0x2c>
  400280:	a9bf7bfd 	stp	x29, x30, [sp, #-16]!
  400284:	d00000a1 	adrp	x1, 416000 <__stdout_FILE+0x10>
  400288:	b0000020 	adrp	x0, 405000 <__sfp_handle_exceptions+0x64>
  40028c:	910003fd 	mov	x29, sp
  400290:	9103c021 	add	x1, x1, #0xf0
  400294:	912f2000 	add	x0, x0, #0xbc8
  400298:	d503201f 	nop
  40029c:	a8c17bfd 	ldp	x29, x30, [sp], #16
  4002a0:	17ffffcd 	b	4001d4 <register_tm_clones>

00000000004002a4 <add>:
  4002a4:	d10043ff 	sub	sp, sp, #0x10
  4002a8:	b9000fe0 	str	w0, [sp, #12]
  4002ac:	b9000be1 	str	w1, [sp, #8]
  4002b0:	b9400fe1 	ldr	w1, [sp, #12]
  4002b4:	b9400be0 	ldr	w0, [sp, #8]
  4002b8:	0b000020 	add	w0, w1, w0
  4002bc:	910043ff 	add	sp, sp, #0x10
  4002c0:	d65f03c0 	ret

00000000004002c4 <sub>:
  4002c4:	d10043ff 	sub	sp, sp, #0x10
  4002c8:	b9000fe0 	str	w0, [sp, #12]
  4002cc:	b9000be1 	str	w1, [sp, #8]
  4002d0:	b9400fe1 	ldr	w1, [sp, #12]
  4002d4:	b9400be0 	ldr	w0, [sp, #8]
  4002d8:	4b000020 	sub	w0, w1, w0
  4002dc:	910043ff 	add	sp, sp, #0x10
  4002e0:	d65f03c0 	ret

00000000004002e4 <call_with_args>:
  4002e4:	a9be7bfd 	stp	x29, x30, [sp, #-32]!
  4002e8:	910003fd 	mov	x29, sp
  4002ec:	f9000fe0 	str	x0, [sp, #24]
  4002f0:	b90017e1 	str	w1, [sp, #20]
  4002f4:	b90013e2 	str	w2, [sp, #16]
  4002f8:	f9400fe2 	ldr	x2, [sp, #24]
  4002fc:	b94013e1 	ldr	w1, [sp, #16]
  400300:	b94017e0 	ldr	w0, [sp, #20]
  400304:	d63f0040 	blr	x2
  400308:	2a0003e1 	mov	w1, w0
  40030c:	b0000020 	adrp	x0, 405000 <__sfp_handle_exceptions+0x64>
  400310:	91014000 	add	x0, x0, #0x50
  400314:	940000be 	bl	40060c <printf>
  400318:	d503201f 	nop
  40031c:	a8c27bfd 	ldp	x29, x30, [sp], #32
  400320:	d65f03c0 	ret

0000000000400324 <main>:
  400324:	a9bf7bfd 	stp	x29, x30, [sp, #-16]!
  400328:	910003fd 	mov	x29, sp
  40032c:	52800102 	mov	w2, #0x8                   	// #8
  400330:	528000a1 	mov	w1, #0x5                   	// #5
  400334:	90000000 	adrp	x0, 400000 <_init-0x120>
  400338:	910a9000 	add	x0, x0, #0x2a4
  40033c:	97ffffea 	bl	4002e4 <call_with_args>
  400340:	52800062 	mov	w2, #0x3                   	// #3
  400344:	528000a1 	mov	w1, #0x5                   	// #5
  400348:	90000000 	adrp	x0, 400000 <_init-0x120>
  40034c:	910a9000 	add	x0, x0, #0x2a4
  400350:	97ffffe5 	bl	4002e4 <call_with_args>
  400354:	52800542 	mov	w2, #0x2a                  	// #42
  400358:	52800f61 	mov	w1, #0x7b                  	// #123
  40035c:	90000000 	adrp	x0, 400000 <_init-0x120>
  400360:	910b1000 	add	x0, x0, #0x2c4
  400364:	97ffffe0 	bl	4002e4 <call_with_args>
  400368:	52800000 	mov	w0, #0x0                   	// #0
  40036c:	a8c17bfd 	ldp	x29, x30, [sp], #16
  400370:	d65f03c0 	ret

0000000000400374 <dummy>:
  400374:	d65f03c0 	ret

0000000000400378 <__init_ssp>:
  400378:	d65f03c0 	ret

000000000040037c <__init_libc>:
  40037c:	a9a853f3 	stp	x19, x20, [sp, #-384]!
  400380:	d2802602 	mov	x2, #0x130                 	// #304
  400384:	aa0003f4 	mov	x20, x0
  400388:	910143e3 	add	x3, sp, #0x50
  40038c:	aa0103f3 	mov	x19, x1
  400390:	aa0303e0 	mov	x0, x3
  400394:	52800001 	mov	w1, #0x0                   	// #0
  400398:	a9017bf5 	stp	x21, x30, [sp, #16]
  40039c:	94000769 	bl	402140 <memset>
  4003a0:	aa0003e3 	mov	x3, x0
  4003a4:	d00000a0 	adrp	x0, 416000 <__stdout_FILE+0x10>
  4003a8:	d2800001 	mov	x1, #0x0                   	// #0
  4003ac:	f902d814 	str	x20, [x0, #1456]
  4003b0:	f8617a80 	ldr	x0, [x20, x1, lsl #3]
  4003b4:	91000421 	add	x1, x1, #0x1
  4003b8:	b5ffffc0 	cbnz	x0, 4003b0 <__init_libc+0x34>
  4003bc:	d00000b5 	adrp	x21, 416000 <__stdout_FILE+0x10>
  4003c0:	9104c2b5 	add	x21, x21, #0x130
  4003c4:	8b010e80 	add	x0, x20, x1, lsl #3
  4003c8:	f90006a0 	str	x0, [x21, #8]
  4003cc:	f9400014 	ldr	x20, [x0]
  4003d0:	b50002b4 	cbnz	x20, 400424 <__init_libc+0xa8>
  4003d4:	d00000a0 	adrp	x0, 416000 <__stdout_FILE+0x10>
  4003d8:	f9406be1 	ldr	x1, [sp, #208]
  4003dc:	f9009401 	str	x1, [x0, #296]
  4003e0:	f940abe0 	ldr	x0, [sp, #336]
  4003e4:	b4000060 	cbz	x0, 4003f0 <__init_libc+0x74>
  4003e8:	d00000a1 	adrp	x1, 416000 <__stdout_FILE+0x10>
  4003ec:	f9009020 	str	x0, [x1, #288]
  4003f0:	f94043e0 	ldr	x0, [sp, #128]
  4003f4:	f9001aa0 	str	x0, [x21, #48]
  4003f8:	b50000d3 	cbnz	x19, 400410 <__init_libc+0x94>
  4003fc:	f940a7e1 	ldr	x1, [sp, #328]
  400400:	b0000033 	adrp	x19, 405000 <__sfp_handle_exceptions+0x64>
  400404:	91033e73 	add	x19, x19, #0xcf
  400408:	f100003f 	cmp	x1, #0x0
  40040c:	9a810273 	csel	x19, x19, x1, eq  // eq = none
  400410:	d00000a0 	adrp	x0, 416000 <__stdout_FILE+0x10>
  400414:	f900d013 	str	x19, [x0, #416]
  400418:	d00000a0 	adrp	x0, 416000 <__stdout_FILE+0x10>
  40041c:	f900cc13 	str	x19, [x0, #408]
  400420:	14000009 	b	400444 <__init_libc+0xc8>
  400424:	f100969f 	cmp	x20, #0x25
  400428:	54000068 	b.hi	400434 <__init_libc+0xb8>  // b.pmore
  40042c:	f9400401 	ldr	x1, [x0, #8]
  400430:	f8347861 	str	x1, [x3, x20, lsl #3]
  400434:	91004000 	add	x0, x0, #0x10
  400438:	17ffffe5 	b	4003cc <__init_libc+0x50>
  40043c:	7100bc3f 	cmp	w1, #0x2f
  400440:	54fffee0 	b.eq	40041c <__init_libc+0xa0>  // b.none
  400444:	39400261 	ldrb	w1, [x19]
  400448:	91000673 	add	x19, x19, #0x1
  40044c:	35ffff81 	cbnz	w1, 40043c <__init_libc+0xc0>
  400450:	aa0303e0 	mov	x0, x3
  400454:	940007d6 	bl	4023ac <__init_tls>
  400458:	f9408fe0 	ldr	x0, [sp, #280]
  40045c:	97ffffc7 	bl	400378 <__init_ssp>
  400460:	a94a83e1 	ldp	x1, x0, [sp, #168]
  400464:	eb00003f 	cmp	x1, x0
  400468:	540000c1 	b.ne	400480 <__init_libc+0x104>  // b.any
  40046c:	a94b83e1 	ldp	x1, x0, [sp, #184]
  400470:	eb00003f 	cmp	x1, x0
  400474:	54000061 	b.ne	400480 <__init_libc+0x104>  // b.any
  400478:	f94087e0 	ldr	x0, [sp, #264]
  40047c:	b4000460 	cbz	x0, 400508 <__init_libc+0x18c>
  400480:	52800020 	mov	w0, #0x1                   	// #1
  400484:	a903ffff 	stp	xzr, xzr, [sp, #56]
  400488:	9100a3e2 	add	x2, sp, #0x28
  40048c:	b90043e0 	str	w0, [sp, #64]
  400490:	52800040 	mov	w0, #0x2                   	// #2
  400494:	f90027ff 	str	xzr, [sp, #72]
  400498:	d2800928 	mov	x8, #0x49                  	// #73
  40049c:	d2800061 	mov	x1, #0x3                   	// #3
  4004a0:	d2800003 	mov	x3, #0x0                   	// #0
  4004a4:	d2800104 	mov	x4, #0x8                   	// #8
  4004a8:	a902ffff 	stp	xzr, xzr, [sp, #40]
  4004ac:	b9004be0 	str	w0, [sp, #72]
  4004b0:	9100e3e0 	add	x0, sp, #0x38
  4004b4:	d4000001 	svc	#0x0
  4004b8:	37f80180 	tbnz	w0, #31, 4004e8 <__init_libc+0x16c>
  4004bc:	b0000021 	adrp	x1, 405000 <__sfp_handle_exceptions+0x64>
  4004c0:	91015021 	add	x1, x1, #0x54
  4004c4:	9100e3e0 	add	x0, sp, #0x38
  4004c8:	8b140000 	add	x0, x0, x20
  4004cc:	79400c00 	ldrh	w0, [x0, #6]
  4004d0:	36280120 	tbz	w0, #5, 4004f4 <__init_libc+0x178>
  4004d4:	d2800708 	mov	x8, #0x38                  	// #56
  4004d8:	92800c60 	mov	x0, #0xffffffffffffff9c    	// #-100
  4004dc:	320f83e2 	mov	w2, #0x20002               	// #131074
  4004e0:	d4000001 	svc	#0x0
  4004e4:	b6f80080 	tbz	x0, #63, 4004f4 <__init_libc+0x178>
  4004e8:	d2800000 	mov	x0, #0x0                   	// #0
  4004ec:	3900001f 	strb	wzr, [x0]
  4004f0:	d4207d00 	brk	#0x3e8
  4004f4:	91002294 	add	x20, x20, #0x8
  4004f8:	f100629f 	cmp	x20, #0x18
  4004fc:	54fffe41 	b.ne	4004c4 <__init_libc+0x148>  // b.any
  400500:	52800020 	mov	w0, #0x1                   	// #1
  400504:	39000aa0 	strb	w0, [x21, #2]
  400508:	a9417bf5 	ldp	x21, x30, [sp, #16]
  40050c:	a8d853f3 	ldp	x19, x20, [sp], #384
  400510:	d65f03c0 	ret

0000000000400514 <__libc_start_init>:
  400514:	a9be53f3 	stp	x19, x20, [sp, #-32]!
  400518:	b0000034 	adrp	x20, 405000 <__sfp_handle_exceptions+0x64>
  40051c:	f9000bfe 	str	x30, [sp, #16]
  400520:	97ffff00 	bl	400120 <_init>
  400524:	b0000020 	adrp	x0, 405000 <__sfp_handle_exceptions+0x64>
  400528:	f9403013 	ldr	x19, [x0, #96]
  40052c:	f9403680 	ldr	x0, [x20, #104]
  400530:	eb00027f 	cmp	x19, x0
  400534:	54000083 	b.cc	400544 <__libc_start_init+0x30>  // b.lo, b.ul, b.last
  400538:	f9400bfe 	ldr	x30, [sp, #16]
  40053c:	a8c253f3 	ldp	x19, x20, [sp], #32
  400540:	d65f03c0 	ret
  400544:	f8408660 	ldr	x0, [x19], #8
  400548:	d63f0000 	blr	x0
  40054c:	17fffff8 	b	40052c <__libc_start_init+0x18>

0000000000400550 <libc_start_main_stage2>:
  400550:	a9bd53f3 	stp	x19, x20, [sp, #-48]!
  400554:	2a0103f3 	mov	w19, w1
  400558:	aa0203f4 	mov	x20, x2
  40055c:	a9015bf5 	stp	x21, x22, [sp, #16]
  400560:	8b21cc56 	add	x22, x2, w1, sxtw #3
  400564:	aa0003f5 	mov	x21, x0
  400568:	910022d6 	add	x22, x22, #0x8
  40056c:	f90013fe 	str	x30, [sp, #32]
  400570:	97ffffe9 	bl	400514 <__libc_start_init>
  400574:	aa1603e2 	mov	x2, x22
  400578:	aa1403e1 	mov	x1, x20
  40057c:	2a1303e0 	mov	w0, w19
  400580:	d63f02a0 	blr	x21
  400584:	97fffeeb 	bl	400130 <exit>

0000000000400588 <__libc_start_main>:
  400588:	a9be53f3 	stp	x19, x20, [sp, #-32]!
  40058c:	2a0103f4 	mov	w20, w1
  400590:	aa0203f3 	mov	x19, x2
  400594:	a9017bf5 	stp	x21, x30, [sp, #16]
  400598:	aa0003f5 	mov	x21, x0
  40059c:	8b21cc40 	add	x0, x2, w1, sxtw #3
  4005a0:	f9400041 	ldr	x1, [x2]
  4005a4:	91002000 	add	x0, x0, #0x8
  4005a8:	97ffff75 	bl	40037c <__init_libc>
  4005ac:	aa1303e2 	mov	x2, x19
  4005b0:	2a1403e1 	mov	w1, w20
  4005b4:	aa1503e0 	mov	x0, x21
  4005b8:	90000003 	adrp	x3, 400000 <_init-0x120>
  4005bc:	91154063 	add	x3, x3, #0x550
  4005c0:	a9417bf5 	ldp	x21, x30, [sp, #16]
  4005c4:	aa0303f0 	mov	x16, x3
  4005c8:	a8c253f3 	ldp	x19, x20, [sp], #32
  4005cc:	d61f0200 	br	x16

00000000004005d0 <__funcs_on_exit>:
  4005d0:	d65f03c0 	ret

00000000004005d4 <__libc_exit_fini>:
  4005d4:	b0000020 	adrp	x0, 405000 <__sfp_handle_exceptions+0x64>
  4005d8:	a9be53f3 	stp	x19, x20, [sp, #-32]!
  4005dc:	b0000034 	adrp	x20, 405000 <__sfp_handle_exceptions+0x64>
  4005e0:	f9403813 	ldr	x19, [x0, #112]
  4005e4:	f9000bfe 	str	x30, [sp, #16]
  4005e8:	f9403e80 	ldr	x0, [x20, #120]
  4005ec:	eb00027f 	cmp	x19, x0
  4005f0:	54000088 	b.hi	400600 <__libc_exit_fini+0x2c>  // b.pmore
  4005f4:	f9400bfe 	ldr	x30, [sp, #16]
  4005f8:	a8c253f3 	ldp	x19, x20, [sp], #32
  4005fc:	14001284 	b	40500c <_fini>
  400600:	f85f8e60 	ldr	x0, [x19, #-8]!
  400604:	d63f0000 	blr	x0
  400608:	17fffff8 	b	4005e8 <__libc_exit_fini+0x14>

000000000040060c <printf>:
  40060c:	d10443ff 	sub	sp, sp, #0x110
  400610:	a90d8be1 	stp	x1, x2, [sp, #216]
  400614:	910443e1 	add	x1, sp, #0x110
  400618:	a90307e1 	stp	x1, x1, [sp, #48]
  40061c:	910343e1 	add	x1, sp, #0xd0
  400620:	f90023e1 	str	x1, [sp, #64]
  400624:	128006e1 	mov	w1, #0xffffffc8            	// #-56
  400628:	b9004be1 	str	w1, [sp, #72]
  40062c:	12800fe1 	mov	w1, #0xffffff80            	// #-128
  400630:	b9004fe1 	str	w1, [sp, #76]
  400634:	aa0003e1 	mov	x1, x0
  400638:	a90e93e3 	stp	x3, x4, [sp, #232]
  40063c:	b00000a0 	adrp	x0, 415000 <__FRAME_END__+0xf1e4>
  400640:	913fc000 	add	x0, x0, #0xff0
  400644:	a9430fe2 	ldp	x2, x3, [sp, #48]
  400648:	a9010fe2 	stp	x2, x3, [sp, #16]
  40064c:	a9440fe2 	ldp	x2, x3, [sp, #64]
  400650:	f90003fe 	str	x30, [sp]
  400654:	a9020fe2 	stp	x2, x3, [sp, #32]
  400658:	910043e2 	add	x2, sp, #0x10
  40065c:	3d8017e0 	str	q0, [sp, #80]
  400660:	3d801be1 	str	q1, [sp, #96]
  400664:	3d801fe2 	str	q2, [sp, #112]
  400668:	3d8023e3 	str	q3, [sp, #128]
  40066c:	3d8027e4 	str	q4, [sp, #144]
  400670:	3d802be5 	str	q5, [sp, #160]
  400674:	3d802fe6 	str	q6, [sp, #176]
  400678:	3d8033e7 	str	q7, [sp, #192]
  40067c:	a90f9be5 	stp	x5, x6, [sp, #248]
  400680:	f90087e7 	str	x7, [sp, #264]
  400684:	9400065a 	bl	401fec <vfprintf>
  400688:	f94003fe 	ldr	x30, [sp]
  40068c:	910443ff 	add	sp, sp, #0x110
  400690:	d65f03c0 	ret

0000000000400694 <pop_arg>:
  400694:	51002421 	sub	w1, w1, #0x9
  400698:	7100443f 	cmp	w1, #0x11
  40069c:	540011a8 	b.hi	4008d0 <pop_arg+0x23c>  // b.pmore
  4006a0:	a9bf7bf3 	stp	x19, x30, [sp, #-16]!
  4006a4:	aa0003f3 	mov	x19, x0
  4006a8:	b0000020 	adrp	x0, 405000 <__sfp_handle_exceptions+0x64>
  4006ac:	91022000 	add	x0, x0, #0x88
  4006b0:	f9400043 	ldr	x3, [x2]
  4006b4:	38614800 	ldrb	w0, [x0, w1, uxtw]
  4006b8:	10000061 	adr	x1, 4006c4 <pop_arg+0x30>
  4006bc:	8b208820 	add	x0, x1, w0, sxtb #2
  4006c0:	d61f0000 	br	x0
  4006c4:	b9401840 	ldr	w0, [x2, #24]
  4006c8:	37f80100 	tbnz	w0, #31, 4006e8 <pop_arg+0x54>
  4006cc:	91002c60 	add	x0, x3, #0xb
  4006d0:	927df000 	and	x0, x0, #0xfffffffffffffff8
  4006d4:	f9000040 	str	x0, [x2]
  4006d8:	b9800060 	ldrsw	x0, [x3]
  4006dc:	f9000260 	str	x0, [x19]
  4006e0:	a8c17bf3 	ldp	x19, x30, [sp], #16
  4006e4:	d65f03c0 	ret
  4006e8:	11002001 	add	w1, w0, #0x8
  4006ec:	b9001841 	str	w1, [x2, #24]
  4006f0:	7100003f 	cmp	w1, #0x0
  4006f4:	54fffecc 	b.gt	4006cc <pop_arg+0x38>
  4006f8:	f9400443 	ldr	x3, [x2, #8]
  4006fc:	8b20c063 	add	x3, x3, w0, sxtw
  400700:	17fffff6 	b	4006d8 <pop_arg+0x44>
  400704:	b9401840 	ldr	w0, [x2, #24]
  400708:	37f800c0 	tbnz	w0, #31, 400720 <pop_arg+0x8c>
  40070c:	91002c60 	add	x0, x3, #0xb
  400710:	927df000 	and	x0, x0, #0xfffffffffffffff8
  400714:	f9000040 	str	x0, [x2]
  400718:	b9400060 	ldr	w0, [x3]
  40071c:	17fffff0 	b	4006dc <pop_arg+0x48>
  400720:	11002001 	add	w1, w0, #0x8
  400724:	b9001841 	str	w1, [x2, #24]
  400728:	7100003f 	cmp	w1, #0x0
  40072c:	54ffff0c 	b.gt	40070c <pop_arg+0x78>
  400730:	f9400443 	ldr	x3, [x2, #8]
  400734:	8b20c063 	add	x3, x3, w0, sxtw
  400738:	17fffff8 	b	400718 <pop_arg+0x84>
  40073c:	b9401840 	ldr	w0, [x2, #24]
  400740:	37f800c0 	tbnz	w0, #31, 400758 <pop_arg+0xc4>
  400744:	91002c60 	add	x0, x3, #0xb
  400748:	927df000 	and	x0, x0, #0xfffffffffffffff8
  40074c:	f9000040 	str	x0, [x2]
  400750:	79800060 	ldrsh	x0, [x3]
  400754:	17ffffe2 	b	4006dc <pop_arg+0x48>
  400758:	11002001 	add	w1, w0, #0x8
  40075c:	b9001841 	str	w1, [x2, #24]
  400760:	7100003f 	cmp	w1, #0x0
  400764:	54ffff0c 	b.gt	400744 <pop_arg+0xb0>
  400768:	f9400443 	ldr	x3, [x2, #8]
  40076c:	8b20c063 	add	x3, x3, w0, sxtw
  400770:	17fffff8 	b	400750 <pop_arg+0xbc>
  400774:	b9401840 	ldr	w0, [x2, #24]
  400778:	37f800c0 	tbnz	w0, #31, 400790 <pop_arg+0xfc>
  40077c:	91002c60 	add	x0, x3, #0xb
  400780:	927df000 	and	x0, x0, #0xfffffffffffffff8
  400784:	f9000040 	str	x0, [x2]
  400788:	79400060 	ldrh	w0, [x3]
  40078c:	17ffffd4 	b	4006dc <pop_arg+0x48>
  400790:	11002001 	add	w1, w0, #0x8
  400794:	b9001841 	str	w1, [x2, #24]
  400798:	7100003f 	cmp	w1, #0x0
  40079c:	54ffff0c 	b.gt	40077c <pop_arg+0xe8>
  4007a0:	f9400443 	ldr	x3, [x2, #8]
  4007a4:	8b20c063 	add	x3, x3, w0, sxtw
  4007a8:	17fffff8 	b	400788 <pop_arg+0xf4>
  4007ac:	b9401840 	ldr	w0, [x2, #24]
  4007b0:	37f800c0 	tbnz	w0, #31, 4007c8 <pop_arg+0x134>
  4007b4:	91002c60 	add	x0, x3, #0xb
  4007b8:	927df000 	and	x0, x0, #0xfffffffffffffff8
  4007bc:	f9000040 	str	x0, [x2]
  4007c0:	39800060 	ldrsb	x0, [x3]
  4007c4:	17ffffc6 	b	4006dc <pop_arg+0x48>
  4007c8:	11002001 	add	w1, w0, #0x8
  4007cc:	b9001841 	str	w1, [x2, #24]
  4007d0:	7100003f 	cmp	w1, #0x0
  4007d4:	54ffff0c 	b.gt	4007b4 <pop_arg+0x120>
  4007d8:	f9400443 	ldr	x3, [x2, #8]
  4007dc:	8b20c063 	add	x3, x3, w0, sxtw
  4007e0:	17fffff8 	b	4007c0 <pop_arg+0x12c>
  4007e4:	b9401840 	ldr	w0, [x2, #24]
  4007e8:	37f800c0 	tbnz	w0, #31, 400800 <pop_arg+0x16c>
  4007ec:	91002c60 	add	x0, x3, #0xb
  4007f0:	927df000 	and	x0, x0, #0xfffffffffffffff8
  4007f4:	f9000040 	str	x0, [x2]
  4007f8:	39400060 	ldrb	w0, [x3]
  4007fc:	17ffffb8 	b	4006dc <pop_arg+0x48>
  400800:	11002001 	add	w1, w0, #0x8
  400804:	b9001841 	str	w1, [x2, #24]
  400808:	7100003f 	cmp	w1, #0x0
  40080c:	54ffff0c 	b.gt	4007ec <pop_arg+0x158>
  400810:	f9400443 	ldr	x3, [x2, #8]
  400814:	8b20c063 	add	x3, x3, w0, sxtw
  400818:	17fffff8 	b	4007f8 <pop_arg+0x164>
  40081c:	b9401840 	ldr	w0, [x2, #24]
  400820:	37f800c0 	tbnz	w0, #31, 400838 <pop_arg+0x1a4>
  400824:	91003c60 	add	x0, x3, #0xf
  400828:	927df000 	and	x0, x0, #0xfffffffffffffff8
  40082c:	f9000040 	str	x0, [x2]
  400830:	f9400060 	ldr	x0, [x3]
  400834:	17ffffaa 	b	4006dc <pop_arg+0x48>
  400838:	11002001 	add	w1, w0, #0x8
  40083c:	b9001841 	str	w1, [x2, #24]
  400840:	7100003f 	cmp	w1, #0x0
  400844:	54ffff0c 	b.gt	400824 <pop_arg+0x190>
  400848:	f9400443 	ldr	x3, [x2, #8]
  40084c:	8b20c063 	add	x3, x3, w0, sxtw
  400850:	17fffff8 	b	400830 <pop_arg+0x19c>
  400854:	b9401c40 	ldr	w0, [x2, #28]
  400858:	37f80100 	tbnz	w0, #31, 400878 <pop_arg+0x1e4>
  40085c:	91003c60 	add	x0, x3, #0xf
  400860:	927df000 	and	x0, x0, #0xfffffffffffffff8
  400864:	f9000040 	str	x0, [x2]
  400868:	fd400060 	ldr	d0, [x3]
  40086c:	9400118e 	bl	404ea4 <__extenddftf2>
  400870:	3d800260 	str	q0, [x19]
  400874:	17ffff9b 	b	4006e0 <pop_arg+0x4c>
  400878:	11004001 	add	w1, w0, #0x10
  40087c:	b9001c41 	str	w1, [x2, #28]
  400880:	7100003f 	cmp	w1, #0x0
  400884:	54fffecc 	b.gt	40085c <pop_arg+0x1c8>
  400888:	f9400843 	ldr	x3, [x2, #16]
  40088c:	8b20c063 	add	x3, x3, w0, sxtw
  400890:	17fffff6 	b	400868 <pop_arg+0x1d4>
  400894:	b9401c40 	ldr	w0, [x2, #28]
  400898:	37f800e0 	tbnz	w0, #31, 4008b4 <pop_arg+0x220>
  40089c:	91003c63 	add	x3, x3, #0xf
  4008a0:	927cec63 	and	x3, x3, #0xfffffffffffffff0
  4008a4:	91004060 	add	x0, x3, #0x10
  4008a8:	f9000040 	str	x0, [x2]
  4008ac:	3dc00060 	ldr	q0, [x3]
  4008b0:	17fffff0 	b	400870 <pop_arg+0x1dc>
  4008b4:	11004001 	add	w1, w0, #0x10
  4008b8:	b9001c41 	str	w1, [x2, #28]
  4008bc:	7100003f 	cmp	w1, #0x0
  4008c0:	54fffeec 	b.gt	40089c <pop_arg+0x208>
  4008c4:	f9400843 	ldr	x3, [x2, #16]
  4008c8:	8b20c063 	add	x3, x3, w0, sxtw
  4008cc:	17fffff8 	b	4008ac <pop_arg+0x218>
  4008d0:	d65f03c0 	ret

00000000004008d4 <fmt_u>:
  4008d4:	aa0003e2 	mov	x2, x0
  4008d8:	aa0103e0 	mov	x0, x1
  4008dc:	d2800141 	mov	x1, #0xa                   	// #10
  4008e0:	b5000042 	cbnz	x2, 4008e8 <fmt_u+0x14>
  4008e4:	d65f03c0 	ret
  4008e8:	9ac10843 	udiv	x3, x2, x1
  4008ec:	9b018862 	msub	x2, x3, x1, x2
  4008f0:	1100c042 	add	w2, w2, #0x30
  4008f4:	381ffc02 	strb	w2, [x0, #-1]!
  4008f8:	aa0303e2 	mov	x2, x3
  4008fc:	17fffff9 	b	4008e0 <fmt_u+0xc>

0000000000400900 <getint>:
  400900:	52999984 	mov	w4, #0xcccc                	// #52428
  400904:	aa0003e3 	mov	x3, x0
  400908:	72a19984 	movk	w4, #0xccc, lsl #16
  40090c:	52800000 	mov	w0, #0x0                   	// #0
  400910:	12800005 	mov	w5, #0xffffffff            	// #-1
  400914:	12800126 	mov	w6, #0xfffffff6            	// #-10
  400918:	12b00007 	mov	w7, #0x7fffffff            	// #2147483647
  40091c:	52800148 	mov	w8, #0xa                   	// #10
  400920:	f9400062 	ldr	x2, [x3]
  400924:	39400041 	ldrb	w1, [x2]
  400928:	5100c021 	sub	w1, w1, #0x30
  40092c:	7100243f 	cmp	w1, #0x9
  400930:	54000049 	b.ls	400938 <getint+0x38>  // b.plast
  400934:	d65f03c0 	ret
  400938:	6b04001f 	cmp	w0, w4
  40093c:	54000108 	b.hi	40095c <getint+0x5c>  // b.pmore
  400940:	1b061c09 	madd	w9, w0, w6, w7
  400944:	1b080400 	madd	w0, w0, w8, w1
  400948:	6b09003f 	cmp	w1, w9
  40094c:	1a85d000 	csel	w0, w0, w5, le
  400950:	91000442 	add	x2, x2, #0x1
  400954:	f9000062 	str	x2, [x3]
  400958:	17fffff2 	b	400920 <getint+0x20>
  40095c:	12800000 	mov	w0, #0xffffffff            	// #-1
  400960:	17fffffc 	b	400950 <getint+0x50>

0000000000400964 <out>:
  400964:	aa0003e3 	mov	x3, x0
  400968:	aa0103e0 	mov	x0, x1
  40096c:	aa0203e1 	mov	x1, x2
  400970:	b9400062 	ldr	w2, [x3]
  400974:	37280062 	tbnz	w2, #5, 400980 <out+0x1c>
  400978:	aa0303e2 	mov	x2, x3
  40097c:	140007cd 	b	4028b0 <__fwritex>
  400980:	d65f03c0 	ret

0000000000400984 <pad>:
  400984:	12130c84 	and	w4, w4, #0x1e000
  400988:	12107484 	and	w4, w4, #0xffff3fff
  40098c:	35000424 	cbnz	w4, 400a10 <pad+0x8c>
  400990:	6b02007f 	cmp	w3, w2
  400994:	540003ea 	b.ge	400a10 <pad+0x8c>  // b.tcont
  400998:	a9ae53f3 	stp	x19, x20, [sp, #-288]!
  40099c:	4b030053 	sub	w19, w2, w3
  4009a0:	7104027f 	cmp	w19, #0x100
  4009a4:	a9017bf5 	stp	x21, x30, [sp, #16]
  4009a8:	2a1303f5 	mov	w21, w19
  4009ac:	52802002 	mov	w2, #0x100                 	// #256
  4009b0:	1a82d262 	csel	w2, w19, w2, le
  4009b4:	aa0003f4 	mov	x20, x0
  4009b8:	12001c21 	and	w1, w1, #0xff
  4009bc:	910083e0 	add	x0, sp, #0x20
  4009c0:	93407c42 	sxtw	x2, w2
  4009c4:	940005df 	bl	402140 <memset>
  4009c8:	7103febf 	cmp	w21, #0xff
  4009cc:	5400016c 	b.gt	4009f8 <pad+0x74>
  4009d0:	53087e62 	lsr	w2, w19, #8
  4009d4:	12801fe3 	mov	w3, #0xffffff00            	// #-256
  4009d8:	910083e1 	add	x1, sp, #0x20
  4009dc:	aa1403e0 	mov	x0, x20
  4009e0:	1b034c42 	madd	w2, w2, w3, w19
  4009e4:	93407c42 	sxtw	x2, w2
  4009e8:	97ffffdf 	bl	400964 <out>
  4009ec:	a9417bf5 	ldp	x21, x30, [sp, #16]
  4009f0:	a8d253f3 	ldp	x19, x20, [sp], #288
  4009f4:	d65f03c0 	ret
  4009f8:	910083e1 	add	x1, sp, #0x20
  4009fc:	aa1403e0 	mov	x0, x20
  400a00:	d2802002 	mov	x2, #0x100                 	// #256
  400a04:	510402b5 	sub	w21, w21, #0x100
  400a08:	97ffffd7 	bl	400964 <out>
  400a0c:	17ffffef 	b	4009c8 <pad+0x44>
  400a10:	d65f03c0 	ret

0000000000400a14 <fmt_fp>:
  400a14:	d283ba0c 	mov	x12, #0x1dd0                	// #7632
  400a18:	cb2c63ff 	sub	sp, sp, x12
  400a1c:	a90053f3 	stp	x19, x20, [sp]
  400a20:	aa0003f4 	mov	x20, x0
  400a24:	2a0203f3 	mov	w19, w2
  400a28:	a9015bf5 	stp	x21, x22, [sp, #16]
  400a2c:	2a0103f6 	mov	w22, w1
  400a30:	a90263f7 	stp	x23, x24, [sp, #32]
  400a34:	2a0403f7 	mov	w23, w4
  400a38:	a9036bf9 	stp	x25, x26, [sp, #48]
  400a3c:	2a0303f9 	mov	w25, w3
  400a40:	a90473fb 	stp	x27, x28, [sp, #64]
  400a44:	f9002bfe 	str	x30, [sp, #80]
  400a48:	3d801be0 	str	q0, [sp, #96]
  400a4c:	b900cfff 	str	wzr, [sp, #204]
  400a50:	a9466ffc 	ldp	x28, x27, [sp, #96]
  400a54:	940006ef 	bl	402610 <__signbitl>
  400a58:	34000560 	cbz	w0, 400b04 <fmt_fp+0xf0>
  400a5c:	b0000038 	adrp	x24, 405000 <__sfp_handle_exceptions+0x64>
  400a60:	d241037b 	eor	x27, x27, #0x8000000000000000
  400a64:	91026b18 	add	x24, x24, #0x9a
  400a68:	52800035 	mov	w21, #0x1                   	// #1
  400a6c:	a9066ffc 	stp	x28, x27, [sp, #96]
  400a70:	3dc01be0 	ldr	q0, [sp, #96]
  400a74:	940006d2 	bl	4025bc <__fpclassifyl>
  400a78:	7100041f 	cmp	w0, #0x1
  400a7c:	5400060c 	b.gt	400b3c <fmt_fp+0x128>
  400a80:	a9066ffc 	stp	x28, x27, [sp, #96]
  400a84:	721b02f7 	ands	w23, w23, #0x20
  400a88:	b0000020 	adrp	x0, 405000 <__sfp_handle_exceptions+0x64>
  400a8c:	9102c400 	add	x0, x0, #0xb1
  400a90:	3dc01be1 	ldr	q1, [sp, #96]
  400a94:	b0000033 	adrp	x19, 405000 <__sfp_handle_exceptions+0x64>
  400a98:	9102b673 	add	x19, x19, #0xad
  400a9c:	9a801273 	csel	x19, x19, x0, ne  // ne = any
  400aa0:	4ea11c20 	mov	v0.16b, v1.16b
  400aa4:	94000c1b 	bl	403b10 <__eqtf2>
  400aa8:	340000e0 	cbz	w0, 400ac4 <fmt_fp+0xb0>
  400aac:	710002ff 	cmp	w23, #0x0
  400ab0:	b0000020 	adrp	x0, 405000 <__sfp_handle_exceptions+0x64>
  400ab4:	b0000033 	adrp	x19, 405000 <__sfp_handle_exceptions+0x64>
  400ab8:	9102e400 	add	x0, x0, #0xb9
  400abc:	9102d673 	add	x19, x19, #0xb5
  400ac0:	9a801273 	csel	x19, x19, x0, ne  // ne = any
  400ac4:	11000eb7 	add	w23, w21, #0x3
  400ac8:	120f7b24 	and	w4, w25, #0xfffeffff
  400acc:	2a1703e3 	mov	w3, w23
  400ad0:	2a1603e2 	mov	w2, w22
  400ad4:	aa1403e0 	mov	x0, x20
  400ad8:	52800401 	mov	w1, #0x20                  	// #32
  400adc:	97ffffaa 	bl	400984 <pad>
  400ae0:	93407ea2 	sxtw	x2, w21
  400ae4:	aa1803e1 	mov	x1, x24
  400ae8:	aa1403e0 	mov	x0, x20
  400aec:	97ffff9e 	bl	400964 <out>
  400af0:	aa1303e1 	mov	x1, x19
  400af4:	d2800062 	mov	x2, #0x3                   	// #3
  400af8:	aa1403e0 	mov	x0, x20
  400afc:	97ffff9a 	bl	400964 <out>
  400b00:	14000276 	b	4014d8 <fmt_fp+0xac4>
  400b04:	375800d9 	tbnz	w25, #11, 400b1c <fmt_fp+0x108>
  400b08:	37000139 	tbnz	w25, #0, 400b2c <fmt_fp+0x118>
  400b0c:	b0000038 	adrp	x24, 405000 <__sfp_handle_exceptions+0x64>
  400b10:	2a0003f5 	mov	w21, w0
  400b14:	91026f18 	add	x24, x24, #0x9b
  400b18:	17ffffd5 	b	400a6c <fmt_fp+0x58>
  400b1c:	b0000038 	adrp	x24, 405000 <__sfp_handle_exceptions+0x64>
  400b20:	52800035 	mov	w21, #0x1                   	// #1
  400b24:	91027718 	add	x24, x24, #0x9d
  400b28:	17ffffd1 	b	400a6c <fmt_fp+0x58>
  400b2c:	b0000038 	adrp	x24, 405000 <__sfp_handle_exceptions+0x64>
  400b30:	52800035 	mov	w21, #0x1                   	// #1
  400b34:	91028318 	add	x24, x24, #0xa0
  400b38:	17ffffcd 	b	400a6c <fmt_fp+0x58>
  400b3c:	a9066ffc 	stp	x28, x27, [sp, #96]
  400b40:	910333e0 	add	x0, sp, #0xcc
  400b44:	3dc01be0 	ldr	q0, [sp, #96]
  400b48:	940006b9 	bl	40262c <frexpl>
  400b4c:	4ea01c01 	mov	v1.16b, v0.16b
  400b50:	9400096f 	bl	40310c <__addtf3>
  400b54:	3d801be0 	str	q0, [sp, #96]
  400b58:	a9460fe5 	ldp	x5, x3, [sp, #96]
  400b5c:	6f00e401 	movi	v1.2d, #0x0
  400b60:	aa0503fc 	mov	x28, x5
  400b64:	aa0303fb 	mov	x27, x3
  400b68:	94000bea 	bl	403b10 <__eqtf2>
  400b6c:	34000080 	cbz	w0, 400b7c <fmt_fp+0x168>
  400b70:	b940cfe0 	ldr	w0, [sp, #204]
  400b74:	51000400 	sub	w0, w0, #0x1
  400b78:	b900cfe0 	str	w0, [sp, #204]
  400b7c:	321b02e0 	orr	w0, w23, #0x20
  400b80:	b90063e0 	str	w0, [sp, #96]
  400b84:	7101841f 	cmp	w0, #0x61
  400b88:	54001941 	b.ne	400eb0 <fmt_fp+0x49c>  // b.any
  400b8c:	121b02e0 	and	w0, w23, #0x20
  400b90:	b9009be0 	str	w0, [sp, #152]
  400b94:	36280057 	tbz	w23, #5, 400b9c <fmt_fp+0x188>
  400b98:	91002718 	add	x24, x24, #0x9
  400b9c:	11000aa0 	add	w0, w21, #0x2
  400ba0:	b90063e0 	str	w0, [sp, #96]
  400ba4:	71006a7f 	cmp	w19, #0x1a
  400ba8:	54000348 	b.hi	400c10 <fmt_fp+0x1fc>  // b.pmore
  400bac:	b0000020 	adrp	x0, 405000 <__sfp_handle_exceptions+0x64>
  400bb0:	91054000 	add	x0, x0, #0x150
  400bb4:	5280037a 	mov	w26, #0x1b                  	// #27
  400bb8:	4b13035a 	sub	w26, w26, w19
  400bbc:	3dc00002 	ldr	q2, [x0]
  400bc0:	5100075a 	sub	w26, w26, #0x1
  400bc4:	3100075f 	cmn	w26, #0x1
  400bc8:	54000de1 	b.ne	400d84 <fmt_fp+0x370>  // b.any
  400bcc:	39400300 	ldrb	w0, [x24]
  400bd0:	7100b41f 	cmp	w0, #0x2d
  400bd4:	54000e61 	b.ne	400da0 <fmt_fp+0x38c>  // b.any
  400bd8:	d2410363 	eor	x3, x27, #0x8000000000000000
  400bdc:	a9070ffc 	stp	x28, x3, [sp, #112]
  400be0:	4ea21c41 	mov	v1.16b, v2.16b
  400be4:	3dc01fe0 	ldr	q0, [sp, #112]
  400be8:	3d8023e2 	str	q2, [sp, #128]
  400bec:	94000dae 	bl	4042a4 <__subtf3>
  400bf0:	4ea01c01 	mov	v1.16b, v0.16b
  400bf4:	3dc023e2 	ldr	q2, [sp, #128]
  400bf8:	4ea21c40 	mov	v0.16b, v2.16b
  400bfc:	94000944 	bl	40310c <__addtf3>
  400c00:	3d801fe0 	str	q0, [sp, #112]
  400c04:	a9470fe5 	ldp	x5, x3, [sp, #112]
  400c08:	aa0503fc 	mov	x28, x5
  400c0c:	d241007b 	eor	x27, x3, #0x8000000000000000
  400c10:	b940cfe0 	ldr	w0, [sp, #204]
  400c14:	910373e4 	add	x4, sp, #0xdc
  400c18:	aa0403e1 	mov	x1, x4
  400c1c:	7100001f 	cmp	w0, #0x0
  400c20:	5a80a400 	cneg	w0, w0, lt  // lt = tstop
  400c24:	93407c00 	sxtw	x0, w0
  400c28:	97ffff2b 	bl	4008d4 <fmt_u>
  400c2c:	eb04001f 	cmp	x0, x4
  400c30:	54000081 	b.ne	400c40 <fmt_fp+0x22c>  // b.any
  400c34:	52800600 	mov	w0, #0x30                  	// #48
  400c38:	39036fe0 	strb	w0, [sp, #219]
  400c3c:	91036fe0 	add	x0, sp, #0xdb
  400c40:	b940cfe1 	ldr	w1, [sp, #204]
  400c44:	910383f5 	add	x21, sp, #0xe0
  400c48:	52800562 	mov	w2, #0x2b                  	// #43
  400c4c:	11003ef7 	add	w23, w23, #0xf
  400c50:	7100003f 	cmp	w1, #0x0
  400c54:	528005a1 	mov	w1, #0x2d                  	// #45
  400c58:	1a82b021 	csel	w1, w1, w2, lt  // lt = tstop
  400c5c:	aa1503fa 	mov	x26, x21
  400c60:	381fe017 	sturb	w23, [x0, #-2]
  400c64:	381ff001 	sturb	w1, [x0, #-1]
  400c68:	d1000801 	sub	x1, x0, #0x2
  400c6c:	b0000020 	adrp	x0, 405000 <__sfp_handle_exceptions+0x64>
  400c70:	910d4000 	add	x0, x0, #0x350
  400c74:	f90043e1 	str	x1, [sp, #128]
  400c78:	f90053e0 	str	x0, [sp, #160]
  400c7c:	121d0320 	and	w0, w25, #0x8
  400c80:	b900afe0 	str	w0, [sp, #172]
  400c84:	a9076ffc 	stp	x28, x27, [sp, #112]
  400c88:	aa1503f7 	mov	x23, x21
  400c8c:	3dc01fe0 	ldr	q0, [sp, #112]
  400c90:	94000ff4 	bl	404c60 <__fixtfsi>
  400c94:	f94053e1 	ldr	x1, [sp, #160]
  400c98:	3860c824 	ldrb	w4, [x1, w0, sxtw]
  400c9c:	b9409be1 	ldr	w1, [sp, #152]
  400ca0:	2a040024 	orr	w4, w1, w4
  400ca4:	380016e4 	strb	w4, [x23], #1
  400ca8:	94001057 	bl	404e04 <__floatsitf>
  400cac:	4ea01c01 	mov	v1.16b, v0.16b
  400cb0:	3dc01fe0 	ldr	q0, [sp, #112]
  400cb4:	94000d7c 	bl	4042a4 <__subtf3>
  400cb8:	b0000020 	adrp	x0, 405000 <__sfp_handle_exceptions+0x64>
  400cbc:	91054000 	add	x0, x0, #0x150
  400cc0:	3dc00001 	ldr	q1, [x0]
  400cc4:	94000bd3 	bl	403c10 <__multf3>
  400cc8:	3d801fe0 	str	q0, [sp, #112]
  400ccc:	a9470fe5 	ldp	x5, x3, [sp, #112]
  400cd0:	cb1a02e0 	sub	x0, x23, x26
  400cd4:	aa0503fc 	mov	x28, x5
  400cd8:	aa0303fb 	mov	x27, x3
  400cdc:	f100041f 	cmp	x0, #0x1
  400ce0:	540001c1 	b.ne	400d18 <fmt_fp+0x304>  // b.any
  400ce4:	6f00e401 	movi	v1.2d, #0x0
  400ce8:	94000b8a 	bl	403b10 <__eqtf2>
  400cec:	7100001f 	cmp	w0, #0x0
  400cf0:	1a9f07e4 	cset	w4, ne  // ne = any
  400cf4:	7100027f 	cmp	w19, #0x0
  400cf8:	1a9fd7e0 	cset	w0, gt
  400cfc:	2a040000 	orr	w0, w0, w4
  400d00:	37000060 	tbnz	w0, #0, 400d0c <fmt_fp+0x2f8>
  400d04:	b940afe0 	ldr	w0, [sp, #172]
  400d08:	34000120 	cbz	w0, 400d2c <fmt_fp+0x318>
  400d0c:	91000ab7 	add	x23, x21, #0x2
  400d10:	528005c0 	mov	w0, #0x2e                  	// #46
  400d14:	390006a0 	strb	w0, [x21, #1]
  400d18:	6f00e401 	movi	v1.2d, #0x0
  400d1c:	a9076ffc 	stp	x28, x27, [sp, #112]
  400d20:	3dc01fe0 	ldr	q0, [sp, #112]
  400d24:	94000b7b 	bl	403b10 <__eqtf2>
  400d28:	35000560 	cbnz	w0, 400dd4 <fmt_fp+0x3c0>
  400d2c:	f94043e0 	ldr	x0, [sp, #128]
  400d30:	910373fc 	add	x28, sp, #0xdc
  400d34:	b94063e2 	ldr	w2, [sp, #96]
  400d38:	93407e61 	sxtw	x1, w19
  400d3c:	cb00039c 	sub	x28, x28, x0
  400d40:	d29fffa0 	mov	x0, #0xfffd                	// #65533
  400d44:	f2afffe0 	movk	x0, #0x7fff, lsl #16
  400d48:	cb1c0000 	sub	x0, x0, x28
  400d4c:	cb22c000 	sub	x0, x0, w2, sxtw
  400d50:	b98063e6 	ldrsw	x6, [sp, #96]
  400d54:	eb33c01f 	cmp	x0, w19, sxtw
  400d58:	5400042a 	b.ge	400ddc <fmt_fp+0x3c8>  // b.tcont
  400d5c:	12800000 	mov	w0, #0xffffffff            	// #-1
  400d60:	d283ba0c 	mov	x12, #0x1dd0                	// #7632
  400d64:	a94053f3 	ldp	x19, x20, [sp]
  400d68:	a9415bf5 	ldp	x21, x22, [sp, #16]
  400d6c:	a94263f7 	ldp	x23, x24, [sp, #32]
  400d70:	a9436bf9 	ldp	x25, x26, [sp, #48]
  400d74:	a94473fb 	ldp	x27, x28, [sp, #64]
  400d78:	f9402bfe 	ldr	x30, [sp, #80]
  400d7c:	8b2c63ff 	add	sp, sp, x12
  400d80:	d65f03c0 	ret
  400d84:	b0000020 	adrp	x0, 405000 <__sfp_handle_exceptions+0x64>
  400d88:	91054000 	add	x0, x0, #0x150
  400d8c:	4ea21c40 	mov	v0.16b, v2.16b
  400d90:	3dc00001 	ldr	q1, [x0]
  400d94:	94000b9f 	bl	403c10 <__multf3>
  400d98:	4ea01c02 	mov	v2.16b, v0.16b
  400d9c:	17ffff89 	b	400bc0 <fmt_fp+0x1ac>
  400da0:	a9076ffc 	stp	x28, x27, [sp, #112]
  400da4:	4ea21c40 	mov	v0.16b, v2.16b
  400da8:	3dc01fe1 	ldr	q1, [sp, #112]
  400dac:	3d801fe2 	str	q2, [sp, #112]
  400db0:	940008d7 	bl	40310c <__addtf3>
  400db4:	3dc01fe2 	ldr	q2, [sp, #112]
  400db8:	4ea21c41 	mov	v1.16b, v2.16b
  400dbc:	94000d3a 	bl	4042a4 <__subtf3>
  400dc0:	3d801fe0 	str	q0, [sp, #112]
  400dc4:	a9470fe5 	ldp	x5, x3, [sp, #112]
  400dc8:	aa0503fc 	mov	x28, x5
  400dcc:	aa0303fb 	mov	x27, x3
  400dd0:	17ffff90 	b	400c10 <fmt_fp+0x1fc>
  400dd4:	aa1703f5 	mov	x21, x23
  400dd8:	17ffffab 	b	400c84 <fmt_fp+0x270>
  400ddc:	cb1a02f7 	sub	x23, x23, x26
  400de0:	0b17039b 	add	w27, w28, w23
  400de4:	34000633 	cbz	w19, 400ea8 <fmt_fp+0x494>
  400de8:	d10006e0 	sub	x0, x23, #0x1
  400dec:	eb00003f 	cmp	x1, x0
  400df0:	540005cb 	b.lt	400ea8 <fmt_fp+0x494>  // b.tstop
  400df4:	11000a73 	add	w19, w19, #0x2
  400df8:	0b1c0273 	add	w19, w19, w28
  400dfc:	b94063e0 	ldr	w0, [sp, #96]
  400e00:	2a1903e4 	mov	w4, w25
  400e04:	2a1603e2 	mov	w2, w22
  400e08:	52800401 	mov	w1, #0x20                  	// #32
  400e0c:	0b000275 	add	w21, w19, w0
  400e10:	aa1403e0 	mov	x0, x20
  400e14:	2a1503e3 	mov	w3, w21
  400e18:	f9003be6 	str	x6, [sp, #112]
  400e1c:	97fffeda 	bl	400984 <pad>
  400e20:	f9403be6 	ldr	x6, [sp, #112]
  400e24:	aa1803e1 	mov	x1, x24
  400e28:	aa1403e0 	mov	x0, x20
  400e2c:	aa0603e2 	mov	x2, x6
  400e30:	97fffecd 	bl	400964 <out>
  400e34:	52100324 	eor	w4, w25, #0x10000
  400e38:	2a1503e3 	mov	w3, w21
  400e3c:	2a1603e2 	mov	w2, w22
  400e40:	aa1403e0 	mov	x0, x20
  400e44:	52800601 	mov	w1, #0x30                  	// #48
  400e48:	97fffecf 	bl	400984 <pad>
  400e4c:	aa1703e2 	mov	x2, x23
  400e50:	aa1a03e1 	mov	x1, x26
  400e54:	aa1403e0 	mov	x0, x20
  400e58:	97fffec3 	bl	400964 <out>
  400e5c:	52800004 	mov	w4, #0x0                   	// #0
  400e60:	52800003 	mov	w3, #0x0                   	// #0
  400e64:	4b1b0262 	sub	w2, w19, w27
  400e68:	aa1403e0 	mov	x0, x20
  400e6c:	52800601 	mov	w1, #0x30                  	// #48
  400e70:	97fffec5 	bl	400984 <pad>
  400e74:	f94043e1 	ldr	x1, [sp, #128]
  400e78:	aa1c03e2 	mov	x2, x28
  400e7c:	aa1403e0 	mov	x0, x20
  400e80:	97fffeb9 	bl	400964 <out>
  400e84:	aa1403e0 	mov	x0, x20
  400e88:	52130324 	eor	w4, w25, #0x2000
  400e8c:	2a1503e3 	mov	w3, w21
  400e90:	2a1603e2 	mov	w2, w22
  400e94:	52800401 	mov	w1, #0x20                  	// #32
  400e98:	97fffebb 	bl	400984 <pad>
  400e9c:	6b1602bf 	cmp	w21, w22
  400ea0:	1a96a2a0 	csel	w0, w21, w22, ge  // ge = tcont
  400ea4:	17ffffaf 	b	400d60 <fmt_fp+0x34c>
  400ea8:	2a1b03f3 	mov	w19, w27
  400eac:	17ffffd4 	b	400dfc <fmt_fp+0x3e8>
  400eb0:	a9086ffc 	stp	x28, x27, [sp, #128]
  400eb4:	7100027f 	cmp	w19, #0x0
  400eb8:	528000c0 	mov	w0, #0x6                   	// #6
  400ebc:	6f00e401 	movi	v1.2d, #0x0
  400ec0:	3dc023e0 	ldr	q0, [sp, #128]
  400ec4:	1a80a273 	csel	w19, w19, w0, ge  // ge = tcont
  400ec8:	94000b12 	bl	403b10 <__eqtf2>
  400ecc:	340001a0 	cbz	w0, 400f00 <fmt_fp+0x4ec>
  400ed0:	b0000020 	adrp	x0, 405000 <__sfp_handle_exceptions+0x64>
  400ed4:	91058000 	add	x0, x0, #0x160
  400ed8:	3dc023e0 	ldr	q0, [sp, #128]
  400edc:	3dc00001 	ldr	q1, [x0]
  400ee0:	94000b4c 	bl	403c10 <__multf3>
  400ee4:	3d8023e0 	str	q0, [sp, #128]
  400ee8:	a9480fe5 	ldp	x5, x3, [sp, #128]
  400eec:	b940cfe0 	ldr	w0, [sp, #204]
  400ef0:	51007000 	sub	w0, w0, #0x1c
  400ef4:	b900cfe0 	str	w0, [sp, #204]
  400ef8:	aa0503fc 	mov	x28, x5
  400efc:	aa0303fb 	mov	x27, x3
  400f00:	b940cfe6 	ldr	w6, [sp, #204]
  400f04:	910423e0 	add	x0, sp, #0x108
  400f08:	d2838103 	mov	x3, #0x1c08                	// #7176
  400f0c:	8b2363e7 	add	x7, sp, x3
  400f10:	710000df 	cmp	w6, #0x0
  400f14:	9a80a0e7 	csel	x7, x7, x0, ge  // ge = tcont
  400f18:	aa0703fa 	mov	x26, x7
  400f1c:	a9086ffc 	stp	x28, x27, [sp, #128]
  400f20:	3dc023e0 	ldr	q0, [sp, #128]
  400f24:	b9009be6 	str	w6, [sp, #152]
  400f28:	f90053e7 	str	x7, [sp, #160]
  400f2c:	94000f84 	bl	404d3c <__fixunstfsi>
  400f30:	b8004740 	str	w0, [x26], #4
  400f34:	94000fca 	bl	404e5c <__floatunsitf>
  400f38:	4ea01c01 	mov	v1.16b, v0.16b
  400f3c:	3dc023e0 	ldr	q0, [sp, #128]
  400f40:	94000cd9 	bl	4042a4 <__subtf3>
  400f44:	b0000020 	adrp	x0, 405000 <__sfp_handle_exceptions+0x64>
  400f48:	9105c000 	add	x0, x0, #0x170
  400f4c:	3dc00001 	ldr	q1, [x0]
  400f50:	94000b30 	bl	403c10 <__multf3>
  400f54:	3d8023e0 	str	q0, [sp, #128]
  400f58:	a9480fe5 	ldp	x5, x3, [sp, #128]
  400f5c:	6f00e401 	movi	v1.2d, #0x0
  400f60:	aa0503fc 	mov	x28, x5
  400f64:	aa0303fb 	mov	x27, x3
  400f68:	94000aea 	bl	403b10 <__eqtf2>
  400f6c:	b9409be6 	ldr	w6, [sp, #152]
  400f70:	f94053e7 	ldr	x7, [sp, #160]
  400f74:	35fffd40 	cbnz	w0, 400f1c <fmt_fp+0x508>
  400f78:	d2994003 	mov	x3, #0xca00                	// #51712
  400f7c:	aa0703fb 	mov	x27, x7
  400f80:	528003a8 	mov	w8, #0x1d                  	// #29
  400f84:	f2a77343 	movk	x3, #0x3b9a, lsl #16
  400f88:	710000df 	cmp	w6, #0x0
  400f8c:	5400102c 	b.gt	401190 <fmt_fp+0x77c>
  400f90:	34000040 	cbz	w0, 400f98 <fmt_fp+0x584>
  400f94:	b900cfe6 	str	w6, [sp, #204]
  400f98:	1100b660 	add	w0, w19, #0x2d
  400f9c:	52800121 	mov	w1, #0x9                   	// #9
  400fa0:	b940cfe8 	ldr	w8, [sp, #204]
  400fa4:	5299400d 	mov	w13, #0xca00                	// #51712
  400fa8:	5280002c 	mov	w12, #0x1                   	// #1
  400fac:	72a7734d 	movk	w13, #0x3b9a, lsl #16
  400fb0:	1ac10800 	udiv	w0, w0, w1
  400fb4:	11000409 	add	w9, w0, #0x1
  400fb8:	52800000 	mov	w0, #0x0                   	// #0
  400fbc:	d37ef52b 	lsl	x11, x9, #2
  400fc0:	37f811a8 	tbnz	w8, #31, 4011f4 <fmt_fp+0x7e0>
  400fc4:	34000040 	cbz	w0, 400fcc <fmt_fp+0x5b8>
  400fc8:	b900cfe8 	str	w8, [sp, #204]
  400fcc:	eb1a037f 	cmp	x27, x26
  400fd0:	54001602 	b.cs	401290 <fmt_fp+0x87c>  // b.hs, b.nlast
  400fd4:	cb1b00e4 	sub	x4, x7, x27
  400fd8:	b9400361 	ldr	w1, [x27]
  400fdc:	52800140 	mov	w0, #0xa                   	// #10
  400fe0:	2a0003e2 	mov	w2, w0
  400fe4:	9342fc84 	asr	x4, x4, #2
  400fe8:	0b040c84 	add	w4, w4, w4, lsl #3
  400fec:	6b00003f 	cmp	w1, w0
  400ff0:	540014a2 	b.cs	401284 <fmt_fp+0x870>  // b.hs, b.nlast
  400ff4:	b94063e0 	ldr	w0, [sp, #96]
  400ff8:	b94063e1 	ldr	w1, [sp, #96]
  400ffc:	7101981f 	cmp	w0, #0x66
  401000:	1a9f07e0 	cset	w0, ne  // ne = any
  401004:	1b04cc00 	msub	w0, w0, w4, w19
  401008:	71019c3f 	cmp	w1, #0x67
  40100c:	54001461 	b.ne	401298 <fmt_fp+0x884>  // b.any
  401010:	7100027f 	cmp	w19, #0x0
  401014:	1a9f07e1 	cset	w1, ne  // ne = any
  401018:	4b010000 	sub	w0, w0, w1
  40101c:	cb070341 	sub	x1, x26, x7
  401020:	9342fc21 	asr	x1, x1, #2
  401024:	d1000421 	sub	x1, x1, #0x1
  401028:	8b010c21 	add	x1, x1, x1, lsl #3
  40102c:	eb20c03f 	cmp	x1, w0, sxtw
  401030:	5400084d 	b.le	401138 <fmt_fp+0x724>
  401034:	11409000 	add	w0, w0, #0x24, lsl #12
  401038:	52800121 	mov	w1, #0x9                   	// #9
  40103c:	929fff62 	mov	x2, #0xffffffffffff0004    	// #-65532
  401040:	1ac10c01 	sdiv	w1, w0, w1
  401044:	8b21c8fc 	add	x28, x7, w1, sxtw #2
  401048:	0b010c21 	add	w1, w1, w1, lsl #3
  40104c:	4b010000 	sub	w0, w0, w1
  401050:	8b02039c 	add	x28, x28, x2
  401054:	52800141 	mov	w1, #0xa                   	// #10
  401058:	11000400 	add	w0, w0, #0x1
  40105c:	2a0103e2 	mov	w2, w1
  401060:	7100241f 	cmp	w0, #0x9
  401064:	540011e1 	b.ne	4012a0 <fmt_fp+0x88c>  // b.any
  401068:	b9400382 	ldr	w2, [x28]
  40106c:	1ac10840 	udiv	w0, w2, w1
  401070:	1b018809 	msub	w9, w0, w1, w2
  401074:	35000089 	cbnz	w9, 401084 <fmt_fp+0x670>
  401078:	91001383 	add	x3, x28, #0x4
  40107c:	eb03035f 	cmp	x26, x3
  401080:	54000560 	b.eq	40112c <fmt_fp+0x718>  // b.none
  401084:	37001140 	tbnz	w0, #0, 4012ac <fmt_fp+0x898>
  401088:	52994000 	mov	w0, #0xca00                	// #51712
  40108c:	72a77340 	movk	w0, #0x3b9a, lsl #16
  401090:	6b00003f 	cmp	w1, w0
  401094:	fa5c0362 	ccmp	x27, x28, #0x2, eq  // eq = none
  401098:	540010e2 	b.cs	4012b4 <fmt_fp+0x8a0>  // b.hs, b.nlast
  40109c:	b85fc383 	ldur	w3, [x28, #-4]
  4010a0:	92400063 	and	x3, x3, #0x1
  4010a4:	13017c20 	asr	w0, w1, #1
  4010a8:	d2e80e08 	mov	x8, #0x4070000000000000    	// #4643211215818981376
  4010ac:	6b09001f 	cmp	w0, w9
  4010b0:	54001068 	b.hi	4012bc <fmt_fp+0x8a8>  // b.pmore
  4010b4:	54001081 	b.ne	4012c4 <fmt_fp+0x8b0>  // b.any
  4010b8:	91001380 	add	x0, x28, #0x4
  4010bc:	b2513bea 	mov	x10, #0x3fff800000000000    	// #4611545280939032576
  4010c0:	eb00035f 	cmp	x26, x0
  4010c4:	d2e7ffe0 	mov	x0, #0x3fff000000000000    	// #4611404543450677248
  4010c8:	9a8a0000 	csel	x0, x0, x10, eq  // eq = none
  4010cc:	340000d5 	cbz	w21, 4010e4 <fmt_fp+0x6d0>
  4010d0:	3940030a 	ldrb	w10, [x24]
  4010d4:	7100b55f 	cmp	w10, #0x2d
  4010d8:	54000061 	b.ne	4010e4 <fmt_fp+0x6d0>  // b.any
  4010dc:	d2410000 	eor	x0, x0, #0x8000000000000000
  4010e0:	d2f80e08 	mov	x8, #0xc070000000000000    	// #-4580160821035794432
  4010e4:	a90803ff 	stp	xzr, x0, [sp, #128]
  4010e8:	4b090042 	sub	w2, w2, w9
  4010ec:	3dc023e1 	ldr	q1, [sp, #128]
  4010f0:	a90823e3 	stp	x3, x8, [sp, #128]
  4010f4:	3dc023e0 	ldr	q0, [sp, #128]
  4010f8:	a9098fe8 	stp	x8, x3, [sp, #152]
  4010fc:	291593e2 	stp	w2, w4, [sp, #172]
  401100:	b900b7e1 	str	w1, [sp, #180]
  401104:	f9005fe7 	str	x7, [sp, #184]
  401108:	94000801 	bl	40310c <__addtf3>
  40110c:	3dc023e1 	ldr	q1, [sp, #128]
  401110:	94000a80 	bl	403b10 <__eqtf2>
  401114:	b940afe2 	ldr	w2, [sp, #172]
  401118:	b940b7e1 	ldr	w1, [sp, #180]
  40111c:	f9405fe7 	ldr	x7, [sp, #184]
  401120:	35000d60 	cbnz	w0, 4012cc <fmt_fp+0x8b8>
  401124:	b940b3e4 	ldr	w4, [sp, #176]
  401128:	b9000382 	str	w2, [x28]
  40112c:	9100139c 	add	x28, x28, #0x4
  401130:	eb1c035f 	cmp	x26, x28
  401134:	9a9c935a 	csel	x26, x26, x28, ls  // ls = plast
  401138:	eb1b035f 	cmp	x26, x27
  40113c:	54000069 	b.ls	401148 <fmt_fp+0x734>  // b.plast
  401140:	b85fc340 	ldur	w0, [x26, #-4]
  401144:	34000fa0 	cbz	w0, 401338 <fmt_fp+0x924>
  401148:	b94063e0 	ldr	w0, [sp, #96]
  40114c:	71019c1f 	cmp	w0, #0x67
  401150:	54001221 	b.ne	401394 <fmt_fp+0x980>  // b.any
  401154:	7100027f 	cmp	w19, #0x0
  401158:	1a9f1673 	csinc	w19, w19, wzr, ne  // ne = any
  40115c:	6b04027f 	cmp	w19, w4
  401160:	3a44c881 	ccmn	w4, #0x4, #0x1, gt
  401164:	54000eeb 	b.lt	401340 <fmt_fp+0x92c>  // b.tstop
  401168:	11000480 	add	w0, w4, #0x1
  40116c:	510006f7 	sub	w23, w23, #0x1
  401170:	4b000273 	sub	w19, w19, w0
  401174:	37181119 	tbnz	w25, #3, 401394 <fmt_fp+0x980>
  401178:	eb1b035f 	cmp	x26, x27
  40117c:	54000069 	b.ls	401188 <fmt_fp+0x774>  // b.plast
  401180:	b85fc343 	ldur	w3, [x26, #-4]
  401184:	35001bc3 	cbnz	w3, 4014fc <fmt_fp+0xae8>
  401188:	52800121 	mov	w1, #0x9                   	// #9
  40118c:	14000075 	b	401360 <fmt_fp+0x94c>
  401190:	710074df 	cmp	w6, #0x1d
  401194:	d1001342 	sub	x2, x26, #0x4
  401198:	1a88d0c4 	csel	w4, w6, w8, le
  40119c:	52800001 	mov	w1, #0x0                   	// #0
  4011a0:	eb02037f 	cmp	x27, x2
  4011a4:	54000169 	b.ls	4011d0 <fmt_fp+0x7bc>  // b.plast
  4011a8:	34000061 	cbz	w1, 4011b4 <fmt_fp+0x7a0>
  4011ac:	d100137b 	sub	x27, x27, #0x4
  4011b0:	b9000361 	str	w1, [x27]
  4011b4:	eb1b035f 	cmp	x26, x27
  4011b8:	54000069 	b.ls	4011c4 <fmt_fp+0x7b0>  // b.plast
  4011bc:	b85fc340 	ldur	w0, [x26, #-4]
  4011c0:	34000160 	cbz	w0, 4011ec <fmt_fp+0x7d8>
  4011c4:	4b0400c6 	sub	w6, w6, w4
  4011c8:	52800020 	mov	w0, #0x1                   	// #1
  4011cc:	17ffff6f 	b	400f88 <fmt_fp+0x574>
  4011d0:	b9400040 	ldr	w0, [x2]
  4011d4:	9ac42000 	lsl	x0, x0, x4
  4011d8:	8b214000 	add	x0, x0, w1, uxtw
  4011dc:	9ac30801 	udiv	x1, x0, x3
  4011e0:	9b038020 	msub	x0, x1, x3, x0
  4011e4:	b81fc440 	str	w0, [x2], #-4
  4011e8:	17ffffee 	b	4011a0 <fmt_fp+0x78c>
  4011ec:	d100135a 	sub	x26, x26, #0x4
  4011f0:	17fffff1 	b	4011b4 <fmt_fp+0x7a0>
  4011f4:	3100251f 	cmn	w8, #0x9
  4011f8:	5400034b 	b.lt	401260 <fmt_fp+0x84c>  // b.tstop
  4011fc:	4b0803ea 	neg	w10, w8
  401200:	1aca2183 	lsl	w3, w12, w10
  401204:	aa1b03e1 	mov	x1, x27
  401208:	51000463 	sub	w3, w3, #0x1
  40120c:	1aca29ae 	asr	w14, w13, w10
  401210:	52800000 	mov	w0, #0x0                   	// #0
  401214:	eb1a003f 	cmp	x1, x26
  401218:	54000283 	b.cc	401268 <fmt_fp+0x854>  // b.lo, b.ul, b.last
  40121c:	b9400361 	ldr	w1, [x27]
  401220:	35000041 	cbnz	w1, 401228 <fmt_fp+0x814>
  401224:	9100137b 	add	x27, x27, #0x4
  401228:	34000080 	cbz	w0, 401238 <fmt_fp+0x824>
  40122c:	aa1a03e6 	mov	x6, x26
  401230:	b80044c0 	str	w0, [x6], #4
  401234:	aa0603fa 	mov	x26, x6
  401238:	b94063e0 	ldr	w0, [sp, #96]
  40123c:	7101981f 	cmp	w0, #0x66
  401240:	9a9b00e0 	csel	x0, x7, x27, eq  // eq = none
  401244:	cb000341 	sub	x1, x26, x0
  401248:	eb81093f 	cmp	x9, x1, asr #2
  40124c:	5400004a 	b.ge	401254 <fmt_fp+0x840>  // b.tcont
  401250:	8b0b001a 	add	x26, x0, x11
  401254:	0b0a0108 	add	w8, w8, w10
  401258:	52800020 	mov	w0, #0x1                   	// #1
  40125c:	17ffff59 	b	400fc0 <fmt_fp+0x5ac>
  401260:	5280012a 	mov	w10, #0x9                   	// #9
  401264:	17ffffe7 	b	401200 <fmt_fp+0x7ec>
  401268:	b9400022 	ldr	w2, [x1]
  40126c:	1aca2444 	lsr	w4, w2, w10
  401270:	0b000080 	add	w0, w4, w0
  401274:	b8004420 	str	w0, [x1], #4
  401278:	0a030040 	and	w0, w2, w3
  40127c:	1b0e7c00 	mul	w0, w0, w14
  401280:	17ffffe5 	b	401214 <fmt_fp+0x800>
  401284:	1b027c00 	mul	w0, w0, w2
  401288:	11000484 	add	w4, w4, #0x1
  40128c:	17ffff58 	b	400fec <fmt_fp+0x5d8>
  401290:	52800004 	mov	w4, #0x0                   	// #0
  401294:	17ffff58 	b	400ff4 <fmt_fp+0x5e0>
  401298:	52800001 	mov	w1, #0x0                   	// #0
  40129c:	17ffff5f 	b	401018 <fmt_fp+0x604>
  4012a0:	1b027c21 	mul	w1, w1, w2
  4012a4:	11000400 	add	w0, w0, #0x1
  4012a8:	17ffff6e 	b	401060 <fmt_fp+0x64c>
  4012ac:	d2800023 	mov	x3, #0x1                   	// #1
  4012b0:	17ffff7d 	b	4010a4 <fmt_fp+0x690>
  4012b4:	d2800003 	mov	x3, #0x0                   	// #0
  4012b8:	17ffff7b 	b	4010a4 <fmt_fp+0x690>
  4012bc:	d2e7ffc0 	mov	x0, #0x3ffe000000000000    	// #4611123068473966592
  4012c0:	17ffff83 	b	4010cc <fmt_fp+0x6b8>
  4012c4:	b2513be0 	mov	x0, #0x3fff800000000000    	// #4611545280939032576
  4012c8:	17ffff81 	b	4010cc <fmt_fp+0x6b8>
  4012cc:	0b020021 	add	w1, w1, w2
  4012d0:	b9000381 	str	w1, [x28]
  4012d4:	52993fe1 	mov	w1, #0xc9ff                	// #51711
  4012d8:	72a77341 	movk	w1, #0x3b9a, lsl #16
  4012dc:	b9400380 	ldr	w0, [x28]
  4012e0:	6b01001f 	cmp	w0, w1
  4012e4:	54000188 	b.hi	401314 <fmt_fp+0x900>  // b.pmore
  4012e8:	cb1b00e4 	sub	x4, x7, x27
  4012ec:	b9400361 	ldr	w1, [x27]
  4012f0:	52800140 	mov	w0, #0xa                   	// #10
  4012f4:	2a0003e2 	mov	w2, w0
  4012f8:	9342fc84 	asr	x4, x4, #2
  4012fc:	0b040c84 	add	w4, w4, w4, lsl #3
  401300:	6b00003f 	cmp	w1, w0
  401304:	54fff143 	b.cc	40112c <fmt_fp+0x718>  // b.lo, b.ul, b.last
  401308:	1b027c00 	mul	w0, w0, w2
  40130c:	11000484 	add	w4, w4, #0x1
  401310:	17fffffc 	b	401300 <fmt_fp+0x8ec>
  401314:	b81fc79f 	str	wzr, [x28], #-4
  401318:	eb1c037f 	cmp	x27, x28
  40131c:	54000069 	b.ls	401328 <fmt_fp+0x914>  // b.plast
  401320:	d100137b 	sub	x27, x27, #0x4
  401324:	b900037f 	str	wzr, [x27]
  401328:	b9400380 	ldr	w0, [x28]
  40132c:	11000400 	add	w0, w0, #0x1
  401330:	b9000380 	str	w0, [x28]
  401334:	17ffffea 	b	4012dc <fmt_fp+0x8c8>
  401338:	d100135a 	sub	x26, x26, #0x4
  40133c:	17ffff7f 	b	401138 <fmt_fp+0x724>
  401340:	51000af7 	sub	w23, w23, #0x2
  401344:	51000673 	sub	w19, w19, #0x1
  401348:	17ffff8b 	b	401174 <fmt_fp+0x760>
  40134c:	1b087c00 	mul	w0, w0, w8
  401350:	11000421 	add	w1, w1, #0x1
  401354:	1ac00862 	udiv	w2, w3, w0
  401358:	1b008c42 	msub	w2, w2, w0, w3
  40135c:	34ffff82 	cbz	w2, 40134c <fmt_fp+0x938>
  401360:	cb070340 	sub	x0, x26, x7
  401364:	321b02e2 	orr	w2, w23, #0x20
  401368:	93407c21 	sxtw	x1, w1
  40136c:	93407e73 	sxtw	x19, w19
  401370:	9342fc00 	asr	x0, x0, #2
  401374:	d1000400 	sub	x0, x0, #0x1
  401378:	8b000c00 	add	x0, x0, x0, lsl #3
  40137c:	7101985f 	cmp	w2, #0x66
  401380:	54000c61 	b.ne	40150c <fmt_fp+0xaf8>  // b.any
  401384:	eb010000 	subs	x0, x0, x1
  401388:	9a9f5000 	csel	x0, x0, xzr, pl  // pl = nfrst
  40138c:	eb13001f 	cmp	x0, x19
  401390:	9a93d013 	csel	x19, x0, x19, le
  401394:	321f77e0 	mov	w0, #0x7ffffffe            	// #2147483646
  401398:	6b00027f 	cmp	w19, w0
  40139c:	54ffce0a 	b.ge	400d5c <fmt_fp+0x348>  // b.tcont
  4013a0:	121d0320 	and	w0, w25, #0x8
  4013a4:	b90083e0 	str	w0, [sp, #128]
  4013a8:	2a000260 	orr	w0, w19, w0
  4013ac:	11000668 	add	w8, w19, #0x1
  4013b0:	7100001f 	cmp	w0, #0x0
  4013b4:	321b02fc 	orr	w28, w23, #0x20
  4013b8:	1a880508 	cinc	w8, w8, ne  // ne = any
  4013bc:	b90063e0 	str	w0, [sp, #96]
  4013c0:	12b00009 	mov	w9, #0x7fffffff            	// #2147483647
  4013c4:	4b080129 	sub	w9, w9, w8
  4013c8:	71019b9f 	cmp	w28, #0x66
  4013cc:	54000a41 	b.ne	401514 <fmt_fp+0xb00>  // b.any
  4013d0:	6b09009f 	cmp	w4, w9
  4013d4:	54ffcc4c 	b.gt	400d5c <fmt_fp+0x348>
  4013d8:	7100009f 	cmp	w4, #0x0
  4013dc:	5400004d 	b.le	4013e4 <fmt_fp+0x9d0>
  4013e0:	0b040108 	add	w8, w8, w4
  4013e4:	710002bf 	cmp	w21, #0x0
  4013e8:	12b00000 	mov	w0, #0x7fffffff            	// #2147483647
  4013ec:	321f77e1 	mov	w1, #0x7ffffffe            	// #2147483646
  4013f0:	1a810000 	csel	w0, w0, w1, eq  // eq = none
  4013f4:	f9004fe7 	str	x7, [sp, #152]
  4013f8:	6b08001f 	cmp	w0, w8
  4013fc:	54ffcb0b 	b.lt	400d5c <fmt_fp+0x348>  // b.tstop
  401400:	0b150117 	add	w23, w8, w21
  401404:	2a1903e4 	mov	w4, w25
  401408:	2a1703e3 	mov	w3, w23
  40140c:	2a1603e2 	mov	w2, w22
  401410:	aa1403e0 	mov	x0, x20
  401414:	52800401 	mov	w1, #0x20                  	// #32
  401418:	97fffd5b 	bl	400984 <pad>
  40141c:	93407ea2 	sxtw	x2, w21
  401420:	aa1803e1 	mov	x1, x24
  401424:	aa1403e0 	mov	x0, x20
  401428:	97fffd4f 	bl	400964 <out>
  40142c:	52100324 	eor	w4, w25, #0x10000
  401430:	2a1703e3 	mov	w3, w23
  401434:	2a1603e2 	mov	w2, w22
  401438:	aa1403e0 	mov	x0, x20
  40143c:	52800601 	mov	w1, #0x30                  	// #48
  401440:	97fffd51 	bl	400984 <pad>
  401444:	71019b9f 	cmp	w28, #0x66
  401448:	f9404fe7 	ldr	x7, [sp, #152]
  40144c:	54000fc1 	b.ne	401644 <fmt_fp+0xc30>  // b.any
  401450:	eb1b00ff 	cmp	x7, x27
  401454:	910383fc 	add	x28, sp, #0xe0
  401458:	9a9b90fb 	csel	x27, x7, x27, ls  // ls = plast
  40145c:	91002795 	add	x21, x28, #0x9
  401460:	aa1b03f8 	mov	x24, x27
  401464:	eb07031f 	cmp	x24, x7
  401468:	540008a9 	b.ls	40157c <fmt_fp+0xb68>  // b.plast
  40146c:	910010e0 	add	x0, x7, #0x4
  401470:	d1000f61 	sub	x1, x27, #0x3
  401474:	cb1b0000 	sub	x0, x0, x27
  401478:	910004e7 	add	x7, x7, #0x1
  40147c:	927ef400 	and	x0, x0, #0xfffffffffffffffc
  401480:	eb0100ff 	cmp	x7, x1
  401484:	9a9f2000 	csel	x0, x0, xzr, cs  // cs = hs, nlast
  401488:	8b000375 	add	x21, x27, x0
  40148c:	b94063e0 	ldr	w0, [sp, #96]
  401490:	34000d60 	cbz	w0, 40163c <fmt_fp+0xc28>
  401494:	910383fb 	add	x27, sp, #0xe0
  401498:	5280061c 	mov	w28, #0x30                  	// #48
  40149c:	91002778 	add	x24, x27, #0x9
  4014a0:	aa1403e0 	mov	x0, x20
  4014a4:	d2800022 	mov	x2, #0x1                   	// #1
  4014a8:	90000021 	adrp	x1, 405000 <__sfp_handle_exceptions+0x64>
  4014ac:	9102f421 	add	x1, x1, #0xbd
  4014b0:	97fffd2d 	bl	400964 <out>
  4014b4:	7100027f 	cmp	w19, #0x0
  4014b8:	fa5ac2a2 	ccmp	x21, x26, #0x2, gt
  4014bc:	54000963 	b.cc	4015e8 <fmt_fp+0xbd4>  // b.lo, b.ul, b.last
  4014c0:	52800123 	mov	w3, #0x9                   	// #9
  4014c4:	aa1403e0 	mov	x0, x20
  4014c8:	0b030262 	add	w2, w19, w3
  4014cc:	52800004 	mov	w4, #0x0                   	// #0
  4014d0:	52800601 	mov	w1, #0x30                  	// #48
  4014d4:	97fffd2c 	bl	400984 <pad>
  4014d8:	aa1403e0 	mov	x0, x20
  4014dc:	52130324 	eor	w4, w25, #0x2000
  4014e0:	2a1703e3 	mov	w3, w23
  4014e4:	2a1603e2 	mov	w2, w22
  4014e8:	52800401 	mov	w1, #0x20                  	// #32
  4014ec:	97fffd26 	bl	400984 <pad>
  4014f0:	6b1602ff 	cmp	w23, w22
  4014f4:	1a96a2e0 	csel	w0, w23, w22, ge  // ge = tcont
  4014f8:	17fffe1a 	b	400d60 <fmt_fp+0x34c>
  4014fc:	52800140 	mov	w0, #0xa                   	// #10
  401500:	52800001 	mov	w1, #0x0                   	// #0
  401504:	2a0003e8 	mov	w8, w0
  401508:	17ffff93 	b	401354 <fmt_fp+0x940>
  40150c:	8b24c000 	add	x0, x0, w4, sxtw
  401510:	17ffff9d 	b	401384 <fmt_fp+0x970>
  401514:	7100009f 	cmp	w4, #0x0
  401518:	910373ea 	add	x10, sp, #0xdc
  40151c:	5a84a480 	cneg	w0, w4, lt  // lt = tstop
  401520:	aa0a03e1 	mov	x1, x10
  401524:	93407c00 	sxtw	x0, w0
  401528:	97fffceb 	bl	4008d4 <fmt_u>
  40152c:	52800602 	mov	w2, #0x30                  	// #48
  401530:	cb000141 	sub	x1, x10, x0
  401534:	f100043f 	cmp	x1, #0x1
  401538:	540001ed 	b.le	401574 <fmt_fp+0xb60>
  40153c:	7100009f 	cmp	w4, #0x0
  401540:	528005a1 	mov	w1, #0x2d                  	// #45
  401544:	52800562 	mov	w2, #0x2b                  	// #43
  401548:	1a82b021 	csel	w1, w1, w2, lt  // lt = tstop
  40154c:	381fe017 	sturb	w23, [x0, #-2]
  401550:	381ff001 	sturb	w1, [x0, #-1]
  401554:	d1000801 	sub	x1, x0, #0x2
  401558:	910373e0 	add	x0, sp, #0xdc
  40155c:	f9003be1 	str	x1, [sp, #112]
  401560:	cb010000 	sub	x0, x0, x1
  401564:	eb29c01f 	cmp	x0, w9, sxtw
  401568:	54ffbfac 	b.gt	400d5c <fmt_fp+0x348>
  40156c:	0b000108 	add	w8, w8, w0
  401570:	17ffff9d 	b	4013e4 <fmt_fp+0x9d0>
  401574:	381ffc02 	strb	w2, [x0, #-1]!
  401578:	17ffffee 	b	401530 <fmt_fp+0xb1c>
  40157c:	b9400300 	ldr	w0, [x24]
  401580:	aa1503e1 	mov	x1, x21
  401584:	97fffcd4 	bl	4008d4 <fmt_u>
  401588:	aa0003e1 	mov	x1, x0
  40158c:	eb1b031f 	cmp	x24, x27
  401590:	54000121 	b.ne	4015b4 <fmt_fp+0xba0>  // b.any
  401594:	eb15001f 	cmp	x0, x21
  401598:	540001a1 	b.ne	4015cc <fmt_fp+0xbb8>  // b.any
  40159c:	52800600 	mov	w0, #0x30                  	// #48
  4015a0:	91002381 	add	x1, x28, #0x8
  4015a4:	3903a3e0 	strb	w0, [sp, #232]
  4015a8:	14000009 	b	4015cc <fmt_fp+0xbb8>
  4015ac:	52800602 	mov	w2, #0x30                  	// #48
  4015b0:	381ffc02 	strb	w2, [x0, #-1]!
  4015b4:	eb1c001f 	cmp	x0, x28
  4015b8:	54ffffa8 	b.hi	4015ac <fmt_fp+0xb98>  // b.pmore
  4015bc:	cb010380 	sub	x0, x28, x1
  4015c0:	eb1c003f 	cmp	x1, x28
  4015c4:	9a9f2000 	csel	x0, x0, xzr, cs  // cs = hs, nlast
  4015c8:	8b000021 	add	x1, x1, x0
  4015cc:	cb0102a2 	sub	x2, x21, x1
  4015d0:	aa1403e0 	mov	x0, x20
  4015d4:	f9003be7 	str	x7, [sp, #112]
  4015d8:	97fffce3 	bl	400964 <out>
  4015dc:	91001318 	add	x24, x24, #0x4
  4015e0:	f9403be7 	ldr	x7, [sp, #112]
  4015e4:	17ffffa0 	b	401464 <fmt_fp+0xa50>
  4015e8:	b94002a0 	ldr	w0, [x21]
  4015ec:	aa1803e1 	mov	x1, x24
  4015f0:	97fffcb9 	bl	4008d4 <fmt_u>
  4015f4:	aa0003e1 	mov	x1, x0
  4015f8:	eb1b003f 	cmp	x1, x27
  4015fc:	540001c8 	b.hi	401634 <fmt_fp+0xc20>  // b.pmore
  401600:	eb1b001f 	cmp	x0, x27
  401604:	cb000361 	sub	x1, x27, x0
  401608:	9a9f2021 	csel	x1, x1, xzr, cs  // cs = hs, nlast
  40160c:	7100267f 	cmp	w19, #0x9
  401610:	52800122 	mov	w2, #0x9                   	// #9
  401614:	1a82d262 	csel	w2, w19, w2, le
  401618:	8b010001 	add	x1, x0, x1
  40161c:	910012b5 	add	x21, x21, #0x4
  401620:	93407c42 	sxtw	x2, w2
  401624:	aa1403e0 	mov	x0, x20
  401628:	51002673 	sub	w19, w19, #0x9
  40162c:	97fffcce 	bl	400964 <out>
  401630:	17ffffa1 	b	4014b4 <fmt_fp+0xaa0>
  401634:	381ffc3c 	strb	w28, [x1, #-1]!
  401638:	17fffff0 	b	4015f8 <fmt_fp+0xbe4>
  40163c:	52800013 	mov	w19, #0x0                   	// #0
  401640:	17ffffa0 	b	4014c0 <fmt_fp+0xaac>
  401644:	eb1b035f 	cmp	x26, x27
  401648:	54000048 	b.hi	401650 <fmt_fp+0xc3c>  // b.pmore
  40164c:	9100137a 	add	x26, x27, #0x4
  401650:	910383f5 	add	x21, sp, #0xe0
  401654:	90000020 	adrp	x0, 405000 <__sfp_handle_exceptions+0x64>
  401658:	aa1b03f8 	mov	x24, x27
  40165c:	9102f400 	add	x0, x0, #0xbd
  401660:	f90033e0 	str	x0, [sp, #96]
  401664:	910026a0 	add	x0, x21, #0x9
  401668:	f9004fe0 	str	x0, [sp, #152]
  40166c:	7100027f 	cmp	w19, #0x0
  401670:	fa5aa302 	ccmp	x24, x26, #0x2, ge  // ge = tcont
  401674:	54000183 	b.cc	4016a4 <fmt_fp+0xc90>  // b.lo, b.ul, b.last
  401678:	aa1403e0 	mov	x0, x20
  40167c:	52800243 	mov	w3, #0x12                  	// #18
  401680:	52800601 	mov	w1, #0x30                  	// #48
  401684:	0b030262 	add	w2, w19, w3
  401688:	52800004 	mov	w4, #0x0                   	// #0
  40168c:	97fffcbe 	bl	400984 <pad>
  401690:	f9403be0 	ldr	x0, [sp, #112]
  401694:	910373e2 	add	x2, sp, #0xdc
  401698:	cb000042 	sub	x2, x2, x0
  40169c:	aa0003e1 	mov	x1, x0
  4016a0:	17fffd16 	b	400af8 <fmt_fp+0xe4>
  4016a4:	b9400300 	ldr	w0, [x24]
  4016a8:	910026a4 	add	x4, x21, #0x9
  4016ac:	aa0403e1 	mov	x1, x4
  4016b0:	97fffc89 	bl	4008d4 <fmt_u>
  4016b4:	aa0003e1 	mov	x1, x0
  4016b8:	eb04001f 	cmp	x0, x4
  4016bc:	54000081 	b.ne	4016cc <fmt_fp+0xcb8>  // b.any
  4016c0:	910022a1 	add	x1, x21, #0x8
  4016c4:	52800600 	mov	w0, #0x30                  	// #48
  4016c8:	3903a3e0 	strb	w0, [sp, #232]
  4016cc:	eb1b031f 	cmp	x24, x27
  4016d0:	54000421 	b.ne	401754 <fmt_fp+0xd40>  // b.any
  4016d4:	aa1403e0 	mov	x0, x20
  4016d8:	9100043c 	add	x28, x1, #0x1
  4016dc:	d2800022 	mov	x2, #0x1                   	// #1
  4016e0:	97fffca1 	bl	400964 <out>
  4016e4:	b94083e0 	ldr	w0, [sp, #128]
  4016e8:	2a130000 	orr	w0, w0, w19
  4016ec:	340001a0 	cbz	w0, 401720 <fmt_fp+0xd0c>
  4016f0:	f94033e1 	ldr	x1, [sp, #96]
  4016f4:	aa1403e0 	mov	x0, x20
  4016f8:	d2800022 	mov	x2, #0x1                   	// #1
  4016fc:	97fffc9a 	bl	400964 <out>
  401700:	14000008 	b	401720 <fmt_fp+0xd0c>
  401704:	381ffc02 	strb	w2, [x0, #-1]!
  401708:	eb15001f 	cmp	x0, x21
  40170c:	54ffffc8 	b.hi	401704 <fmt_fp+0xcf0>  // b.pmore
  401710:	cb0102a3 	sub	x3, x21, x1
  401714:	eb15003f 	cmp	x1, x21
  401718:	9a9f2063 	csel	x3, x3, xzr, cs  // cs = hs, nlast
  40171c:	8b03003c 	add	x28, x1, x3
  401720:	f9404fe0 	ldr	x0, [sp, #152]
  401724:	93407e62 	sxtw	x2, w19
  401728:	aa1c03e1 	mov	x1, x28
  40172c:	91001318 	add	x24, x24, #0x4
  401730:	cb1c0004 	sub	x4, x0, x28
  401734:	aa1403e0 	mov	x0, x20
  401738:	eb33c09f 	cmp	x4, w19, sxtw
  40173c:	f90053e4 	str	x4, [sp, #160]
  401740:	9a84a042 	csel	x2, x2, x4, ge  // ge = tcont
  401744:	97fffc88 	bl	400964 <out>
  401748:	f94053e4 	ldr	x4, [sp, #160]
  40174c:	4b040273 	sub	w19, w19, w4
  401750:	17ffffc7 	b	40166c <fmt_fp+0xc58>
  401754:	aa0103e0 	mov	x0, x1
  401758:	52800602 	mov	w2, #0x30                  	// #48
  40175c:	17ffffeb 	b	401708 <fmt_fp+0xcf4>

0000000000401760 <printf_core>:
  401760:	a9b053f3 	stp	x19, x20, [sp, #-256]!
  401764:	52800014 	mov	w20, #0x0                   	// #0
  401768:	a90263f7 	stp	x23, x24, [sp, #32]
  40176c:	aa0203f7 	mov	x23, x2
  401770:	aa0403f8 	mov	x24, x4
  401774:	a9015bf5 	stp	x21, x22, [sp, #16]
  401778:	aa0003f5 	mov	x21, x0
  40177c:	52800016 	mov	w22, #0x0                   	// #0
  401780:	a9036bf9 	stp	x25, x26, [sp, #48]
  401784:	a90473fb 	stp	x27, x28, [sp, #64]
  401788:	9000003c 	adrp	x28, 405000 <__sfp_handle_exceptions+0x64>
  40178c:	91060380 	add	x0, x28, #0x180
  401790:	f9002bfe 	str	x30, [sp, #80]
  401794:	b90067ff 	str	wzr, [sp, #100]
  401798:	f90037e3 	str	x3, [sp, #104]
  40179c:	f9003fe0 	str	x0, [sp, #120]
  4017a0:	f90053e1 	str	x1, [sp, #160]
  4017a4:	f94053f9 	ldr	x25, [sp, #160]
  4017a8:	0b1402d6 	add	w22, w22, w20
  4017ac:	39400320 	ldrb	w0, [x25]
  4017b0:	350001e0 	cbnz	w0, 4017ec <printf_core+0x8c>
  4017b4:	b5001bb5 	cbnz	x21, 401b28 <printf_core+0x3c8>
  4017b8:	b94067e0 	ldr	w0, [sp, #100]
  4017bc:	34001b40 	cbz	w0, 401b24 <printf_core+0x3c4>
  4017c0:	d2800033 	mov	x19, #0x1                   	// #1
  4017c4:	b8737b01 	ldr	w1, [x24, x19, lsl #2]
  4017c8:	35004001 	cbnz	w1, 401fc8 <printf_core+0x868>
  4017cc:	b8737b00 	ldr	w0, [x24, x19, lsl #2]
  4017d0:	35001200 	cbnz	w0, 401a10 <printf_core+0x2b0>
  4017d4:	91000673 	add	x19, x19, #0x1
  4017d8:	f1002a7f 	cmp	x19, #0xa
  4017dc:	54ffff81 	b.ne	4017cc <printf_core+0x6c>  // b.any
  4017e0:	14000201 	b	401fe4 <printf_core+0x884>
  4017e4:	910004c6 	add	x6, x6, #0x1
  4017e8:	f90053e6 	str	x6, [sp, #160]
  4017ec:	f94053e6 	ldr	x6, [sp, #160]
  4017f0:	394000c0 	ldrb	w0, [x6]
  4017f4:	7100941f 	cmp	w0, #0x25
  4017f8:	7a401804 	ccmp	w0, #0x0, #0x4, ne  // ne = any
  4017fc:	54ffff41 	b.ne	4017e4 <printf_core+0x84>  // b.any
  401800:	f94053e0 	ldr	x0, [sp, #160]
  401804:	39400001 	ldrb	w1, [x0]
  401808:	7100943f 	cmp	w1, #0x25
  40180c:	54000081 	b.ne	40181c <printf_core+0xbc>  // b.any
  401810:	39400401 	ldrb	w1, [x0, #1]
  401814:	7100943f 	cmp	w1, #0x25
  401818:	54000e00 	b.eq	4019d8 <printf_core+0x278>  // b.none
  40181c:	12b0001a 	mov	w26, #0x7fffffff            	// #2147483647
  401820:	4b160340 	sub	w0, w26, w22
  401824:	cb1900db 	sub	x27, x6, x25
  401828:	b90073e0 	str	w0, [sp, #112]
  40182c:	eb20c37f 	cmp	x27, w0, sxtw
  401830:	5400386c 	b.gt	401f3c <printf_core+0x7dc>
  401834:	2a1b03f4 	mov	w20, w27
  401838:	b40000b5 	cbz	x21, 40184c <printf_core+0xec>
  40183c:	93407f62 	sxtw	x2, w27
  401840:	aa1903e1 	mov	x1, x25
  401844:	aa1503e0 	mov	x0, x21
  401848:	97fffc47 	bl	400964 <out>
  40184c:	3500373b 	cbnz	w27, 401f30 <printf_core+0x7d0>
  401850:	f94053e0 	ldr	x0, [sp, #160]
  401854:	39400401 	ldrb	w1, [x0, #1]
  401858:	5100c021 	sub	w1, w1, #0x30
  40185c:	7100243f 	cmp	w1, #0x9
  401860:	54000c48 	b.hi	4019e8 <printf_core+0x288>  // b.pmore
  401864:	39400802 	ldrb	w2, [x0, #2]
  401868:	7100905f 	cmp	w2, #0x24
  40186c:	54000be1 	b.ne	4019e8 <printf_core+0x288>  // b.any
  401870:	91000c00 	add	x0, x0, #0x3
  401874:	2a0103ea 	mov	w10, w1
  401878:	52800021 	mov	w1, #0x1                   	// #1
  40187c:	b90067e1 	str	w1, [sp, #100]
  401880:	5280001a 	mov	w26, #0x0                   	// #0
  401884:	52800024 	mov	w4, #0x1                   	// #1
  401888:	f90053e0 	str	x0, [sp, #160]
  40188c:	f94053e0 	ldr	x0, [sp, #160]
  401890:	39400002 	ldrb	w2, [x0]
  401894:	51008041 	sub	w1, w2, #0x20
  401898:	71007c3f 	cmp	w1, #0x1f
  40189c:	540000a8 	b.hi	4018b0 <printf_core+0x150>  // b.pmore
  4018a0:	52851123 	mov	w3, #0x2889                	// #10377
  4018a4:	72a00023 	movk	w3, #0x1, lsl #16
  4018a8:	1ac12463 	lsr	w3, w3, w1
  4018ac:	37000a43 	tbnz	w3, #0, 4019f4 <printf_core+0x294>
  4018b0:	7100a85f 	cmp	w2, #0x2a
  4018b4:	54000e01 	b.ne	401a74 <printf_core+0x314>  // b.any
  4018b8:	39400401 	ldrb	w1, [x0, #1]
  4018bc:	5100c022 	sub	w2, w1, #0x30
  4018c0:	7100245f 	cmp	w2, #0x9
  4018c4:	54000a28 	b.hi	401a08 <printf_core+0x2a8>  // b.pmore
  4018c8:	39400802 	ldrb	w2, [x0, #2]
  4018cc:	7100905f 	cmp	w2, #0x24
  4018d0:	540009c1 	b.ne	401a08 <printf_core+0x2a8>  // b.any
  4018d4:	8b210b01 	add	x1, x24, w1, uxtb #2
  4018d8:	52800142 	mov	w2, #0xa                   	// #10
  4018dc:	91000c00 	add	x0, x0, #0x3
  4018e0:	b8140022 	stur	w2, [x1, #-192]
  4018e4:	92805fe2 	mov	x2, #0xfffffffffffffd00    	// #-768
  4018e8:	385fe001 	ldurb	w1, [x0, #-2]
  4018ec:	f90053e0 	str	x0, [sp, #160]
  4018f0:	52800020 	mov	w0, #0x1                   	// #1
  4018f4:	b90067e0 	str	w0, [sp, #100]
  4018f8:	8b215041 	add	x1, x2, w1, uxtw #4
  4018fc:	f94037e2 	ldr	x2, [sp, #104]
  401900:	b8616853 	ldr	w19, [x2, x1]
  401904:	36f80073 	tbz	w19, #31, 401910 <printf_core+0x1b0>
  401908:	3213035a 	orr	w26, w26, #0x2000
  40190c:	4b1303f3 	neg	w19, w19
  401910:	f94053e0 	ldr	x0, [sp, #160]
  401914:	39400001 	ldrb	w1, [x0]
  401918:	7100b83f 	cmp	w1, #0x2e
  40191c:	54000ea1 	b.ne	401af0 <printf_core+0x390>  // b.any
  401920:	39400401 	ldrb	w1, [x0, #1]
  401924:	7100a83f 	cmp	w1, #0x2a
  401928:	54000d61 	b.ne	401ad4 <printf_core+0x374>  // b.any
  40192c:	39400801 	ldrb	w1, [x0, #2]
  401930:	5100c022 	sub	w2, w1, #0x30
  401934:	7100245f 	cmp	w2, #0x9
  401938:	54000a88 	b.hi	401a88 <printf_core+0x328>  // b.pmore
  40193c:	39400c02 	ldrb	w2, [x0, #3]
  401940:	7100905f 	cmp	w2, #0x24
  401944:	54000a21 	b.ne	401a88 <printf_core+0x328>  // b.any
  401948:	8b210b01 	add	x1, x24, w1, uxtb #2
  40194c:	52800142 	mov	w2, #0xa                   	// #10
  401950:	91001000 	add	x0, x0, #0x4
  401954:	b8140022 	stur	w2, [x1, #-192]
  401958:	92805fe2 	mov	x2, #0xfffffffffffffd00    	// #-768
  40195c:	385fe001 	ldurb	w1, [x0, #-2]
  401960:	8b215041 	add	x1, x2, w1, uxtw #4
  401964:	f94037e2 	ldr	x2, [sp, #104]
  401968:	b861685b 	ldr	w27, [x2, x1]
  40196c:	2a3b03e3 	mvn	w3, w27
  401970:	f90053e0 	str	x0, [sp, #160]
  401974:	531f7c7c 	lsr	w28, w3, #31
  401978:	52800005 	mov	w5, #0x0                   	// #0
  40197c:	d2800742 	mov	x2, #0x3a                  	// #58
  401980:	f94053e0 	ldr	x0, [sp, #160]
  401984:	39400001 	ldrb	w1, [x0]
  401988:	51010421 	sub	w1, w1, #0x41
  40198c:	7100e43f 	cmp	w1, #0x39
  401990:	54000408 	b.hi	401a10 <printf_core+0x2b0>  // b.pmore
  401994:	91000401 	add	x1, x0, #0x1
  401998:	f90053e1 	str	x1, [sp, #160]
  40199c:	f9403fe3 	ldr	x3, [sp, #120]
  4019a0:	39400001 	ldrb	w1, [x0]
  4019a4:	2a0503e0 	mov	w0, w5
  4019a8:	51010421 	sub	w1, w1, #0x41
  4019ac:	9b020c00 	madd	x0, x0, x2, x3
  4019b0:	3861c801 	ldrb	w1, [x0, w1, sxtw]
  4019b4:	51000420 	sub	w0, w1, #0x1
  4019b8:	71001c1f 	cmp	w0, #0x7
  4019bc:	54000a09 	b.ls	401afc <printf_core+0x39c>  // b.plast
  4019c0:	34000281 	cbz	w1, 401a10 <printf_core+0x2b0>
  4019c4:	71006c3f 	cmp	w1, #0x1b
  4019c8:	540009e1 	b.ne	401b04 <printf_core+0x3a4>  // b.any
  4019cc:	36f8022a 	tbz	w10, #31, 401a10 <printf_core+0x2b0>
  4019d0:	b5000c75 	cbnz	x21, 401b5c <printf_core+0x3fc>
  4019d4:	17ffff74 	b	4017a4 <printf_core+0x44>
  4019d8:	91000800 	add	x0, x0, #0x2
  4019dc:	910004c6 	add	x6, x6, #0x1
  4019e0:	f90053e0 	str	x0, [sp, #160]
  4019e4:	17ffff87 	b	401800 <printf_core+0xa0>
  4019e8:	91000400 	add	x0, x0, #0x1
  4019ec:	1280000a 	mov	w10, #0xffffffff            	// #-1
  4019f0:	17ffffa4 	b	401880 <printf_core+0x120>
  4019f4:	91000400 	add	x0, x0, #0x1
  4019f8:	1ac12081 	lsl	w1, w4, w1
  4019fc:	2a01035a 	orr	w26, w26, w1
  401a00:	f90053e0 	str	x0, [sp, #160]
  401a04:	17ffffa2 	b	40188c <printf_core+0x12c>
  401a08:	b94067e1 	ldr	w1, [sp, #100]
  401a0c:	340000c1 	cbz	w1, 401a24 <printf_core+0x2c4>
  401a10:	940002cf 	bl	40254c <__errno_location>
  401a14:	528002c1 	mov	w1, #0x16                  	// #22
  401a18:	b9000001 	str	w1, [x0]
  401a1c:	12800016 	mov	w22, #0xffffffff            	// #-1
  401a20:	14000042 	b	401b28 <printf_core+0x3c8>
  401a24:	b4000255 	cbz	x21, 401a6c <printf_core+0x30c>
  401a28:	b9401ae1 	ldr	w1, [x23, #24]
  401a2c:	f94002e2 	ldr	x2, [x23]
  401a30:	37f80101 	tbnz	w1, #31, 401a50 <printf_core+0x2f0>
  401a34:	91002c41 	add	x1, x2, #0xb
  401a38:	927df021 	and	x1, x1, #0xfffffffffffffff8
  401a3c:	f90002e1 	str	x1, [x23]
  401a40:	b9400053 	ldr	w19, [x2]
  401a44:	91000400 	add	x0, x0, #0x1
  401a48:	f90053e0 	str	x0, [sp, #160]
  401a4c:	17ffffae 	b	401904 <printf_core+0x1a4>
  401a50:	11002023 	add	w3, w1, #0x8
  401a54:	b9001ae3 	str	w3, [x23, #24]
  401a58:	7100007f 	cmp	w3, #0x0
  401a5c:	54fffecc 	b.gt	401a34 <printf_core+0x2d4>
  401a60:	f94006e2 	ldr	x2, [x23, #8]
  401a64:	8b21c042 	add	x2, x2, w1, sxtw
  401a68:	17fffff6 	b	401a40 <printf_core+0x2e0>
  401a6c:	2a1b03f3 	mov	w19, w27
  401a70:	17fffff5 	b	401a44 <printf_core+0x2e4>
  401a74:	910283e0 	add	x0, sp, #0xa0
  401a78:	97fffba2 	bl	400900 <getint>
  401a7c:	2a0003f3 	mov	w19, w0
  401a80:	36fff480 	tbz	w0, #31, 401910 <printf_core+0x1b0>
  401a84:	1400012e 	b	401f3c <printf_core+0x7dc>
  401a88:	b94067e1 	ldr	w1, [sp, #100]
  401a8c:	35fffc21 	cbnz	w1, 401a10 <printf_core+0x2b0>
  401a90:	b4000115 	cbz	x21, 401ab0 <printf_core+0x350>
  401a94:	b9401ae1 	ldr	w1, [x23, #24]
  401a98:	f94002e2 	ldr	x2, [x23]
  401a9c:	37f800e1 	tbnz	w1, #31, 401ab8 <printf_core+0x358>
  401aa0:	91002c41 	add	x1, x2, #0xb
  401aa4:	927df021 	and	x1, x1, #0xfffffffffffffff8
  401aa8:	f90002e1 	str	x1, [x23]
  401aac:	b940005b 	ldr	w27, [x2]
  401ab0:	91000800 	add	x0, x0, #0x2
  401ab4:	17ffffae 	b	40196c <printf_core+0x20c>
  401ab8:	11002023 	add	w3, w1, #0x8
  401abc:	b9001ae3 	str	w3, [x23, #24]
  401ac0:	7100007f 	cmp	w3, #0x0
  401ac4:	54fffeec 	b.gt	401aa0 <printf_core+0x340>
  401ac8:	f94006e2 	ldr	x2, [x23, #8]
  401acc:	8b21c042 	add	x2, x2, w1, sxtw
  401ad0:	17fffff7 	b	401aac <printf_core+0x34c>
  401ad4:	91000400 	add	x0, x0, #0x1
  401ad8:	5280003c 	mov	w28, #0x1                   	// #1
  401adc:	f90053e0 	str	x0, [sp, #160]
  401ae0:	910283e0 	add	x0, sp, #0xa0
  401ae4:	97fffb87 	bl	400900 <getint>
  401ae8:	2a0003fb 	mov	w27, w0
  401aec:	17ffffa3 	b	401978 <printf_core+0x218>
  401af0:	2a1b03fc 	mov	w28, w27
  401af4:	1280001b 	mov	w27, #0xffffffff            	// #-1
  401af8:	17ffffa0 	b	401978 <printf_core+0x218>
  401afc:	2a0103e5 	mov	w5, w1
  401b00:	17ffffa0 	b	401980 <printf_core+0x220>
  401b04:	37f800ea 	tbnz	w10, #31, 401b20 <printf_core+0x3c0>
  401b08:	f94037e0 	ldr	x0, [sp, #104]
  401b0c:	b82adb01 	str	w1, [x24, w10, sxtw #2]
  401b10:	8b2ad001 	add	x1, x0, w10, sxtw #4
  401b14:	a9400420 	ldp	x0, x1, [x1]
  401b18:	a90b07e0 	stp	x0, x1, [sp, #176]
  401b1c:	17ffffad 	b	4019d0 <printf_core+0x270>
  401b20:	b5000155 	cbnz	x21, 401b48 <printf_core+0x3e8>
  401b24:	52800016 	mov	w22, #0x0                   	// #0
  401b28:	2a1603e0 	mov	w0, w22
  401b2c:	a9415bf5 	ldp	x21, x22, [sp, #16]
  401b30:	a94263f7 	ldp	x23, x24, [sp, #32]
  401b34:	a9436bf9 	ldp	x25, x26, [sp, #48]
  401b38:	a94473fb 	ldp	x27, x28, [sp, #64]
  401b3c:	f9402bfe 	ldr	x30, [sp, #80]
  401b40:	a8d053f3 	ldp	x19, x20, [sp], #256
  401b44:	d65f03c0 	ret
  401b48:	aa1703e2 	mov	x2, x23
  401b4c:	9102c3e0 	add	x0, sp, #0xb0
  401b50:	b90083e5 	str	w5, [sp, #128]
  401b54:	97fffad0 	bl	400694 <pop_arg>
  401b58:	b94083e5 	ldr	w5, [sp, #128]
  401b5c:	f94053e0 	ldr	x0, [sp, #160]
  401b60:	385ff004 	ldurb	w4, [x0, #-1]
  401b64:	340000a5 	cbz	w5, 401b78 <printf_core+0x418>
  401b68:	12000c80 	and	w0, w4, #0xf
  401b6c:	71000c1f 	cmp	w0, #0x3
  401b70:	54000041 	b.ne	401b78 <printf_core+0x418>  // b.any
  401b74:	121a7884 	and	w4, w4, #0xffffffdf
  401b78:	3668005a 	tbz	w26, #13, 401b80 <printf_core+0x420>
  401b7c:	120f7b5a 	and	w26, w26, #0xfffeffff
  401b80:	51010481 	sub	w1, w4, #0x41
  401b84:	7100dc3f 	cmp	w1, #0x37
  401b88:	54002148 	b.hi	401fb0 <printf_core+0x850>  // b.pmore
  401b8c:	90000020 	adrp	x0, 405000 <__sfp_handle_exceptions+0x64>
  401b90:	91034000 	add	x0, x0, #0xd0
  401b94:	78615800 	ldrh	w0, [x0, w1, uxtw #1]
  401b98:	10000061 	adr	x1, 401ba4 <printf_core+0x444>
  401b9c:	8b20a820 	add	x0, x1, w0, sxth #2
  401ba0:	d61f0000 	br	x0
  401ba4:	71001cbf 	cmp	w5, #0x7
  401ba8:	54001c48 	b.hi	401f30 <printf_core+0x7d0>  // b.pmore
  401bac:	90000020 	adrp	x0, 405000 <__sfp_handle_exceptions+0x64>
  401bb0:	91050000 	add	x0, x0, #0x140
  401bb4:	78655800 	ldrh	w0, [x0, w5, uxtw #1]
  401bb8:	10000061 	adr	x1, 401bc4 <printf_core+0x464>
  401bbc:	8b20a820 	add	x0, x1, w0, sxth #2
  401bc0:	d61f0000 	br	x0
  401bc4:	f9405be0 	ldr	x0, [sp, #176]
  401bc8:	b9000016 	str	w22, [x0]
  401bcc:	17fffef6 	b	4017a4 <printf_core+0x44>
  401bd0:	f9405be0 	ldr	x0, [sp, #176]
  401bd4:	79000016 	strh	w22, [x0]
  401bd8:	17fffef3 	b	4017a4 <printf_core+0x44>
  401bdc:	f9405be0 	ldr	x0, [sp, #176]
  401be0:	39000016 	strb	w22, [x0]
  401be4:	17fffef0 	b	4017a4 <printf_core+0x44>
  401be8:	f9405be1 	ldr	x1, [sp, #176]
  401bec:	93407ec0 	sxtw	x0, w22
  401bf0:	f9000020 	str	x0, [x1]
  401bf4:	17fffeec 	b	4017a4 <printf_core+0x44>
  401bf8:	7100437f 	cmp	w27, #0x10
  401bfc:	52800200 	mov	w0, #0x10                  	// #16
  401c00:	321d035a 	orr	w26, w26, #0x8
  401c04:	1a80237b 	csel	w27, w27, w0, cs  // cs = hs, nlast
  401c08:	52800f04 	mov	w4, #0x78                  	// #120
  401c0c:	f9405be9 	ldr	x9, [sp, #176]
  401c10:	90000021 	adrp	x1, 405000 <__sfp_handle_exceptions+0x64>
  401c14:	121b0085 	and	w5, w4, #0x20
  401c18:	9103fff9 	add	x25, sp, #0xff
  401c1c:	910d4021 	add	x1, x1, #0x350
  401c20:	aa0903e0 	mov	x0, x9
  401c24:	b5000300 	cbnz	x0, 401c84 <printf_core+0x524>
  401c28:	90000025 	adrp	x5, 405000 <__sfp_handle_exceptions+0x64>
  401c2c:	9102fca5 	add	x5, x5, #0xbf
  401c30:	b40000a9 	cbz	x9, 401c44 <printf_core+0x4e4>
  401c34:	3618009a 	tbz	w26, #3, 401c44 <printf_core+0x4e4>
  401c38:	d3441c84 	ubfx	x4, x4, #4, #4
  401c3c:	52800054 	mov	w20, #0x2                   	// #2
  401c40:	8b0400a5 	add	x5, x5, x4
  401c44:	6a5b7f9f 	tst	w28, w27, lsr #31
  401c48:	540017a1 	b.ne	401f3c <printf_core+0x7dc>  // b.any
  401c4c:	3400005c 	cbz	w28, 401c54 <printf_core+0x4f4>
  401c50:	120f7b5a 	and	w26, w26, #0xfffeffff
  401c54:	f9405be1 	ldr	x1, [sp, #176]
  401c58:	9103ffe0 	add	x0, sp, #0xff
  401c5c:	b5000041 	cbnz	x1, 401c64 <printf_core+0x504>
  401c60:	34001afb 	cbz	w27, 401fbc <printf_core+0x85c>
  401c64:	f100003f 	cmp	x1, #0x0
  401c68:	cb190000 	sub	x0, x0, x25
  401c6c:	9a801400 	cinc	x0, x0, eq  // eq = none
  401c70:	93407f61 	sxtw	x1, w27
  401c74:	eb3bc01f 	cmp	x0, w27, sxtw
  401c78:	9a81a01b 	csel	x27, x0, x1, ge  // ge = tcont
  401c7c:	9103ffe2 	add	x2, sp, #0xff
  401c80:	14000036 	b	401d58 <printf_core+0x5f8>
  401c84:	92400c02 	and	x2, x0, #0xf
  401c88:	d344fc00 	lsr	x0, x0, #4
  401c8c:	38626822 	ldrb	w2, [x1, x2]
  401c90:	2a0200a2 	orr	w2, w5, w2
  401c94:	381fff22 	strb	w2, [x25, #-1]!
  401c98:	17ffffe3 	b	401c24 <printf_core+0x4c4>
  401c9c:	9103fff9 	add	x25, sp, #0xff
  401ca0:	f9405be1 	ldr	x1, [sp, #176]
  401ca4:	aa1903e0 	mov	x0, x25
  401ca8:	b5000121 	cbnz	x1, 401ccc <printf_core+0x56c>
  401cac:	90000025 	adrp	x5, 405000 <__sfp_handle_exceptions+0x64>
  401cb0:	9102fca5 	add	x5, x5, #0xbf
  401cb4:	361ffc9a 	tbz	w26, #3, 401c44 <printf_core+0x4e4>
  401cb8:	cb190000 	sub	x0, x0, x25
  401cbc:	eb3bc01f 	cmp	x0, w27, sxtw
  401cc0:	54fffc2b 	b.lt	401c44 <printf_core+0x4e4>  // b.tstop
  401cc4:	1100041b 	add	w27, w0, #0x1
  401cc8:	17ffffdf 	b	401c44 <printf_core+0x4e4>
  401ccc:	12000822 	and	w2, w1, #0x7
  401cd0:	d343fc21 	lsr	x1, x1, #3
  401cd4:	1100c042 	add	w2, w2, #0x30
  401cd8:	381fff22 	strb	w2, [x25, #-1]!
  401cdc:	17fffff3 	b	401ca8 <printf_core+0x548>
  401ce0:	f9405be0 	ldr	x0, [sp, #176]
  401ce4:	b6f80160 	tbz	x0, #63, 401d10 <printf_core+0x5b0>
  401ce8:	cb0003e0 	neg	x0, x0
  401cec:	52800034 	mov	w20, #0x1                   	// #1
  401cf0:	f9005be0 	str	x0, [sp, #176]
  401cf4:	90000025 	adrp	x5, 405000 <__sfp_handle_exceptions+0x64>
  401cf8:	9102fca5 	add	x5, x5, #0xbf
  401cfc:	f9405be0 	ldr	x0, [sp, #176]
  401d00:	9103ffe1 	add	x1, sp, #0xff
  401d04:	97fffaf4 	bl	4008d4 <fmt_u>
  401d08:	aa0003f9 	mov	x25, x0
  401d0c:	17ffffce 	b	401c44 <printf_core+0x4e4>
  401d10:	375800da 	tbnz	w26, #11, 401d28 <printf_core+0x5c8>
  401d14:	3607ff1a 	tbz	w26, #0, 401cf4 <printf_core+0x594>
  401d18:	90000025 	adrp	x5, 405000 <__sfp_handle_exceptions+0x64>
  401d1c:	52800034 	mov	w20, #0x1                   	// #1
  401d20:	910304a5 	add	x5, x5, #0xc1
  401d24:	17fffff6 	b	401cfc <printf_core+0x59c>
  401d28:	90000025 	adrp	x5, 405000 <__sfp_handle_exceptions+0x64>
  401d2c:	52800034 	mov	w20, #0x1                   	// #1
  401d30:	910300a5 	add	x5, x5, #0xc0
  401d34:	17fffff2 	b	401cfc <printf_core+0x59c>
  401d38:	90000025 	adrp	x5, 405000 <__sfp_handle_exceptions+0x64>
  401d3c:	120f7b5a 	and	w26, w26, #0xfffeffff
  401d40:	9102fca5 	add	x5, x5, #0xbf
  401d44:	9103ffe2 	add	x2, sp, #0xff
  401d48:	9103fbf9 	add	x25, sp, #0xfe
  401d4c:	5280003b 	mov	w27, #0x1                   	// #1
  401d50:	f9405be0 	ldr	x0, [sp, #176]
  401d54:	3903fbe0 	strb	w0, [sp, #254]
  401d58:	cb190049 	sub	x9, x2, x25
  401d5c:	12b00000 	mov	w0, #0x7fffffff            	// #2147483647
  401d60:	eb3bc13f 	cmp	x9, w27, sxtw
  401d64:	4b140000 	sub	w0, w0, w20
  401d68:	1a89d37b 	csel	w27, w27, w9, le
  401d6c:	a90817e9 	stp	x9, x5, [sp, #128]
  401d70:	6b1b001f 	cmp	w0, w27
  401d74:	54000e4b 	b.lt	401f3c <printf_core+0x7dc>  // b.tstop
  401d78:	0b14037c 	add	w28, w27, w20
  401d7c:	b94073e0 	ldr	w0, [sp, #112]
  401d80:	6b13039f 	cmp	w28, w19
  401d84:	1a93a393 	csel	w19, w28, w19, ge  // ge = tcont
  401d88:	6b13001f 	cmp	w0, w19
  401d8c:	54000d8b 	b.lt	401f3c <printf_core+0x7dc>  // b.tstop
  401d90:	2a1a03e4 	mov	w4, w26
  401d94:	2a1c03e3 	mov	w3, w28
  401d98:	2a1303e2 	mov	w2, w19
  401d9c:	aa1503e0 	mov	x0, x21
  401da0:	52800401 	mov	w1, #0x20                  	// #32
  401da4:	97fffaf8 	bl	400984 <pad>
  401da8:	f94047e5 	ldr	x5, [sp, #136]
  401dac:	93407e82 	sxtw	x2, w20
  401db0:	aa1503e0 	mov	x0, x21
  401db4:	2a1303f4 	mov	w20, w19
  401db8:	aa0503e1 	mov	x1, x5
  401dbc:	97fffaea 	bl	400964 <out>
  401dc0:	52100344 	eor	w4, w26, #0x10000
  401dc4:	2a1c03e3 	mov	w3, w28
  401dc8:	2a1303e2 	mov	w2, w19
  401dcc:	aa1503e0 	mov	x0, x21
  401dd0:	52800601 	mov	w1, #0x30                  	// #48
  401dd4:	97fffaec 	bl	400984 <pad>
  401dd8:	f94043e9 	ldr	x9, [sp, #128]
  401ddc:	2a1b03e2 	mov	w2, w27
  401de0:	aa1503e0 	mov	x0, x21
  401de4:	52800004 	mov	w4, #0x0                   	// #0
  401de8:	2a0903e3 	mov	w3, w9
  401dec:	52800601 	mov	w1, #0x30                  	// #48
  401df0:	f9003be9 	str	x9, [sp, #112]
  401df4:	97fffae4 	bl	400984 <pad>
  401df8:	f9403be9 	ldr	x9, [sp, #112]
  401dfc:	aa1903e1 	mov	x1, x25
  401e00:	aa1503e0 	mov	x0, x21
  401e04:	aa0903e2 	mov	x2, x9
  401e08:	97fffad7 	bl	400964 <out>
  401e0c:	52130344 	eor	w4, w26, #0x2000
  401e10:	2a1c03e3 	mov	w3, w28
  401e14:	2a1303e2 	mov	w2, w19
  401e18:	aa1503e0 	mov	x0, x21
  401e1c:	52800401 	mov	w1, #0x20                  	// #32
  401e20:	97fffad9 	bl	400984 <pad>
  401e24:	17fffe60 	b	4017a4 <printf_core+0x44>
  401e28:	940001c9 	bl	40254c <__errno_location>
  401e2c:	b9400000 	ldr	w0, [x0]
  401e30:	940001d4 	bl	402580 <strerror>
  401e34:	aa0003f9 	mov	x25, x0
  401e38:	7100037f 	cmp	w27, #0x0
  401e3c:	12b00001 	mov	w1, #0x7fffffff            	// #2147483647
  401e40:	1a81a361 	csel	w1, w27, w1, ge  // ge = tcont
  401e44:	aa1903e0 	mov	x0, x25
  401e48:	93407c21 	sxtw	x1, w1
  401e4c:	94000101 	bl	402250 <strnlen>
  401e50:	8b000322 	add	x2, x25, x0
  401e54:	36f8007b 	tbz	w27, #31, 401e60 <printf_core+0x700>
  401e58:	38606b21 	ldrb	w1, [x25, x0]
  401e5c:	35000701 	cbnz	w1, 401f3c <printf_core+0x7dc>
  401e60:	90000025 	adrp	x5, 405000 <__sfp_handle_exceptions+0x64>
  401e64:	2a0003fb 	mov	w27, w0
  401e68:	120f7b5a 	and	w26, w26, #0xfffeffff
  401e6c:	9102fca5 	add	x5, x5, #0xbf
  401e70:	17ffffba 	b	401d58 <printf_core+0x5f8>
  401e74:	f9405bf9 	ldr	x25, [sp, #176]
  401e78:	b5fffe19 	cbnz	x25, 401e38 <printf_core+0x6d8>
  401e7c:	90000027 	adrp	x7, 405000 <__sfp_handle_exceptions+0x64>
  401e80:	910324f9 	add	x25, x7, #0xc9
  401e84:	17ffffed 	b	401e38 <printf_core+0x6d8>
  401e88:	f9405be0 	ldr	x0, [sp, #176]
  401e8c:	1280001b 	mov	w27, #0xffffffff            	// #-1
  401e90:	29157fe0 	stp	w0, wzr, [sp, #168]
  401e94:	9102a3e0 	add	x0, sp, #0xa8
  401e98:	f9005be0 	str	x0, [sp, #176]
  401e9c:	f9405bf4 	ldr	x20, [sp, #176]
  401ea0:	93407f7b 	sxtw	x27, w27
  401ea4:	d280001c 	mov	x28, #0x0                   	// #0
  401ea8:	eb1c037f 	cmp	x27, x28
  401eac:	54000169 	b.ls	401ed8 <printf_core+0x778>  // b.plast
  401eb0:	b9400281 	ldr	w1, [x20]
  401eb4:	34000121 	cbz	w1, 401ed8 <printf_core+0x778>
  401eb8:	91001294 	add	x20, x20, #0x4
  401ebc:	910263e0 	add	x0, sp, #0x98
  401ec0:	94000201 	bl	4026c4 <wctomb>
  401ec4:	37ffdac0 	tbnz	w0, #31, 401a1c <printf_core+0x2bc>
  401ec8:	cb1c0361 	sub	x1, x27, x28
  401ecc:	93407c02 	sxtw	x2, w0
  401ed0:	eb20c03f 	cmp	x1, w0, sxtw
  401ed4:	540003a2 	b.cs	401f48 <printf_core+0x7e8>  // b.hs, b.nlast
  401ed8:	b2407be0 	mov	x0, #0x7fffffff            	// #2147483647
  401edc:	eb00039f 	cmp	x28, x0
  401ee0:	540002e8 	b.hi	401f3c <printf_core+0x7dc>  // b.pmore
  401ee4:	2a1a03e4 	mov	w4, w26
  401ee8:	2a1c03e3 	mov	w3, w28
  401eec:	2a1303e2 	mov	w2, w19
  401ef0:	aa1503e0 	mov	x0, x21
  401ef4:	52800401 	mov	w1, #0x20                  	// #32
  401ef8:	97fffaa3 	bl	400984 <pad>
  401efc:	f9405bfb 	ldr	x27, [sp, #176]
  401f00:	2a1c03f4 	mov	w20, w28
  401f04:	d2800019 	mov	x25, #0x0                   	// #0
  401f08:	eb19039f 	cmp	x28, x25
  401f0c:	54000228 	b.hi	401f50 <printf_core+0x7f0>  // b.pmore
  401f10:	2a1403e3 	mov	w3, w20
  401f14:	52130344 	eor	w4, w26, #0x2000
  401f18:	2a1303e2 	mov	w2, w19
  401f1c:	aa1503e0 	mov	x0, x21
  401f20:	52800401 	mov	w1, #0x20                  	// #32
  401f24:	97fffa98 	bl	400984 <pad>
  401f28:	6b14027f 	cmp	w19, w20
  401f2c:	1a94a274 	csel	w20, w19, w20, ge  // ge = tcont
  401f30:	b94073e0 	ldr	w0, [sp, #112]
  401f34:	6b14001f 	cmp	w0, w20
  401f38:	54ffc36a 	b.ge	4017a4 <printf_core+0x44>  // b.tcont
  401f3c:	94000184 	bl	40254c <__errno_location>
  401f40:	52800961 	mov	w1, #0x4b                  	// #75
  401f44:	17fffeb5 	b	401a18 <printf_core+0x2b8>
  401f48:	8b02039c 	add	x28, x28, x2
  401f4c:	17ffffd7 	b	401ea8 <printf_core+0x748>
  401f50:	b9400361 	ldr	w1, [x27]
  401f54:	34fffde1 	cbz	w1, 401f10 <printf_core+0x7b0>
  401f58:	910263e0 	add	x0, sp, #0x98
  401f5c:	940001da 	bl	4026c4 <wctomb>
  401f60:	8b20c339 	add	x25, x25, w0, sxtw
  401f64:	9100137b 	add	x27, x27, #0x4
  401f68:	93407c02 	sxtw	x2, w0
  401f6c:	eb1c033f 	cmp	x25, x28
  401f70:	54fffd08 	b.hi	401f10 <printf_core+0x7b0>  // b.pmore
  401f74:	910263e1 	add	x1, sp, #0x98
  401f78:	aa1503e0 	mov	x0, x21
  401f7c:	97fffa7a 	bl	400964 <out>
  401f80:	17ffffe2 	b	401f08 <printf_core+0x7a8>
  401f84:	6a5b7f9f 	tst	w28, w27, lsr #31
  401f88:	54fffda1 	b.ne	401f3c <printf_core+0x7dc>  // b.any
  401f8c:	3dc02fe0 	ldr	q0, [sp, #176]
  401f90:	2a1a03e3 	mov	w3, w26
  401f94:	2a1b03e2 	mov	w2, w27
  401f98:	2a1303e1 	mov	w1, w19
  401f9c:	aa1503e0 	mov	x0, x21
  401fa0:	97fffa9d 	bl	400a14 <fmt_fp>
  401fa4:	2a0003f4 	mov	w20, w0
  401fa8:	36fffc40 	tbz	w0, #31, 401f30 <printf_core+0x7d0>
  401fac:	17ffffe4 	b	401f3c <printf_core+0x7dc>
  401fb0:	90000025 	adrp	x5, 405000 <__sfp_handle_exceptions+0x64>
  401fb4:	9102fca5 	add	x5, x5, #0xbf
  401fb8:	17ffff31 	b	401c7c <printf_core+0x51c>
  401fbc:	aa0003f9 	mov	x25, x0
  401fc0:	aa0003e2 	mov	x2, x0
  401fc4:	17ffff65 	b	401d58 <printf_core+0x5f8>
  401fc8:	f94037e0 	ldr	x0, [sp, #104]
  401fcc:	aa1703e2 	mov	x2, x23
  401fd0:	8b131000 	add	x0, x0, x19, lsl #4
  401fd4:	91000673 	add	x19, x19, #0x1
  401fd8:	97fff9af 	bl	400694 <pop_arg>
  401fdc:	f1002a7f 	cmp	x19, #0xa
  401fe0:	54ffbf21 	b.ne	4017c4 <printf_core+0x64>  // b.any
  401fe4:	52800036 	mov	w22, #0x1                   	// #1
  401fe8:	17fffed0 	b	401b28 <printf_core+0x3c8>

0000000000401fec <vfprintf>:
  401fec:	a9a953f3 	stp	x19, x20, [sp, #-368]!
  401ff0:	aa0003f3 	mov	x19, x0
  401ff4:	aa0103f4 	mov	x20, x1
  401ff8:	a9401444 	ldp	x4, x5, [x2]
  401ffc:	d2800000 	mov	x0, #0x0                   	// #0
  402000:	a9410c42 	ldp	x2, x3, [x2, #16]
  402004:	a9015bf5 	stp	x21, x22, [sp, #16]
  402008:	a9027bf7 	stp	x23, x30, [sp, #32]
  40200c:	a90397e4 	stp	x4, x5, [sp, #56]
  402010:	910163e4 	add	x4, sp, #0x58
  402014:	a9048fe2 	stp	x2, x3, [sp, #72]
  402018:	910343e3 	add	x3, sp, #0xd0
  40201c:	9100e3e2 	add	x2, sp, #0x38
  402020:	a905ffff 	stp	xzr, xzr, [sp, #88]
  402024:	a906ffff 	stp	xzr, xzr, [sp, #104]
  402028:	f9003fff 	str	xzr, [sp, #120]
  40202c:	97fffdcd 	bl	401760 <printf_core>
  402030:	37f80820 	tbnz	w0, #31, 402134 <vfprintf+0x148>
  402034:	b9408e60 	ldr	w0, [x19, #140]
  402038:	37f806e0 	tbnz	w0, #31, 402114 <vfprintf+0x128>
  40203c:	aa1303e0 	mov	x0, x19
  402040:	940001a9 	bl	4026e4 <__lockfile>
  402044:	2a0003f6 	mov	w22, w0
  402048:	b9400260 	ldr	w0, [x19]
  40204c:	b9408a61 	ldr	w1, [x19, #136]
  402050:	121b0017 	and	w23, w0, #0x20
  402054:	7100003f 	cmp	w1, #0x0
  402058:	5400006c 	b.gt	402064 <vfprintf+0x78>
  40205c:	121a7800 	and	w0, w0, #0xffffffdf
  402060:	b9000260 	str	w0, [x19]
  402064:	f9403260 	ldr	x0, [x19, #96]
  402068:	b50005a0 	cbnz	x0, 40211c <vfprintf+0x130>
  40206c:	910203e0 	add	x0, sp, #0x80
  402070:	a9027e7f 	stp	xzr, xzr, [x19, #32]
  402074:	f9001e7f 	str	xzr, [x19, #56]
  402078:	f9402e75 	ldr	x21, [x19, #88]
  40207c:	f9002e60 	str	x0, [x19, #88]
  402080:	d2800a00 	mov	x0, #0x50                  	// #80
  402084:	f9003260 	str	x0, [x19, #96]
  402088:	aa1303e0 	mov	x0, x19
  40208c:	940001f6 	bl	402864 <__towrite>
  402090:	350004e0 	cbnz	w0, 40212c <vfprintf+0x140>
  402094:	aa1403e1 	mov	x1, x20
  402098:	910163e4 	add	x4, sp, #0x58
  40209c:	910343e3 	add	x3, sp, #0xd0
  4020a0:	9100e3e2 	add	x2, sp, #0x38
  4020a4:	aa1303e0 	mov	x0, x19
  4020a8:	97fffdae 	bl	401760 <printf_core>
  4020ac:	2a0003f4 	mov	w20, w0
  4020b0:	b4000195 	cbz	x21, 4020e0 <vfprintf+0xf4>
  4020b4:	f9402663 	ldr	x3, [x19, #72]
  4020b8:	aa1303e0 	mov	x0, x19
  4020bc:	d2800002 	mov	x2, #0x0                   	// #0
  4020c0:	d2800001 	mov	x1, #0x0                   	// #0
  4020c4:	d63f0060 	blr	x3
  4020c8:	f9001e7f 	str	xzr, [x19, #56]
  4020cc:	f9401660 	ldr	x0, [x19, #40]
  4020d0:	a9027e7f 	stp	xzr, xzr, [x19, #32]
  4020d4:	f100001f 	cmp	x0, #0x0
  4020d8:	a905fe75 	stp	x21, xzr, [x19, #88]
  4020dc:	5a9f1294 	csinv	w20, w20, wzr, ne  // ne = any
  4020e0:	b9400260 	ldr	w0, [x19]
  4020e4:	2a0002f7 	orr	w23, w23, w0
  4020e8:	b9000277 	str	w23, [x19]
  4020ec:	f27b001f 	tst	x0, #0x20
  4020f0:	5a9f0294 	csinv	w20, w20, wzr, eq  // eq = none
  4020f4:	34000076 	cbz	w22, 402100 <vfprintf+0x114>
  4020f8:	aa1303e0 	mov	x0, x19
  4020fc:	940001a6 	bl	402794 <__unlockfile>
  402100:	2a1403e0 	mov	w0, w20
  402104:	a9415bf5 	ldp	x21, x22, [sp, #16]
  402108:	a9427bf7 	ldp	x23, x30, [sp, #32]
  40210c:	a8d753f3 	ldp	x19, x20, [sp], #368
  402110:	d65f03c0 	ret
  402114:	52800016 	mov	w22, #0x0                   	// #0
  402118:	17ffffcc 	b	402048 <vfprintf+0x5c>
  40211c:	f9401275 	ldr	x21, [x19, #32]
  402120:	b4fffb55 	cbz	x21, 402088 <vfprintf+0x9c>
  402124:	d2800015 	mov	x21, #0x0                   	// #0
  402128:	17ffffdb 	b	402094 <vfprintf+0xa8>
  40212c:	12800014 	mov	w20, #0xffffffff            	// #-1
  402130:	17ffffe0 	b	4020b0 <vfprintf+0xc4>
  402134:	12800014 	mov	w20, #0xffffffff            	// #-1
  402138:	17fffff2 	b	402100 <vfprintf+0x114>
  40213c:	d503201f 	nop

0000000000402140 <memset>:
  402140:	4e010c20 	dup	v0.16b, w1
  402144:	8b020004 	add	x4, x0, x2
  402148:	f101805f 	cmp	x2, #0x60
  40214c:	540003a8 	b.hi	4021c0 <memset+0x80>  // b.pmore
  402150:	f100405f 	cmp	x2, #0x10
  402154:	54000202 	b.cs	402194 <memset+0x54>  // b.hs, b.nlast
  402158:	4e083c01 	mov	x1, v0.d[0]
  40215c:	361800a2 	tbz	w2, #3, 402170 <memset+0x30>
  402160:	f9000001 	str	x1, [x0]
  402164:	f81f8081 	stur	x1, [x4, #-8]
  402168:	d65f03c0 	ret
  40216c:	d503201f 	nop
  402170:	36100082 	tbz	w2, #2, 402180 <memset+0x40>
  402174:	b9000001 	str	w1, [x0]
  402178:	b81fc081 	stur	w1, [x4, #-4]
  40217c:	d65f03c0 	ret
  402180:	b4000082 	cbz	x2, 402190 <memset+0x50>
  402184:	39000001 	strb	w1, [x0]
  402188:	36080042 	tbz	w2, #1, 402190 <memset+0x50>
  40218c:	781fe081 	sturh	w1, [x4, #-2]
  402190:	d65f03c0 	ret
  402194:	3d800000 	str	q0, [x0]
  402198:	373000c2 	tbnz	w2, #6, 4021b0 <memset+0x70>
  40219c:	3c9f0080 	stur	q0, [x4, #-16]
  4021a0:	36280062 	tbz	w2, #5, 4021ac <memset+0x6c>
  4021a4:	3d800400 	str	q0, [x0, #16]
  4021a8:	3c9e0080 	stur	q0, [x4, #-32]
  4021ac:	d65f03c0 	ret
  4021b0:	3d800400 	str	q0, [x0, #16]
  4021b4:	ad010000 	stp	q0, q0, [x0, #32]
  4021b8:	ad3f0080 	stp	q0, q0, [x4, #-32]
  4021bc:	d65f03c0 	ret
  4021c0:	12001c21 	and	w1, w1, #0xff
  4021c4:	927cec03 	and	x3, x0, #0xfffffffffffffff0
  4021c8:	3d800000 	str	q0, [x0]
  4021cc:	f102805f 	cmp	x2, #0xa0
  4021d0:	7a402820 	ccmp	w1, #0x0, #0x0, cs  // cs = hs, nlast
  4021d4:	54000241 	b.ne	40221c <memset+0xdc>  // b.any
  4021d8:	d53b00e5 	mrs	x5, dczid_el0
  4021dc:	924010a5 	and	x5, x5, #0x1f
  4021e0:	f10010bf 	cmp	x5, #0x4
  4021e4:	540001c1 	b.ne	40221c <memset+0xdc>  // b.any
  4021e8:	3d800460 	str	q0, [x3, #16]
  4021ec:	ad010060 	stp	q0, q0, [x3, #32]
  4021f0:	927ae463 	and	x3, x3, #0xffffffffffffffc0
  4021f4:	cb030082 	sub	x2, x4, x3
  4021f8:	d1020042 	sub	x2, x2, #0x80
  4021fc:	d503201f 	nop
  402200:	91010063 	add	x3, x3, #0x40
  402204:	d50b7423 	dc	zva, x3
  402208:	f1010042 	subs	x2, x2, #0x40
  40220c:	54ffffa8 	b.hi	402200 <memset+0xc0>  // b.pmore
  402210:	ad3e0080 	stp	q0, q0, [x4, #-64]
  402214:	ad3f0080 	stp	q0, q0, [x4, #-32]
  402218:	d65f03c0 	ret
  40221c:	cb030082 	sub	x2, x4, x3
  402220:	d1004063 	sub	x3, x3, #0x10
  402224:	d1014042 	sub	x2, x2, #0x50
  402228:	ad010060 	stp	q0, q0, [x3, #32]
  40222c:	ad820060 	stp	q0, q0, [x3, #64]!
  402230:	f1010042 	subs	x2, x2, #0x40
  402234:	54ffffa8 	b.hi	402228 <memset+0xe8>  // b.pmore
  402238:	ad3e0080 	stp	q0, q0, [x4, #-64]
  40223c:	ad3f0080 	stp	q0, q0, [x4, #-32]
  402240:	d65f03c0 	ret
  402244:	d503201f 	nop
  402248:	d503201f 	nop
  40224c:	d503201f 	nop

0000000000402250 <strnlen>:
  402250:	a9be53f3 	stp	x19, x20, [sp, #-32]!
  402254:	aa0003f3 	mov	x19, x0
  402258:	aa0103f4 	mov	x20, x1
  40225c:	aa0103e2 	mov	x2, x1
  402260:	52800001 	mov	w1, #0x0                   	// #0
  402264:	f9000bfe 	str	x30, [sp, #16]
  402268:	94000256 	bl	402bc0 <memchr>
  40226c:	cb130013 	sub	x19, x0, x19
  402270:	f100001f 	cmp	x0, #0x0
  402274:	9a941260 	csel	x0, x19, x20, ne  // ne = any
  402278:	f9400bfe 	ldr	x30, [sp, #16]
  40227c:	a8c253f3 	ldp	x19, x20, [sp], #32
  402280:	d65f03c0 	ret

0000000000402284 <__init_tp>:
  402284:	a9bf7bf3 	stp	x19, x30, [sp, #-16]!
  402288:	aa0003f3 	mov	x19, x0
  40228c:	f9000000 	str	x0, [x0]
  402290:	91032000 	add	x0, x0, #0xc8
  402294:	9400027d 	bl	402c88 <__set_thread_area>
  402298:	7100001f 	cmp	w0, #0x0
  40229c:	5400030b 	b.lt	4022fc <__init_tp+0x78>  // b.tstop
  4022a0:	54000081 	b.ne	4022b0 <__init_tp+0x2c>  // b.any
  4022a4:	900000a0 	adrp	x0, 416000 <__stdout_FILE+0x10>
  4022a8:	52800021 	mov	w1, #0x1                   	// #1
  4022ac:	3904c001 	strb	w1, [x0, #304]
  4022b0:	52800040 	mov	w0, #0x2                   	// #2
  4022b4:	d2800c08 	mov	x8, #0x60                  	// #96
  4022b8:	b9002a60 	str	w0, [x19, #40]
  4022bc:	900000a0 	adrp	x0, 416000 <__stdout_FILE+0x10>
  4022c0:	9116e000 	add	x0, x0, #0x5b8
  4022c4:	d4000001 	svc	#0x0
  4022c8:	b9002260 	str	w0, [x19, #32]
  4022cc:	900000a0 	adrp	x0, 416000 <__stdout_FILE+0x10>
  4022d0:	9105a000 	add	x0, x0, #0x168
  4022d4:	f9004e60 	str	x0, [x19, #152]
  4022d8:	9101e260 	add	x0, x19, #0x78
  4022dc:	f9003e60 	str	x0, [x19, #120]
  4022e0:	900000a0 	adrp	x0, 416000 <__stdout_FILE+0x10>
  4022e4:	a900ce73 	stp	x19, x19, [x19, #8]
  4022e8:	f9409000 	ldr	x0, [x0, #288]
  4022ec:	f9000e60 	str	x0, [x19, #24]
  4022f0:	52800000 	mov	w0, #0x0                   	// #0
  4022f4:	a8c17bf3 	ldp	x19, x30, [sp], #16
  4022f8:	d65f03c0 	ret
  4022fc:	12800000 	mov	w0, #0xffffffff            	// #-1
  402300:	17fffffd 	b	4022f4 <__init_tp+0x70>

0000000000402304 <__copy_tls>:
  402304:	a9bb53f3 	stp	x19, x20, [sp, #-80]!
  402308:	900000b4 	adrp	x20, 416000 <__stdout_FILE+0x10>
  40230c:	9104c294 	add	x20, x20, #0x130
  402310:	a9015bf5 	stp	x21, x22, [sp, #16]
  402314:	aa0003f6 	mov	x22, x0
  402318:	a90263f7 	stp	x23, x24, [sp, #32]
  40231c:	a9415e95 	ldp	x21, x23, [x20, #16]
  402320:	a9036bf9 	stp	x25, x26, [sp, #48]
  402324:	f9401293 	ldr	x19, [x20, #32]
  402328:	f90023fe 	str	x30, [sp, #64]
  40232c:	d10022e0 	sub	x0, x23, #0x8
  402330:	d1000673 	sub	x19, x19, #0x1
  402334:	f9401697 	ldr	x23, [x20, #40]
  402338:	cb170c17 	sub	x23, x0, x23, lsl #3
  40233c:	928018e0 	mov	x0, #0xffffffffffffff38    	// #-200
  402340:	cb160000 	sub	x0, x0, x22
  402344:	8b1702d8 	add	x24, x22, x23
  402348:	8a000273 	and	x19, x19, x0
  40234c:	9100231a 	add	x26, x24, #0x8
  402350:	8b1302d3 	add	x19, x22, x19
  402354:	91032279 	add	x25, x19, #0xc8
  402358:	b5000175 	cbnz	x21, 402384 <__copy_tls+0x80>
  40235c:	f9401680 	ldr	x0, [x20, #40]
  402360:	a9436bf9 	ldp	x25, x26, [sp, #48]
  402364:	f8376ac0 	str	x0, [x22, x23]
  402368:	a9415bf5 	ldp	x21, x22, [sp, #16]
  40236c:	aa1303e0 	mov	x0, x19
  402370:	f94023fe 	ldr	x30, [sp, #64]
  402374:	f9006278 	str	x24, [x19, #192]
  402378:	a94263f7 	ldp	x23, x24, [sp, #32]
  40237c:	a8c553f3 	ldp	x19, x20, [sp], #80
  402380:	d65f03c0 	ret
  402384:	f94016a0 	ldr	x0, [x21, #40]
  402388:	f94006a1 	ldr	x1, [x21, #8]
  40238c:	8b000320 	add	x0, x25, x0
  402390:	f8008740 	str	x0, [x26], #8
  402394:	f9400aa2 	ldr	x2, [x21, #16]
  402398:	f94016a0 	ldr	x0, [x21, #40]
  40239c:	8b000320 	add	x0, x25, x0
  4023a0:	940001a4 	bl	402a30 <memcpy>
  4023a4:	f94002b5 	ldr	x21, [x21]
  4023a8:	17ffffec 	b	402358 <__copy_tls+0x54>

00000000004023ac <__init_tls>:
  4023ac:	900000a4 	adrp	x4, 416000 <__stdout_FILE+0x10>
  4023b0:	529caa2b 	mov	w11, #0xe551                	// #58705
  4023b4:	f9400c09 	ldr	x9, [x0, #24]
  4023b8:	52800008 	mov	w8, #0x0                   	// #0
  4023bc:	b940e486 	ldr	w6, [x4, #228]
  4023c0:	d2800001 	mov	x1, #0x0                   	// #0
  4023c4:	f9401407 	ldr	x7, [x0, #40]
  4023c8:	aa0903e2 	mov	x2, x9
  4023cc:	d2800003 	mov	x3, #0x0                   	// #0
  4023d0:	f000000a 	adrp	x10, 405000 <__sfp_handle_exceptions+0x64>
  4023d4:	72ac8e8b 	movk	w11, #0x6474, lsl #16
  4023d8:	d2a0100c 	mov	x12, #0x800000              	// #8388608
  4023dc:	f81f0ffe 	str	x30, [sp, #-16]!
  4023e0:	b5000727 	cbnz	x7, 4024c4 <__init_tls+0x118>
  4023e4:	34000048 	cbz	w8, 4023ec <__init_tls+0x40>
  4023e8:	b900e486 	str	w6, [x4, #228]
  4023ec:	900000a0 	adrp	x0, 416000 <__stdout_FILE+0x10>
  4023f0:	900000a4 	adrp	x4, 416000 <__stdout_FILE+0x10>
  4023f4:	911c4000 	add	x0, x0, #0x710
  4023f8:	9104c084 	add	x4, x4, #0x130
  4023fc:	b40001a3 	cbz	x3, 402430 <__init_tls+0x84>
  402400:	f9400862 	ldr	x2, [x3, #16]
  402404:	f9000880 	str	x0, [x4, #16]
  402408:	8b010041 	add	x1, x2, x1
  40240c:	f9000401 	str	x1, [x0, #8]
  402410:	f9401061 	ldr	x1, [x3, #32]
  402414:	f9000801 	str	x1, [x0, #16]
  402418:	f9401461 	ldr	x1, [x3, #40]
  40241c:	f9000c01 	str	x1, [x0, #24]
  402420:	f9401861 	ldr	x1, [x3, #48]
  402424:	f9001001 	str	x1, [x0, #32]
  402428:	d2800021 	mov	x1, #0x1                   	// #1
  40242c:	f9001481 	str	x1, [x4, #40]
  402430:	a9419403 	ldp	x3, x5, [x0, #24]
  402434:	f9400402 	ldr	x2, [x0, #8]
  402438:	8b020061 	add	x1, x3, x2
  40243c:	d10004a6 	sub	x6, x5, #0x1
  402440:	cb0103e1 	neg	x1, x1
  402444:	8a060021 	and	x1, x1, x6
  402448:	8b030021 	add	x1, x1, x3
  40244c:	d1004043 	sub	x3, x2, #0x10
  402450:	8a060063 	and	x3, x3, x6
  402454:	f9000c01 	str	x1, [x0, #24]
  402458:	91004063 	add	x3, x3, #0x10
  40245c:	f9001403 	str	x3, [x0, #40]
  402460:	8b030022 	add	x2, x1, x3
  402464:	f1001cbf 	cmp	x5, #0x7
  402468:	54000068 	b.hi	402474 <__init_tls+0xc8>  // b.pmore
  40246c:	d2800101 	mov	x1, #0x8                   	// #8
  402470:	f9001001 	str	x1, [x0, #32]
  402474:	f9401000 	ldr	x0, [x0, #32]
  402478:	91037c01 	add	x1, x0, #0xdf
  40247c:	8b020021 	add	x1, x1, x2
  402480:	927df021 	and	x1, x1, #0xfffffffffffffff8
  402484:	a9018081 	stp	x1, x0, [x4, #24]
  402488:	f105403f 	cmp	x1, #0x150
  40248c:	54000569 	b.ls	402538 <__init_tls+0x18c>  // b.plast
  402490:	d2801bc8 	mov	x8, #0xde                  	// #222
  402494:	d2800000 	mov	x0, #0x0                   	// #0
  402498:	d2800062 	mov	x2, #0x3                   	// #3
  40249c:	d2800443 	mov	x3, #0x22                  	// #34
  4024a0:	92800004 	mov	x4, #0xffffffffffffffff    	// #-1
  4024a4:	d2800005 	mov	x5, #0x0                   	// #0
  4024a8:	d4000001 	svc	#0x0
  4024ac:	97ffff96 	bl	402304 <__copy_tls>
  4024b0:	97ffff75 	bl	402284 <__init_tp>
  4024b4:	36f80480 	tbz	w0, #31, 402544 <__init_tls+0x198>
  4024b8:	d2800000 	mov	x0, #0x0                   	// #0
  4024bc:	3900001f 	strb	wzr, [x0]
  4024c0:	d4207d00 	brk	#0x3e8
  4024c4:	b9400045 	ldr	w5, [x2]
  4024c8:	710018bf 	cmp	w5, #0x6
  4024cc:	540000e1 	b.ne	4024e8 <__init_tls+0x13c>  // b.any
  4024d0:	f9400841 	ldr	x1, [x2, #16]
  4024d4:	cb010121 	sub	x1, x9, x1
  4024d8:	f9401005 	ldr	x5, [x0, #32]
  4024dc:	d10004e7 	sub	x7, x7, #0x1
  4024e0:	8b050042 	add	x2, x2, x5
  4024e4:	17ffffbf 	b	4023e0 <__init_tls+0x34>
  4024e8:	710008bf 	cmp	w5, #0x2
  4024ec:	54000180 	b.eq	40251c <__init_tls+0x170>  // b.none
  4024f0:	71001cbf 	cmp	w5, #0x7
  4024f4:	540001e0 	b.eq	402530 <__init_tls+0x184>  // b.none
  4024f8:	6b0b00bf 	cmp	w5, w11
  4024fc:	54fffee1 	b.ne	4024d8 <__init_tls+0x12c>  // b.any
  402500:	f9401445 	ldr	x5, [x2, #40]
  402504:	eb2640bf 	cmp	x5, w6, uxtw
  402508:	54fffe89 	b.ls	4024d8 <__init_tls+0x12c>  // b.plast
  40250c:	f16000bf 	cmp	x5, #0x800, lsl #12
  402510:	52800028 	mov	w8, #0x1                   	// #1
  402514:	9a8c90a6 	csel	x6, x5, x12, ls  // ls = plast
  402518:	17fffff0 	b	4024d8 <__init_tls+0x12c>
  40251c:	f941b145 	ldr	x5, [x10, #864]
  402520:	b4fffdc5 	cbz	x5, 4024d8 <__init_tls+0x12c>
  402524:	f9400841 	ldr	x1, [x2, #16]
  402528:	cb0100a1 	sub	x1, x5, x1
  40252c:	17ffffeb 	b	4024d8 <__init_tls+0x12c>
  402530:	aa0203e3 	mov	x3, x2
  402534:	17ffffe9 	b	4024d8 <__init_tls+0x12c>
  402538:	900000a0 	adrp	x0, 416000 <__stdout_FILE+0x10>
  40253c:	91170000 	add	x0, x0, #0x5c0
  402540:	17ffffdb 	b	4024ac <__init_tls+0x100>
  402544:	f84107fe 	ldr	x30, [sp], #16
  402548:	d65f03c0 	ret

000000000040254c <__errno_location>:
  40254c:	d53bd040 	mrs	x0, tpidr_el0
  402550:	d1029000 	sub	x0, x0, #0xa4
  402554:	d65f03c0 	ret

0000000000402558 <__strerror_l>:
  402558:	7102101f 	cmp	w0, #0x84
  40255c:	f0000002 	adrp	x2, 405000 <__sfp_handle_exceptions+0x64>
  402560:	1a9f3000 	csel	w0, w0, wzr, cc  // cc = lo, ul, last
  402564:	910da042 	add	x2, x2, #0x368
  402568:	f9401421 	ldr	x1, [x1, #40]
  40256c:	7860d842 	ldrh	w2, [x2, w0, sxtw #1]
  402570:	f0000000 	adrp	x0, 405000 <__sfp_handle_exceptions+0x64>
  402574:	9111c000 	add	x0, x0, #0x470
  402578:	8b020000 	add	x0, x0, x2
  40257c:	1400000b 	b	4025a8 <__lctrans>

0000000000402580 <strerror>:
  402580:	d53bd041 	mrs	x1, tpidr_el0
  402584:	f85d0021 	ldur	x1, [x1, #-48]
  402588:	17fffff4 	b	402558 <__strerror_l>

000000000040258c <_Exit>:
  40258c:	93407c01 	sxtw	x1, w0
  402590:	d2800bc8 	mov	x8, #0x5e                  	// #94
  402594:	aa0103e0 	mov	x0, x1
  402598:	d4000001 	svc	#0x0
  40259c:	d2800ba8 	mov	x8, #0x5d                  	// #93
  4025a0:	17fffffd 	b	402594 <_Exit+0x8>

00000000004025a4 <__lctrans_impl>:
  4025a4:	d65f03c0 	ret

00000000004025a8 <__lctrans>:
  4025a8:	17ffffff 	b	4025a4 <__lctrans_impl>

00000000004025ac <__lctrans_cur>:
  4025ac:	d53bd041 	mrs	x1, tpidr_el0
  4025b0:	f85d0021 	ldur	x1, [x1, #-48]
  4025b4:	f9401421 	ldr	x1, [x1, #40]
  4025b8:	17fffffb 	b	4025a4 <__lctrans_impl>

00000000004025bc <__fpclassifyl>:
  4025bc:	d10043ff 	sub	sp, sp, #0x10
  4025c0:	3d8003e0 	str	q0, [sp]
  4025c4:	a94003e1 	ldp	x1, x0, [sp]
  4025c8:	d370f802 	ubfx	x2, x0, #48, #15
  4025cc:	9240bc00 	and	x0, x0, #0xffffffffffff
  4025d0:	350000e2 	cbnz	w2, 4025ec <__fpclassifyl+0x30>
  4025d4:	aa010000 	orr	x0, x0, x1
  4025d8:	f100001f 	cmp	x0, #0x0
  4025dc:	1a9f07e0 	cset	w0, ne  // ne = any
  4025e0:	11000800 	add	w0, w0, #0x2
  4025e4:	910043ff 	add	sp, sp, #0x10
  4025e8:	d65f03c0 	ret
  4025ec:	528fffe3 	mov	w3, #0x7fff                	// #32767
  4025f0:	6b03005f 	cmp	w2, w3
  4025f4:	540000a1 	b.ne	402608 <__fpclassifyl+0x4c>  // b.any
  4025f8:	aa010000 	orr	x0, x0, x1
  4025fc:	f100001f 	cmp	x0, #0x0
  402600:	1a9f17e0 	cset	w0, eq  // eq = none
  402604:	17fffff8 	b	4025e4 <__fpclassifyl+0x28>
  402608:	52800080 	mov	w0, #0x4                   	// #4
  40260c:	17fffff6 	b	4025e4 <__fpclassifyl+0x28>

0000000000402610 <__signbitl>:
  402610:	d10043ff 	sub	sp, sp, #0x10
  402614:	3d8003e0 	str	q0, [sp]
  402618:	f94007e0 	ldr	x0, [sp, #8]
  40261c:	910043ff 	add	sp, sp, #0x10
  402620:	d370fc00 	lsr	x0, x0, #48
  402624:	530f7c00 	lsr	w0, w0, #15
  402628:	d65f03c0 	ret

000000000040262c <frexpl>:
  40262c:	a9be7bf3 	stp	x19, x30, [sp, #-32]!
  402630:	aa0003f3 	mov	x19, x0
  402634:	3d8007e0 	str	q0, [sp, #16]
  402638:	f9400fe1 	ldr	x1, [sp, #24]
  40263c:	a9410fe2 	ldp	x2, x3, [sp, #16]
  402640:	d370fc20 	lsr	x0, x1, #48
  402644:	d370f821 	ubfx	x1, x1, #48, #15
  402648:	35000281 	cbnz	w1, 402698 <frexpl+0x6c>
  40264c:	6f00e401 	movi	v1.2d, #0x0
  402650:	94000530 	bl	403b10 <__eqtf2>
  402654:	340001e0 	cbz	w0, 402690 <frexpl+0x64>
  402658:	f0000000 	adrp	x0, 405000 <__sfp_handle_exceptions+0x64>
  40265c:	912e4000 	add	x0, x0, #0xb90
  402660:	3dc007e0 	ldr	q0, [sp, #16]
  402664:	3dc00001 	ldr	q1, [x0]
  402668:	9400056a 	bl	403c10 <__multf3>
  40266c:	aa1303e0 	mov	x0, x19
  402670:	97ffffef 	bl	40262c <frexpl>
  402674:	b9400260 	ldr	w0, [x19]
  402678:	3d8007e0 	str	q0, [sp, #16]
  40267c:	5101e000 	sub	w0, w0, #0x78
  402680:	b9000260 	str	w0, [x19]
  402684:	3dc007e0 	ldr	q0, [sp, #16]
  402688:	a8c27bf3 	ldp	x19, x30, [sp], #32
  40268c:	d65f03c0 	ret
  402690:	b900027f 	str	wzr, [x19]
  402694:	17fffffc 	b	402684 <frexpl+0x58>
  402698:	528fffe4 	mov	w4, #0x7fff                	// #32767
  40269c:	6b04003f 	cmp	w1, w4
  4026a0:	54ffff20 	b.eq	402684 <frexpl+0x58>  // b.none
  4026a4:	12114000 	and	w0, w0, #0xffff8000
  4026a8:	1287ffa4 	mov	w4, #0xffffc002            	// #-16382
  4026ac:	321f3000 	orr	w0, w0, #0x3ffe
  4026b0:	0b040021 	add	w1, w1, w4
  4026b4:	b9000261 	str	w1, [x19]
  4026b8:	b3503c03 	bfi	x3, x0, #48, #16
  4026bc:	a9010fe2 	stp	x2, x3, [sp, #16]
  4026c0:	17fffff1 	b	402684 <frexpl+0x58>

00000000004026c4 <wctomb>:
  4026c4:	b40000c0 	cbz	x0, 4026dc <wctomb+0x18>
  4026c8:	f81f0ffe 	str	x30, [sp, #-16]!
  4026cc:	d2800002 	mov	x2, #0x0                   	// #0
  4026d0:	94000184 	bl	402ce0 <wcrtomb>
  4026d4:	f84107fe 	ldr	x30, [sp], #16
  4026d8:	d65f03c0 	ret
  4026dc:	52800000 	mov	w0, #0x0                   	// #0
  4026e0:	d65f03c0 	ret

00000000004026e4 <__lockfile>:
  4026e4:	b9408c02 	ldr	w2, [x0, #140]
  4026e8:	d53bd041 	mrs	x1, tpidr_el0
  4026ec:	b8558021 	ldur	w1, [x1, #-168]
  4026f0:	12017842 	and	w2, w2, #0xbfffffff
  4026f4:	6b01005f 	cmp	w2, w1
  4026f8:	540004a0 	b.eq	40278c <__lockfile+0xa8>  // b.none
  4026fc:	91023004 	add	x4, x0, #0x8c
  402700:	885ffc80 	ldaxr	w0, [x4]
  402704:	340001a0 	cbz	w0, 402738 <__lockfile+0x54>
  402708:	d5033bbf 	dmb	ish
  40270c:	32020025 	orr	w5, w1, #0x40000000
  402710:	885ffc80 	ldaxr	w0, [x4]
  402714:	34000360 	cbz	w0, 402780 <__lockfile+0x9c>
  402718:	d5033bbf 	dmb	ish
  40271c:	32020002 	orr	w2, w0, #0x40000000
  402720:	37f00180 	tbnz	w0, #30, 402750 <__lockfile+0x6c>
  402724:	885ffc81 	ldaxr	w1, [x4]
  402728:	6b00003f 	cmp	w1, w0
  40272c:	540000e0 	b.eq	402748 <__lockfile+0x64>  // b.none
  402730:	d5033bbf 	dmb	ish
  402734:	17fffff7 	b	402710 <__lockfile+0x2c>
  402738:	8800fc81 	stlxr	w0, w1, [x4]
  40273c:	35fffe20 	cbnz	w0, 402700 <__lockfile+0x1c>
  402740:	52800020 	mov	w0, #0x1                   	// #1
  402744:	d65f03c0 	ret
  402748:	8801fc82 	stlxr	w1, w2, [x4]
  40274c:	35fffec1 	cbnz	w1, 402724 <__lockfile+0x40>
  402750:	aa0403e0 	mov	x0, x4
  402754:	93407c42 	sxtw	x2, w2
  402758:	d2800c48 	mov	x8, #0x62                  	// #98
  40275c:	d2801001 	mov	x1, #0x80                  	// #128
  402760:	d2800003 	mov	x3, #0x0                   	// #0
  402764:	d4000001 	svc	#0x0
  402768:	b100981f 	cmn	x0, #0x26
  40276c:	54fffd21 	b.ne	402710 <__lockfile+0x2c>  // b.any
  402770:	aa0403e0 	mov	x0, x4
  402774:	d2800001 	mov	x1, #0x0                   	// #0
  402778:	d4000001 	svc	#0x0
  40277c:	17ffffe5 	b	402710 <__lockfile+0x2c>
  402780:	8800fc85 	stlxr	w0, w5, [x4]
  402784:	35fffc60 	cbnz	w0, 402710 <__lockfile+0x2c>
  402788:	17ffffee 	b	402740 <__lockfile+0x5c>
  40278c:	52800000 	mov	w0, #0x0                   	// #0
  402790:	17ffffed 	b	402744 <__lockfile+0x60>

0000000000402794 <__unlockfile>:
  402794:	91023003 	add	x3, x0, #0x8c
  402798:	52800000 	mov	w0, #0x0                   	// #0
  40279c:	885ffc61 	ldaxr	w1, [x3]
  4027a0:	8802fc60 	stlxr	w2, w0, [x3]
  4027a4:	35ffffc2 	cbnz	w2, 40279c <__unlockfile+0x8>
  4027a8:	36f00161 	tbz	w1, #30, 4027d4 <__unlockfile+0x40>
  4027ac:	aa0303e0 	mov	x0, x3
  4027b0:	d2800c48 	mov	x8, #0x62                  	// #98
  4027b4:	d2801021 	mov	x1, #0x81                  	// #129
  4027b8:	d2800022 	mov	x2, #0x1                   	// #1
  4027bc:	d4000001 	svc	#0x0
  4027c0:	b100981f 	cmn	x0, #0x26
  4027c4:	54000081 	b.ne	4027d4 <__unlockfile+0x40>  // b.any
  4027c8:	aa0303e0 	mov	x0, x3
  4027cc:	aa0203e1 	mov	x1, x2
  4027d0:	d4000001 	svc	#0x0
  4027d4:	d65f03c0 	ret

00000000004027d8 <__aio_close>:
  4027d8:	d65f03c0 	ret

00000000004027dc <__stdio_close>:
  4027dc:	b9407800 	ldr	w0, [x0, #120]
  4027e0:	f81f0ffe 	str	x30, [sp, #-16]!
  4027e4:	97fffffd 	bl	4027d8 <__aio_close>
  4027e8:	93407c00 	sxtw	x0, w0
  4027ec:	d2800728 	mov	x8, #0x39                  	// #57
  4027f0:	d4000001 	svc	#0x0
  4027f4:	9400012f 	bl	402cb0 <__syscall_ret>
  4027f8:	f84107fe 	ldr	x30, [sp], #16
  4027fc:	d65f03c0 	ret

0000000000402800 <__stdio_seek>:
  402800:	b9407800 	ldr	w0, [x0, #120]
  402804:	14000124 	b	402c94 <__lseek>

0000000000402808 <__stdout_write>:
  402808:	aa0003e3 	mov	x3, x0
  40280c:	90000000 	adrp	x0, 402000 <vfprintf+0x14>
  402810:	913ab000 	add	x0, x0, #0xeac
  402814:	f81e0ffe 	str	x30, [sp, #-32]!
  402818:	aa0103e4 	mov	x4, x1
  40281c:	aa0203e5 	mov	x5, x2
  402820:	f9002460 	str	x0, [x3, #72]
  402824:	b9400060 	ldr	w0, [x3]
  402828:	37300120 	tbnz	w0, #6, 40284c <__stdout_write+0x44>
  40282c:	b9807860 	ldrsw	x0, [x3, #120]
  402830:	910063e2 	add	x2, sp, #0x18
  402834:	d28003a8 	mov	x8, #0x1d                  	// #29
  402838:	d28a8261 	mov	x1, #0x5413                	// #21523
  40283c:	d4000001 	svc	#0x0
  402840:	b4000060 	cbz	x0, 40284c <__stdout_write+0x44>
  402844:	12800000 	mov	w0, #0xffffffff            	// #-1
  402848:	b9009060 	str	w0, [x3, #144]
  40284c:	aa0503e2 	mov	x2, x5
  402850:	aa0403e1 	mov	x1, x4
  402854:	aa0303e0 	mov	x0, x3
  402858:	94000195 	bl	402eac <__stdio_write>
  40285c:	f84207fe 	ldr	x30, [sp], #32
  402860:	d65f03c0 	ret

0000000000402864 <__towrite>:
  402864:	b9408802 	ldr	w2, [x0, #136]
  402868:	51000441 	sub	w1, w2, #0x1
  40286c:	2a020021 	orr	w1, w1, w2
  402870:	b9008801 	str	w1, [x0, #136]
  402874:	b9400001 	ldr	w1, [x0]
  402878:	361800a1 	tbz	w1, #3, 40288c <__towrite+0x28>
  40287c:	321b0021 	orr	w1, w1, #0x20
  402880:	b9000001 	str	w1, [x0]
  402884:	12800000 	mov	w0, #0xffffffff            	// #-1
  402888:	d65f03c0 	ret
  40288c:	a9458801 	ldp	x1, x2, [x0, #88]
  402890:	a900fc1f 	stp	xzr, xzr, [x0, #8]
  402894:	f9001401 	str	x1, [x0, #40]
  402898:	f9001c01 	str	x1, [x0, #56]
  40289c:	8b020021 	add	x1, x1, x2
  4028a0:	f9001001 	str	x1, [x0, #32]
  4028a4:	52800000 	mov	w0, #0x0                   	// #0
  4028a8:	17fffff8 	b	402888 <__towrite+0x24>

00000000004028ac <__towrite_needs_stdio_exit>:
  4028ac:	1400016e 	b	402e64 <__stdio_exit>

00000000004028b0 <__fwritex>:
  4028b0:	a9bd53f3 	stp	x19, x20, [sp, #-48]!
  4028b4:	aa0203f3 	mov	x19, x2
  4028b8:	a9015bf5 	stp	x21, x22, [sp, #16]
  4028bc:	aa0003f6 	mov	x22, x0
  4028c0:	aa0103f5 	mov	x21, x1
  4028c4:	f9401040 	ldr	x0, [x2, #32]
  4028c8:	f90013fe 	str	x30, [sp, #32]
  4028cc:	b40001c0 	cbz	x0, 402904 <__fwritex+0x54>
  4028d0:	a9420660 	ldp	x0, x1, [x19, #32]
  4028d4:	cb010000 	sub	x0, x0, x1
  4028d8:	eb15001f 	cmp	x0, x21
  4028dc:	540001e2 	b.cs	402918 <__fwritex+0x68>  // b.hs, b.nlast
  4028e0:	aa1503e2 	mov	x2, x21
  4028e4:	aa1603e1 	mov	x1, x22
  4028e8:	aa1303e0 	mov	x0, x19
  4028ec:	a9415bf5 	ldp	x21, x22, [sp, #16]
  4028f0:	f94013fe 	ldr	x30, [sp, #32]
  4028f4:	f9402663 	ldr	x3, [x19, #72]
  4028f8:	a8c353f3 	ldp	x19, x20, [sp], #48
  4028fc:	aa0303f0 	mov	x16, x3
  402900:	d61f0200 	br	x16
  402904:	aa0203e0 	mov	x0, x2
  402908:	97ffffd7 	bl	402864 <__towrite>
  40290c:	34fffe20 	cbz	w0, 4028d0 <__fwritex+0x20>
  402910:	d2800000 	mov	x0, #0x0                   	// #0
  402914:	1400001a 	b	40297c <__fwritex+0xcc>
  402918:	b9409260 	ldr	w0, [x19, #144]
  40291c:	aa1503f4 	mov	x20, x21
  402920:	37f801e0 	tbnz	w0, #31, 40295c <__fwritex+0xac>
  402924:	b4000394 	cbz	x20, 402994 <__fwritex+0xe4>
  402928:	d1000680 	sub	x0, x20, #0x1
  40292c:	38606ac1 	ldrb	w1, [x22, x0]
  402930:	7100283f 	cmp	w1, #0xa
  402934:	540002c1 	b.ne	40298c <__fwritex+0xdc>  // b.any
  402938:	f9402663 	ldr	x3, [x19, #72]
  40293c:	aa1403e2 	mov	x2, x20
  402940:	aa1603e1 	mov	x1, x22
  402944:	aa1303e0 	mov	x0, x19
  402948:	d63f0060 	blr	x3
  40294c:	eb00029f 	cmp	x20, x0
  402950:	54000168 	b.hi	40297c <__fwritex+0xcc>  // b.pmore
  402954:	8b1402d6 	add	x22, x22, x20
  402958:	cb1402b4 	sub	x20, x21, x20
  40295c:	f9401660 	ldr	x0, [x19, #40]
  402960:	aa1403e2 	mov	x2, x20
  402964:	aa1603e1 	mov	x1, x22
  402968:	94000032 	bl	402a30 <memcpy>
  40296c:	f9401662 	ldr	x2, [x19, #40]
  402970:	aa1503e0 	mov	x0, x21
  402974:	8b140054 	add	x20, x2, x20
  402978:	f9001674 	str	x20, [x19, #40]
  40297c:	a9415bf5 	ldp	x21, x22, [sp, #16]
  402980:	f94013fe 	ldr	x30, [sp, #32]
  402984:	a8c353f3 	ldp	x19, x20, [sp], #48
  402988:	d65f03c0 	ret
  40298c:	aa0003f4 	mov	x20, x0
  402990:	17ffffe5 	b	402924 <__fwritex+0x74>
  402994:	aa1503f4 	mov	x20, x21
  402998:	17fffff1 	b	40295c <__fwritex+0xac>

000000000040299c <fwrite>:
  40299c:	a9bc53f3 	stp	x19, x20, [sp, #-64]!
  4029a0:	f100003f 	cmp	x1, #0x0
  4029a4:	aa0303f4 	mov	x20, x3
  4029a8:	a9015bf5 	stp	x21, x22, [sp, #16]
  4029ac:	aa0003f6 	mov	x22, x0
  4029b0:	b9408c60 	ldr	w0, [x3, #140]
  4029b4:	a90263f7 	stp	x23, x24, [sp, #32]
  4029b8:	aa0103f5 	mov	x21, x1
  4029bc:	9b027c38 	mul	x24, x1, x2
  4029c0:	f9001bfe 	str	x30, [sp, #48]
  4029c4:	9a9f1053 	csel	x19, x2, xzr, ne  // ne = any
  4029c8:	37f802a0 	tbnz	w0, #31, 402a1c <fwrite+0x80>
  4029cc:	aa0303e0 	mov	x0, x3
  4029d0:	97ffff45 	bl	4026e4 <__lockfile>
  4029d4:	2a0003f7 	mov	w23, w0
  4029d8:	aa1603e0 	mov	x0, x22
  4029dc:	aa1403e2 	mov	x2, x20
  4029e0:	aa1803e1 	mov	x1, x24
  4029e4:	97ffffb3 	bl	4028b0 <__fwritex>
  4029e8:	aa0003f6 	mov	x22, x0
  4029ec:	34000077 	cbz	w23, 4029f8 <fwrite+0x5c>
  4029f0:	aa1403e0 	mov	x0, x20
  4029f4:	97ffff68 	bl	402794 <__unlockfile>
  4029f8:	eb16031f 	cmp	x24, x22
  4029fc:	54000040 	b.eq	402a04 <fwrite+0x68>  // b.none
  402a00:	9ad50ad3 	udiv	x19, x22, x21
  402a04:	aa1303e0 	mov	x0, x19
  402a08:	a9415bf5 	ldp	x21, x22, [sp, #16]
  402a0c:	a94263f7 	ldp	x23, x24, [sp, #32]
  402a10:	f9401bfe 	ldr	x30, [sp, #48]
  402a14:	a8c453f3 	ldp	x19, x20, [sp], #64
  402a18:	d65f03c0 	ret
  402a1c:	52800017 	mov	w23, #0x0                   	// #0
  402a20:	17ffffee 	b	4029d8 <fwrite+0x3c>
  402a24:	d503201f 	nop
  402a28:	d503201f 	nop
  402a2c:	d503201f 	nop

0000000000402a30 <memcpy>:
  402a30:	8b020024 	add	x4, x1, x2
  402a34:	8b020005 	add	x5, x0, x2
  402a38:	f102005f 	cmp	x2, #0x80
  402a3c:	540007a8 	b.hi	402b30 <memcpy+0x100>  // b.pmore
  402a40:	f100805f 	cmp	x2, #0x20
  402a44:	540003e8 	b.hi	402ac0 <memcpy+0x90>  // b.pmore
  402a48:	f100405f 	cmp	x2, #0x10
  402a4c:	540000c3 	b.cc	402a64 <memcpy+0x34>  // b.lo, b.ul, b.last
  402a50:	a9401c26 	ldp	x6, x7, [x1]
  402a54:	a97f348c 	ldp	x12, x13, [x4, #-16]
  402a58:	a9001c06 	stp	x6, x7, [x0]
  402a5c:	a93f34ac 	stp	x12, x13, [x5, #-16]
  402a60:	d65f03c0 	ret
  402a64:	361800e2 	tbz	w2, #3, 402a80 <memcpy+0x50>
  402a68:	f9400026 	ldr	x6, [x1]
  402a6c:	f85f8087 	ldur	x7, [x4, #-8]
  402a70:	f9000006 	str	x6, [x0]
  402a74:	f81f80a7 	stur	x7, [x5, #-8]
  402a78:	d65f03c0 	ret
  402a7c:	d503201f 	nop
  402a80:	361000c2 	tbz	w2, #2, 402a98 <memcpy+0x68>
  402a84:	b9400026 	ldr	w6, [x1]
  402a88:	b85fc088 	ldur	w8, [x4, #-4]
  402a8c:	b9000006 	str	w6, [x0]
  402a90:	b81fc0a8 	stur	w8, [x5, #-4]
  402a94:	d65f03c0 	ret
  402a98:	b4000102 	cbz	x2, 402ab8 <memcpy+0x88>
  402a9c:	d341fc4e 	lsr	x14, x2, #1
  402aa0:	39400026 	ldrb	w6, [x1]
  402aa4:	385ff08a 	ldurb	w10, [x4, #-1]
  402aa8:	386e6828 	ldrb	w8, [x1, x14]
  402aac:	39000006 	strb	w6, [x0]
  402ab0:	382e6808 	strb	w8, [x0, x14]
  402ab4:	381ff0aa 	sturb	w10, [x5, #-1]
  402ab8:	d65f03c0 	ret
  402abc:	d503201f 	nop
  402ac0:	a9401c26 	ldp	x6, x7, [x1]
  402ac4:	a9412428 	ldp	x8, x9, [x1, #16]
  402ac8:	a97e2c8a 	ldp	x10, x11, [x4, #-32]
  402acc:	a97f348c 	ldp	x12, x13, [x4, #-16]
  402ad0:	f101005f 	cmp	x2, #0x40
  402ad4:	540000e8 	b.hi	402af0 <memcpy+0xc0>  // b.pmore
  402ad8:	a9001c06 	stp	x6, x7, [x0]
  402adc:	a9012408 	stp	x8, x9, [x0, #16]
  402ae0:	a93e2caa 	stp	x10, x11, [x5, #-32]
  402ae4:	a93f34ac 	stp	x12, x13, [x5, #-16]
  402ae8:	d65f03c0 	ret
  402aec:	d503201f 	nop
  402af0:	a9423c2e 	ldp	x14, x15, [x1, #32]
  402af4:	a9434430 	ldp	x16, x17, [x1, #48]
  402af8:	f101805f 	cmp	x2, #0x60
  402afc:	540000a9 	b.ls	402b10 <memcpy+0xe0>  // b.plast
  402b00:	a97c0c82 	ldp	x2, x3, [x4, #-64]
  402b04:	a97d1081 	ldp	x1, x4, [x4, #-48]
  402b08:	a93c0ca2 	stp	x2, x3, [x5, #-64]
  402b0c:	a93d10a1 	stp	x1, x4, [x5, #-48]
  402b10:	a9001c06 	stp	x6, x7, [x0]
  402b14:	a9012408 	stp	x8, x9, [x0, #16]
  402b18:	a9023c0e 	stp	x14, x15, [x0, #32]
  402b1c:	a9034410 	stp	x16, x17, [x0, #48]
  402b20:	a93e2caa 	stp	x10, x11, [x5, #-32]
  402b24:	a93f34ac 	stp	x12, x13, [x5, #-16]
  402b28:	d65f03c0 	ret
  402b2c:	d503201f 	nop
  402b30:	a940342c 	ldp	x12, x13, [x1]
  402b34:	92400c0e 	and	x14, x0, #0xf
  402b38:	927cec03 	and	x3, x0, #0xfffffffffffffff0
  402b3c:	cb0e0021 	sub	x1, x1, x14
  402b40:	8b0e0042 	add	x2, x2, x14
  402b44:	a9411c26 	ldp	x6, x7, [x1, #16]
  402b48:	a900340c 	stp	x12, x13, [x0]
  402b4c:	a9422428 	ldp	x8, x9, [x1, #32]
  402b50:	a9432c2a 	ldp	x10, x11, [x1, #48]
  402b54:	a9c4342c 	ldp	x12, x13, [x1, #64]!
  402b58:	f1024042 	subs	x2, x2, #0x90
  402b5c:	54000169 	b.ls	402b88 <memcpy+0x158>  // b.plast
  402b60:	a9011c66 	stp	x6, x7, [x3, #16]
  402b64:	a9411c26 	ldp	x6, x7, [x1, #16]
  402b68:	a9022468 	stp	x8, x9, [x3, #32]
  402b6c:	a9422428 	ldp	x8, x9, [x1, #32]
  402b70:	a9032c6a 	stp	x10, x11, [x3, #48]
  402b74:	a9432c2a 	ldp	x10, x11, [x1, #48]
  402b78:	a984346c 	stp	x12, x13, [x3, #64]!
  402b7c:	a9c4342c 	ldp	x12, x13, [x1, #64]!
  402b80:	f1010042 	subs	x2, x2, #0x40
  402b84:	54fffee8 	b.hi	402b60 <memcpy+0x130>  // b.pmore
  402b88:	a97c3c8e 	ldp	x14, x15, [x4, #-64]
  402b8c:	a9011c66 	stp	x6, x7, [x3, #16]
  402b90:	a97d1c86 	ldp	x6, x7, [x4, #-48]
  402b94:	a9022468 	stp	x8, x9, [x3, #32]
  402b98:	a97e2488 	ldp	x8, x9, [x4, #-32]
  402b9c:	a9032c6a 	stp	x10, x11, [x3, #48]
  402ba0:	a97f2c8a 	ldp	x10, x11, [x4, #-16]
  402ba4:	a904346c 	stp	x12, x13, [x3, #64]
  402ba8:	a93c3cae 	stp	x14, x15, [x5, #-64]
  402bac:	a93d1ca6 	stp	x6, x7, [x5, #-48]
  402bb0:	a93e24a8 	stp	x8, x9, [x5, #-32]
  402bb4:	a93f2caa 	stp	x10, x11, [x5, #-16]
  402bb8:	d65f03c0 	ret
  402bbc:	d503201f 	nop

0000000000402bc0 <memchr>:
  402bc0:	aa0003e3 	mov	x3, x0
  402bc4:	12001c21 	and	w1, w1, #0xff
  402bc8:	f240081f 	tst	x0, #0x7
  402bcc:	54000120 	b.eq	402bf0 <memchr+0x30>  // b.none
  402bd0:	b4000522 	cbz	x2, 402c74 <memchr+0xb4>
  402bd4:	39400060 	ldrb	w0, [x3]
  402bd8:	6b01001f 	cmp	w0, w1
  402bdc:	54000380 	b.eq	402c4c <memchr+0x8c>  // b.none
  402be0:	91000463 	add	x3, x3, #0x1
  402be4:	d1000442 	sub	x2, x2, #0x1
  402be8:	f240087f 	tst	x3, #0x7
  402bec:	54ffff21 	b.ne	402bd0 <memchr+0x10>  // b.any
  402bf0:	d2800000 	mov	x0, #0x0                   	// #0
  402bf4:	b40003e2 	cbz	x2, 402c70 <memchr+0xb0>
  402bf8:	39400060 	ldrb	w0, [x3]
  402bfc:	6b01001f 	cmp	w0, w1
  402c00:	54000260 	b.eq	402c4c <memchr+0x8c>  // b.none
  402c04:	93407c25 	sxtw	x5, w1
  402c08:	b200c3e0 	mov	x0, #0x101010101010101     	// #72340172838076673
  402c0c:	b207dbe6 	mov	x6, #0xfefefefefefefefe    	// #-72340172838076674
  402c10:	f29fdfe6 	movk	x6, #0xfeff
  402c14:	9b007ca5 	mul	x5, x5, x0
  402c18:	f1001c5f 	cmp	x2, #0x7
  402c1c:	540000c8 	b.hi	402c34 <memchr+0x74>  // b.pmore
  402c20:	1400000b 	b	402c4c <memchr+0x8c>
  402c24:	d1002042 	sub	x2, x2, #0x8
  402c28:	91002063 	add	x3, x3, #0x8
  402c2c:	f1001c5f 	cmp	x2, #0x7
  402c30:	54000269 	b.ls	402c7c <memchr+0xbc>  // b.plast
  402c34:	f9400060 	ldr	x0, [x3]
  402c38:	ca0000a0 	eor	x0, x5, x0
  402c3c:	8b060004 	add	x4, x0, x6
  402c40:	8a200080 	bic	x0, x4, x0
  402c44:	f201c01f 	tst	x0, #0x8080808080808080
  402c48:	54fffee0 	b.eq	402c24 <memchr+0x64>  // b.none
  402c4c:	aa0303e0 	mov	x0, x3
  402c50:	8b020063 	add	x3, x3, x2
  402c54:	14000004 	b	402c64 <memchr+0xa4>
  402c58:	91000400 	add	x0, x0, #0x1
  402c5c:	eb03001f 	cmp	x0, x3
  402c60:	540000a0 	b.eq	402c74 <memchr+0xb4>  // b.none
  402c64:	39400002 	ldrb	w2, [x0]
  402c68:	6b01005f 	cmp	w2, w1
  402c6c:	54ffff61 	b.ne	402c58 <memchr+0x98>  // b.any
  402c70:	d65f03c0 	ret
  402c74:	d2800000 	mov	x0, #0x0                   	// #0
  402c78:	d65f03c0 	ret
  402c7c:	d2800000 	mov	x0, #0x0                   	// #0
  402c80:	b5fffe62 	cbnz	x2, 402c4c <memchr+0x8c>
  402c84:	d65f03c0 	ret

0000000000402c88 <__set_thread_area>:
  402c88:	d51bd040 	msr	tpidr_el0, x0
  402c8c:	52800000 	mov	w0, #0x0                   	// #0
  402c90:	d65f03c0 	ret

0000000000402c94 <__lseek>:
  402c94:	d28007c8 	mov	x8, #0x3e                  	// #62
  402c98:	93407c00 	sxtw	x0, w0
  402c9c:	93407c42 	sxtw	x2, w2
  402ca0:	d4000001 	svc	#0x0
  402ca4:	14000003 	b	402cb0 <__syscall_ret>
  402ca8:	d503201f 	nop
  402cac:	d503201f 	nop

0000000000402cb0 <__syscall_ret>:
  402cb0:	a9bf7bf3 	stp	x19, x30, [sp, #-16]!
  402cb4:	aa0003f3 	mov	x19, x0
  402cb8:	b140041f 	cmn	x0, #0x1, lsl #12
  402cbc:	54000068 	b.hi	402cc8 <__syscall_ret+0x18>  // b.pmore
  402cc0:	a8c17bf3 	ldp	x19, x30, [sp], #16
  402cc4:	d65f03c0 	ret
  402cc8:	97fffe21 	bl	40254c <__errno_location>
  402ccc:	aa0003e1 	mov	x1, x0
  402cd0:	4b1303f3 	neg	w19, w19
  402cd4:	92800000 	mov	x0, #0xffffffffffffffff    	// #-1
  402cd8:	b9000033 	str	w19, [x1]
  402cdc:	17fffff9 	b	402cc0 <__syscall_ret+0x10>

0000000000402ce0 <wcrtomb>:
  402ce0:	b4000080 	cbz	x0, 402cf0 <wcrtomb+0x10>
  402ce4:	7101fc3f 	cmp	w1, #0x7f
  402ce8:	54000108 	b.hi	402d08 <wcrtomb+0x28>  // b.pmore
  402cec:	39000001 	strb	w1, [x0]
  402cf0:	d2800020 	mov	x0, #0x1                   	// #1
  402cf4:	d65f03c0 	ret
  402cf8:	39000001 	strb	w1, [x0]
  402cfc:	d2800020 	mov	x0, #0x1                   	// #1
  402d00:	f84107fe 	ldr	x30, [sp], #16
  402d04:	d65f03c0 	ret
  402d08:	d53bd042 	mrs	x2, tpidr_el0
  402d0c:	f85d0042 	ldur	x2, [x2, #-48]
  402d10:	f81f0ffe 	str	x30, [sp, #-16]!
  402d14:	f9400042 	ldr	x2, [x2]
  402d18:	b5000142 	cbnz	x2, 402d40 <wcrtomb+0x60>
  402d1c:	129befe2 	mov	w2, #0xffff2080            	// #-57216
  402d20:	0b020022 	add	w2, w1, w2
  402d24:	7101fc5f 	cmp	w2, #0x7f
  402d28:	54fffe89 	b.ls	402cf8 <wcrtomb+0x18>  // b.plast
  402d2c:	97fffe08 	bl	40254c <__errno_location>
  402d30:	52800a81 	mov	w1, #0x54                  	// #84
  402d34:	b9000001 	str	w1, [x0]
  402d38:	92800000 	mov	x0, #0xffffffffffffffff    	// #-1
  402d3c:	17fffff1 	b	402d00 <wcrtomb+0x20>
  402d40:	711ffc3f 	cmp	w1, #0x7ff
  402d44:	54000128 	b.hi	402d68 <wcrtomb+0x88>  // b.pmore
  402d48:	53067c22 	lsr	w2, w1, #6
  402d4c:	12001421 	and	w1, w1, #0x3f
  402d50:	321a6442 	orr	w2, w2, #0xffffffc0
  402d54:	32196021 	orr	w1, w1, #0xffffff80
  402d58:	39000002 	strb	w2, [x0]
  402d5c:	39000401 	strb	w1, [x0, #1]
  402d60:	d2800040 	mov	x0, #0x2                   	// #2
  402d64:	17ffffe7 	b	402d00 <wcrtomb+0x20>
  402d68:	51403823 	sub	w3, w1, #0xe, lsl #12
  402d6c:	5283ffe2 	mov	w2, #0x1fff                	// #8191
  402d70:	6b02007f 	cmp	w3, w2
  402d74:	529affe2 	mov	w2, #0xd7ff                	// #55295
  402d78:	7a428020 	ccmp	w1, w2, #0x0, hi  // hi = pmore
  402d7c:	54000188 	b.hi	402dac <wcrtomb+0xcc>  // b.pmore
  402d80:	530c7c22 	lsr	w2, w1, #12
  402d84:	321b6842 	orr	w2, w2, #0xffffffe0
  402d88:	39000002 	strb	w2, [x0]
  402d8c:	d3462c22 	ubfx	x2, x1, #6, #6
  402d90:	12001421 	and	w1, w1, #0x3f
  402d94:	32196042 	orr	w2, w2, #0xffffff80
  402d98:	32196021 	orr	w1, w1, #0xffffff80
  402d9c:	39000402 	strb	w2, [x0, #1]
  402da0:	39000801 	strb	w1, [x0, #2]
  402da4:	d2800060 	mov	x0, #0x3                   	// #3
  402da8:	17ffffd6 	b	402d00 <wcrtomb+0x20>
  402dac:	51404023 	sub	w3, w1, #0x10, lsl #12
  402db0:	12bffe02 	mov	w2, #0xfffff               	// #1048575
  402db4:	6b02007f 	cmp	w3, w2
  402db8:	54fffba8 	b.hi	402d2c <wcrtomb+0x4c>  // b.pmore
  402dbc:	53127c22 	lsr	w2, w1, #18
  402dc0:	321c6c42 	orr	w2, w2, #0xfffffff0
  402dc4:	39000002 	strb	w2, [x0]
  402dc8:	d34c4422 	ubfx	x2, x1, #12, #6
  402dcc:	32196042 	orr	w2, w2, #0xffffff80
  402dd0:	39000402 	strb	w2, [x0, #1]
  402dd4:	d3462c22 	ubfx	x2, x1, #6, #6
  402dd8:	12001421 	and	w1, w1, #0x3f
  402ddc:	32196042 	orr	w2, w2, #0xffffff80
  402de0:	32196021 	orr	w1, w1, #0xffffff80
  402de4:	39000802 	strb	w2, [x0, #2]
  402de8:	39000c01 	strb	w1, [x0, #3]
  402dec:	d2800080 	mov	x0, #0x4                   	// #4
  402df0:	17ffffc4 	b	402d00 <wcrtomb+0x20>

0000000000402df4 <close_file>:
  402df4:	b4000360 	cbz	x0, 402e60 <close_file+0x6c>
  402df8:	a9bf7bf3 	stp	x19, x30, [sp, #-16]!
  402dfc:	aa0003f3 	mov	x19, x0
  402e00:	b9408c01 	ldr	w1, [x0, #140]
  402e04:	37f80041 	tbnz	w1, #31, 402e0c <close_file+0x18>
  402e08:	97fffe37 	bl	4026e4 <__lockfile>
  402e0c:	f9401661 	ldr	x1, [x19, #40]
  402e10:	f9401e60 	ldr	x0, [x19, #56]
  402e14:	eb00003f 	cmp	x1, x0
  402e18:	540000c0 	b.eq	402e30 <close_file+0x3c>  // b.none
  402e1c:	f9402663 	ldr	x3, [x19, #72]
  402e20:	aa1303e0 	mov	x0, x19
  402e24:	d2800002 	mov	x2, #0x0                   	// #0
  402e28:	d2800001 	mov	x1, #0x0                   	// #0
  402e2c:	d63f0060 	blr	x3
  402e30:	a9408261 	ldp	x1, x0, [x19, #8]
  402e34:	eb00003f 	cmp	x1, x0
  402e38:	54000100 	b.eq	402e58 <close_file+0x64>  // b.none
  402e3c:	cb000021 	sub	x1, x1, x0
  402e40:	aa1303e0 	mov	x0, x19
  402e44:	f9402a63 	ldr	x3, [x19, #80]
  402e48:	52800022 	mov	w2, #0x1                   	// #1
  402e4c:	a8c17bf3 	ldp	x19, x30, [sp], #16
  402e50:	aa0303f0 	mov	x16, x3
  402e54:	d61f0200 	br	x16
  402e58:	a8c17bf3 	ldp	x19, x30, [sp], #16
  402e5c:	d65f03c0 	ret
  402e60:	d65f03c0 	ret

0000000000402e64 <__stdio_exit>:
  402e64:	a9bf7bf3 	stp	x19, x30, [sp, #-16]!
  402e68:	9400004a 	bl	402f90 <__ofl_lock>
  402e6c:	f9400013 	ldr	x19, [x0]
  402e70:	b5000173 	cbnz	x19, 402e9c <__stdio_exit+0x38>
  402e74:	900000a0 	adrp	x0, 416000 <__stdout_FILE+0x10>
  402e78:	f943a000 	ldr	x0, [x0, #1856]
  402e7c:	97ffffde 	bl	402df4 <close_file>
  402e80:	900000a0 	adrp	x0, 416000 <__stdout_FILE+0x10>
  402e84:	f9406c00 	ldr	x0, [x0, #216]
  402e88:	97ffffdb 	bl	402df4 <close_file>
  402e8c:	a8c17bf3 	ldp	x19, x30, [sp], #16
  402e90:	900000a0 	adrp	x0, 416000 <__stdout_FILE+0x10>
  402e94:	f943a000 	ldr	x0, [x0, #1856]
  402e98:	17ffffd7 	b	402df4 <close_file>
  402e9c:	aa1303e0 	mov	x0, x19
  402ea0:	97ffffd5 	bl	402df4 <close_file>
  402ea4:	f9403a73 	ldr	x19, [x19, #112]
  402ea8:	17fffff2 	b	402e70 <__stdio_exit+0xc>

0000000000402eac <__stdio_write>:
  402eac:	a9bb53f3 	stp	x19, x20, [sp, #-80]!
  402eb0:	aa0003f3 	mov	x19, x0
  402eb4:	a9015bf5 	stp	x21, x22, [sp, #16]
  402eb8:	9100c3f4 	add	x20, sp, #0x30
  402ebc:	aa0203f5 	mov	x21, x2
  402ec0:	f9401416 	ldr	x22, [x0, #40]
  402ec4:	a9027bf7 	stp	x23, x30, [sp, #32]
  402ec8:	52800057 	mov	w23, #0x2                   	// #2
  402ecc:	f9401c00 	ldr	x0, [x0, #56]
  402ed0:	a9040be1 	stp	x1, x2, [sp, #64]
  402ed4:	cb0002d6 	sub	x22, x22, x0
  402ed8:	a9035be0 	stp	x0, x22, [sp, #48]
  402edc:	8b0202d6 	add	x22, x22, x2
  402ee0:	b9807a60 	ldrsw	x0, [x19, #120]
  402ee4:	aa1403e1 	mov	x1, x20
  402ee8:	93407ee2 	sxtw	x2, w23
  402eec:	d2800848 	mov	x8, #0x42                  	// #66
  402ef0:	d4000001 	svc	#0x0
  402ef4:	97ffff6f 	bl	402cb0 <__syscall_ret>
  402ef8:	eb0002df 	cmp	x22, x0
  402efc:	54000141 	b.ne	402f24 <__stdio_write+0x78>  // b.any
  402f00:	a9458660 	ldp	x0, x1, [x19, #88]
  402f04:	f9001e60 	str	x0, [x19, #56]
  402f08:	8b010001 	add	x1, x0, x1
  402f0c:	a9020261 	stp	x1, x0, [x19, #32]
  402f10:	aa1503e0 	mov	x0, x21
  402f14:	a9415bf5 	ldp	x21, x22, [sp, #16]
  402f18:	a9427bf7 	ldp	x23, x30, [sp, #32]
  402f1c:	a8c553f3 	ldp	x19, x20, [sp], #80
  402f20:	d65f03c0 	ret
  402f24:	b6f80160 	tbz	x0, #63, 402f50 <__stdio_write+0xa4>
  402f28:	b9400260 	ldr	w0, [x19]
  402f2c:	a9027e7f 	stp	xzr, xzr, [x19, #32]
  402f30:	321b0000 	orr	w0, w0, #0x20
  402f34:	b9000260 	str	w0, [x19]
  402f38:	f9001e7f 	str	xzr, [x19, #56]
  402f3c:	71000aff 	cmp	w23, #0x2
  402f40:	54000240 	b.eq	402f88 <__stdio_write+0xdc>  // b.none
  402f44:	f9400680 	ldr	x0, [x20, #8]
  402f48:	cb0002b5 	sub	x21, x21, x0
  402f4c:	17fffff1 	b	402f10 <__stdio_write+0x64>
  402f50:	f9400681 	ldr	x1, [x20, #8]
  402f54:	cb0002d6 	sub	x22, x22, x0
  402f58:	eb01001f 	cmp	x0, x1
  402f5c:	54000089 	b.ls	402f6c <__stdio_write+0xc0>  // b.plast
  402f60:	cb010000 	sub	x0, x0, x1
  402f64:	91004294 	add	x20, x20, #0x10
  402f68:	510006f7 	sub	w23, w23, #0x1
  402f6c:	f9400281 	ldr	x1, [x20]
  402f70:	8b000021 	add	x1, x1, x0
  402f74:	f9000281 	str	x1, [x20]
  402f78:	f9400681 	ldr	x1, [x20, #8]
  402f7c:	cb000020 	sub	x0, x1, x0
  402f80:	f9000680 	str	x0, [x20, #8]
  402f84:	17ffffd7 	b	402ee0 <__stdio_write+0x34>
  402f88:	d2800015 	mov	x21, #0x0                   	// #0
  402f8c:	17ffffe1 	b	402f10 <__stdio_write+0x64>

0000000000402f90 <__ofl_lock>:
  402f90:	f81f0ffe 	str	x30, [sp, #-16]!
  402f94:	900000a0 	adrp	x0, 416000 <__stdout_FILE+0x10>
  402f98:	911d4000 	add	x0, x0, #0x750
  402f9c:	94000008 	bl	402fbc <__lock>
  402fa0:	900000a0 	adrp	x0, 416000 <__stdout_FILE+0x10>
  402fa4:	911d2000 	add	x0, x0, #0x748
  402fa8:	f84107fe 	ldr	x30, [sp], #16
  402fac:	d65f03c0 	ret

0000000000402fb0 <__ofl_unlock>:
  402fb0:	900000a0 	adrp	x0, 416000 <__stdout_FILE+0x10>
  402fb4:	911d4000 	add	x0, x0, #0x750
  402fb8:	1400003f 	b	4030b4 <__unlock>

0000000000402fbc <__lock>:
  402fbc:	900000a2 	adrp	x2, 416000 <__stdout_FILE+0x10>
  402fc0:	9104c042 	add	x2, x2, #0x130
  402fc4:	aa0003e5 	mov	x5, x0
  402fc8:	39400c41 	ldrb	w1, [x2, #3]
  402fcc:	13001c21 	sxtb	w1, w1
  402fd0:	34000641 	cbz	w1, 403098 <__lock+0xdc>
  402fd4:	320107e3 	mov	w3, #0x80000001            	// #-2147483647
  402fd8:	885ffca0 	ldaxr	w0, [x5]
  402fdc:	34000560 	cbz	w0, 403088 <__lock+0xcc>
  402fe0:	d5033bbf 	dmb	ish
  402fe4:	36f80041 	tbz	w1, #31, 402fec <__lock+0x30>
  402fe8:	39000c5f 	strb	wzr, [x2, #3]
  402fec:	52800142 	mov	w2, #0xa                   	// #10
  402ff0:	12b00004 	mov	w4, #0x7fffffff            	// #2147483647
  402ff4:	320107e6 	mov	w6, #0x80000001            	// #-2147483647
  402ff8:	0b040001 	add	w1, w0, w4
  402ffc:	7100001f 	cmp	w0, #0x0
  403000:	1a80b021 	csel	w1, w1, w0, lt  // lt = tstop
  403004:	0b060023 	add	w3, w1, w6
  403008:	885ffca0 	ldaxr	w0, [x5]
  40300c:	6b00003f 	cmp	w1, w0
  403010:	54000460 	b.eq	40309c <__lock+0xe0>  // b.none
  403014:	d5033bbf 	dmb	ish
  403018:	71000442 	subs	w2, w2, #0x1
  40301c:	54fffee1 	b.ne	402ff8 <__lock+0x3c>  // b.any
  403020:	885ffca4 	ldaxr	w4, [x5]
  403024:	11000484 	add	w4, w4, #0x1
  403028:	8800fca4 	stlxr	w0, w4, [x5]
  40302c:	35ffffa0 	cbnz	w0, 403020 <__lock+0x64>
  403030:	12b00007 	mov	w7, #0x7fffffff            	// #2147483647
  403034:	52b00006 	mov	w6, #0x80000000            	// #-2147483648
  403038:	36f801a4 	tbz	w4, #31, 40306c <__lock+0xb0>
  40303c:	aa0503e0 	mov	x0, x5
  403040:	93407c82 	sxtw	x2, w4
  403044:	d2800c48 	mov	x8, #0x62                  	// #98
  403048:	d2801001 	mov	x1, #0x80                  	// #128
  40304c:	d2800003 	mov	x3, #0x0                   	// #0
  403050:	d4000001 	svc	#0x0
  403054:	b100981f 	cmn	x0, #0x26
  403058:	54000081 	b.ne	403068 <__lock+0xac>  // b.any
  40305c:	aa0503e0 	mov	x0, x5
  403060:	d2800001 	mov	x1, #0x0                   	// #0
  403064:	d4000001 	svc	#0x0
  403068:	0b070084 	add	w4, w4, w7
  40306c:	0b060080 	add	w0, w4, w6
  403070:	885ffca1 	ldaxr	w1, [x5]
  403074:	6b01009f 	cmp	w4, w1
  403078:	54000180 	b.eq	4030a8 <__lock+0xec>  // b.none
  40307c:	d5033bbf 	dmb	ish
  403080:	2a0103e4 	mov	w4, w1
  403084:	17ffffed 	b	403038 <__lock+0x7c>
  403088:	8800fca3 	stlxr	w0, w3, [x5]
  40308c:	35fffa60 	cbnz	w0, 402fd8 <__lock+0x1c>
  403090:	36f80041 	tbz	w1, #31, 403098 <__lock+0xdc>
  403094:	39000c5f 	strb	wzr, [x2, #3]
  403098:	d65f03c0 	ret
  40309c:	8800fca3 	stlxr	w0, w3, [x5]
  4030a0:	35fffb40 	cbnz	w0, 403008 <__lock+0x4c>
  4030a4:	17fffffd 	b	403098 <__lock+0xdc>
  4030a8:	8801fca0 	stlxr	w1, w0, [x5]
  4030ac:	35fffe21 	cbnz	w1, 403070 <__lock+0xb4>
  4030b0:	17fffffa 	b	403098 <__lock+0xdc>

00000000004030b4 <__unlock>:
  4030b4:	aa0003e3 	mov	x3, x0
  4030b8:	b9400000 	ldr	w0, [x0]
  4030bc:	36f80260 	tbz	w0, #31, 403108 <__unlock+0x54>
  4030c0:	12b00004 	mov	w4, #0x7fffffff            	// #2147483647
  4030c4:	885ffc60 	ldaxr	w0, [x3]
  4030c8:	0b040001 	add	w1, w0, w4
  4030cc:	8802fc61 	stlxr	w2, w1, [x3]
  4030d0:	35ffffa2 	cbnz	w2, 4030c4 <__unlock+0x10>
  4030d4:	320107e1 	mov	w1, #0x80000001            	// #-2147483647
  4030d8:	6b01001f 	cmp	w0, w1
  4030dc:	54000160 	b.eq	403108 <__unlock+0x54>  // b.none
  4030e0:	aa0303e0 	mov	x0, x3
  4030e4:	d2800c48 	mov	x8, #0x62                  	// #98
  4030e8:	d2801021 	mov	x1, #0x81                  	// #129
  4030ec:	d2800022 	mov	x2, #0x1                   	// #1
  4030f0:	d4000001 	svc	#0x0
  4030f4:	b100981f 	cmn	x0, #0x26
  4030f8:	54000081 	b.ne	403108 <__unlock+0x54>  // b.any
  4030fc:	aa0303e0 	mov	x0, x3
  403100:	aa0203e1 	mov	x1, x2
  403104:	d4000001 	svc	#0x0
  403108:	d65f03c0 	ret

000000000040310c <__addtf3>:
  40310c:	a9be7bfd 	stp	x29, x30, [sp, #-32]!
  403110:	910003fd 	mov	x29, sp
  403114:	3d8007e0 	str	q0, [sp, #16]
  403118:	a9410fe8 	ldp	x8, x3, [sp, #16]
  40311c:	3d8007e1 	str	q1, [sp, #16]
  403120:	a9410be1 	ldp	x1, x2, [sp, #16]
  403124:	d53b440a 	mrs	x10, fpcr
  403128:	d370f846 	ubfx	x6, x2, #48, #15
  40312c:	d370f860 	ubfx	x0, x3, #48, #15
  403130:	d37ffc67 	lsr	x7, x3, #63
  403134:	d37ffc49 	lsr	x9, x2, #63
  403138:	aa0003e5 	mov	x5, x0
  40313c:	d37dbc63 	ubfiz	x3, x3, #3, #48
  403140:	d37dbc42 	ubfiz	x2, x2, #3, #48
  403144:	4b060000 	sub	w0, w0, w6
  403148:	aa0103ef 	mov	x15, x1
  40314c:	aa0603eb 	mov	x11, x6
  403150:	aa41f442 	orr	x2, x2, x1, lsr #61
  403154:	aa48f463 	orr	x3, x3, x8, lsr #61
  403158:	d37df104 	lsl	x4, x8, #3
  40315c:	d37df021 	lsl	x1, x1, #3
  403160:	eb0900ff 	cmp	x7, x9
  403164:	2a0003e6 	mov	w6, w0
  403168:	54001f41 	b.ne	403550 <__addtf3+0x444>  // b.any
  40316c:	7100001f 	cmp	w0, #0x0
  403170:	d28fffec 	mov	x12, #0x7fff                	// #32767
  403174:	540009ad 	b.le	4032a8 <__addtf3+0x19c>
  403178:	b50004eb 	cbnz	x11, 403214 <__addtf3+0x108>
  40317c:	aa010046 	orr	x6, x2, x1
  403180:	b5000146 	cbnz	x6, 4031a8 <__addtf3+0x9c>
  403184:	eb0c00bf 	cmp	x5, x12
  403188:	54003e81 	b.ne	403958 <__addtf3+0x84c>  // b.any
  40318c:	aa040061 	orr	x1, x3, x4
  403190:	b4004161 	cbz	x1, 4039bc <__addtf3+0x8b0>
  403194:	d372fc60 	lsr	x0, x3, #50
  403198:	52000000 	eor	w0, w0, #0x1
  40319c:	aa0303e2 	mov	x2, x3
  4031a0:	aa0403e1 	mov	x1, x4
  4031a4:	1400008c 	b	4033d4 <__addtf3+0x2c8>
  4031a8:	71000406 	subs	w6, w0, #0x1
  4031ac:	54000201 	b.ne	4031ec <__addtf3+0xe0>  // b.any
  4031b0:	ab010081 	adds	x1, x4, x1
  4031b4:	9a020063 	adc	x3, x3, x2
  4031b8:	aa0503eb 	mov	x11, x5
  4031bc:	b6983c43 	tbz	x3, #51, 403944 <__addtf3+0x838>
  4031c0:	91000565 	add	x5, x11, #0x1
  4031c4:	d28fffe0 	mov	x0, #0x7fff                	// #32767
  4031c8:	eb0000bf 	cmp	x5, x0
  4031cc:	54001a40 	b.eq	403514 <__addtf3+0x408>  // b.none
  4031d0:	924cf862 	and	x2, x3, #0xfff7ffffffffffff
  4031d4:	92400020 	and	x0, x1, #0x1
  4031d8:	aa410401 	orr	x1, x0, x1, lsr #1
  4031dc:	aa03fc21 	orr	x1, x1, x3, lsl #63
  4031e0:	d341fc42 	lsr	x2, x2, #1
  4031e4:	52800000 	mov	w0, #0x0                   	// #0
  4031e8:	1400003c 	b	4032d8 <__addtf3+0x1cc>
  4031ec:	eb0c00bf 	cmp	x5, x12
  4031f0:	54000181 	b.ne	403220 <__addtf3+0x114>  // b.any
  4031f4:	aa040061 	orr	x1, x3, x4
  4031f8:	b4003e21 	cbz	x1, 4039bc <__addtf3+0x8b0>
  4031fc:	d372fc60 	lsr	x0, x3, #50
  403200:	aa0303e2 	mov	x2, x3
  403204:	d2400000 	eor	x0, x0, #0x1
  403208:	aa0403e1 	mov	x1, x4
  40320c:	12000000 	and	w0, w0, #0x1
  403210:	14000032 	b	4032d8 <__addtf3+0x1cc>
  403214:	eb0c00bf 	cmp	x5, x12
  403218:	54fffee0 	b.eq	4031f4 <__addtf3+0xe8>  // b.none
  40321c:	b24d0042 	orr	x2, x2, #0x8000000000000
  403220:	7101d0df 	cmp	w6, #0x74
  403224:	540003ac 	b.gt	403298 <__addtf3+0x18c>
  403228:	7100fcdf 	cmp	w6, #0x3f
  40322c:	540001cc 	b.gt	403264 <__addtf3+0x158>
  403230:	52800808 	mov	w8, #0x40                  	// #64
  403234:	4b060108 	sub	w8, w8, w6
  403238:	9ac62429 	lsr	x9, x1, x6
  40323c:	9ac82021 	lsl	x1, x1, x8
  403240:	f100003f 	cmp	x1, #0x0
  403244:	9ac82040 	lsl	x0, x2, x8
  403248:	9a9f07e1 	cset	x1, ne  // ne = any
  40324c:	aa090000 	orr	x0, x0, x9
  403250:	9ac62442 	lsr	x2, x2, x6
  403254:	aa010001 	orr	x1, x0, x1
  403258:	ab040021 	adds	x1, x1, x4
  40325c:	9a030043 	adc	x3, x2, x3
  403260:	17ffffd6 	b	4031b8 <__addtf3+0xac>
  403264:	510100c0 	sub	w0, w6, #0x40
  403268:	52801008 	mov	w8, #0x80                  	// #128
  40326c:	4b060108 	sub	w8, w8, w6
  403270:	710100df 	cmp	w6, #0x40
  403274:	9ac02440 	lsr	x0, x2, x0
  403278:	9ac82042 	lsl	x2, x2, x8
  40327c:	9a9f1042 	csel	x2, x2, xzr, ne  // ne = any
  403280:	aa010041 	orr	x1, x2, x1
  403284:	f100003f 	cmp	x1, #0x0
  403288:	9a9f07e1 	cset	x1, ne  // ne = any
  40328c:	aa010001 	orr	x1, x0, x1
  403290:	d2800002 	mov	x2, #0x0                   	// #0
  403294:	17fffff1 	b	403258 <__addtf3+0x14c>
  403298:	aa010041 	orr	x1, x2, x1
  40329c:	f100003f 	cmp	x1, #0x0
  4032a0:	9a9f07e1 	cset	x1, ne  // ne = any
  4032a4:	17fffffb 	b	403290 <__addtf3+0x184>
  4032a8:	54000780 	b.eq	403398 <__addtf3+0x28c>  // b.none
  4032ac:	b50004a5 	cbnz	x5, 403340 <__addtf3+0x234>
  4032b0:	aa040065 	orr	x5, x3, x4
  4032b4:	b5000165 	cbnz	x5, 4032e0 <__addtf3+0x1d4>
  4032b8:	eb0c017f 	cmp	x11, x12
  4032bc:	540034a1 	b.ne	403950 <__addtf3+0x844>  // b.any
  4032c0:	aa010040 	orr	x0, x2, x1
  4032c4:	b4003660 	cbz	x0, 403990 <__addtf3+0x884>
  4032c8:	d372fc40 	lsr	x0, x2, #50
  4032cc:	aa0b03e5 	mov	x5, x11
  4032d0:	d2400000 	eor	x0, x0, #0x1
  4032d4:	12000000 	and	w0, w0, #0x1
  4032d8:	52800006 	mov	w6, #0x0                   	// #0
  4032dc:	1400003e 	b	4033d4 <__addtf3+0x2c8>
  4032e0:	2a2003e0 	mvn	w0, w0
  4032e4:	35000080 	cbnz	w0, 4032f4 <__addtf3+0x1e8>
  4032e8:	ab010081 	adds	x1, x4, x1
  4032ec:	9a020063 	adc	x3, x3, x2
  4032f0:	17ffffb3 	b	4031bc <__addtf3+0xb0>
  4032f4:	eb0c017f 	cmp	x11, x12
  4032f8:	54fffe40 	b.eq	4032c0 <__addtf3+0x1b4>  // b.none
  4032fc:	7101d01f 	cmp	w0, #0x74
  403300:	5400044c 	b.gt	403388 <__addtf3+0x27c>
  403304:	7100fc1f 	cmp	w0, #0x3f
  403308:	5400026c 	b.gt	403354 <__addtf3+0x248>
  40330c:	52800806 	mov	w6, #0x40                  	// #64
  403310:	4b0000c6 	sub	w6, w6, w0
  403314:	9ac02488 	lsr	x8, x4, x0
  403318:	9ac62084 	lsl	x4, x4, x6
  40331c:	f100009f 	cmp	x4, #0x0
  403320:	9a9f07e4 	cset	x4, ne  // ne = any
  403324:	9ac62065 	lsl	x5, x3, x6
  403328:	aa0800a5 	orr	x5, x5, x8
  40332c:	9ac02460 	lsr	x0, x3, x0
  403330:	aa0400a4 	orr	x4, x5, x4
  403334:	ab010081 	adds	x1, x4, x1
  403338:	9a020003 	adc	x3, x0, x2
  40333c:	17ffffa0 	b	4031bc <__addtf3+0xb0>
  403340:	eb0c017f 	cmp	x11, x12
  403344:	54fffbe0 	b.eq	4032c0 <__addtf3+0x1b4>  // b.none
  403348:	4b0003e0 	neg	w0, w0
  40334c:	b24d0063 	orr	x3, x3, #0x8000000000000
  403350:	17ffffeb 	b	4032fc <__addtf3+0x1f0>
  403354:	51010005 	sub	w5, w0, #0x40
  403358:	52801006 	mov	w6, #0x80                  	// #128
  40335c:	4b0000c6 	sub	w6, w6, w0
  403360:	7101001f 	cmp	w0, #0x40
  403364:	9ac52465 	lsr	x5, x3, x5
  403368:	9ac62063 	lsl	x3, x3, x6
  40336c:	9a9f1063 	csel	x3, x3, xzr, ne  // ne = any
  403370:	aa040064 	orr	x4, x3, x4
  403374:	f100009f 	cmp	x4, #0x0
  403378:	9a9f07e4 	cset	x4, ne  // ne = any
  40337c:	aa0400a4 	orr	x4, x5, x4
  403380:	d2800000 	mov	x0, #0x0                   	// #0
  403384:	17ffffec 	b	403334 <__addtf3+0x228>
  403388:	aa040063 	orr	x3, x3, x4
  40338c:	f100007f 	cmp	x3, #0x0
  403390:	9a9f07e4 	cset	x4, ne  // ne = any
  403394:	17fffffb 	b	403380 <__addtf3+0x274>
  403398:	910004a0 	add	x0, x5, #0x1
  40339c:	f27f341f 	tst	x0, #0x7ffe
  4033a0:	54000881 	b.ne	4034b0 <__addtf3+0x3a4>  // b.any
  4033a4:	aa04006d 	orr	x13, x3, x4
  4033a8:	b5000365 	cbnz	x5, 403414 <__addtf3+0x308>
  4033ac:	b4002e2d 	cbz	x13, 403970 <__addtf3+0x864>
  4033b0:	aa010040 	orr	x0, x2, x1
  4033b4:	b4001de0 	cbz	x0, 403770 <__addtf3+0x664>
  4033b8:	ab010081 	adds	x1, x4, x1
  4033bc:	aa0103e4 	mov	x4, x1
  4033c0:	9a020063 	adc	x3, x3, x2
  4033c4:	b6981d63 	tbz	x3, #51, 403770 <__addtf3+0x664>
  4033c8:	924cf862 	and	x2, x3, #0xfff7ffffffffffff
  4033cc:	52800000 	mov	w0, #0x0                   	// #0
  4033d0:	d2800025 	mov	x5, #0x1                   	// #1
  4033d4:	f240083f 	tst	x1, #0x7
  4033d8:	540030e0 	b.eq	4039f4 <__addtf3+0x8e8>  // b.none
  4033dc:	926a0543 	and	x3, x10, #0xc00000
  4033e0:	321c0000 	orr	w0, w0, #0x10
  4033e4:	f150007f 	cmp	x3, #0x400, lsl #12
  4033e8:	54002fc0 	b.eq	4039e0 <__addtf3+0x8d4>  // b.none
  4033ec:	f160007f 	cmp	x3, #0x800, lsl #12
  4033f0:	54002fe0 	b.eq	4039ec <__addtf3+0x8e0>  // b.none
  4033f4:	b50000c3 	cbnz	x3, 40340c <__addtf3+0x300>
  4033f8:	92400c23 	and	x3, x1, #0xf
  4033fc:	f100107f 	cmp	x3, #0x4
  403400:	54000060 	b.eq	40340c <__addtf3+0x300>  // b.none
  403404:	b1001021 	adds	x1, x1, #0x4
  403408:	9a823442 	cinc	x2, x2, cs  // cs = hs, nlast
  40340c:	34002fc6 	cbz	w6, 403a04 <__addtf3+0x8f8>
  403410:	1400017c 	b	403a00 <__addtf3+0x8f4>
  403414:	eb0c00bf 	cmp	x5, x12
  403418:	54000321 	b.ne	40347c <__addtf3+0x370>  // b.any
  40341c:	b400364d 	cbz	x13, 403ae4 <__addtf3+0x9d8>
  403420:	d372fc60 	lsr	x0, x3, #50
  403424:	d2400000 	eor	x0, x0, #0x1
  403428:	12000000 	and	w0, w0, #0x1
  40342c:	eb05017f 	cmp	x11, x5
  403430:	54000361 	b.ne	40349c <__addtf3+0x390>  // b.any
  403434:	aa010045 	orr	x5, x2, x1
  403438:	b4003525 	cbz	x5, 403adc <__addtf3+0x9d0>
  40343c:	f24e005f 	tst	x2, #0x4000000000000
  403440:	1a9f1400 	csinc	w0, w0, wzr, ne  // ne = any
  403444:	b400028d 	cbz	x13, 403494 <__addtf3+0x388>
  403448:	9240f108 	and	x8, x8, #0x1fffffffffffffff
  40344c:	d343fc61 	lsr	x1, x3, #3
  403450:	aa03f508 	orr	x8, x8, x3, lsl #61
  403454:	b69000e3 	tbz	x3, #50, 403470 <__addtf3+0x364>
  403458:	d343fc43 	lsr	x3, x2, #3
  40345c:	b79000a2 	tbnz	x2, #50, 403470 <__addtf3+0x364>
  403460:	9240f1e1 	and	x1, x15, #0x1fffffffffffffff
  403464:	aa0903e7 	mov	x7, x9
  403468:	aa02f428 	orr	x8, x1, x2, lsl #61
  40346c:	aa0303e1 	mov	x1, x3
  403470:	93c8f422 	extr	x2, x1, x8, #61
  403474:	d37df101 	lsl	x1, x8, #3
  403478:	14000007 	b	403494 <__addtf3+0x388>
  40347c:	eb0c017f 	cmp	x11, x12
  403480:	54000061 	b.ne	40348c <__addtf3+0x380>  // b.any
  403484:	52800000 	mov	w0, #0x0                   	// #0
  403488:	17ffffeb 	b	403434 <__addtf3+0x328>
  40348c:	52800000 	mov	w0, #0x0                   	// #0
  403490:	b500006d 	cbnz	x13, 40349c <__addtf3+0x390>
  403494:	d28fffe5 	mov	x5, #0x7fff                	// #32767
  403498:	17ffffcf 	b	4033d4 <__addtf3+0x2c8>
  40349c:	aa010041 	orr	x1, x2, x1
  4034a0:	b5fffd41 	cbnz	x1, 403448 <__addtf3+0x33c>
  4034a4:	aa0303e2 	mov	x2, x3
  4034a8:	aa0403e1 	mov	x1, x4
  4034ac:	17fffffa 	b	403494 <__addtf3+0x388>
  4034b0:	eb0c001f 	cmp	x0, x12
  4034b4:	54000100 	b.eq	4034d4 <__addtf3+0x3c8>  // b.none
  4034b8:	ab010081 	adds	x1, x4, x1
  4034bc:	aa0003e5 	mov	x5, x0
  4034c0:	9a020062 	adc	x2, x3, x2
  4034c4:	93c10441 	extr	x1, x2, x1, #1
  4034c8:	d341fc42 	lsr	x2, x2, #1
  4034cc:	52800000 	mov	w0, #0x0                   	// #0
  4034d0:	17ffffc1 	b	4033d4 <__addtf3+0x2c8>
  4034d4:	f26a0541 	ands	x1, x10, #0xc00000
  4034d8:	54002640 	b.eq	4039a0 <__addtf3+0x894>  // b.none
  4034dc:	f150003f 	cmp	x1, #0x400, lsl #12
  4034e0:	540000c1 	b.ne	4034f8 <__addtf3+0x3ec>  // b.any
  4034e4:	b5000107 	cbnz	x7, 403504 <__addtf3+0x3f8>
  4034e8:	aa0003e5 	mov	x5, x0
  4034ec:	d2800002 	mov	x2, #0x0                   	// #0
  4034f0:	d2800001 	mov	x1, #0x0                   	// #0
  4034f4:	1400012d 	b	4039a8 <__addtf3+0x89c>
  4034f8:	f160003f 	cmp	x1, #0x800, lsl #12
  4034fc:	54000041 	b.ne	403504 <__addtf3+0x3f8>  // b.any
  403500:	b5ffff47 	cbnz	x7, 4034e8 <__addtf3+0x3dc>
  403504:	92800002 	mov	x2, #0xffffffffffffffff    	// #-1
  403508:	d28fffc5 	mov	x5, #0x7ffe                	// #32766
  40350c:	aa0203e1 	mov	x1, x2
  403510:	14000126 	b	4039a8 <__addtf3+0x89c>
  403514:	f26a0541 	ands	x1, x10, #0xc00000
  403518:	540024c0 	b.eq	4039b0 <__addtf3+0x8a4>  // b.none
  40351c:	f150003f 	cmp	x1, #0x400, lsl #12
  403520:	540000a1 	b.ne	403534 <__addtf3+0x428>  // b.any
  403524:	b50000e7 	cbnz	x7, 403540 <__addtf3+0x434>
  403528:	d2800002 	mov	x2, #0x0                   	// #0
  40352c:	d2800001 	mov	x1, #0x0                   	// #0
  403530:	14000121 	b	4039b4 <__addtf3+0x8a8>
  403534:	f160003f 	cmp	x1, #0x800, lsl #12
  403538:	54000041 	b.ne	403540 <__addtf3+0x434>  // b.any
  40353c:	b5ffff67 	cbnz	x7, 403528 <__addtf3+0x41c>
  403540:	92800001 	mov	x1, #0xffffffffffffffff    	// #-1
  403544:	d28fffc5 	mov	x5, #0x7ffe                	// #32766
  403548:	aa0103e2 	mov	x2, x1
  40354c:	1400011a 	b	4039b4 <__addtf3+0x8a8>
  403550:	7100001f 	cmp	w0, #0x0
  403554:	d28fffec 	mov	x12, #0x7fff                	// #32767
  403558:	540007cd 	b.le	403650 <__addtf3+0x544>
  40355c:	b500050b 	cbnz	x11, 4035fc <__addtf3+0x4f0>
  403560:	aa010046 	orr	x6, x2, x1
  403564:	b5000126 	cbnz	x6, 403588 <__addtf3+0x47c>
  403568:	eb0c00bf 	cmp	x5, x12
  40356c:	54001f61 	b.ne	403958 <__addtf3+0x84c>  // b.any
  403570:	aa040061 	orr	x1, x3, x4
  403574:	b4002241 	cbz	x1, 4039bc <__addtf3+0x8b0>
  403578:	d372fc60 	lsr	x0, x3, #50
  40357c:	d2400000 	eor	x0, x0, #0x1
  403580:	12000000 	and	w0, w0, #0x1
  403584:	17ffff06 	b	40319c <__addtf3+0x90>
  403588:	71000406 	subs	w6, w0, #0x1
  40358c:	54000121 	b.ne	4035b0 <__addtf3+0x4a4>  // b.any
  403590:	eb010081 	subs	x1, x4, x1
  403594:	da020063 	sbc	x3, x3, x2
  403598:	aa0503eb 	mov	x11, x5
  40359c:	b6981d43 	tbz	x3, #51, 403944 <__addtf3+0x838>
  4035a0:	9240c866 	and	x6, x3, #0x7ffffffffffff
  4035a4:	aa0103e8 	mov	x8, x1
  4035a8:	aa0b03e5 	mov	x5, x11
  4035ac:	140000b2 	b	403874 <__addtf3+0x768>
  4035b0:	eb0c00bf 	cmp	x5, x12
  4035b4:	54ffe200 	b.eq	4031f4 <__addtf3+0xe8>  // b.none
  4035b8:	7101d0df 	cmp	w6, #0x74
  4035bc:	5400042c 	b.gt	403640 <__addtf3+0x534>
  4035c0:	7100fcdf 	cmp	w6, #0x3f
  4035c4:	5400024c 	b.gt	40360c <__addtf3+0x500>
  4035c8:	52800808 	mov	w8, #0x40                  	// #64
  4035cc:	4b060108 	sub	w8, w8, w6
  4035d0:	9ac62429 	lsr	x9, x1, x6
  4035d4:	9ac82021 	lsl	x1, x1, x8
  4035d8:	f100003f 	cmp	x1, #0x0
  4035dc:	9ac82040 	lsl	x0, x2, x8
  4035e0:	9a9f07e1 	cset	x1, ne  // ne = any
  4035e4:	aa090000 	orr	x0, x0, x9
  4035e8:	9ac62442 	lsr	x2, x2, x6
  4035ec:	aa010001 	orr	x1, x0, x1
  4035f0:	eb010081 	subs	x1, x4, x1
  4035f4:	da020063 	sbc	x3, x3, x2
  4035f8:	17ffffe8 	b	403598 <__addtf3+0x48c>
  4035fc:	eb0c00bf 	cmp	x5, x12
  403600:	54ffdfa0 	b.eq	4031f4 <__addtf3+0xe8>  // b.none
  403604:	b24d0042 	orr	x2, x2, #0x8000000000000
  403608:	17ffffec 	b	4035b8 <__addtf3+0x4ac>
  40360c:	510100c0 	sub	w0, w6, #0x40
  403610:	52801008 	mov	w8, #0x80                  	// #128
  403614:	4b060108 	sub	w8, w8, w6
  403618:	710100df 	cmp	w6, #0x40
  40361c:	9ac02440 	lsr	x0, x2, x0
  403620:	9ac82042 	lsl	x2, x2, x8
  403624:	9a9f1042 	csel	x2, x2, xzr, ne  // ne = any
  403628:	aa010041 	orr	x1, x2, x1
  40362c:	f100003f 	cmp	x1, #0x0
  403630:	9a9f07e1 	cset	x1, ne  // ne = any
  403634:	aa010001 	orr	x1, x0, x1
  403638:	d2800002 	mov	x2, #0x0                   	// #0
  40363c:	17ffffed 	b	4035f0 <__addtf3+0x4e4>
  403640:	aa010041 	orr	x1, x2, x1
  403644:	f100003f 	cmp	x1, #0x0
  403648:	9a9f07e1 	cset	x1, ne  // ne = any
  40364c:	17fffffb 	b	403638 <__addtf3+0x52c>
  403650:	54000760 	b.eq	40373c <__addtf3+0x630>  // b.none
  403654:	b5000485 	cbnz	x5, 4036e4 <__addtf3+0x5d8>
  403658:	aa040065 	orr	x5, x3, x4
  40365c:	b5000165 	cbnz	x5, 403688 <__addtf3+0x57c>
  403660:	eb0c017f 	cmp	x11, x12
  403664:	54001801 	b.ne	403964 <__addtf3+0x858>  // b.any
  403668:	aa010040 	orr	x0, x2, x1
  40366c:	b4001ac0 	cbz	x0, 4039c4 <__addtf3+0x8b8>
  403670:	d372fc40 	lsr	x0, x2, #50
  403674:	aa0b03e5 	mov	x5, x11
  403678:	d2400000 	eor	x0, x0, #0x1
  40367c:	aa0903e7 	mov	x7, x9
  403680:	12000000 	and	w0, w0, #0x1
  403684:	17ffff15 	b	4032d8 <__addtf3+0x1cc>
  403688:	2a2003e0 	mvn	w0, w0
  40368c:	350000a0 	cbnz	w0, 4036a0 <__addtf3+0x594>
  403690:	eb040021 	subs	x1, x1, x4
  403694:	aa0903e7 	mov	x7, x9
  403698:	da030043 	sbc	x3, x2, x3
  40369c:	17ffffc0 	b	40359c <__addtf3+0x490>
  4036a0:	eb0c017f 	cmp	x11, x12
  4036a4:	54fffe20 	b.eq	403668 <__addtf3+0x55c>  // b.none
  4036a8:	7101d01f 	cmp	w0, #0x74
  4036ac:	5400040c 	b.gt	40372c <__addtf3+0x620>
  4036b0:	7100fc1f 	cmp	w0, #0x3f
  4036b4:	5400022c 	b.gt	4036f8 <__addtf3+0x5ec>
  4036b8:	52800806 	mov	w6, #0x40                  	// #64
  4036bc:	4b0000c6 	sub	w6, w6, w0
  4036c0:	9ac02487 	lsr	x7, x4, x0
  4036c4:	9ac62084 	lsl	x4, x4, x6
  4036c8:	f100009f 	cmp	x4, #0x0
  4036cc:	9ac62065 	lsl	x5, x3, x6
  4036d0:	9a9f07e4 	cset	x4, ne  // ne = any
  4036d4:	aa0700a5 	orr	x5, x5, x7
  4036d8:	9ac02463 	lsr	x3, x3, x0
  4036dc:	aa0400a4 	orr	x4, x5, x4
  4036e0:	17ffffec 	b	403690 <__addtf3+0x584>
  4036e4:	eb0c017f 	cmp	x11, x12
  4036e8:	54fffc00 	b.eq	403668 <__addtf3+0x55c>  // b.none
  4036ec:	4b0003e0 	neg	w0, w0
  4036f0:	b24d0063 	orr	x3, x3, #0x8000000000000
  4036f4:	17ffffed 	b	4036a8 <__addtf3+0x59c>
  4036f8:	51010005 	sub	w5, w0, #0x40
  4036fc:	52801006 	mov	w6, #0x80                  	// #128
  403700:	4b0000c6 	sub	w6, w6, w0
  403704:	7101001f 	cmp	w0, #0x40
  403708:	9ac52465 	lsr	x5, x3, x5
  40370c:	9ac62063 	lsl	x3, x3, x6
  403710:	9a9f1063 	csel	x3, x3, xzr, ne  // ne = any
  403714:	aa040064 	orr	x4, x3, x4
  403718:	f100009f 	cmp	x4, #0x0
  40371c:	9a9f07e4 	cset	x4, ne  // ne = any
  403720:	aa0400a4 	orr	x4, x5, x4
  403724:	d2800003 	mov	x3, #0x0                   	// #0
  403728:	17ffffda 	b	403690 <__addtf3+0x584>
  40372c:	aa040063 	orr	x3, x3, x4
  403730:	f100007f 	cmp	x3, #0x0
  403734:	9a9f07e4 	cset	x4, ne  // ne = any
  403738:	17fffffb 	b	403724 <__addtf3+0x618>
  40373c:	910004a0 	add	x0, x5, #0x1
  403740:	f27f341f 	tst	x0, #0x7ffe
  403744:	540008a1 	b.ne	403858 <__addtf3+0x74c>  // b.any
  403748:	aa04006d 	orr	x13, x3, x4
  40374c:	aa01004e 	orr	x14, x2, x1
  403750:	b50003c5 	cbnz	x5, 4037c8 <__addtf3+0x6bc>
  403754:	b50001cd 	cbnz	x13, 40378c <__addtf3+0x680>
  403758:	b500110e 	cbnz	x14, 403978 <__addtf3+0x86c>
  40375c:	926a0540 	and	x0, x10, #0xc00000
  403760:	d2800003 	mov	x3, #0x0                   	// #0
  403764:	f160001f 	cmp	x0, #0x800, lsl #12
  403768:	d2800004 	mov	x4, #0x0                   	// #0
  40376c:	9a9f17e7 	cset	x7, eq  // eq = none
  403770:	aa030080 	orr	x0, x4, x3
  403774:	aa0303e2 	mov	x2, x3
  403778:	f100001f 	cmp	x0, #0x0
  40377c:	aa0403e1 	mov	x1, x4
  403780:	1a9f07e6 	cset	w6, ne  // ne = any
  403784:	d2800005 	mov	x5, #0x0                   	// #0
  403788:	17ffff51 	b	4034cc <__addtf3+0x3c0>
  40378c:	b4ffff2e 	cbz	x14, 403770 <__addtf3+0x664>
  403790:	eb010085 	subs	x5, x4, x1
  403794:	da020060 	sbc	x0, x3, x2
  403798:	b69800a0 	tbz	x0, #51, 4037ac <__addtf3+0x6a0>
  40379c:	eb040024 	subs	x4, x1, x4
  4037a0:	da030043 	sbc	x3, x2, x3
  4037a4:	aa0903e7 	mov	x7, x9
  4037a8:	17fffff2 	b	403770 <__addtf3+0x664>
  4037ac:	aa0000a4 	orr	x4, x5, x0
  4037b0:	b5000ea4 	cbnz	x4, 403984 <__addtf3+0x878>
  4037b4:	926a0540 	and	x0, x10, #0xc00000
  4037b8:	f160001f 	cmp	x0, #0x800, lsl #12
  4037bc:	9a9f17e7 	cset	x7, eq  // eq = none
  4037c0:	d2800003 	mov	x3, #0x0                   	// #0
  4037c4:	17ffffeb 	b	403770 <__addtf3+0x664>
  4037c8:	eb0c00bf 	cmp	x5, x12
  4037cc:	54000301 	b.ne	40382c <__addtf3+0x720>  // b.any
  4037d0:	b40017ed 	cbz	x13, 403acc <__addtf3+0x9c0>
  4037d4:	d372fc60 	lsr	x0, x3, #50
  4037d8:	d2400000 	eor	x0, x0, #0x1
  4037dc:	12000000 	and	w0, w0, #0x1
  4037e0:	eb05017f 	cmp	x11, x5
  4037e4:	54000361 	b.ne	403850 <__addtf3+0x744>  // b.any
  4037e8:	b400186e 	cbz	x14, 403af4 <__addtf3+0x9e8>
  4037ec:	f24e005f 	tst	x2, #0x4000000000000
  4037f0:	1a9f1400 	csinc	w0, w0, wzr, ne  // ne = any
  4037f4:	b400028d 	cbz	x13, 403844 <__addtf3+0x738>
  4037f8:	9240f108 	and	x8, x8, #0x1fffffffffffffff
  4037fc:	d343fc64 	lsr	x4, x3, #3
  403800:	aa03f501 	orr	x1, x8, x3, lsl #61
  403804:	b69000e3 	tbz	x3, #50, 403820 <__addtf3+0x714>
  403808:	d343fc43 	lsr	x3, x2, #3
  40380c:	b79000a2 	tbnz	x2, #50, 403820 <__addtf3+0x714>
  403810:	9240f1e1 	and	x1, x15, #0x1fffffffffffffff
  403814:	aa0303e4 	mov	x4, x3
  403818:	aa02f421 	orr	x1, x1, x2, lsl #61
  40381c:	aa0903e7 	mov	x7, x9
  403820:	93c1f482 	extr	x2, x4, x1, #61
  403824:	d37df021 	lsl	x1, x1, #3
  403828:	17ffff1b 	b	403494 <__addtf3+0x388>
  40382c:	eb0c017f 	cmp	x11, x12
  403830:	54000061 	b.ne	40383c <__addtf3+0x730>  // b.any
  403834:	52800000 	mov	w0, #0x0                   	// #0
  403838:	17ffffec 	b	4037e8 <__addtf3+0x6dc>
  40383c:	52800000 	mov	w0, #0x0                   	// #0
  403840:	b500008d 	cbnz	x13, 403850 <__addtf3+0x744>
  403844:	b40015ae 	cbz	x14, 403af8 <__addtf3+0x9ec>
  403848:	aa0903e7 	mov	x7, x9
  40384c:	17ffff12 	b	403494 <__addtf3+0x388>
  403850:	b5fffd4e 	cbnz	x14, 4037f8 <__addtf3+0x6ec>
  403854:	17ffff14 	b	4034a4 <__addtf3+0x398>
  403858:	eb010080 	subs	x0, x4, x1
  40385c:	aa0003e8 	mov	x8, x0
  403860:	da020066 	sbc	x6, x3, x2
  403864:	b6980466 	tbz	x6, #51, 4038f0 <__addtf3+0x7e4>
  403868:	eb040028 	subs	x8, x1, x4
  40386c:	aa0903e7 	mov	x7, x9
  403870:	da030046 	sbc	x6, x2, x3
  403874:	dac01100 	clz	x0, x8
  403878:	dac010c3 	clz	x3, x6
  40387c:	11010000 	add	w0, w0, #0x40
  403880:	f10000df 	cmp	x6, #0x0
  403884:	1a830003 	csel	w3, w0, w3, eq  // eq = none
  403888:	51003060 	sub	w0, w3, #0xc
  40388c:	7100fc1f 	cmp	w0, #0x3f
  403890:	5400036c 	b.gt	4038fc <__addtf3+0x7f0>
  403894:	4b0003e3 	neg	w3, w0
  403898:	9ac020c6 	lsl	x6, x6, x0
  40389c:	9ac02101 	lsl	x1, x8, x0
  4038a0:	9ac32503 	lsr	x3, x8, x3
  4038a4:	aa060063 	orr	x3, x3, x6
  4038a8:	93407c0b 	sxtw	x11, w0
  4038ac:	eb20c0bf 	cmp	x5, w0, sxtw
  4038b0:	5400046c 	b.gt	40393c <__addtf3+0x830>
  4038b4:	4b050000 	sub	w0, w0, w5
  4038b8:	11000402 	add	w2, w0, #0x1
  4038bc:	7100fc5f 	cmp	w2, #0x3f
  4038c0:	5400026c 	b.gt	40390c <__addtf3+0x800>
  4038c4:	52800800 	mov	w0, #0x40                  	// #64
  4038c8:	4b020000 	sub	w0, w0, w2
  4038cc:	9ac22425 	lsr	x5, x1, x2
  4038d0:	9ac02064 	lsl	x4, x3, x0
  4038d4:	aa050084 	orr	x4, x4, x5
  4038d8:	9ac02020 	lsl	x0, x1, x0
  4038dc:	f100001f 	cmp	x0, #0x0
  4038e0:	9a9f07e0 	cset	x0, ne  // ne = any
  4038e4:	9ac22463 	lsr	x3, x3, x2
  4038e8:	aa000084 	orr	x4, x4, x0
  4038ec:	17ffffa1 	b	403770 <__addtf3+0x664>
  4038f0:	aa060004 	orr	x4, x0, x6
  4038f4:	b5fffc04 	cbnz	x4, 403874 <__addtf3+0x768>
  4038f8:	17ffffaf 	b	4037b4 <__addtf3+0x6a8>
  4038fc:	51013063 	sub	w3, w3, #0x4c
  403900:	d2800001 	mov	x1, #0x0                   	// #0
  403904:	9ac32103 	lsl	x3, x8, x3
  403908:	17ffffe8 	b	4038a8 <__addtf3+0x79c>
  40390c:	5100fc00 	sub	w0, w0, #0x3f
  403910:	7101005f 	cmp	w2, #0x40
  403914:	9ac02464 	lsr	x4, x3, x0
  403918:	52801000 	mov	w0, #0x80                  	// #128
  40391c:	4b020000 	sub	w0, w0, w2
  403920:	9ac02063 	lsl	x3, x3, x0
  403924:	9a9f1063 	csel	x3, x3, xzr, ne  // ne = any
  403928:	aa030021 	orr	x1, x1, x3
  40392c:	f100003f 	cmp	x1, #0x0
  403930:	9a9f07e0 	cset	x0, ne  // ne = any
  403934:	aa000084 	orr	x4, x4, x0
  403938:	17ffffa2 	b	4037c0 <__addtf3+0x6b4>
  40393c:	cb0b00ab 	sub	x11, x5, x11
  403940:	924cf863 	and	x3, x3, #0xfff7ffffffffffff
  403944:	b50004ab 	cbnz	x11, 4039d8 <__addtf3+0x8cc>
  403948:	aa0103e4 	mov	x4, x1
  40394c:	17ffff89 	b	403770 <__addtf3+0x664>
  403950:	aa0203e3 	mov	x3, x2
  403954:	17fffffc 	b	403944 <__addtf3+0x838>
  403958:	aa0403e1 	mov	x1, x4
  40395c:	aa0503eb 	mov	x11, x5
  403960:	17fffff9 	b	403944 <__addtf3+0x838>
  403964:	aa0203e3 	mov	x3, x2
  403968:	aa0903e7 	mov	x7, x9
  40396c:	17fffff6 	b	403944 <__addtf3+0x838>
  403970:	aa0203e3 	mov	x3, x2
  403974:	17fffff5 	b	403948 <__addtf3+0x83c>
  403978:	aa0203e3 	mov	x3, x2
  40397c:	aa0103e4 	mov	x4, x1
  403980:	17ffff89 	b	4037a4 <__addtf3+0x698>
  403984:	aa0003e3 	mov	x3, x0
  403988:	aa0503e4 	mov	x4, x5
  40398c:	17ffff79 	b	403770 <__addtf3+0x664>
  403990:	d2800002 	mov	x2, #0x0                   	// #0
  403994:	d2800001 	mov	x1, #0x0                   	// #0
  403998:	aa0b03e5 	mov	x5, x11
  40399c:	17fffe12 	b	4031e4 <__addtf3+0xd8>
  4039a0:	aa0003e5 	mov	x5, x0
  4039a4:	d2800002 	mov	x2, #0x0                   	// #0
  4039a8:	52800280 	mov	w0, #0x14                  	// #20
  4039ac:	17fffe8a 	b	4033d4 <__addtf3+0x2c8>
  4039b0:	d2800002 	mov	x2, #0x0                   	// #0
  4039b4:	52800280 	mov	w0, #0x14                  	// #20
  4039b8:	17fffe48 	b	4032d8 <__addtf3+0x1cc>
  4039bc:	d2800002 	mov	x2, #0x0                   	// #0
  4039c0:	17fffe09 	b	4031e4 <__addtf3+0xd8>
  4039c4:	aa0b03e5 	mov	x5, x11
  4039c8:	aa0903e7 	mov	x7, x9
  4039cc:	d2800002 	mov	x2, #0x0                   	// #0
  4039d0:	d2800001 	mov	x1, #0x0                   	// #0
  4039d4:	17fffe04 	b	4031e4 <__addtf3+0xd8>
  4039d8:	aa0303e2 	mov	x2, x3
  4039dc:	17ffffef 	b	403998 <__addtf3+0x88c>
  4039e0:	b5ffd167 	cbnz	x7, 40340c <__addtf3+0x300>
  4039e4:	b1002021 	adds	x1, x1, #0x8
  4039e8:	17fffe88 	b	403408 <__addtf3+0x2fc>
  4039ec:	b4ffd107 	cbz	x7, 40340c <__addtf3+0x300>
  4039f0:	17fffffd 	b	4039e4 <__addtf3+0x8d8>
  4039f4:	34000086 	cbz	w6, 403a04 <__addtf3+0x8f8>
  4039f8:	37200040 	tbnz	w0, #4, 403a00 <__addtf3+0x8f4>
  4039fc:	3658004a 	tbz	w10, #11, 403a04 <__addtf3+0x8f8>
  403a00:	321d0000 	orr	w0, w0, #0x8
  403a04:	b69800c2 	tbz	x2, #51, 403a1c <__addtf3+0x910>
  403a08:	910004a5 	add	x5, x5, #0x1
  403a0c:	d28fffe3 	mov	x3, #0x7fff                	// #32767
  403a10:	eb0300bf 	cmp	x5, x3
  403a14:	54000300 	b.eq	403a74 <__addtf3+0x968>  // b.none
  403a18:	924cf842 	and	x2, x2, #0xfff7ffffffffffff
  403a1c:	d28fffe3 	mov	x3, #0x7fff                	// #32767
  403a20:	93c10c41 	extr	x1, x2, x1, #3
  403a24:	d343fc42 	lsr	x2, x2, #3
  403a28:	eb0300bf 	cmp	x5, x3
  403a2c:	540000a1 	b.ne	403a40 <__addtf3+0x934>  // b.any
  403a30:	aa020023 	orr	x3, x1, x2
  403a34:	b2510042 	orr	x2, x2, #0x800000000000
  403a38:	f100007f 	cmp	x3, #0x0
  403a3c:	9a9f1042 	csel	x2, x2, xzr, ne  // ne = any
  403a40:	924038a5 	and	x5, x5, #0x7fff
  403a44:	d2800009 	mov	x9, #0x0                   	// #0
  403a48:	b340bc49 	bfxil	x9, x2, #0, #48
  403a4c:	2a073ca7 	orr	w7, w5, w7, lsl #15
  403a50:	9e670020 	fmov	d0, x1
  403a54:	b3503ce9 	bfi	x9, x7, #48, #16
  403a58:	9eaf0120 	fmov	v0.d[1], x9
  403a5c:	34000080 	cbz	w0, 403a6c <__addtf3+0x960>
  403a60:	3d8007e0 	str	q0, [sp, #16]
  403a64:	9400054e 	bl	404f9c <__sfp_handle_exceptions>
  403a68:	3dc007e0 	ldr	q0, [sp, #16]
  403a6c:	a8c27bfd 	ldp	x29, x30, [sp], #32
  403a70:	d65f03c0 	ret
  403a74:	f26a0541 	ands	x1, x10, #0xc00000
  403a78:	540000e0 	b.eq	403a94 <__addtf3+0x988>  // b.none
  403a7c:	f150003f 	cmp	x1, #0x400, lsl #12
  403a80:	54000121 	b.ne	403aa4 <__addtf3+0x998>  // b.any
  403a84:	f10000ff 	cmp	x7, #0x0
  403a88:	d28fffc2 	mov	x2, #0x7ffe                	// #32766
  403a8c:	da9f03e1 	csetm	x1, ne  // ne = any
  403a90:	9a8200a5 	csel	x5, x5, x2, eq  // eq = none
  403a94:	52800282 	mov	w2, #0x14                  	// #20
  403a98:	2a020000 	orr	w0, w0, w2
  403a9c:	aa0103e2 	mov	x2, x1
  403aa0:	17ffffdf 	b	403a1c <__addtf3+0x910>
  403aa4:	f160003f 	cmp	x1, #0x800, lsl #12
  403aa8:	540000c1 	b.ne	403ac0 <__addtf3+0x9b4>  // b.any
  403aac:	f10000ff 	cmp	x7, #0x0
  403ab0:	d28fffc2 	mov	x2, #0x7ffe                	// #32766
  403ab4:	da9f13e1 	csetm	x1, eq  // eq = none
  403ab8:	9a8210a5 	csel	x5, x5, x2, ne  // ne = any
  403abc:	17fffff6 	b	403a94 <__addtf3+0x988>
  403ac0:	92800001 	mov	x1, #0xffffffffffffffff    	// #-1
  403ac4:	d28fffc5 	mov	x5, #0x7ffe                	// #32766
  403ac8:	17fffff3 	b	403a94 <__addtf3+0x988>
  403acc:	eb05017f 	cmp	x11, x5
  403ad0:	54ffeb20 	b.eq	403834 <__addtf3+0x728>  // b.none
  403ad4:	52800000 	mov	w0, #0x0                   	// #0
  403ad8:	17ffff5b 	b	403844 <__addtf3+0x738>
  403adc:	b4ffcdcd 	cbz	x13, 403494 <__addtf3+0x388>
  403ae0:	17fffe71 	b	4034a4 <__addtf3+0x398>
  403ae4:	eb05017f 	cmp	x11, x5
  403ae8:	54ffcce0 	b.eq	403484 <__addtf3+0x378>  // b.none
  403aec:	52800000 	mov	w0, #0x0                   	// #0
  403af0:	17fffe69 	b	403494 <__addtf3+0x388>
  403af4:	b5ffcd8d 	cbnz	x13, 4034a4 <__addtf3+0x398>
  403af8:	d2800007 	mov	x7, #0x0                   	// #0
  403afc:	92ffff02 	mov	x2, #0x7ffffffffffff       	// #2251799813685247
  403b00:	928000e1 	mov	x1, #0xfffffffffffffff8    	// #-8
  403b04:	d28fffe5 	mov	x5, #0x7fff                	// #32767
  403b08:	52800020 	mov	w0, #0x1                   	// #1
  403b0c:	17fffe32 	b	4033d4 <__addtf3+0x2c8>

0000000000403b10 <__eqtf2>:
  403b10:	a9be7bfd 	stp	x29, x30, [sp, #-32]!
  403b14:	910003fd 	mov	x29, sp
  403b18:	3d8007e0 	str	q0, [sp, #16]
  403b1c:	a94103e8 	ldp	x8, x0, [sp, #16]
  403b20:	3d8007e1 	str	q1, [sp, #16]
  403b24:	a94107e9 	ldp	x9, x1, [sp, #16]
  403b28:	d53b4402 	mrs	x2, fpcr
  403b2c:	d340bc02 	ubfx	x2, x0, #0, #48
  403b30:	d370f803 	ubfx	x3, x0, #48, #15
  403b34:	d340bc27 	ubfx	x7, x1, #0, #48
  403b38:	d37ffc00 	lsr	x0, x0, #63
  403b3c:	d370f825 	ubfx	x5, x1, #48, #15
  403b40:	d37ffc21 	lsr	x1, x1, #63
  403b44:	aa0803e4 	mov	x4, x8
  403b48:	12001c00 	and	w0, w0, #0xff
  403b4c:	aa0903e6 	mov	x6, x9
  403b50:	12001c21 	and	w1, w1, #0xff
  403b54:	d28fffea 	mov	x10, #0x7fff                	// #32767
  403b58:	eb0a007f 	cmp	x3, x10
  403b5c:	540000c1 	b.ne	403b74 <__eqtf2+0x64>  // b.any
  403b60:	aa08004a 	orr	x10, x2, x8
  403b64:	b50003ea 	cbnz	x10, 403be0 <__eqtf2+0xd0>
  403b68:	eb0300bf 	cmp	x5, x3
  403b6c:	540004e1 	b.ne	403c08 <__eqtf2+0xf8>  // b.any
  403b70:	14000003 	b	403b7c <__eqtf2+0x6c>
  403b74:	eb0a00bf 	cmp	x5, x10
  403b78:	54000061 	b.ne	403b84 <__eqtf2+0x74>  // b.any
  403b7c:	aa0600ea 	orr	x10, x7, x6
  403b80:	b500026a 	cbnz	x10, 403bcc <__eqtf2+0xbc>
  403b84:	eb05007f 	cmp	x3, x5
  403b88:	54000401 	b.ne	403c08 <__eqtf2+0xf8>  // b.any
  403b8c:	eb07005f 	cmp	x2, x7
  403b90:	fa490100 	ccmp	x8, x9, #0x0, eq  // eq = none
  403b94:	540003a1 	b.ne	403c08 <__eqtf2+0xf8>  // b.any
  403b98:	6b01001f 	cmp	w0, w1
  403b9c:	54000140 	b.eq	403bc4 <__eqtf2+0xb4>  // b.none
  403ba0:	b5000343 	cbnz	x3, 403c08 <__eqtf2+0xf8>
  403ba4:	aa040042 	orr	x2, x2, x4
  403ba8:	f100005f 	cmp	x2, #0x0
  403bac:	1a9f07e0 	cset	w0, ne  // ne = any
  403bb0:	a8c27bfd 	ldp	x29, x30, [sp], #32
  403bb4:	d65f03c0 	ret
  403bb8:	52800020 	mov	w0, #0x1                   	// #1
  403bbc:	940004f8 	bl	404f9c <__sfp_handle_exceptions>
  403bc0:	14000012 	b	403c08 <__eqtf2+0xf8>
  403bc4:	52800000 	mov	w0, #0x0                   	// #0
  403bc8:	17fffffa 	b	403bb0 <__eqtf2+0xa0>
  403bcc:	d28fffe0 	mov	x0, #0x7fff                	// #32767
  403bd0:	eb00007f 	cmp	x3, x0
  403bd4:	54000161 	b.ne	403c00 <__eqtf2+0xf0>  // b.any
  403bd8:	aa040044 	orr	x4, x2, x4
  403bdc:	b4000124 	cbz	x4, 403c00 <__eqtf2+0xf0>
  403be0:	f251005f 	tst	x2, #0x800000000000
  403be4:	54fffea0 	b.eq	403bb8 <__eqtf2+0xa8>  // b.none
  403be8:	52800020 	mov	w0, #0x1                   	// #1
  403bec:	d28fffe1 	mov	x1, #0x7fff                	// #32767
  403bf0:	eb0100bf 	cmp	x5, x1
  403bf4:	54fffde1 	b.ne	403bb0 <__eqtf2+0xa0>  // b.any
  403bf8:	aa0600e6 	orr	x6, x7, x6
  403bfc:	b4fffda6 	cbz	x6, 403bb0 <__eqtf2+0xa0>
  403c00:	f25100ff 	tst	x7, #0x800000000000
  403c04:	54fffda0 	b.eq	403bb8 <__eqtf2+0xa8>  // b.none
  403c08:	52800020 	mov	w0, #0x1                   	// #1
  403c0c:	17ffffe9 	b	403bb0 <__eqtf2+0xa0>

0000000000403c10 <__multf3>:
  403c10:	a9bd7bfd 	stp	x29, x30, [sp, #-48]!
  403c14:	910003fd 	mov	x29, sp
  403c18:	3d800be0 	str	q0, [sp, #32]
  403c1c:	f9000bf3 	str	x19, [sp, #16]
  403c20:	a9420fe4 	ldp	x4, x3, [sp, #32]
  403c24:	3d800be1 	str	q1, [sp, #32]
  403c28:	a9421fe1 	ldp	x1, x7, [sp, #32]
  403c2c:	d53b4406 	mrs	x6, fpcr
  403c30:	d340bc6c 	ubfx	x12, x3, #0, #48
  403c34:	d370f86b 	ubfx	x11, x3, #48, #15
  403c38:	d37ffc63 	lsr	x3, x3, #63
  403c3c:	12001c65 	and	w5, w3, #0xff
  403c40:	340001ab 	cbz	w11, 403c74 <__multf3+0x64>
  403c44:	528fffe2 	mov	w2, #0x7fff                	// #32767
  403c48:	6b02017f 	cmp	w11, w2
  403c4c:	54000440 	b.eq	403cd4 <__multf3+0xc4>  // b.none
  403c50:	92403d6b 	and	x11, x11, #0xffff
  403c54:	93c4f58c 	extr	x12, x12, x4, #61
  403c58:	9287ffc8 	mov	x8, #0xffffffffffffc001    	// #-16383
  403c5c:	b24d018c 	orr	x12, x12, #0x8000000000000
  403c60:	d37df082 	lsl	x2, x4, #3
  403c64:	8b08016b 	add	x11, x11, x8
  403c68:	d280000e 	mov	x14, #0x0                   	// #0
  403c6c:	52800000 	mov	w0, #0x0                   	// #0
  403c70:	14000021 	b	403cf4 <__multf3+0xe4>
  403c74:	aa0c0082 	orr	x2, x4, x12
  403c78:	b40007e2 	cbz	x2, 403d74 <__multf3+0x164>
  403c7c:	dac01082 	clz	x2, x4
  403c80:	dac01180 	clz	x0, x12
  403c84:	91010042 	add	x2, x2, #0x40
  403c88:	f100019f 	cmp	x12, #0x0
  403c8c:	9a800040 	csel	x0, x2, x0, eq  // eq = none
  403c90:	d1003c08 	sub	x8, x0, #0xf
  403c94:	f100f11f 	cmp	x8, #0x3c
  403c98:	5400016c 	b.gt	403cc4 <__multf3+0xb4>
  403c9c:	11000d02 	add	w2, w8, #0x3
  403ca0:	528007a9 	mov	w9, #0x3d                  	// #61
  403ca4:	4b080128 	sub	w8, w9, w8
  403ca8:	9ac2218c 	lsl	x12, x12, x2
  403cac:	9ac82488 	lsr	x8, x4, x8
  403cb0:	aa0c010c 	orr	x12, x8, x12
  403cb4:	9ac22082 	lsl	x2, x4, x2
  403cb8:	9287fdcb 	mov	x11, #0xffffffffffffc011    	// #-16367
  403cbc:	cb00016b 	sub	x11, x11, x0
  403cc0:	17ffffea 	b	403c68 <__multf3+0x58>
  403cc4:	5100f508 	sub	w8, w8, #0x3d
  403cc8:	d2800002 	mov	x2, #0x0                   	// #0
  403ccc:	9ac8208c 	lsl	x12, x4, x8
  403cd0:	17fffffa 	b	403cb8 <__multf3+0xa8>
  403cd4:	aa0c0082 	orr	x2, x4, x12
  403cd8:	b4000562 	cbz	x2, 403d84 <__multf3+0x174>
  403cdc:	d36ffd80 	lsr	x0, x12, #47
  403ce0:	aa0403e2 	mov	x2, x4
  403ce4:	d2400000 	eor	x0, x0, #0x1
  403ce8:	d28fffeb 	mov	x11, #0x7fff                	// #32767
  403cec:	12000000 	and	w0, w0, #0x1
  403cf0:	d280006e 	mov	x14, #0x3                   	// #3
  403cf4:	d340bce9 	ubfx	x9, x7, #0, #48
  403cf8:	d370f8e4 	ubfx	x4, x7, #48, #15
  403cfc:	d37ffce7 	lsr	x7, x7, #63
  403d00:	12001cf0 	and	w16, w7, #0xff
  403d04:	aa0703ef 	mov	x15, x7
  403d08:	34000464 	cbz	w4, 403d94 <__multf3+0x184>
  403d0c:	528fffe7 	mov	w7, #0x7fff                	// #32767
  403d10:	6b07009f 	cmp	w4, w7
  403d14:	54000700 	b.eq	403df4 <__multf3+0x1e4>  // b.none
  403d18:	92403c84 	and	x4, x4, #0xffff
  403d1c:	93c1f529 	extr	x9, x9, x1, #61
  403d20:	9287ffc7 	mov	x7, #0xffffffffffffc001    	// #-16383
  403d24:	b24d0129 	orr	x9, x9, #0x8000000000000
  403d28:	d37df021 	lsl	x1, x1, #3
  403d2c:	8b070084 	add	x4, x4, x7
  403d30:	d2800007 	mov	x7, #0x0                   	// #0
  403d34:	8b0b008b 	add	x11, x4, x11
  403d38:	aa0e08e4 	orr	x4, x7, x14, lsl #2
  403d3c:	4a1000a5 	eor	w5, w5, w16
  403d40:	d1000484 	sub	x4, x4, #0x1
  403d44:	92401ca5 	and	x5, x5, #0xff
  403d48:	9100056a 	add	x10, x11, #0x1
  403d4c:	f100389f 	cmp	x4, #0xe
  403d50:	540008c8 	b.hi	403e68 <__multf3+0x258>  // b.pmore
  403d54:	7100389f 	cmp	w4, #0xe
  403d58:	54000888 	b.hi	403e68 <__multf3+0x258>  // b.pmore
  403d5c:	d0000008 	adrp	x8, 405000 <__sfp_handle_exceptions+0x64>
  403d60:	912ea108 	add	x8, x8, #0xba8
  403d64:	78645904 	ldrh	w4, [x8, w4, uxtw #1]
  403d68:	10000068 	adr	x8, 403d74 <__multf3+0x164>
  403d6c:	8b24a904 	add	x4, x8, w4, sxth #2
  403d70:	d61f0080 	br	x4
  403d74:	d280000c 	mov	x12, #0x0                   	// #0
  403d78:	d280000b 	mov	x11, #0x0                   	// #0
  403d7c:	d280002e 	mov	x14, #0x1                   	// #1
  403d80:	17ffffbb 	b	403c6c <__multf3+0x5c>
  403d84:	d280000c 	mov	x12, #0x0                   	// #0
  403d88:	d28fffeb 	mov	x11, #0x7fff                	// #32767
  403d8c:	d280004e 	mov	x14, #0x2                   	// #2
  403d90:	17ffffb7 	b	403c6c <__multf3+0x5c>
  403d94:	aa090024 	orr	x4, x1, x9
  403d98:	b40003c4 	cbz	x4, 403e10 <__multf3+0x200>
  403d9c:	dac0102a 	clz	x10, x1
  403da0:	dac01124 	clz	x4, x9
  403da4:	9101014a 	add	x10, x10, #0x40
  403da8:	f100013f 	cmp	x9, #0x0
  403dac:	9a840148 	csel	x8, x10, x4, eq  // eq = none
  403db0:	d1003d0a 	sub	x10, x8, #0xf
  403db4:	f100f15f 	cmp	x10, #0x3c
  403db8:	5400016c 	b.gt	403de4 <__multf3+0x1d4>
  403dbc:	11000d44 	add	w4, w10, #0x3
  403dc0:	528007ad 	mov	w13, #0x3d                  	// #61
  403dc4:	4b0a01aa 	sub	w10, w13, w10
  403dc8:	9ac42129 	lsl	x9, x9, x4
  403dcc:	9aca242a 	lsr	x10, x1, x10
  403dd0:	aa090149 	orr	x9, x10, x9
  403dd4:	9ac42021 	lsl	x1, x1, x4
  403dd8:	9287fdc4 	mov	x4, #0xffffffffffffc011    	// #-16367
  403ddc:	cb080084 	sub	x4, x4, x8
  403de0:	17ffffd4 	b	403d30 <__multf3+0x120>
  403de4:	5100f549 	sub	w9, w10, #0x3d
  403de8:	9ac92029 	lsl	x9, x1, x9
  403dec:	d2800001 	mov	x1, #0x0                   	// #0
  403df0:	17fffffa 	b	403dd8 <__multf3+0x1c8>
  403df4:	aa090024 	orr	x4, x1, x9
  403df8:	b4000164 	cbz	x4, 403e24 <__multf3+0x214>
  403dfc:	f251013f 	tst	x9, #0x800000000000
  403e00:	d28fffe4 	mov	x4, #0x7fff                	// #32767
  403e04:	1a9f1400 	csinc	w0, w0, wzr, ne  // ne = any
  403e08:	d2800067 	mov	x7, #0x3                   	// #3
  403e0c:	17ffffca 	b	403d34 <__multf3+0x124>
  403e10:	d2800009 	mov	x9, #0x0                   	// #0
  403e14:	d2800001 	mov	x1, #0x0                   	// #0
  403e18:	d2800004 	mov	x4, #0x0                   	// #0
  403e1c:	d2800027 	mov	x7, #0x1                   	// #1
  403e20:	17ffffc5 	b	403d34 <__multf3+0x124>
  403e24:	d2800009 	mov	x9, #0x0                   	// #0
  403e28:	d2800001 	mov	x1, #0x0                   	// #0
  403e2c:	d28fffe4 	mov	x4, #0x7fff                	// #32767
  403e30:	d2800047 	mov	x7, #0x2                   	// #2
  403e34:	17ffffc0 	b	403d34 <__multf3+0x124>
  403e38:	aa0c03e9 	mov	x9, x12
  403e3c:	aa0203e1 	mov	x1, x2
  403e40:	aa0e03e7 	mov	x7, x14
  403e44:	f10008ff 	cmp	x7, #0x2
  403e48:	54002280 	b.eq	404298 <__multf3+0x688>  // b.none
  403e4c:	f1000cff 	cmp	x7, #0x3
  403e50:	540021c0 	b.eq	404288 <__multf3+0x678>  // b.none
  403e54:	f10004ff 	cmp	x7, #0x1
  403e58:	54000b81 	b.ne	403fc8 <__multf3+0x3b8>  // b.any
  403e5c:	d2800001 	mov	x1, #0x0                   	// #0
  403e60:	d2800002 	mov	x2, #0x0                   	// #0
  403e64:	140000fa 	b	40424c <__multf3+0x63c>
  403e68:	d360fc44 	lsr	x4, x2, #32
  403e6c:	92407c2f 	and	x15, x1, #0xffffffff
  403e70:	d360fc28 	lsr	x8, x1, #32
  403e74:	92407c42 	and	x2, x2, #0xffffffff
  403e78:	9b0f7c81 	mul	x1, x4, x15
  403e7c:	9b027de3 	mul	x3, x15, x2
  403e80:	9b02050d 	madd	x13, x8, x2, x1
  403e84:	9b087c91 	mul	x17, x4, x8
  403e88:	8b4381ad 	add	x13, x13, x3, lsr #32
  403e8c:	eb0d003f 	cmp	x1, x13
  403e90:	54000069 	b.ls	403e9c <__multf3+0x28c>  // b.plast
  403e94:	d2c00021 	mov	x1, #0x100000000           	// #4294967296
  403e98:	8b010231 	add	x17, x17, x1
  403e9c:	92407d21 	and	x1, x9, #0xffffffff
  403ea0:	92407c63 	and	x3, x3, #0xffffffff
  403ea4:	d360fda7 	lsr	x7, x13, #32
  403ea8:	8b0d806d 	add	x13, x3, x13, lsl #32
  403eac:	d360fd23 	lsr	x3, x9, #32
  403eb0:	9b017c8e 	mul	x14, x4, x1
  403eb4:	9b017c52 	mul	x18, x2, x1
  403eb8:	9b023862 	madd	x2, x3, x2, x14
  403ebc:	9b037c84 	mul	x4, x4, x3
  403ec0:	8b528049 	add	x9, x2, x18, lsr #32
  403ec4:	eb0901df 	cmp	x14, x9
  403ec8:	54000069 	b.ls	403ed4 <__multf3+0x2c4>  // b.plast
  403ecc:	d2c00022 	mov	x2, #0x100000000           	// #4294967296
  403ed0:	8b020084 	add	x4, x4, x2
  403ed4:	d360fd90 	lsr	x16, x12, #32
  403ed8:	92407d8c 	and	x12, x12, #0xffffffff
  403edc:	8b49809e 	add	x30, x4, x9, lsr #32
  403ee0:	92407e52 	and	x18, x18, #0xffffffff
  403ee4:	8b098252 	add	x18, x18, x9, lsl #32
  403ee8:	9b0c7de4 	mul	x4, x15, x12
  403eec:	8b1200f3 	add	x19, x7, x18
  403ef0:	9b0f7e0f 	mul	x15, x16, x15
  403ef4:	9b107d02 	mul	x2, x8, x16
  403ef8:	9b0c3d08 	madd	x8, x8, x12, x15
  403efc:	8b448108 	add	x8, x8, x4, lsr #32
  403f00:	eb0801ff 	cmp	x15, x8
  403f04:	54000069 	b.ls	403f10 <__multf3+0x300>  // b.plast
  403f08:	d2c00027 	mov	x7, #0x100000000           	// #4294967296
  403f0c:	8b070042 	add	x2, x2, x7
  403f10:	9b017e0e 	mul	x14, x16, x1
  403f14:	92407c87 	and	x7, x4, #0xffffffff
  403f18:	9b107c70 	mul	x16, x3, x16
  403f1c:	8b488049 	add	x9, x2, x8, lsr #32
  403f20:	9b017d84 	mul	x4, x12, x1
  403f24:	8b0880e8 	add	x8, x7, x8, lsl #32
  403f28:	9b0c3863 	madd	x3, x3, x12, x14
  403f2c:	8b448063 	add	x3, x3, x4, lsr #32
  403f30:	eb0301df 	cmp	x14, x3
  403f34:	54000069 	b.ls	403f40 <__multf3+0x330>  // b.plast
  403f38:	d2c00021 	mov	x1, #0x100000000           	// #4294967296
  403f3c:	8b010210 	add	x16, x16, x1
  403f40:	92407c82 	and	x2, x4, #0xffffffff
  403f44:	8b130227 	add	x7, x17, x19
  403f48:	8b038042 	add	x2, x2, x3, lsl #32
  403f4c:	d360fc63 	lsr	x3, x3, #32
  403f50:	ab1e0042 	adds	x2, x2, x30
  403f54:	9a9f37e4 	cset	x4, cs  // cs = hs, nlast
  403f58:	eb1200ff 	cmp	x7, x18
  403f5c:	9a9f27e1 	cset	x1, cc  // cc = lo, ul, last
  403f60:	ab010042 	adds	x2, x2, x1
  403f64:	9a9f37e1 	cset	x1, cs  // cs = hs, nlast
  403f68:	f100009f 	cmp	x4, #0x0
  403f6c:	fa400820 	ccmp	x1, #0x0, #0x0, eq  // eq = none
  403f70:	9a830463 	cinc	x3, x3, ne  // ne = any
  403f74:	ab0800e7 	adds	x7, x7, x8
  403f78:	9a9f37e1 	cset	x1, cs  // cs = hs, nlast
  403f7c:	ab090042 	adds	x2, x2, x9
  403f80:	9a9f37e4 	cset	x4, cs  // cs = hs, nlast
  403f84:	ab010042 	adds	x2, x2, x1
  403f88:	9a9f37e1 	cset	x1, cs  // cs = hs, nlast
  403f8c:	f100009f 	cmp	x4, #0x0
  403f90:	fa400820 	ccmp	x1, #0x0, #0x0, eq  // eq = none
  403f94:	aa0735ad 	orr	x13, x13, x7, lsl #13
  403f98:	9a900601 	cinc	x1, x16, ne  // ne = any
  403f9c:	f10001bf 	cmp	x13, #0x0
  403fa0:	8b030023 	add	x3, x1, x3
  403fa4:	9a9f07e1 	cset	x1, ne  // ne = any
  403fa8:	aa47cc27 	orr	x7, x1, x7, lsr #51
  403fac:	aa0234e1 	orr	x1, x7, x2, lsl #13
  403fb0:	93c2cc69 	extr	x9, x3, x2, #51
  403fb4:	b63804e3 	tbz	x3, #39, 404050 <__multf3+0x440>
  403fb8:	92400022 	and	x2, x1, #0x1
  403fbc:	aa410441 	orr	x1, x2, x1, lsr #1
  403fc0:	aa09fc21 	orr	x1, x1, x9, lsl #63
  403fc4:	d341fd29 	lsr	x9, x9, #1
  403fc8:	d287ffe2 	mov	x2, #0x3fff                	// #16383
  403fcc:	8b020143 	add	x3, x10, x2
  403fd0:	f100007f 	cmp	x3, #0x0
  403fd4:	54000a6d 	b.le	404120 <__multf3+0x510>
  403fd8:	f240083f 	tst	x1, #0x7
  403fdc:	54000460 	b.eq	404068 <__multf3+0x458>  // b.none
  403fe0:	926a04c2 	and	x2, x6, #0xc00000
  403fe4:	321c0000 	orr	w0, w0, #0x10
  403fe8:	f150005f 	cmp	x2, #0x400, lsl #12
  403fec:	54000360 	b.eq	404058 <__multf3+0x448>  // b.none
  403ff0:	f160005f 	cmp	x2, #0x800, lsl #12
  403ff4:	54000380 	b.eq	404064 <__multf3+0x454>  // b.none
  403ff8:	b5000382 	cbnz	x2, 404068 <__multf3+0x458>
  403ffc:	92400c22 	and	x2, x1, #0xf
  404000:	f100105f 	cmp	x2, #0x4
  404004:	54000320 	b.eq	404068 <__multf3+0x458>  // b.none
  404008:	b1001021 	adds	x1, x1, #0x4
  40400c:	9a893529 	cinc	x9, x9, cs  // cs = hs, nlast
  404010:	14000016 	b	404068 <__multf3+0x458>
  404014:	b67800ac 	tbz	x12, #47, 404028 <__multf3+0x418>
  404018:	b7780089 	tbnz	x9, #47, 404028 <__multf3+0x418>
  40401c:	aa0903ec 	mov	x12, x9
  404020:	aa0103e2 	mov	x2, x1
  404024:	aa0f03e3 	mov	x3, x15
  404028:	b2510181 	orr	x1, x12, #0x800000000000
  40402c:	aa0303e5 	mov	x5, x3
  404030:	d28fffe3 	mov	x3, #0x7fff                	// #32767
  404034:	14000015 	b	404088 <__multf3+0x478>
  404038:	aa0c03e9 	mov	x9, x12
  40403c:	aa0203e1 	mov	x1, x2
  404040:	aa0303e5 	mov	x5, x3
  404044:	17ffff7f 	b	403e40 <__multf3+0x230>
  404048:	aa0f03e5 	mov	x5, x15
  40404c:	17ffff7e 	b	403e44 <__multf3+0x234>
  404050:	aa0b03ea 	mov	x10, x11
  404054:	17ffffdd 	b	403fc8 <__multf3+0x3b8>
  404058:	b5000085 	cbnz	x5, 404068 <__multf3+0x458>
  40405c:	b1002021 	adds	x1, x1, #0x8
  404060:	17ffffeb 	b	40400c <__multf3+0x3fc>
  404064:	b5ffffc5 	cbnz	x5, 40405c <__multf3+0x44c>
  404068:	b6a00069 	tbz	x9, #52, 404074 <__multf3+0x464>
  40406c:	924bf929 	and	x9, x9, #0xffefffffffffffff
  404070:	91401143 	add	x3, x10, #0x4, lsl #12
  404074:	d28fffc4 	mov	x4, #0x7ffe                	// #32766
  404078:	eb04007f 	cmp	x3, x4
  40407c:	5400022c 	b.gt	4040c0 <__multf3+0x4b0>
  404080:	93c10d22 	extr	x2, x9, x1, #3
  404084:	d343fd21 	lsr	x1, x9, #3
  404088:	92403863 	and	x3, x3, #0x7fff
  40408c:	d2800007 	mov	x7, #0x0                   	// #0
  404090:	b340bc27 	bfxil	x7, x1, #0, #48
  404094:	2a053c63 	orr	w3, w3, w5, lsl #15
  404098:	9e670040 	fmov	d0, x2
  40409c:	b3503c67 	bfi	x7, x3, #48, #16
  4040a0:	9eaf00e0 	fmov	v0.d[1], x7
  4040a4:	34000080 	cbz	w0, 4040b4 <__multf3+0x4a4>
  4040a8:	3d800be0 	str	q0, [sp, #32]
  4040ac:	940003bc 	bl	404f9c <__sfp_handle_exceptions>
  4040b0:	3dc00be0 	ldr	q0, [sp, #32]
  4040b4:	f9400bf3 	ldr	x19, [sp, #16]
  4040b8:	a8c37bfd 	ldp	x29, x30, [sp], #48
  4040bc:	d65f03c0 	ret
  4040c0:	926a04c2 	and	x2, x6, #0xc00000
  4040c4:	f150005f 	cmp	x2, #0x400, lsl #12
  4040c8:	54000120 	b.eq	4040ec <__multf3+0x4dc>  // b.none
  4040cc:	f160005f 	cmp	x2, #0x800, lsl #12
  4040d0:	54000180 	b.eq	404100 <__multf3+0x4f0>  // b.none
  4040d4:	b5000202 	cbnz	x2, 404114 <__multf3+0x504>
  4040d8:	d28fffe3 	mov	x3, #0x7fff                	// #32767
  4040dc:	52800281 	mov	w1, #0x14                  	// #20
  4040e0:	2a010000 	orr	w0, w0, w1
  4040e4:	aa0203e1 	mov	x1, x2
  4040e8:	17ffffe8 	b	404088 <__multf3+0x478>
  4040ec:	f10000bf 	cmp	x5, #0x0
  4040f0:	d28fffe3 	mov	x3, #0x7fff                	// #32767
  4040f4:	da9f03e2 	csetm	x2, ne  // ne = any
  4040f8:	9a840063 	csel	x3, x3, x4, eq  // eq = none
  4040fc:	17fffff8 	b	4040dc <__multf3+0x4cc>
  404100:	f10000bf 	cmp	x5, #0x0
  404104:	d28fffe3 	mov	x3, #0x7fff                	// #32767
  404108:	da9f13e2 	csetm	x2, eq  // eq = none
  40410c:	9a841063 	csel	x3, x3, x4, ne  // ne = any
  404110:	17fffff3 	b	4040dc <__multf3+0x4cc>
  404114:	aa0403e3 	mov	x3, x4
  404118:	92800002 	mov	x2, #0xffffffffffffffff    	// #-1
  40411c:	17fffff0 	b	4040dc <__multf3+0x4cc>
  404120:	d2800024 	mov	x4, #0x1                   	// #1
  404124:	cb030083 	sub	x3, x4, x3
  404128:	f101d07f 	cmp	x3, #0x74
  40412c:	5400074c 	b.gt	404214 <__multf3+0x604>
  404130:	f100fc7f 	cmp	x3, #0x3f
  404134:	5400034c 	b.gt	40419c <__multf3+0x58c>
  404138:	52800804 	mov	w4, #0x40                  	// #64
  40413c:	4b030084 	sub	w4, w4, w3
  404140:	9ac32427 	lsr	x7, x1, x3
  404144:	9ac42021 	lsl	x1, x1, x4
  404148:	f100003f 	cmp	x1, #0x0
  40414c:	9a9f07e1 	cset	x1, ne  // ne = any
  404150:	9ac42122 	lsl	x2, x9, x4
  404154:	aa070042 	orr	x2, x2, x7
  404158:	aa010042 	orr	x2, x2, x1
  40415c:	9ac32521 	lsr	x1, x9, x3
  404160:	f240085f 	tst	x2, #0x7
  404164:	540003e0 	b.eq	4041e0 <__multf3+0x5d0>  // b.none
  404168:	926a04c3 	and	x3, x6, #0xc00000
  40416c:	321c0000 	orr	w0, w0, #0x10
  404170:	f150007f 	cmp	x3, #0x400, lsl #12
  404174:	540002e0 	b.eq	4041d0 <__multf3+0x5c0>  // b.none
  404178:	f160007f 	cmp	x3, #0x800, lsl #12
  40417c:	54000300 	b.eq	4041dc <__multf3+0x5cc>  // b.none
  404180:	b5000303 	cbnz	x3, 4041e0 <__multf3+0x5d0>
  404184:	92400c43 	and	x3, x2, #0xf
  404188:	f100107f 	cmp	x3, #0x4
  40418c:	540002a0 	b.eq	4041e0 <__multf3+0x5d0>  // b.none
  404190:	b1001042 	adds	x2, x2, #0x4
  404194:	9a813421 	cinc	x1, x1, cs  // cs = hs, nlast
  404198:	14000012 	b	4041e0 <__multf3+0x5d0>
  40419c:	51010062 	sub	w2, w3, #0x40
  4041a0:	52801004 	mov	w4, #0x80                  	// #128
  4041a4:	4b030084 	sub	w4, w4, w3
  4041a8:	f101007f 	cmp	x3, #0x40
  4041ac:	9ac22522 	lsr	x2, x9, x2
  4041b0:	9ac42129 	lsl	x9, x9, x4
  4041b4:	9a9f1129 	csel	x9, x9, xzr, ne  // ne = any
  4041b8:	aa010121 	orr	x1, x9, x1
  4041bc:	f100003f 	cmp	x1, #0x0
  4041c0:	9a9f07e1 	cset	x1, ne  // ne = any
  4041c4:	aa010042 	orr	x2, x2, x1
  4041c8:	d2800001 	mov	x1, #0x0                   	// #0
  4041cc:	17ffffe5 	b	404160 <__multf3+0x550>
  4041d0:	b5000085 	cbnz	x5, 4041e0 <__multf3+0x5d0>
  4041d4:	b1002042 	adds	x2, x2, #0x8
  4041d8:	17ffffef 	b	404194 <__multf3+0x584>
  4041dc:	b5ffffc5 	cbnz	x5, 4041d4 <__multf3+0x5c4>
  4041e0:	b69800e1 	tbz	x1, #51, 4041fc <__multf3+0x5ec>
  4041e4:	321c0000 	orr	w0, w0, #0x10
  4041e8:	d2800001 	mov	x1, #0x0                   	// #0
  4041ec:	d2800002 	mov	x2, #0x0                   	// #0
  4041f0:	d2800023 	mov	x3, #0x1                   	// #1
  4041f4:	321d0000 	orr	w0, w0, #0x8
  4041f8:	17ffffa4 	b	404088 <__multf3+0x478>
  4041fc:	d2800003 	mov	x3, #0x0                   	// #0
  404200:	93c20c22 	extr	x2, x1, x2, #3
  404204:	d343fc21 	lsr	x1, x1, #3
  404208:	3727ff60 	tbnz	w0, #4, 4041f4 <__multf3+0x5e4>
  40420c:	365ff3e6 	tbz	w6, #11, 404088 <__multf3+0x478>
  404210:	17fffff9 	b	4041f4 <__multf3+0x5e4>
  404214:	aa090022 	orr	x2, x1, x9
  404218:	b4000162 	cbz	x2, 404244 <__multf3+0x634>
  40421c:	926a04c6 	and	x6, x6, #0xc00000
  404220:	321c0000 	orr	w0, w0, #0x10
  404224:	f15000df 	cmp	x6, #0x400, lsl #12
  404228:	54000160 	b.eq	404254 <__multf3+0x644>  // b.none
  40422c:	f16000df 	cmp	x6, #0x800, lsl #12
  404230:	540001a0 	b.eq	404264 <__multf3+0x654>  // b.none
  404234:	f10000df 	cmp	x6, #0x0
  404238:	d28000a2 	mov	x2, #0x5                   	// #5
  40423c:	9a821084 	csel	x4, x4, x2, ne  // ne = any
  404240:	d343fc82 	lsr	x2, x4, #3
  404244:	321d0000 	orr	w0, w0, #0x8
  404248:	d2800001 	mov	x1, #0x0                   	// #0
  40424c:	d2800003 	mov	x3, #0x0                   	// #0
  404250:	17ffff8e 	b	404088 <__multf3+0x478>
  404254:	f10000bf 	cmp	x5, #0x0
  404258:	d2800122 	mov	x2, #0x9                   	// #9
  40425c:	9a840044 	csel	x4, x2, x4, eq  // eq = none
  404260:	17fffff8 	b	404240 <__multf3+0x630>
  404264:	f10000bf 	cmp	x5, #0x0
  404268:	d2800122 	mov	x2, #0x9                   	// #9
  40426c:	9a841044 	csel	x4, x2, x4, ne  // ne = any
  404270:	17fffff4 	b	404240 <__multf3+0x630>
  404274:	92ffffec 	mov	x12, #0xffffffffffff        	// #281474976710655
  404278:	92800002 	mov	x2, #0xffffffffffffffff    	// #-1
  40427c:	52800020 	mov	w0, #0x1                   	// #1
  404280:	d2800003 	mov	x3, #0x0                   	// #0
  404284:	17ffff69 	b	404028 <__multf3+0x418>
  404288:	aa0903ec 	mov	x12, x9
  40428c:	aa0103e2 	mov	x2, x1
  404290:	aa0503e3 	mov	x3, x5
  404294:	17ffff65 	b	404028 <__multf3+0x418>
  404298:	d2800001 	mov	x1, #0x0                   	// #0
  40429c:	d2800002 	mov	x2, #0x0                   	// #0
  4042a0:	17ffff64 	b	404030 <__multf3+0x420>

00000000004042a4 <__subtf3>:
  4042a4:	a9be7bfd 	stp	x29, x30, [sp, #-32]!
  4042a8:	910003fd 	mov	x29, sp
  4042ac:	3d8007e0 	str	q0, [sp, #16]
  4042b0:	a9410fe1 	ldp	x1, x3, [sp, #16]
  4042b4:	3d8007e1 	str	q1, [sp, #16]
  4042b8:	a9410bed 	ldp	x13, x2, [sp, #16]
  4042bc:	d53b4407 	mrs	x7, fpcr
  4042c0:	d370f865 	ubfx	x5, x3, #48, #15
  4042c4:	d370f840 	ubfx	x0, x2, #48, #15
  4042c8:	d37ffc4a 	lsr	x10, x2, #63
  4042cc:	d37ffc66 	lsr	x6, x3, #63
  4042d0:	d37dbc42 	ubfiz	x2, x2, #3, #48
  4042d4:	d37dbc63 	ubfiz	x3, x3, #3, #48
  4042d8:	aa0103ee 	mov	x14, x1
  4042dc:	aa41f463 	orr	x3, x3, x1, lsr #61
  4042e0:	d37df024 	lsl	x4, x1, #3
  4042e4:	aa0503e9 	mov	x9, x5
  4042e8:	aa0003e8 	mov	x8, x0
  4042ec:	12001d4a 	and	w10, w10, #0xff
  4042f0:	aa4df442 	orr	x2, x2, x13, lsr #61
  4042f4:	d37df1a1 	lsl	x1, x13, #3
  4042f8:	d28fffeb 	mov	x11, #0x7fff                	// #32767
  4042fc:	eb0b001f 	cmp	x0, x11
  404300:	54000241 	b.ne	404348 <__subtf3+0xa4>  // b.any
  404304:	aa01004b 	orr	x11, x2, x1
  404308:	b400020b 	cbz	x11, 404348 <__subtf3+0xa4>
  40430c:	92401d4a 	and	x10, x10, #0xff
  404310:	4b0000a5 	sub	w5, w5, w0
  404314:	eb06015f 	cmp	x10, x6
  404318:	54001f01 	b.ne	4046f8 <__subtf3+0x454>  // b.any
  40431c:	710000bf 	cmp	w5, #0x0
  404320:	d28fffe0 	mov	x0, #0x7fff                	// #32767
  404324:	5400096d 	b.le	404450 <__subtf3+0x1ac>
  404328:	b50004a8 	cbnz	x8, 4043bc <__subtf3+0x118>
  40432c:	aa010048 	orr	x8, x2, x1
  404330:	b5000108 	cbnz	x8, 404350 <__subtf3+0xac>
  404334:	eb00013f 	cmp	x9, x0
  404338:	54000320 	b.eq	40439c <__subtf3+0xf8>  // b.none
  40433c:	aa0403e1 	mov	x1, x4
  404340:	aa0903e8 	mov	x8, x9
  404344:	140001d7 	b	404aa0 <__subtf3+0x7fc>
  404348:	5200014a 	eor	w10, w10, #0x1
  40434c:	17fffff0 	b	40430c <__subtf3+0x68>
  404350:	710004a5 	subs	w5, w5, #0x1
  404354:	54000201 	b.ne	404394 <__subtf3+0xf0>  // b.any
  404358:	ab010081 	adds	x1, x4, x1
  40435c:	9a020063 	adc	x3, x3, x2
  404360:	aa0903e8 	mov	x8, x9
  404364:	b69839e3 	tbz	x3, #51, 404aa0 <__subtf3+0x7fc>
  404368:	91000509 	add	x9, x8, #0x1
  40436c:	d28fffe0 	mov	x0, #0x7fff                	// #32767
  404370:	eb00013f 	cmp	x9, x0
  404374:	54001a40 	b.eq	4046bc <__subtf3+0x418>  // b.none
  404378:	924cf862 	and	x2, x3, #0xfff7ffffffffffff
  40437c:	92400020 	and	x0, x1, #0x1
  404380:	aa410401 	orr	x1, x0, x1, lsr #1
  404384:	aa03fc21 	orr	x1, x1, x3, lsl #63
  404388:	d341fc42 	lsr	x2, x2, #1
  40438c:	52800000 	mov	w0, #0x0                   	// #0
  404390:	1400003c 	b	404480 <__subtf3+0x1dc>
  404394:	eb00013f 	cmp	x9, x0
  404398:	54000181 	b.ne	4043c8 <__subtf3+0x124>  // b.any
  40439c:	aa040061 	orr	x1, x3, x4
  4043a0:	b4003b61 	cbz	x1, 404b0c <__subtf3+0x868>
  4043a4:	d372fc60 	lsr	x0, x3, #50
  4043a8:	aa0303e2 	mov	x2, x3
  4043ac:	d2400000 	eor	x0, x0, #0x1
  4043b0:	aa0403e1 	mov	x1, x4
  4043b4:	12000000 	and	w0, w0, #0x1
  4043b8:	14000032 	b	404480 <__subtf3+0x1dc>
  4043bc:	eb00013f 	cmp	x9, x0
  4043c0:	54fffee0 	b.eq	40439c <__subtf3+0xf8>  // b.none
  4043c4:	b24d0042 	orr	x2, x2, #0x8000000000000
  4043c8:	7101d0bf 	cmp	w5, #0x74
  4043cc:	540003ac 	b.gt	404440 <__subtf3+0x19c>
  4043d0:	7100fcbf 	cmp	w5, #0x3f
  4043d4:	540001cc 	b.gt	40440c <__subtf3+0x168>
  4043d8:	52800808 	mov	w8, #0x40                  	// #64
  4043dc:	4b050108 	sub	w8, w8, w5
  4043e0:	9ac5242a 	lsr	x10, x1, x5
  4043e4:	9ac82021 	lsl	x1, x1, x8
  4043e8:	f100003f 	cmp	x1, #0x0
  4043ec:	9ac82040 	lsl	x0, x2, x8
  4043f0:	9a9f07e1 	cset	x1, ne  // ne = any
  4043f4:	aa0a0000 	orr	x0, x0, x10
  4043f8:	9ac52442 	lsr	x2, x2, x5
  4043fc:	aa010001 	orr	x1, x0, x1
  404400:	ab040021 	adds	x1, x1, x4
  404404:	9a030043 	adc	x3, x2, x3
  404408:	17ffffd6 	b	404360 <__subtf3+0xbc>
  40440c:	510100a0 	sub	w0, w5, #0x40
  404410:	52801008 	mov	w8, #0x80                  	// #128
  404414:	4b050108 	sub	w8, w8, w5
  404418:	710100bf 	cmp	w5, #0x40
  40441c:	9ac02440 	lsr	x0, x2, x0
  404420:	9ac82042 	lsl	x2, x2, x8
  404424:	9a9f1042 	csel	x2, x2, xzr, ne  // ne = any
  404428:	aa010041 	orr	x1, x2, x1
  40442c:	f100003f 	cmp	x1, #0x0
  404430:	9a9f07e1 	cset	x1, ne  // ne = any
  404434:	aa010001 	orr	x1, x0, x1
  404438:	d2800002 	mov	x2, #0x0                   	// #0
  40443c:	17fffff1 	b	404400 <__subtf3+0x15c>
  404440:	aa010041 	orr	x1, x2, x1
  404444:	f100003f 	cmp	x1, #0x0
  404448:	9a9f07e1 	cset	x1, ne  // ne = any
  40444c:	17fffffb 	b	404438 <__subtf3+0x194>
  404450:	54000780 	b.eq	404540 <__subtf3+0x29c>  // b.none
  404454:	b50004a9 	cbnz	x9, 4044e8 <__subtf3+0x244>
  404458:	aa040069 	orr	x9, x3, x4
  40445c:	b5000169 	cbnz	x9, 404488 <__subtf3+0x1e4>
  404460:	eb00011f 	cmp	x8, x0
  404464:	54003241 	b.ne	404aac <__subtf3+0x808>  // b.any
  404468:	aa010040 	orr	x0, x2, x1
  40446c:	b40033a0 	cbz	x0, 404ae0 <__subtf3+0x83c>
  404470:	d372fc40 	lsr	x0, x2, #50
  404474:	aa0803e9 	mov	x9, x8
  404478:	d2400000 	eor	x0, x0, #0x1
  40447c:	12000000 	and	w0, w0, #0x1
  404480:	52800005 	mov	w5, #0x0                   	// #0
  404484:	1400003e 	b	40457c <__subtf3+0x2d8>
  404488:	2a2503e5 	mvn	w5, w5
  40448c:	35000085 	cbnz	w5, 40449c <__subtf3+0x1f8>
  404490:	ab010081 	adds	x1, x4, x1
  404494:	9a020063 	adc	x3, x3, x2
  404498:	17ffffb3 	b	404364 <__subtf3+0xc0>
  40449c:	eb00011f 	cmp	x8, x0
  4044a0:	54fffe40 	b.eq	404468 <__subtf3+0x1c4>  // b.none
  4044a4:	7101d0bf 	cmp	w5, #0x74
  4044a8:	5400044c 	b.gt	404530 <__subtf3+0x28c>
  4044ac:	7100fcbf 	cmp	w5, #0x3f
  4044b0:	5400026c 	b.gt	4044fc <__subtf3+0x258>
  4044b4:	52800809 	mov	w9, #0x40                  	// #64
  4044b8:	4b050129 	sub	w9, w9, w5
  4044bc:	9ac5248a 	lsr	x10, x4, x5
  4044c0:	9ac92084 	lsl	x4, x4, x9
  4044c4:	f100009f 	cmp	x4, #0x0
  4044c8:	9a9f07e4 	cset	x4, ne  // ne = any
  4044cc:	9ac92060 	lsl	x0, x3, x9
  4044d0:	aa0a0000 	orr	x0, x0, x10
  4044d4:	9ac52465 	lsr	x5, x3, x5
  4044d8:	aa040000 	orr	x0, x0, x4
  4044dc:	ab010001 	adds	x1, x0, x1
  4044e0:	9a0200a3 	adc	x3, x5, x2
  4044e4:	17ffffa0 	b	404364 <__subtf3+0xc0>
  4044e8:	eb00011f 	cmp	x8, x0
  4044ec:	54fffbe0 	b.eq	404468 <__subtf3+0x1c4>  // b.none
  4044f0:	4b0503e5 	neg	w5, w5
  4044f4:	b24d0063 	orr	x3, x3, #0x8000000000000
  4044f8:	17ffffeb 	b	4044a4 <__subtf3+0x200>
  4044fc:	510100a0 	sub	w0, w5, #0x40
  404500:	52801009 	mov	w9, #0x80                  	// #128
  404504:	4b050129 	sub	w9, w9, w5
  404508:	710100bf 	cmp	w5, #0x40
  40450c:	9ac02460 	lsr	x0, x3, x0
  404510:	9ac92063 	lsl	x3, x3, x9
  404514:	9a9f1063 	csel	x3, x3, xzr, ne  // ne = any
  404518:	aa040064 	orr	x4, x3, x4
  40451c:	f100009f 	cmp	x4, #0x0
  404520:	9a9f07e3 	cset	x3, ne  // ne = any
  404524:	aa030000 	orr	x0, x0, x3
  404528:	d2800005 	mov	x5, #0x0                   	// #0
  40452c:	17ffffec 	b	4044dc <__subtf3+0x238>
  404530:	aa040063 	orr	x3, x3, x4
  404534:	f100007f 	cmp	x3, #0x0
  404538:	9a9f07e0 	cset	x0, ne  // ne = any
  40453c:	17fffffb 	b	404528 <__subtf3+0x284>
  404540:	9100052b 	add	x11, x9, #0x1
  404544:	f27f357f 	tst	x11, #0x7ffe
  404548:	54000881 	b.ne	404658 <__subtf3+0x3b4>  // b.any
  40454c:	aa04006b 	orr	x11, x3, x4
  404550:	b5000369 	cbnz	x9, 4045bc <__subtf3+0x318>
  404554:	b4002b6b 	cbz	x11, 404ac0 <__subtf3+0x81c>
  404558:	aa010040 	orr	x0, x2, x1
  40455c:	b4001d20 	cbz	x0, 404900 <__subtf3+0x65c>
  404560:	ab010084 	adds	x4, x4, x1
  404564:	9a020063 	adc	x3, x3, x2
  404568:	b6981cc3 	tbz	x3, #51, 404900 <__subtf3+0x65c>
  40456c:	924cf862 	and	x2, x3, #0xfff7ffffffffffff
  404570:	aa0403e1 	mov	x1, x4
  404574:	52800000 	mov	w0, #0x0                   	// #0
  404578:	d2800029 	mov	x9, #0x1                   	// #1
  40457c:	f240083f 	tst	x1, #0x7
  404580:	54002e20 	b.eq	404b44 <__subtf3+0x8a0>  // b.none
  404584:	926a04e3 	and	x3, x7, #0xc00000
  404588:	321c0000 	orr	w0, w0, #0x10
  40458c:	f150007f 	cmp	x3, #0x400, lsl #12
  404590:	54002d00 	b.eq	404b30 <__subtf3+0x88c>  // b.none
  404594:	f160007f 	cmp	x3, #0x800, lsl #12
  404598:	54002d20 	b.eq	404b3c <__subtf3+0x898>  // b.none
  40459c:	b50000c3 	cbnz	x3, 4045b4 <__subtf3+0x310>
  4045a0:	92400c23 	and	x3, x1, #0xf
  4045a4:	f100107f 	cmp	x3, #0x4
  4045a8:	54000060 	b.eq	4045b4 <__subtf3+0x310>  // b.none
  4045ac:	b1001021 	adds	x1, x1, #0x4
  4045b0:	9a823442 	cinc	x2, x2, cs  // cs = hs, nlast
  4045b4:	34002d05 	cbz	w5, 404b54 <__subtf3+0x8b0>
  4045b8:	14000166 	b	404b50 <__subtf3+0x8ac>
  4045bc:	eb00013f 	cmp	x9, x0
  4045c0:	54000321 	b.ne	404624 <__subtf3+0x380>  // b.any
  4045c4:	b400338b 	cbz	x11, 404c34 <__subtf3+0x990>
  4045c8:	d372fc60 	lsr	x0, x3, #50
  4045cc:	d2400000 	eor	x0, x0, #0x1
  4045d0:	12000000 	and	w0, w0, #0x1
  4045d4:	eb09011f 	cmp	x8, x9
  4045d8:	54000361 	b.ne	404644 <__subtf3+0x3a0>  // b.any
  4045dc:	aa010048 	orr	x8, x2, x1
  4045e0:	b4003268 	cbz	x8, 404c2c <__subtf3+0x988>
  4045e4:	f24e005f 	tst	x2, #0x4000000000000
  4045e8:	1a9f1400 	csinc	w0, w0, wzr, ne  // ne = any
  4045ec:	b400028b 	cbz	x11, 40463c <__subtf3+0x398>
  4045f0:	9240f1c1 	and	x1, x14, #0x1fffffffffffffff
  4045f4:	d343fc64 	lsr	x4, x3, #3
  4045f8:	aa03f421 	orr	x1, x1, x3, lsl #61
  4045fc:	b69000e3 	tbz	x3, #50, 404618 <__subtf3+0x374>
  404600:	d343fc43 	lsr	x3, x2, #3
  404604:	b79000a2 	tbnz	x2, #50, 404618 <__subtf3+0x374>
  404608:	9240f1a1 	and	x1, x13, #0x1fffffffffffffff
  40460c:	aa0303e4 	mov	x4, x3
  404610:	aa02f421 	orr	x1, x1, x2, lsl #61
  404614:	aa0a03e6 	mov	x6, x10
  404618:	93c1f482 	extr	x2, x4, x1, #61
  40461c:	d37df021 	lsl	x1, x1, #3
  404620:	14000007 	b	40463c <__subtf3+0x398>
  404624:	eb00011f 	cmp	x8, x0
  404628:	54000061 	b.ne	404634 <__subtf3+0x390>  // b.any
  40462c:	52800000 	mov	w0, #0x0                   	// #0
  404630:	17ffffeb 	b	4045dc <__subtf3+0x338>
  404634:	52800000 	mov	w0, #0x0                   	// #0
  404638:	b500006b 	cbnz	x11, 404644 <__subtf3+0x3a0>
  40463c:	d28fffe9 	mov	x9, #0x7fff                	// #32767
  404640:	17ffffcf 	b	40457c <__subtf3+0x2d8>
  404644:	aa010041 	orr	x1, x2, x1
  404648:	b5fffd41 	cbnz	x1, 4045f0 <__subtf3+0x34c>
  40464c:	aa0303e2 	mov	x2, x3
  404650:	aa0403e1 	mov	x1, x4
  404654:	17fffffa 	b	40463c <__subtf3+0x398>
  404658:	eb00017f 	cmp	x11, x0
  40465c:	54000100 	b.eq	40467c <__subtf3+0x3d8>  // b.none
  404660:	ab010081 	adds	x1, x4, x1
  404664:	aa0b03e9 	mov	x9, x11
  404668:	9a020062 	adc	x2, x3, x2
  40466c:	93c10441 	extr	x1, x2, x1, #1
  404670:	d341fc42 	lsr	x2, x2, #1
  404674:	52800000 	mov	w0, #0x0                   	// #0
  404678:	17ffffc1 	b	40457c <__subtf3+0x2d8>
  40467c:	f26a04e1 	ands	x1, x7, #0xc00000
  404680:	54002380 	b.eq	404af0 <__subtf3+0x84c>  // b.none
  404684:	f150003f 	cmp	x1, #0x400, lsl #12
  404688:	540000c1 	b.ne	4046a0 <__subtf3+0x3fc>  // b.any
  40468c:	b5000106 	cbnz	x6, 4046ac <__subtf3+0x408>
  404690:	aa0b03e9 	mov	x9, x11
  404694:	d2800002 	mov	x2, #0x0                   	// #0
  404698:	d2800001 	mov	x1, #0x0                   	// #0
  40469c:	14000117 	b	404af8 <__subtf3+0x854>
  4046a0:	f160003f 	cmp	x1, #0x800, lsl #12
  4046a4:	54000041 	b.ne	4046ac <__subtf3+0x408>  // b.any
  4046a8:	b5ffff46 	cbnz	x6, 404690 <__subtf3+0x3ec>
  4046ac:	92800002 	mov	x2, #0xffffffffffffffff    	// #-1
  4046b0:	d28fffc9 	mov	x9, #0x7ffe                	// #32766
  4046b4:	aa0203e1 	mov	x1, x2
  4046b8:	14000110 	b	404af8 <__subtf3+0x854>
  4046bc:	f26a04e1 	ands	x1, x7, #0xc00000
  4046c0:	54002200 	b.eq	404b00 <__subtf3+0x85c>  // b.none
  4046c4:	f150003f 	cmp	x1, #0x400, lsl #12
  4046c8:	540000a1 	b.ne	4046dc <__subtf3+0x438>  // b.any
  4046cc:	b50000e6 	cbnz	x6, 4046e8 <__subtf3+0x444>
  4046d0:	d2800002 	mov	x2, #0x0                   	// #0
  4046d4:	d2800001 	mov	x1, #0x0                   	// #0
  4046d8:	1400010b 	b	404b04 <__subtf3+0x860>
  4046dc:	f160003f 	cmp	x1, #0x800, lsl #12
  4046e0:	54000041 	b.ne	4046e8 <__subtf3+0x444>  // b.any
  4046e4:	b5ffff66 	cbnz	x6, 4046d0 <__subtf3+0x42c>
  4046e8:	92800001 	mov	x1, #0xffffffffffffffff    	// #-1
  4046ec:	d28fffc9 	mov	x9, #0x7ffe                	// #32766
  4046f0:	aa0103e2 	mov	x2, x1
  4046f4:	14000104 	b	404b04 <__subtf3+0x860>
  4046f8:	710000bf 	cmp	w5, #0x0
  4046fc:	d28fffe0 	mov	x0, #0x7fff                	// #32767
  404700:	540006cd 	b.le	4047d8 <__subtf3+0x534>
  404704:	b5000408 	cbnz	x8, 404784 <__subtf3+0x4e0>
  404708:	aa010048 	orr	x8, x2, x1
  40470c:	b4ffe148 	cbz	x8, 404334 <__subtf3+0x90>
  404710:	710004a5 	subs	w5, w5, #0x1
  404714:	54000121 	b.ne	404738 <__subtf3+0x494>  // b.any
  404718:	eb010081 	subs	x1, x4, x1
  40471c:	da020063 	sbc	x3, x3, x2
  404720:	aa0903e8 	mov	x8, x9
  404724:	b6981be3 	tbz	x3, #51, 404aa0 <__subtf3+0x7fc>
  404728:	9240c865 	and	x5, x3, #0x7ffffffffffff
  40472c:	aa0103eb 	mov	x11, x1
  404730:	aa0803e9 	mov	x9, x8
  404734:	140000a7 	b	4049d0 <__subtf3+0x72c>
  404738:	eb00013f 	cmp	x9, x0
  40473c:	54ffe300 	b.eq	40439c <__subtf3+0xf8>  // b.none
  404740:	7101d0bf 	cmp	w5, #0x74
  404744:	5400042c 	b.gt	4047c8 <__subtf3+0x524>
  404748:	7100fcbf 	cmp	w5, #0x3f
  40474c:	5400024c 	b.gt	404794 <__subtf3+0x4f0>
  404750:	52800800 	mov	w0, #0x40                  	// #64
  404754:	4b050000 	sub	w0, w0, w5
  404758:	9ac5242a 	lsr	x10, x1, x5
  40475c:	9ac02048 	lsl	x8, x2, x0
  404760:	aa0a0108 	orr	x8, x8, x10
  404764:	9ac02020 	lsl	x0, x1, x0
  404768:	f100001f 	cmp	x0, #0x0
  40476c:	9a9f07e1 	cset	x1, ne  // ne = any
  404770:	9ac52442 	lsr	x2, x2, x5
  404774:	aa010101 	orr	x1, x8, x1
  404778:	eb010081 	subs	x1, x4, x1
  40477c:	da020063 	sbc	x3, x3, x2
  404780:	17ffffe8 	b	404720 <__subtf3+0x47c>
  404784:	eb00013f 	cmp	x9, x0
  404788:	54ffe0a0 	b.eq	40439c <__subtf3+0xf8>  // b.none
  40478c:	b24d0042 	orr	x2, x2, #0x8000000000000
  404790:	17ffffec 	b	404740 <__subtf3+0x49c>
  404794:	510100a8 	sub	w8, w5, #0x40
  404798:	52801000 	mov	w0, #0x80                  	// #128
  40479c:	4b050000 	sub	w0, w0, w5
  4047a0:	710100bf 	cmp	w5, #0x40
  4047a4:	9ac82448 	lsr	x8, x2, x8
  4047a8:	9ac02042 	lsl	x2, x2, x0
  4047ac:	9a9f1042 	csel	x2, x2, xzr, ne  // ne = any
  4047b0:	aa010041 	orr	x1, x2, x1
  4047b4:	f100003f 	cmp	x1, #0x0
  4047b8:	9a9f07e1 	cset	x1, ne  // ne = any
  4047bc:	aa010101 	orr	x1, x8, x1
  4047c0:	d2800002 	mov	x2, #0x0                   	// #0
  4047c4:	17ffffed 	b	404778 <__subtf3+0x4d4>
  4047c8:	aa010041 	orr	x1, x2, x1
  4047cc:	f100003f 	cmp	x1, #0x0
  4047d0:	9a9f07e1 	cset	x1, ne  // ne = any
  4047d4:	17fffffb 	b	4047c0 <__subtf3+0x51c>
  4047d8:	540007a0 	b.eq	4048cc <__subtf3+0x628>  // b.none
  4047dc:	b50004c9 	cbnz	x9, 404874 <__subtf3+0x5d0>
  4047e0:	aa040066 	orr	x6, x3, x4
  4047e4:	b5000166 	cbnz	x6, 404810 <__subtf3+0x56c>
  4047e8:	eb00011f 	cmp	x8, x0
  4047ec:	54001641 	b.ne	404ab4 <__subtf3+0x810>  // b.any
  4047f0:	aa010040 	orr	x0, x2, x1
  4047f4:	b4001900 	cbz	x0, 404b14 <__subtf3+0x870>
  4047f8:	d372fc40 	lsr	x0, x2, #50
  4047fc:	aa0803e9 	mov	x9, x8
  404800:	d2400000 	eor	x0, x0, #0x1
  404804:	aa0a03e6 	mov	x6, x10
  404808:	12000000 	and	w0, w0, #0x1
  40480c:	17ffff1d 	b	404480 <__subtf3+0x1dc>
  404810:	2a2503e5 	mvn	w5, w5
  404814:	350000a5 	cbnz	w5, 404828 <__subtf3+0x584>
  404818:	eb040021 	subs	x1, x1, x4
  40481c:	da030043 	sbc	x3, x2, x3
  404820:	aa0a03e6 	mov	x6, x10
  404824:	17ffffc0 	b	404724 <__subtf3+0x480>
  404828:	eb00011f 	cmp	x8, x0
  40482c:	54fffe20 	b.eq	4047f0 <__subtf3+0x54c>  // b.none
  404830:	7101d0bf 	cmp	w5, #0x74
  404834:	5400044c 	b.gt	4048bc <__subtf3+0x618>
  404838:	7100fcbf 	cmp	w5, #0x3f
  40483c:	5400026c 	b.gt	404888 <__subtf3+0x5e4>
  404840:	52800806 	mov	w6, #0x40                  	// #64
  404844:	4b0500c6 	sub	w6, w6, w5
  404848:	9ac52489 	lsr	x9, x4, x5
  40484c:	9ac62084 	lsl	x4, x4, x6
  404850:	f100009f 	cmp	x4, #0x0
  404854:	9a9f07e4 	cset	x4, ne  // ne = any
  404858:	9ac62060 	lsl	x0, x3, x6
  40485c:	aa090000 	orr	x0, x0, x9
  404860:	9ac52465 	lsr	x5, x3, x5
  404864:	aa040000 	orr	x0, x0, x4
  404868:	eb000021 	subs	x1, x1, x0
  40486c:	da050043 	sbc	x3, x2, x5
  404870:	17ffffec 	b	404820 <__subtf3+0x57c>
  404874:	eb00011f 	cmp	x8, x0
  404878:	54fffbc0 	b.eq	4047f0 <__subtf3+0x54c>  // b.none
  40487c:	4b0503e5 	neg	w5, w5
  404880:	b24d0063 	orr	x3, x3, #0x8000000000000
  404884:	17ffffeb 	b	404830 <__subtf3+0x58c>
  404888:	510100a0 	sub	w0, w5, #0x40
  40488c:	52801006 	mov	w6, #0x80                  	// #128
  404890:	4b0500c6 	sub	w6, w6, w5
  404894:	710100bf 	cmp	w5, #0x40
  404898:	9ac02460 	lsr	x0, x3, x0
  40489c:	9ac62063 	lsl	x3, x3, x6
  4048a0:	9a9f1063 	csel	x3, x3, xzr, ne  // ne = any
  4048a4:	aa040064 	orr	x4, x3, x4
  4048a8:	f100009f 	cmp	x4, #0x0
  4048ac:	9a9f07e3 	cset	x3, ne  // ne = any
  4048b0:	aa030000 	orr	x0, x0, x3
  4048b4:	d2800005 	mov	x5, #0x0                   	// #0
  4048b8:	17ffffec 	b	404868 <__subtf3+0x5c4>
  4048bc:	aa040063 	orr	x3, x3, x4
  4048c0:	f100007f 	cmp	x3, #0x0
  4048c4:	9a9f07e0 	cset	x0, ne  // ne = any
  4048c8:	17fffffb 	b	4048b4 <__subtf3+0x610>
  4048cc:	9100052b 	add	x11, x9, #0x1
  4048d0:	f27f357f 	tst	x11, #0x7ffe
  4048d4:	54000701 	b.ne	4049b4 <__subtf3+0x710>  // b.any
  4048d8:	aa04006b 	orr	x11, x3, x4
  4048dc:	aa01004c 	orr	x12, x2, x1
  4048e0:	b50003c9 	cbnz	x9, 404958 <__subtf3+0x6b4>
  4048e4:	b50001cb 	cbnz	x11, 40491c <__subtf3+0x678>
  4048e8:	b5000f0c 	cbnz	x12, 404ac8 <__subtf3+0x824>
  4048ec:	926a04e0 	and	x0, x7, #0xc00000
  4048f0:	d2800003 	mov	x3, #0x0                   	// #0
  4048f4:	f160001f 	cmp	x0, #0x800, lsl #12
  4048f8:	d2800004 	mov	x4, #0x0                   	// #0
  4048fc:	9a9f17e6 	cset	x6, eq  // eq = none
  404900:	aa030080 	orr	x0, x4, x3
  404904:	aa0303e2 	mov	x2, x3
  404908:	f100001f 	cmp	x0, #0x0
  40490c:	aa0403e1 	mov	x1, x4
  404910:	1a9f07e5 	cset	w5, ne  // ne = any
  404914:	d2800009 	mov	x9, #0x0                   	// #0
  404918:	17ffff57 	b	404674 <__subtf3+0x3d0>
  40491c:	b4ffff2c 	cbz	x12, 404900 <__subtf3+0x65c>
  404920:	eb010085 	subs	x5, x4, x1
  404924:	da020060 	sbc	x0, x3, x2
  404928:	b69800a0 	tbz	x0, #51, 40493c <__subtf3+0x698>
  40492c:	eb040024 	subs	x4, x1, x4
  404930:	da030043 	sbc	x3, x2, x3
  404934:	aa0a03e6 	mov	x6, x10
  404938:	17fffff2 	b	404900 <__subtf3+0x65c>
  40493c:	aa0000a4 	orr	x4, x5, x0
  404940:	b5000ca4 	cbnz	x4, 404ad4 <__subtf3+0x830>
  404944:	926a04e0 	and	x0, x7, #0xc00000
  404948:	f160001f 	cmp	x0, #0x800, lsl #12
  40494c:	9a9f17e6 	cset	x6, eq  // eq = none
  404950:	d2800003 	mov	x3, #0x0                   	// #0
  404954:	17ffffeb 	b	404900 <__subtf3+0x65c>
  404958:	eb00013f 	cmp	x9, x0
  40495c:	540001c1 	b.ne	404994 <__subtf3+0x6f0>  // b.any
  404960:	b40015eb 	cbz	x11, 404c1c <__subtf3+0x978>
  404964:	d372fc60 	lsr	x0, x3, #50
  404968:	d2400000 	eor	x0, x0, #0x1
  40496c:	12000000 	and	w0, w0, #0x1
  404970:	eb09011f 	cmp	x8, x9
  404974:	540001c1 	b.ne	4049ac <__subtf3+0x708>  // b.any
  404978:	b400166c 	cbz	x12, 404c44 <__subtf3+0x9a0>
  40497c:	f24e005f 	tst	x2, #0x4000000000000
  404980:	1a9f1400 	csinc	w0, w0, wzr, ne  // ne = any
  404984:	b5ffe36b 	cbnz	x11, 4045f0 <__subtf3+0x34c>
  404988:	b400160c 	cbz	x12, 404c48 <__subtf3+0x9a4>
  40498c:	aa0a03e6 	mov	x6, x10
  404990:	17ffff2b 	b	40463c <__subtf3+0x398>
  404994:	eb00011f 	cmp	x8, x0
  404998:	54000061 	b.ne	4049a4 <__subtf3+0x700>  // b.any
  40499c:	52800000 	mov	w0, #0x0                   	// #0
  4049a0:	17fffff6 	b	404978 <__subtf3+0x6d4>
  4049a4:	52800000 	mov	w0, #0x0                   	// #0
  4049a8:	b4ffff0b 	cbz	x11, 404988 <__subtf3+0x6e4>
  4049ac:	b5ffe22c 	cbnz	x12, 4045f0 <__subtf3+0x34c>
  4049b0:	17ffff27 	b	40464c <__subtf3+0x3a8>
  4049b4:	eb010080 	subs	x0, x4, x1
  4049b8:	aa0003eb 	mov	x11, x0
  4049bc:	da020065 	sbc	x5, x3, x2
  4049c0:	b6980465 	tbz	x5, #51, 404a4c <__subtf3+0x7a8>
  4049c4:	eb04002b 	subs	x11, x1, x4
  4049c8:	aa0a03e6 	mov	x6, x10
  4049cc:	da030045 	sbc	x5, x2, x3
  4049d0:	dac01160 	clz	x0, x11
  4049d4:	dac010a3 	clz	x3, x5
  4049d8:	11010000 	add	w0, w0, #0x40
  4049dc:	f10000bf 	cmp	x5, #0x0
  4049e0:	1a830003 	csel	w3, w0, w3, eq  // eq = none
  4049e4:	51003060 	sub	w0, w3, #0xc
  4049e8:	7100fc1f 	cmp	w0, #0x3f
  4049ec:	5400036c 	b.gt	404a58 <__subtf3+0x7b4>
  4049f0:	4b0003e3 	neg	w3, w0
  4049f4:	9ac020a5 	lsl	x5, x5, x0
  4049f8:	9ac02161 	lsl	x1, x11, x0
  4049fc:	9ac32563 	lsr	x3, x11, x3
  404a00:	aa050063 	orr	x3, x3, x5
  404a04:	93407c08 	sxtw	x8, w0
  404a08:	eb20c13f 	cmp	x9, w0, sxtw
  404a0c:	5400046c 	b.gt	404a98 <__subtf3+0x7f4>
  404a10:	4b090000 	sub	w0, w0, w9
  404a14:	11000402 	add	w2, w0, #0x1
  404a18:	7100fc5f 	cmp	w2, #0x3f
  404a1c:	5400026c 	b.gt	404a68 <__subtf3+0x7c4>
  404a20:	52800800 	mov	w0, #0x40                  	// #64
  404a24:	4b020000 	sub	w0, w0, w2
  404a28:	9ac22425 	lsr	x5, x1, x2
  404a2c:	9ac02064 	lsl	x4, x3, x0
  404a30:	aa050084 	orr	x4, x4, x5
  404a34:	9ac02020 	lsl	x0, x1, x0
  404a38:	f100001f 	cmp	x0, #0x0
  404a3c:	9a9f07e0 	cset	x0, ne  // ne = any
  404a40:	9ac22463 	lsr	x3, x3, x2
  404a44:	aa000084 	orr	x4, x4, x0
  404a48:	17ffffae 	b	404900 <__subtf3+0x65c>
  404a4c:	aa050004 	orr	x4, x0, x5
  404a50:	b5fffc04 	cbnz	x4, 4049d0 <__subtf3+0x72c>
  404a54:	17ffffbc 	b	404944 <__subtf3+0x6a0>
  404a58:	51013063 	sub	w3, w3, #0x4c
  404a5c:	d2800001 	mov	x1, #0x0                   	// #0
  404a60:	9ac32163 	lsl	x3, x11, x3
  404a64:	17ffffe8 	b	404a04 <__subtf3+0x760>
  404a68:	5100fc00 	sub	w0, w0, #0x3f
  404a6c:	7101005f 	cmp	w2, #0x40
  404a70:	9ac02464 	lsr	x4, x3, x0
  404a74:	52801000 	mov	w0, #0x80                  	// #128
  404a78:	4b020000 	sub	w0, w0, w2
  404a7c:	9ac02063 	lsl	x3, x3, x0
  404a80:	9a9f1063 	csel	x3, x3, xzr, ne  // ne = any
  404a84:	aa030021 	orr	x1, x1, x3
  404a88:	f100003f 	cmp	x1, #0x0
  404a8c:	9a9f07e0 	cset	x0, ne  // ne = any
  404a90:	aa000084 	orr	x4, x4, x0
  404a94:	17ffffaf 	b	404950 <__subtf3+0x6ac>
  404a98:	cb080128 	sub	x8, x9, x8
  404a9c:	924cf863 	and	x3, x3, #0xfff7ffffffffffff
  404aa0:	b5000448 	cbnz	x8, 404b28 <__subtf3+0x884>
  404aa4:	aa0103e4 	mov	x4, x1
  404aa8:	17ffff96 	b	404900 <__subtf3+0x65c>
  404aac:	aa0203e3 	mov	x3, x2
  404ab0:	17fffffc 	b	404aa0 <__subtf3+0x7fc>
  404ab4:	aa0203e3 	mov	x3, x2
  404ab8:	aa0a03e6 	mov	x6, x10
  404abc:	17fffff9 	b	404aa0 <__subtf3+0x7fc>
  404ac0:	aa0203e3 	mov	x3, x2
  404ac4:	17fffff8 	b	404aa4 <__subtf3+0x800>
  404ac8:	aa0203e3 	mov	x3, x2
  404acc:	aa0103e4 	mov	x4, x1
  404ad0:	17ffff99 	b	404934 <__subtf3+0x690>
  404ad4:	aa0003e3 	mov	x3, x0
  404ad8:	aa0503e4 	mov	x4, x5
  404adc:	17ffff89 	b	404900 <__subtf3+0x65c>
  404ae0:	d2800002 	mov	x2, #0x0                   	// #0
  404ae4:	d2800001 	mov	x1, #0x0                   	// #0
  404ae8:	aa0803e9 	mov	x9, x8
  404aec:	17fffe28 	b	40438c <__subtf3+0xe8>
  404af0:	aa0b03e9 	mov	x9, x11
  404af4:	d2800002 	mov	x2, #0x0                   	// #0
  404af8:	52800280 	mov	w0, #0x14                  	// #20
  404afc:	17fffea0 	b	40457c <__subtf3+0x2d8>
  404b00:	d2800002 	mov	x2, #0x0                   	// #0
  404b04:	52800280 	mov	w0, #0x14                  	// #20
  404b08:	17fffe5e 	b	404480 <__subtf3+0x1dc>
  404b0c:	d2800002 	mov	x2, #0x0                   	// #0
  404b10:	17fffe1f 	b	40438c <__subtf3+0xe8>
  404b14:	aa0803e9 	mov	x9, x8
  404b18:	aa0a03e6 	mov	x6, x10
  404b1c:	d2800002 	mov	x2, #0x0                   	// #0
  404b20:	d2800001 	mov	x1, #0x0                   	// #0
  404b24:	17fffe1a 	b	40438c <__subtf3+0xe8>
  404b28:	aa0303e2 	mov	x2, x3
  404b2c:	17ffffef 	b	404ae8 <__subtf3+0x844>
  404b30:	b5ffd426 	cbnz	x6, 4045b4 <__subtf3+0x310>
  404b34:	b1002021 	adds	x1, x1, #0x8
  404b38:	17fffe9e 	b	4045b0 <__subtf3+0x30c>
  404b3c:	b4ffd3c6 	cbz	x6, 4045b4 <__subtf3+0x310>
  404b40:	17fffffd 	b	404b34 <__subtf3+0x890>
  404b44:	34000085 	cbz	w5, 404b54 <__subtf3+0x8b0>
  404b48:	37200040 	tbnz	w0, #4, 404b50 <__subtf3+0x8ac>
  404b4c:	36580047 	tbz	w7, #11, 404b54 <__subtf3+0x8b0>
  404b50:	321d0000 	orr	w0, w0, #0x8
  404b54:	b69800c2 	tbz	x2, #51, 404b6c <__subtf3+0x8c8>
  404b58:	91000529 	add	x9, x9, #0x1
  404b5c:	d28fffe3 	mov	x3, #0x7fff                	// #32767
  404b60:	eb03013f 	cmp	x9, x3
  404b64:	54000300 	b.eq	404bc4 <__subtf3+0x920>  // b.none
  404b68:	924cf842 	and	x2, x2, #0xfff7ffffffffffff
  404b6c:	d28fffe3 	mov	x3, #0x7fff                	// #32767
  404b70:	93c10c41 	extr	x1, x2, x1, #3
  404b74:	d343fc42 	lsr	x2, x2, #3
  404b78:	eb03013f 	cmp	x9, x3
  404b7c:	540000a1 	b.ne	404b90 <__subtf3+0x8ec>  // b.any
  404b80:	aa020023 	orr	x3, x1, x2
  404b84:	b2510042 	orr	x2, x2, #0x800000000000
  404b88:	f100007f 	cmp	x3, #0x0
  404b8c:	9a9f1042 	csel	x2, x2, xzr, ne  // ne = any
  404b90:	92403929 	and	x9, x9, #0x7fff
  404b94:	d2800005 	mov	x5, #0x0                   	// #0
  404b98:	b340bc45 	bfxil	x5, x2, #0, #48
  404b9c:	2a063d26 	orr	w6, w9, w6, lsl #15
  404ba0:	9e670020 	fmov	d0, x1
  404ba4:	b3503cc5 	bfi	x5, x6, #48, #16
  404ba8:	9eaf00a0 	fmov	v0.d[1], x5
  404bac:	34000080 	cbz	w0, 404bbc <__subtf3+0x918>
  404bb0:	3d8007e0 	str	q0, [sp, #16]
  404bb4:	940000fa 	bl	404f9c <__sfp_handle_exceptions>
  404bb8:	3dc007e0 	ldr	q0, [sp, #16]
  404bbc:	a8c27bfd 	ldp	x29, x30, [sp], #32
  404bc0:	d65f03c0 	ret
  404bc4:	f26a04e1 	ands	x1, x7, #0xc00000
  404bc8:	540000e0 	b.eq	404be4 <__subtf3+0x940>  // b.none
  404bcc:	f150003f 	cmp	x1, #0x400, lsl #12
  404bd0:	54000121 	b.ne	404bf4 <__subtf3+0x950>  // b.any
  404bd4:	f10000df 	cmp	x6, #0x0
  404bd8:	d28fffc2 	mov	x2, #0x7ffe                	// #32766
  404bdc:	da9f03e1 	csetm	x1, ne  // ne = any
  404be0:	9a820129 	csel	x9, x9, x2, eq  // eq = none
  404be4:	52800282 	mov	w2, #0x14                  	// #20
  404be8:	2a020000 	orr	w0, w0, w2
  404bec:	aa0103e2 	mov	x2, x1
  404bf0:	17ffffdf 	b	404b6c <__subtf3+0x8c8>
  404bf4:	f160003f 	cmp	x1, #0x800, lsl #12
  404bf8:	540000c1 	b.ne	404c10 <__subtf3+0x96c>  // b.any
  404bfc:	f10000df 	cmp	x6, #0x0
  404c00:	d28fffc2 	mov	x2, #0x7ffe                	// #32766
  404c04:	da9f13e1 	csetm	x1, eq  // eq = none
  404c08:	9a821129 	csel	x9, x9, x2, ne  // ne = any
  404c0c:	17fffff6 	b	404be4 <__subtf3+0x940>
  404c10:	92800001 	mov	x1, #0xffffffffffffffff    	// #-1
  404c14:	d28fffc9 	mov	x9, #0x7ffe                	// #32766
  404c18:	17fffff3 	b	404be4 <__subtf3+0x940>
  404c1c:	eb09011f 	cmp	x8, x9
  404c20:	54ffebe0 	b.eq	40499c <__subtf3+0x6f8>  // b.none
  404c24:	52800000 	mov	w0, #0x0                   	// #0
  404c28:	17ffff58 	b	404988 <__subtf3+0x6e4>
  404c2c:	b4ffd08b 	cbz	x11, 40463c <__subtf3+0x398>
  404c30:	17fffe87 	b	40464c <__subtf3+0x3a8>
  404c34:	eb09011f 	cmp	x8, x9
  404c38:	54ffcfa0 	b.eq	40462c <__subtf3+0x388>  // b.none
  404c3c:	52800000 	mov	w0, #0x0                   	// #0
  404c40:	17fffe7f 	b	40463c <__subtf3+0x398>
  404c44:	b5ffd04b 	cbnz	x11, 40464c <__subtf3+0x3a8>
  404c48:	d2800006 	mov	x6, #0x0                   	// #0
  404c4c:	92ffff02 	mov	x2, #0x7ffffffffffff       	// #2251799813685247
  404c50:	928000e1 	mov	x1, #0xfffffffffffffff8    	// #-8
  404c54:	d28fffe9 	mov	x9, #0x7fff                	// #32767
  404c58:	52800020 	mov	w0, #0x1                   	// #1
  404c5c:	17fffe48 	b	40457c <__subtf3+0x2d8>

0000000000404c60 <__fixtfsi>:
  404c60:	a9bd7bfd 	stp	x29, x30, [sp, #-48]!
  404c64:	910003fd 	mov	x29, sp
  404c68:	f9000bf3 	str	x19, [sp, #16]
  404c6c:	3d800be0 	str	q0, [sp, #32]
  404c70:	a94203e1 	ldp	x1, x0, [sp, #32]
  404c74:	d53b4402 	mrs	x2, fpcr
  404c78:	d370f804 	ubfx	x4, x0, #48, #15
  404c7c:	aa0103e2 	mov	x2, x1
  404c80:	aa0403e3 	mov	x3, x4
  404c84:	d340bc01 	ubfx	x1, x0, #0, #48
  404c88:	d287ffc5 	mov	x5, #0x3ffe                	// #16382
  404c8c:	eb05009f 	cmp	x4, x5
  404c90:	5400012c 	b.gt	404cb4 <__fixtfsi+0x54>
  404c94:	b50004a4 	cbnz	x4, 404d28 <__fixtfsi+0xc8>
  404c98:	aa010041 	orr	x1, x2, x1
  404c9c:	52800013 	mov	w19, #0x0                   	// #0
  404ca0:	b5000401 	cbnz	x1, 404d20 <__fixtfsi+0xc0>
  404ca4:	2a1303e0 	mov	w0, w19
  404ca8:	f9400bf3 	ldr	x19, [sp, #16]
  404cac:	a8c37bfd 	ldp	x29, x30, [sp], #48
  404cb0:	d65f03c0 	ret
  404cb4:	d37ffc00 	lsr	x0, x0, #63
  404cb8:	d28803a5 	mov	x5, #0x401d                	// #16413
  404cbc:	12001c00 	and	w0, w0, #0xff
  404cc0:	eb05009f 	cmp	x4, x5
  404cc4:	5400018d 	b.le	404cf4 <__fixtfsi+0x94>
  404cc8:	d28803c4 	mov	x4, #0x401e                	// #16414
  404ccc:	eb04007f 	cmp	x3, x4
  404cd0:	1a9f17e3 	cset	w3, eq  // eq = none
  404cd4:	12b00013 	mov	w19, #0x7fffffff            	// #2147483647
  404cd8:	0b130013 	add	w19, w0, w19
  404cdc:	6a03001f 	tst	w0, w3
  404ce0:	54000280 	b.eq	404d30 <__fixtfsi+0xd0>  // b.none
  404ce4:	eb4147ff 	cmp	xzr, x1, lsr #17
  404ce8:	54000241 	b.ne	404d30 <__fixtfsi+0xd0>  // b.any
  404cec:	aa01bc41 	orr	x1, x2, x1, lsl #47
  404cf0:	17ffffec 	b	404ca0 <__fixtfsi+0x40>
  404cf4:	b2500021 	orr	x1, x1, #0x1000000000000
  404cf8:	1287fdc3 	mov	w3, #0xffffc011            	// #-16367
  404cfc:	528805f3 	mov	w19, #0x402f                	// #16431
  404d00:	0b030083 	add	w3, w4, w3
  404d04:	4b040273 	sub	w19, w19, w4
  404d08:	7100001f 	cmp	w0, #0x0
  404d0c:	9ac32023 	lsl	x3, x1, x3
  404d10:	aa020062 	orr	x2, x3, x2
  404d14:	9ad32433 	lsr	x19, x1, x19
  404d18:	5a930673 	cneg	w19, w19, ne  // ne = any
  404d1c:	b4fffc42 	cbz	x2, 404ca4 <__fixtfsi+0x44>
  404d20:	52800200 	mov	w0, #0x10                  	// #16
  404d24:	14000004 	b	404d34 <__fixtfsi+0xd4>
  404d28:	52800013 	mov	w19, #0x0                   	// #0
  404d2c:	17fffffd 	b	404d20 <__fixtfsi+0xc0>
  404d30:	52800020 	mov	w0, #0x1                   	// #1
  404d34:	9400009a 	bl	404f9c <__sfp_handle_exceptions>
  404d38:	17ffffdb 	b	404ca4 <__fixtfsi+0x44>

0000000000404d3c <__fixunstfsi>:
  404d3c:	a9bd7bfd 	stp	x29, x30, [sp, #-48]!
  404d40:	910003fd 	mov	x29, sp
  404d44:	f9000bf3 	str	x19, [sp, #16]
  404d48:	3d800be0 	str	q0, [sp, #32]
  404d4c:	f94013e0 	ldr	x0, [sp, #32]
  404d50:	f94017f3 	ldr	x19, [sp, #40]
  404d54:	d53b4401 	mrs	x1, fpcr
  404d58:	d370fa62 	ubfx	x2, x19, #48, #15
  404d5c:	aa0003e1 	mov	x1, x0
  404d60:	d287ffc4 	mov	x4, #0x3ffe                	// #16382
  404d64:	d340be60 	ubfx	x0, x19, #0, #48
  404d68:	eb04005f 	cmp	x2, x4
  404d6c:	5400012c 	b.gt	404d90 <__fixunstfsi+0x54>
  404d70:	b5000402 	cbnz	x2, 404df0 <__fixunstfsi+0xb4>
  404d74:	aa000020 	orr	x0, x1, x0
  404d78:	b50003c0 	cbnz	x0, 404df0 <__fixunstfsi+0xb4>
  404d7c:	52800013 	mov	w19, #0x0                   	// #0
  404d80:	2a1303e0 	mov	w0, w19
  404d84:	f9400bf3 	ldr	x19, [sp, #16]
  404d88:	a8c37bfd 	ldp	x29, x30, [sp], #48
  404d8c:	d65f03c0 	ret
  404d90:	d37ffe73 	lsr	x19, x19, #63
  404d94:	d28803e4 	mov	x4, #0x401f                	// #16415
  404d98:	12001e73 	and	w19, w19, #0xff
  404d9c:	d28803c6 	mov	x6, #0x401e                	// #16414
  404da0:	f2401e65 	ands	x5, x19, #0xff
  404da4:	9a860084 	csel	x4, x4, x6, eq  // eq = none
  404da8:	eb02009f 	cmp	x4, x2
  404dac:	540001ad 	b.le	404de0 <__fixunstfsi+0xa4>
  404db0:	b5000265 	cbnz	x5, 404dfc <__fixunstfsi+0xc0>
  404db4:	b2500000 	orr	x0, x0, #0x1000000000000
  404db8:	528805f3 	mov	w19, #0x402f                	// #16431
  404dbc:	1287fdc3 	mov	w3, #0xffffc011            	// #-16367
  404dc0:	4b020273 	sub	w19, w19, w2
  404dc4:	0b030042 	add	w2, w2, w3
  404dc8:	9ad32413 	lsr	x19, x0, x19
  404dcc:	9ac22000 	lsl	x0, x0, x2
  404dd0:	aa010000 	orr	x0, x0, x1
  404dd4:	b4fffd60 	cbz	x0, 404d80 <__fixunstfsi+0x44>
  404dd8:	52800200 	mov	w0, #0x10                  	// #16
  404ddc:	14000003 	b	404de8 <__fixunstfsi+0xac>
  404de0:	51000673 	sub	w19, w19, #0x1
  404de4:	52800020 	mov	w0, #0x1                   	// #1
  404de8:	9400006d 	bl	404f9c <__sfp_handle_exceptions>
  404dec:	17ffffe5 	b	404d80 <__fixunstfsi+0x44>
  404df0:	52800200 	mov	w0, #0x10                  	// #16
  404df4:	52800013 	mov	w19, #0x0                   	// #0
  404df8:	17fffffc 	b	404de8 <__fixunstfsi+0xac>
  404dfc:	52800020 	mov	w0, #0x1                   	// #1
  404e00:	17fffffd 	b	404df4 <__fixunstfsi+0xb8>

0000000000404e04 <__floatsitf>:
  404e04:	7100001f 	cmp	w0, #0x0
  404e08:	34000220 	cbz	w0, 404e4c <__floatsitf+0x48>
  404e0c:	531f7c04 	lsr	w4, w0, #31
  404e10:	5a80a400 	cneg	w0, w0, lt  // lt = tstop
  404e14:	dac01002 	clz	x2, x0
  404e18:	528807c1 	mov	w1, #0x403e                	// #16446
  404e1c:	4b020021 	sub	w1, w1, w2
  404e20:	51003c42 	sub	w2, w2, #0xf
  404e24:	93407c21 	sxtw	x1, w1
  404e28:	9ac22000 	lsl	x0, x0, x2
  404e2c:	d2800003 	mov	x3, #0x0                   	// #0
  404e30:	2a043c21 	orr	w1, w1, w4, lsl #15
  404e34:	b340bc03 	bfxil	x3, x0, #0, #48
  404e38:	d2800002 	mov	x2, #0x0                   	// #0
  404e3c:	9e670040 	fmov	d0, x2
  404e40:	b3503c23 	bfi	x3, x1, #48, #16
  404e44:	9eaf0060 	fmov	v0.d[1], x3
  404e48:	d65f03c0 	ret
  404e4c:	d2800000 	mov	x0, #0x0                   	// #0
  404e50:	d2800001 	mov	x1, #0x0                   	// #0
  404e54:	d2800004 	mov	x4, #0x0                   	// #0
  404e58:	17fffff5 	b	404e2c <__floatsitf+0x28>

0000000000404e5c <__floatunsitf>:
  404e5c:	340001e0 	cbz	w0, 404e98 <__floatunsitf+0x3c>
  404e60:	2a0003e0 	mov	w0, w0
  404e64:	528807c1 	mov	w1, #0x403e                	// #16446
  404e68:	dac01002 	clz	x2, x0
  404e6c:	4b020021 	sub	w1, w1, w2
  404e70:	51003c42 	sub	w2, w2, #0xf
  404e74:	93407c21 	sxtw	x1, w1
  404e78:	9ac22000 	lsl	x0, x0, x2
  404e7c:	d2800003 	mov	x3, #0x0                   	// #0
  404e80:	d2800002 	mov	x2, #0x0                   	// #0
  404e84:	b340bc03 	bfxil	x3, x0, #0, #48
  404e88:	9e670040 	fmov	d0, x2
  404e8c:	b3503c23 	bfi	x3, x1, #48, #16
  404e90:	9eaf0060 	fmov	v0.d[1], x3
  404e94:	d65f03c0 	ret
  404e98:	d2800000 	mov	x0, #0x0                   	// #0
  404e9c:	d2800001 	mov	x1, #0x0                   	// #0
  404ea0:	17fffff7 	b	404e7c <__floatunsitf+0x20>

0000000000404ea4 <__extenddftf2>:
  404ea4:	d53b4400 	mrs	x0, fpcr
  404ea8:	9e660000 	fmov	x0, d0
  404eac:	d374f803 	ubfx	x3, x0, #52, #11
  404eb0:	d340cc01 	ubfx	x1, x0, #0, #52
  404eb4:	d37ffc00 	lsr	x0, x0, #63
  404eb8:	12001c02 	and	w2, w0, #0xff
  404ebc:	91000460 	add	x0, x3, #0x1
  404ec0:	f27f241f 	tst	x0, #0x7fe
  404ec4:	540000e0 	b.eq	404ee0 <__extenddftf2+0x3c>  // b.none
  404ec8:	d2878000 	mov	x0, #0x3c00                	// #15360
  404ecc:	8b000063 	add	x3, x3, x0
  404ed0:	d344fc20 	lsr	x0, x1, #4
  404ed4:	d3440c21 	lsl	x1, x1, #60
  404ed8:	52800004 	mov	w4, #0x0                   	// #0
  404edc:	1400001b 	b	404f48 <__extenddftf2+0xa4>
  404ee0:	b5000243 	cbnz	x3, 404f28 <__extenddftf2+0x84>
  404ee4:	b4000501 	cbz	x1, 404f84 <__extenddftf2+0xe0>
  404ee8:	dac01024 	clz	x4, x1
  404eec:	7100389f 	cmp	w4, #0xe
  404ef0:	5400014c 	b.gt	404f18 <__extenddftf2+0x74>
  404ef4:	1100c483 	add	w3, w4, #0x31
  404ef8:	528001e0 	mov	w0, #0xf                   	// #15
  404efc:	4b040000 	sub	w0, w0, w4
  404f00:	9ac02420 	lsr	x0, x1, x0
  404f04:	9ac32021 	lsl	x1, x1, x3
  404f08:	52878183 	mov	w3, #0x3c0c                	// #15372
  404f0c:	4b040063 	sub	w3, w3, w4
  404f10:	93407c63 	sxtw	x3, w3
  404f14:	17fffff1 	b	404ed8 <__extenddftf2+0x34>
  404f18:	51003c80 	sub	w0, w4, #0xf
  404f1c:	9ac02020 	lsl	x0, x1, x0
  404f20:	d2800001 	mov	x1, #0x0                   	// #0
  404f24:	17fffff9 	b	404f08 <__extenddftf2+0x64>
  404f28:	b4000321 	cbz	x1, 404f8c <__extenddftf2+0xe8>
  404f2c:	d373fc24 	lsr	x4, x1, #51
  404f30:	d344fc20 	lsr	x0, x1, #4
  404f34:	d2400084 	eor	x4, x4, #0x1
  404f38:	b2510000 	orr	x0, x0, #0x800000000000
  404f3c:	12000084 	and	w4, w4, #0x1
  404f40:	d3440c21 	lsl	x1, x1, #60
  404f44:	d28fffe3 	mov	x3, #0x7fff                	// #32767
  404f48:	d2800007 	mov	x7, #0x0                   	// #0
  404f4c:	9e670020 	fmov	d0, x1
  404f50:	b340bc07 	bfxil	x7, x0, #0, #48
  404f54:	2a023c60 	orr	w0, w3, w2, lsl #15
  404f58:	b3503c07 	bfi	x7, x0, #48, #16
  404f5c:	9eaf00e0 	fmov	v0.d[1], x7
  404f60:	340001c4 	cbz	w4, 404f98 <__extenddftf2+0xf4>
  404f64:	a9be7bfd 	stp	x29, x30, [sp, #-32]!
  404f68:	52800020 	mov	w0, #0x1                   	// #1
  404f6c:	910003fd 	mov	x29, sp
  404f70:	3d8007e0 	str	q0, [sp, #16]
  404f74:	9400000a 	bl	404f9c <__sfp_handle_exceptions>
  404f78:	3dc007e0 	ldr	q0, [sp, #16]
  404f7c:	a8c27bfd 	ldp	x29, x30, [sp], #32
  404f80:	d65f03c0 	ret
  404f84:	d2800000 	mov	x0, #0x0                   	// #0
  404f88:	17ffffd4 	b	404ed8 <__extenddftf2+0x34>
  404f8c:	d2800000 	mov	x0, #0x0                   	// #0
  404f90:	d28fffe3 	mov	x3, #0x7fff                	// #32767
  404f94:	17ffffd1 	b	404ed8 <__extenddftf2+0x34>
  404f98:	d65f03c0 	ret

0000000000404f9c <__sfp_handle_exceptions>:
  404f9c:	36000080 	tbz	w0, #0, 404fac <__sfp_handle_exceptions+0x10>
  404fa0:	0f000401 	movi	v1.2s, #0x0
  404fa4:	1e211820 	fdiv	s0, s1, s1
  404fa8:	d53b4421 	mrs	x1, fpsr
  404fac:	360800a0 	tbz	w0, #1, 404fc0 <__sfp_handle_exceptions+0x24>
  404fb0:	1e2e1001 	fmov	s1, #1.000000000000000000e+00
  404fb4:	0f000402 	movi	v2.2s, #0x0
  404fb8:	1e221820 	fdiv	s0, s1, s2
  404fbc:	d53b4421 	mrs	x1, fpsr
  404fc0:	36100100 	tbz	w0, #2, 404fe0 <__sfp_handle_exceptions+0x44>
  404fc4:	12b01001 	mov	w1, #0x7f7fffff            	// #2139095039
  404fc8:	1e270021 	fmov	s1, w1
  404fcc:	5298b5c1 	mov	w1, #0xc5ae                	// #50606
  404fd0:	72ae93a1 	movk	w1, #0x749d, lsl #16
  404fd4:	1e270022 	fmov	s2, w1
  404fd8:	1e222820 	fadd	s0, s1, s2
  404fdc:	d53b4421 	mrs	x1, fpsr
  404fe0:	36180080 	tbz	w0, #3, 404ff0 <__sfp_handle_exceptions+0x54>
  404fe4:	0f044401 	movi	v1.2s, #0x80, lsl #16
  404fe8:	1e210820 	fmul	s0, s1, s1
  404fec:	d53b4421 	mrs	x1, fpsr
  404ff0:	362000c0 	tbz	w0, #4, 405008 <__sfp_handle_exceptions+0x6c>
  404ff4:	12b01000 	mov	w0, #0x7f7fffff            	// #2139095039
  404ff8:	1e2e1002 	fmov	s2, #1.000000000000000000e+00
  404ffc:	1e270001 	fmov	s1, w0
  405000:	1e223820 	fsub	s0, s1, s2
  405004:	d53b4420 	mrs	x0, fpsr
  405008:	d65f03c0 	ret

Disassembly of section .fini:

000000000040500c <_fini>:
  40500c:	a9bf7bfd 	stp	x29, x30, [sp, #-16]!
  405010:	910003fd 	mov	x29, sp
  405014:	a8c17bfd 	ldp	x29, x30, [sp], #16
  405018:	d65f03c0 	ret
