
../../out/ppc64le/2-muli-branch.elf:     file format elf64-powerpcle


Disassembly of section .init:

0000000010000120 <_init>:
    10000120:	02 10 40 3c 	lis     r2,4098
    10000124:	00 7f 42 38 	addi    r2,r2,32512
    10000128:	a6 02 08 7c 	mflr    r0
    1000012c:	10 00 01 f8 	std     r0,16(r1)
    10000130:	e1 ff 21 f8 	stdu    r1,-32(r1)
    10000134:	d5 02 00 48 	bl      10000408 <frame_dummy+0x8>
    10000138:	00 00 00 60 	nop
    1000013c:	0d 42 00 48 	bl      10004348 <__do_global_ctors_aux+0x8>
    10000140:	00 00 00 60 	nop
    10000144:	20 00 21 38 	addi    r1,r1,32
    10000148:	10 00 01 e8 	ld      r0,16(r1)
    1000014c:	a6 03 08 7c 	mtlr    r0
    10000150:	20 00 80 4e 	blr

Disassembly of section .text:

0000000010000160 <exit>:
    10000160:	02 10 40 3c 	lis     r2,4098
    10000164:	00 7f 42 38 	addi    r2,r2,32512
    10000168:	a6 02 08 7c 	mflr    r0
    1000016c:	f8 ff e1 fb 	std     r31,-8(r1)
    10000170:	78 1b 7f 7c 	mr      r31,r3
    10000174:	10 00 01 f8 	std     r0,16(r1)
    10000178:	91 ff 21 f8 	stdu    r1,-112(r1)
    1000017c:	15 09 00 48 	bl      10000a90 <__funcs_on_exit>
    10000180:	00 00 00 60 	nop
    10000184:	25 09 00 48 	bl      10000aa8 <__libc_exit_fini+0x8>
    10000188:	00 00 00 60 	nop
    1000018c:	4d 3d 00 48 	bl      10003ed8 <__stdio_exit+0x8>
    10000190:	00 00 00 60 	nop
    10000194:	78 fb e3 7f 	mr      r3,r31
    10000198:	19 2c 00 48 	bl      10002db0 <_Exit>
    1000019c:	00 00 00 60 	nop
    100001a0:	00 00 00 00 	.long 0x0
    100001a4:	00 00 00 01 	.long 0x1000000
    100001a8:	80 01 00 00 	.long 0x180

00000000100001ac <_start>:
    100001ac:	02 10 40 3c 	lis     r2,4098
    100001b0:	00 7f 42 38 	addi    r2,r2,32512
    100001b4:	28 00 8c 80 	lwz     r4,40(r12)
    100001b8:	14 62 84 7c 	add     r4,r4,r12
    100001bc:	78 0b 23 7c 	mr      r3,r1
    100001c0:	e4 06 21 78 	rldicr  r1,r1,0,59
    100001c4:	00 00 00 38 	li      r0,0
    100001c8:	e1 ff 01 f8 	stdu    r0,-32(r1)
    100001cc:	a6 03 08 7c 	mtlr    r0
    100001d0:	11 00 00 48 	bl      100001e0 <_start_c+0x8>
    100001d4:	54 fe ff ef 	.long 0xeffffe54

00000000100001d8 <_start_c>:
    100001d8:	02 10 40 3c 	lis     r2,4098
    100001dc:	00 7f 42 38 	addi    r2,r2,32512
    100001e0:	a6 02 08 7c 	mflr    r0
    100001e4:	08 00 a3 38 	addi    r5,r3,8
    100001e8:	fe ff e2 3c 	addis   r7,r2,-2
    100001ec:	b4 c5 e7 38 	addi    r7,r7,-14924
    100001f0:	fe ff c2 3c 	addis   r6,r2,-2
    100001f4:	20 82 c6 38 	addi    r6,r6,-32224
    100001f8:	00 00 00 39 	li      r8,0
    100001fc:	10 00 01 f8 	std     r0,16(r1)
    10000200:	e1 ff 21 f8 	stdu    r1,-32(r1)
    10000204:	02 00 83 e8 	lwa     r4,0(r3)
    10000208:	fe ff 62 3c 	addis   r3,r2,-2
    1000020c:	b4 86 63 38 	addi    r3,r3,-31052
    10000210:	1d 08 00 48 	bl      10000a2c <__libc_start_main+0x8>
    10000214:	00 00 00 60 	nop
    10000218:	20 00 21 38 	addi    r1,r1,32
    1000021c:	10 00 01 e8 	ld      r0,16(r1)
    10000220:	a6 03 08 7c 	mtlr    r0
    10000224:	20 00 80 4e 	blr
    10000228:	00 00 00 00 	.long 0x0
    1000022c:	00 00 00 01 	.long 0x1000000
    10000230:	80 00 00 00 	.long 0x80
    10000234:	00 00 00 60 	nop
    10000238:	00 00 00 60 	nop
    1000023c:	00 00 00 60 	nop

0000000010000240 <deregister_tm_clones>:
    10000240:	02 10 40 3c 	lis     r2,4098
    10000244:	00 7f 42 38 	addi    r2,r2,32512
    10000248:	00 00 00 60 	nop
    1000024c:	00 00 00 60 	nop
    10000250:	00 82 62 38 	addi    r3,r2,-32256
    10000254:	00 82 22 39 	addi    r9,r2,-32256
    10000258:	00 18 29 7c 	cmpd    r9,r3
    1000025c:	20 00 82 4d 	beqlr   
    10000260:	00 00 00 60 	nop
    10000264:	00 80 82 e9 	ld      r12,-32768(r2)
    10000268:	00 00 2c 2c 	cmpdi   r12,0
    1000026c:	20 00 82 4d 	beqlr   
    10000270:	a6 02 08 7c 	mflr    r0
    10000274:	a6 03 89 7d 	mtctr   r12
    10000278:	10 00 01 f8 	std     r0,16(r1)
    1000027c:	e1 ff 21 f8 	stdu    r1,-32(r1)
    10000280:	18 00 41 f8 	std     r2,24(r1)
    10000284:	21 04 80 4e 	bctrl
    10000288:	18 00 41 e8 	ld      r2,24(r1)
    1000028c:	20 00 21 38 	addi    r1,r1,32
    10000290:	10 00 01 e8 	ld      r0,16(r1)
    10000294:	a6 03 08 7c 	mtlr    r0
    10000298:	20 00 80 4e 	blr
    1000029c:	00 00 42 60 	ori     r2,r2,0

00000000100002a0 <register_tm_clones>:
    100002a0:	02 10 40 3c 	lis     r2,4098
    100002a4:	00 7f 42 38 	addi    r2,r2,32512
    100002a8:	00 00 00 60 	nop
    100002ac:	00 00 00 60 	nop
    100002b0:	00 82 62 38 	addi    r3,r2,-32256
    100002b4:	00 82 82 38 	addi    r4,r2,-32256
    100002b8:	50 20 83 7c 	subf    r4,r3,r4
    100002bc:	74 1e 84 7c 	sradi   r4,r4,3
    100002c0:	74 0e 84 7c 	sradi   r4,r4,1
    100002c4:	95 01 84 7c 	addze.  r4,r4
    100002c8:	20 00 82 4d 	beqlr   
    100002cc:	00 00 00 60 	nop
    100002d0:	08 80 82 e9 	ld      r12,-32760(r2)
    100002d4:	00 00 2c 2c 	cmpdi   r12,0
    100002d8:	20 00 82 4d 	beqlr   
    100002dc:	a6 02 08 7c 	mflr    r0
    100002e0:	a6 03 89 7d 	mtctr   r12
    100002e4:	10 00 01 f8 	std     r0,16(r1)
    100002e8:	e1 ff 21 f8 	stdu    r1,-32(r1)
    100002ec:	18 00 41 f8 	std     r2,24(r1)
    100002f0:	21 04 80 4e 	bctrl
    100002f4:	18 00 41 e8 	ld      r2,24(r1)
    100002f8:	20 00 21 38 	addi    r1,r1,32
    100002fc:	10 00 01 e8 	ld      r0,16(r1)
    10000300:	a6 03 08 7c 	mtlr    r0
    10000304:	20 00 80 4e 	blr
    10000308:	00 00 00 60 	nop
    1000030c:	00 00 42 60 	ori     r2,r2,0

0000000010000310 <__do_global_dtors_aux>:
    10000310:	02 10 40 3c 	lis     r2,4098
    10000314:	00 7f 42 38 	addi    r2,r2,32512
    10000318:	00 00 00 60 	nop
    1000031c:	00 82 22 89 	lbz     r9,-32256(r2)
    10000320:	00 00 09 2c 	cmpwi   r9,0
    10000324:	20 00 82 4c 	bnelr   
    10000328:	a6 02 08 7c 	mflr    r0
    1000032c:	f0 ff c1 fb 	std     r30,-16(r1)
    10000330:	ff ff 42 3d 	addis   r10,r2,-1
    10000334:	00 00 00 60 	nop
    10000338:	08 82 22 e9 	ld      r9,-32248(r2)
    1000033c:	ff ff c2 3f 	addis   r30,r2,-1
    10000340:	f8 7f 4a 39 	addi    r10,r10,32760
    10000344:	e8 ff a1 fb 	std     r29,-24(r1)
    10000348:	f0 7f de 3b 	addi    r30,r30,32752
    1000034c:	ff ff a2 3f 	addis   r29,r2,-1
    10000350:	50 50 de 7f 	subf    r30,r30,r10
    10000354:	f0 7f bd 3b 	addi    r29,r29,32752
    10000358:	74 1e de 7f 	sradi   r30,r30,3
    1000035c:	10 00 01 f8 	std     r0,16(r1)
    10000360:	ff ff de 3b 	addi    r30,r30,-1
    10000364:	c1 ff 21 f8 	stdu    r1,-64(r1)
    10000368:	40 f0 29 7c 	cmpld   r9,r30
    1000036c:	18 00 41 f8 	std     r2,24(r1)
    10000370:	3c 00 80 40 	bge     100003ac <__do_global_dtors_aux+0x9c>
    10000374:	38 00 e1 fb 	std     r31,56(r1)
    10000378:	00 00 00 60 	nop
    1000037c:	08 82 e2 3b 	addi    r31,r2,-32248
    10000380:	01 00 29 39 	addi    r9,r9,1
    10000384:	24 1f 2a 79 	rldicr  r10,r9,3,60
    10000388:	00 00 3f f9 	std     r9,0(r31)
    1000038c:	2a 50 9d 7d 	ldx     r12,r29,r10
    10000390:	a6 03 89 7d 	mtctr   r12
    10000394:	21 04 80 4e 	bctrl
    10000398:	18 00 41 e8 	ld      r2,24(r1)
    1000039c:	00 00 3f e9 	ld      r9,0(r31)
    100003a0:	40 f0 29 7c 	cmpld   r9,r30
    100003a4:	dc ff 80 41 	blt     10000380 <__do_global_dtors_aux+0x70>
    100003a8:	38 00 e1 eb 	ld      r31,56(r1)
    100003ac:	9d fe ff 4b 	bl      10000248 <deregister_tm_clones+0x8>
    100003b0:	00 00 00 60 	nop
    100003b4:	10 80 22 e9 	ld      r9,-32752(r2)
    100003b8:	00 00 29 2c 	cmpdi   r9,0
    100003bc:	14 00 82 41 	beq     100003d0 <__do_global_dtors_aux+0xc0>
    100003c0:	fe ff 62 3c 	addis   r3,r2,-2
    100003c4:	80 d0 63 38 	addi    r3,r3,-12160
    100003c8:	00 00 00 60 	nop
    100003cc:	00 00 00 60 	nop
    100003d0:	40 00 21 38 	addi    r1,r1,64
    100003d4:	01 00 20 39 	li      r9,1
    100003d8:	00 00 00 60 	nop
    100003dc:	10 00 01 e8 	ld      r0,16(r1)
    100003e0:	e8 ff a1 eb 	ld      r29,-24(r1)
    100003e4:	f0 ff c1 eb 	ld      r30,-16(r1)
    100003e8:	00 82 22 99 	stb     r9,-32256(r2)
    100003ec:	a6 03 08 7c 	mtlr    r0
    100003f0:	20 00 80 4e 	blr
    100003f4:	00 00 00 60 	nop
    100003f8:	00 00 00 60 	nop
    100003fc:	00 00 42 60 	ori     r2,r2,0

0000000010000400 <frame_dummy>:
    10000400:	02 10 40 3c 	lis     r2,4098
    10000404:	00 7f 42 38 	addi    r2,r2,32512
    10000408:	00 00 00 60 	nop
    1000040c:	18 80 22 e9 	ld      r9,-32744(r2)
    10000410:	00 00 29 2c 	cmpdi   r9,0
    10000414:	3c 00 82 41 	beq     10000450 <frame_dummy+0x50>
    10000418:	a6 02 08 7c 	mflr    r0
    1000041c:	00 00 00 60 	nop
    10000420:	fe ff 62 3c 	addis   r3,r2,-2
    10000424:	10 82 82 38 	addi    r4,r2,-32240
    10000428:	80 d0 63 38 	addi    r3,r3,-12160
    1000042c:	10 00 01 f8 	std     r0,16(r1)
    10000430:	e1 ff 21 f8 	stdu    r1,-32(r1)
    10000434:	00 00 00 60 	nop
    10000438:	00 00 00 60 	nop
    1000043c:	20 00 21 38 	addi    r1,r1,32
    10000440:	10 00 01 e8 	ld      r0,16(r1)
    10000444:	a6 03 08 7c 	mtlr    r0
    10000448:	60 fe ff 4b 	b       100002a8 <register_tm_clones+0x8>
    1000044c:	00 00 42 60 	ori     r2,r2,0
    10000450:	58 fe ff 4b 	b       100002a8 <register_tm_clones+0x8>

0000000010000454 <add>:
    10000454:	f8 ff e1 fb 	std     r31,-8(r1)
    10000458:	c1 ff 21 f8 	stdu    r1,-64(r1)
    1000045c:	78 0b 3f 7c 	mr      r31,r1
    10000460:	78 1b 6a 7c 	mr      r10,r3
    10000464:	78 23 89 7c 	mr      r9,r4
    10000468:	e6 01 0a 7c 	mtfprwz f0,r10
    1000046c:	20 00 5f 39 	addi    r10,r31,32
    10000470:	ae 57 00 7c 	stfiwx  f0,0,r10
    10000474:	e6 01 09 7c 	mtfprwz f0,r9
    10000478:	24 00 3f 39 	addi    r9,r31,36
    1000047c:	ae 4f 00 7c 	stfiwx  f0,0,r9
    10000480:	20 00 5f 81 	lwz     r10,32(r31)
    10000484:	24 00 3f 81 	lwz     r9,36(r31)
    10000488:	14 4a 2a 7d 	add     r9,r10,r9
    1000048c:	b4 07 29 7d 	extsw   r9,r9
    10000490:	78 4b 23 7d 	mr      r3,r9
    10000494:	40 00 3f 38 	addi    r1,r31,64
    10000498:	f8 ff e1 eb 	ld      r31,-8(r1)
    1000049c:	20 00 80 4e 	blr
	...
    100004a8:	80 01 00 01 	.long 0x1000180

00000000100004ac <sub>:
    100004ac:	f8 ff e1 fb 	std     r31,-8(r1)
    100004b0:	c1 ff 21 f8 	stdu    r1,-64(r1)
    100004b4:	78 0b 3f 7c 	mr      r31,r1
    100004b8:	78 1b 6a 7c 	mr      r10,r3
    100004bc:	78 23 89 7c 	mr      r9,r4
    100004c0:	e6 01 0a 7c 	mtfprwz f0,r10
    100004c4:	20 00 5f 39 	addi    r10,r31,32
    100004c8:	ae 57 00 7c 	stfiwx  f0,0,r10
    100004cc:	e6 01 09 7c 	mtfprwz f0,r9
    100004d0:	24 00 3f 39 	addi    r9,r31,36
    100004d4:	ae 4f 00 7c 	stfiwx  f0,0,r9
    100004d8:	20 00 5f 81 	lwz     r10,32(r31)
    100004dc:	24 00 3f 81 	lwz     r9,36(r31)
    100004e0:	50 50 29 7d 	subf    r9,r9,r10
    100004e4:	b4 07 29 7d 	extsw   r9,r9
    100004e8:	78 4b 23 7d 	mr      r3,r9
    100004ec:	40 00 3f 38 	addi    r1,r31,64
    100004f0:	f8 ff e1 eb 	ld      r31,-8(r1)
    100004f4:	20 00 80 4e 	blr
	...
    10000500:	80 01 00 01 	.long 0x1000180

0000000010000504 <mul>:
    10000504:	f8 ff e1 fb 	std     r31,-8(r1)
    10000508:	c1 ff 21 f8 	stdu    r1,-64(r1)
    1000050c:	78 0b 3f 7c 	mr      r31,r1
    10000510:	78 1b 6a 7c 	mr      r10,r3
    10000514:	78 23 89 7c 	mr      r9,r4
    10000518:	e6 01 0a 7c 	mtfprwz f0,r10
    1000051c:	20 00 5f 39 	addi    r10,r31,32
    10000520:	ae 57 00 7c 	stfiwx  f0,0,r10
    10000524:	e6 01 09 7c 	mtfprwz f0,r9
    10000528:	24 00 3f 39 	addi    r9,r31,36
    1000052c:	ae 4f 00 7c 	stfiwx  f0,0,r9
    10000530:	20 00 5f 81 	lwz     r10,32(r31)
    10000534:	24 00 3f 81 	lwz     r9,36(r31)
    10000538:	d6 49 2a 7d 	mullw   r9,r10,r9
    1000053c:	b4 07 29 7d 	extsw   r9,r9
    10000540:	78 4b 23 7d 	mr      r3,r9
    10000544:	40 00 3f 38 	addi    r1,r31,64
    10000548:	f8 ff e1 eb 	ld      r31,-8(r1)
    1000054c:	20 00 80 4e 	blr
	...
    10000558:	80 01 00 01 	.long 0x1000180

000000001000055c <div>:
    1000055c:	f8 ff e1 fb 	std     r31,-8(r1)
    10000560:	c1 ff 21 f8 	stdu    r1,-64(r1)
    10000564:	78 0b 3f 7c 	mr      r31,r1
    10000568:	78 1b 6a 7c 	mr      r10,r3
    1000056c:	78 23 89 7c 	mr      r9,r4
    10000570:	e6 01 0a 7c 	mtfprwz f0,r10
    10000574:	20 00 5f 39 	addi    r10,r31,32
    10000578:	ae 57 00 7c 	stfiwx  f0,0,r10
    1000057c:	e6 01 09 7c 	mtfprwz f0,r9
    10000580:	24 00 3f 39 	addi    r9,r31,36
    10000584:	ae 4f 00 7c 	stfiwx  f0,0,r9
    10000588:	20 00 5f 81 	lwz     r10,32(r31)
    1000058c:	24 00 3f 81 	lwz     r9,36(r31)
    10000590:	d6 4b 2a 7d 	divw    r9,r10,r9
    10000594:	b4 07 29 7d 	extsw   r9,r9
    10000598:	78 4b 23 7d 	mr      r3,r9
    1000059c:	40 00 3f 38 	addi    r1,r31,64
    100005a0:	f8 ff e1 eb 	ld      r31,-8(r1)
    100005a4:	20 00 80 4e 	blr
	...
    100005b0:	80 01 00 01 	.long 0x1000180

00000000100005b4 <main>:
    100005b4:	02 10 40 3c 	lis     r2,4098
    100005b8:	00 7f 42 38 	addi    r2,r2,32512
    100005bc:	a6 02 08 7c 	mflr    r0
    100005c0:	10 00 01 f8 	std     r0,16(r1)
    100005c4:	f8 ff e1 fb 	std     r31,-8(r1)
    100005c8:	71 ff 21 f8 	stdu    r1,-144(r1)
    100005cc:	78 0b 3f 7c 	mr      r31,r1
    100005d0:	18 00 41 f8 	std     r2,24(r1)
    100005d4:	78 1b 69 7c 	mr      r9,r3
    100005d8:	78 00 9f f8 	std     r4,120(r31)
    100005dc:	e6 01 09 7c 	mtfprwz f0,r9
    100005e0:	70 00 3f 39 	addi    r9,r31,112
    100005e4:	ae 4f 00 7c 	stfiwx  f0,0,r9
    100005e8:	05 00 20 39 	li      r9,5
    100005ec:	68 00 3f 91 	stw     r9,104(r31)
    100005f0:	06 00 20 39 	li      r9,6
    100005f4:	6c 00 3f 91 	stw     r9,108(r31)
    100005f8:	00 00 20 39 	li      r9,0
    100005fc:	60 00 3f f9 	std     r9,96(r31)
    10000600:	70 00 3f 81 	lwz     r9,112(r31)
    10000604:	70 16 2a 7d 	srawi   r10,r9,2
    10000608:	94 01 4a 7d 	addze   r10,r10
    1000060c:	3a 10 4a 55 	rlwinm  r10,r10,2,0,29
    10000610:	50 48 2a 7d 	subf    r9,r10,r9
    10000614:	b4 07 29 7d 	extsw   r9,r9
    10000618:	03 00 09 2c 	cmpwi   r9,3
    1000061c:	60 00 82 41 	beq     1000067c <main+0xc8>
    10000620:	03 00 09 2c 	cmpwi   r9,3
    10000624:	68 00 81 41 	bgt     1000068c <main+0xd8>
    10000628:	02 00 09 2c 	cmpwi   r9,2
    1000062c:	40 00 82 41 	beq     1000066c <main+0xb8>
    10000630:	02 00 09 2c 	cmpwi   r9,2
    10000634:	58 00 81 41 	bgt     1000068c <main+0xd8>
    10000638:	00 00 29 2c 	cmpdi   r9,0
    1000063c:	10 00 82 41 	beq     1000064c <main+0x98>
    10000640:	01 00 09 2c 	cmpwi   r9,1
    10000644:	18 00 82 41 	beq     1000065c <main+0xa8>
    10000648:	44 00 00 48 	b       1000068c <main+0xd8>
    1000064c:	fe ff 22 3d 	addis   r9,r2,-2
    10000650:	54 85 29 39 	addi    r9,r9,-31404
    10000654:	60 00 3f f9 	std     r9,96(r31)
    10000658:	38 00 00 48 	b       10000690 <main+0xdc>
    1000065c:	fe ff 22 3d 	addis   r9,r2,-2
    10000660:	ac 85 29 39 	addi    r9,r9,-31316
    10000664:	60 00 3f f9 	std     r9,96(r31)
    10000668:	28 00 00 48 	b       10000690 <main+0xdc>
    1000066c:	fe ff 22 3d 	addis   r9,r2,-2
    10000670:	04 86 29 39 	addi    r9,r9,-31228
    10000674:	60 00 3f f9 	std     r9,96(r31)
    10000678:	18 00 00 48 	b       10000690 <main+0xdc>
    1000067c:	fe ff 22 3d 	addis   r9,r2,-2
    10000680:	5c 86 29 39 	addi    r9,r9,-31140
    10000684:	60 00 3f f9 	std     r9,96(r31)
    10000688:	08 00 00 48 	b       10000690 <main+0xdc>
    1000068c:	00 00 00 60 	nop
    10000690:	60 00 3f e9 	ld      r9,96(r31)
    10000694:	00 00 29 2c 	cmpdi   r9,0
    10000698:	50 00 82 41 	beq     100006e8 <main+0x134>
    1000069c:	6e 00 1f e9 	lwa     r8,108(r31)
    100006a0:	6a 00 5f e9 	lwa     r10,104(r31)
    100006a4:	60 00 3f e9 	ld      r9,96(r31)
    100006a8:	78 43 04 7d 	mr      r4,r8
    100006ac:	78 53 43 7d 	mr      r3,r10
    100006b0:	78 4b 2c 7d 	mr      r12,r9
    100006b4:	a6 03 89 7d 	mtctr   r12
    100006b8:	21 04 80 4e 	bctrl
    100006bc:	18 00 41 e8 	ld      r2,24(r1)
    100006c0:	78 1b 69 7c 	mr      r9,r3
    100006c4:	78 4b 2a 7d 	mr      r10,r9
    100006c8:	72 00 3f e9 	lwa     r9,112(r31)
    100006cc:	78 53 46 7d 	mr      r6,r10
    100006d0:	60 00 bf e8 	ld      r5,96(r31)
    100006d4:	78 4b 24 7d 	mr      r4,r9
    100006d8:	fe ff 62 3c 	addis   r3,r2,-2
    100006dc:	e0 c5 63 38 	addi    r3,r3,-14880
    100006e0:	2d 04 00 48 	bl      10000b0c <printf+0x8>
    100006e4:	00 00 00 60 	nop
    100006e8:	00 00 20 39 	li      r9,0
    100006ec:	78 4b 23 7d 	mr      r3,r9
    100006f0:	90 00 3f 38 	addi    r1,r31,144
    100006f4:	10 00 01 e8 	ld      r0,16(r1)
    100006f8:	a6 03 08 7c 	mtlr    r0
    100006fc:	f8 ff e1 eb 	ld      r31,-8(r1)
    10000700:	20 00 80 4e 	blr
    10000704:	00 00 00 00 	.long 0x0
    10000708:	00 00 00 01 	.long 0x1000000
    1000070c:	80 01 00 01 	.long 0x1000180

0000000010000710 <dummy>:
    10000710:	20 00 80 4e 	blr
	...

0000000010000720 <__init_ssp>:
    10000720:	20 00 80 4e 	blr
	...

0000000010000730 <__init_libc>:
    10000730:	02 10 40 3c 	lis     r2,4098
    10000734:	00 7f 42 38 	addi    r2,r2,32512
    10000738:	a6 02 08 7c 	mflr    r0
    1000073c:	30 01 a0 38 	li      r5,304
    10000740:	79 3c 00 48 	bl      100043b8 <_savegpr0_28>
    10000744:	71 fe 21 f8 	stdu    r1,-400(r1)
    10000748:	78 1b 7e 7c 	mr      r30,r3
    1000074c:	78 23 9f 7c 	mr      r31,r4
    10000750:	00 00 80 38 	li      r4,0
    10000754:	20 00 21 39 	addi    r9,r1,32
    10000758:	78 4b 23 7d 	mr      r3,r9
    1000075c:	55 20 00 48 	bl      100027b0 <memset>
    10000760:	00 00 00 60 	nop
    10000764:	00 00 00 60 	nop
    10000768:	d0 86 42 39 	addi    r10,r2,-31024
    1000076c:	78 1b 69 7c 	mr      r9,r3
    10000770:	00 00 60 38 	li      r3,0
    10000774:	00 00 ca fb 	std     r30,0(r10)
    10000778:	24 1f 6a 78 	rldicr  r10,r3,3,60
    1000077c:	01 00 63 38 	addi    r3,r3,1
    10000780:	2a 50 5e 7d 	ldx     r10,r30,r10
    10000784:	00 00 2a 2c 	cmpdi   r10,0
    10000788:	f0 ff 82 40 	bne     10000778 <__init_libc+0x48>
    1000078c:	24 1f 63 78 	rldicr  r3,r3,3,60
    10000790:	00 00 00 60 	nop
    10000794:	14 1a 7e 7c 	add     r3,r30,r3
    10000798:	58 82 62 f8 	std     r3,-32168(r2)
    1000079c:	00 00 c3 eb 	ld      r30,0(r3)
    100007a0:	00 00 3e 2c 	cmpdi   r30,0
    100007a4:	70 01 82 40 	bne     10000914 <__init_libc+0x1e4>
    100007a8:	a0 00 41 e9 	ld      r10,160(r1)
    100007ac:	00 00 00 60 	nop
    100007b0:	48 82 42 f9 	std     r10,-32184(r2)
    100007b4:	20 01 41 e9 	ld      r10,288(r1)
    100007b8:	00 00 2a 2c 	cmpdi   r10,0
    100007bc:	0c 00 82 41 	beq     100007c8 <__init_libc+0x98>
    100007c0:	00 00 00 60 	nop
    100007c4:	40 82 42 f9 	std     r10,-32192(r2)
    100007c8:	00 00 3f 2c 	cmpdi   r31,0
    100007cc:	50 00 41 e9 	ld      r10,80(r1)
    100007d0:	00 00 00 60 	nop
    100007d4:	80 82 42 f9 	std     r10,-32128(r2)
    100007d8:	1c 00 82 40 	bne     100007f4 <__init_libc+0xc4>
    100007dc:	18 01 41 e9 	ld      r10,280(r1)
    100007e0:	fe ff e2 3f 	addis   r31,r2,-2
    100007e4:	18 c6 ff 3b 	addi    r31,r31,-14824
    100007e8:	00 00 2a 2c 	cmpdi   r10,0
    100007ec:	08 00 82 41 	beq     100007f4 <__init_libc+0xc4>
    100007f0:	78 53 5f 7d 	mr      r31,r10
    100007f4:	00 00 00 60 	nop
    100007f8:	c0 82 42 39 	addi    r10,r2,-32064
    100007fc:	00 00 00 60 	nop
    10000800:	b8 82 02 39 	addi    r8,r2,-32072
    10000804:	00 00 ea fb 	std     r31,0(r10)
    10000808:	00 00 e8 fb 	std     r31,0(r8)
    1000080c:	ff ff ff 3b 	addi    r31,r31,-1
    10000810:	01 00 5f 89 	lbz     r10,1(r31)
    10000814:	01 00 ff 38 	addi    r7,r31,1
    10000818:	00 00 2a 2c 	cmpdi   r10,0
    1000081c:	14 01 82 40 	bne     10000930 <__init_libc+0x200>
    10000820:	78 4b 23 7d 	mr      r3,r9
    10000824:	f5 22 00 48 	bl      10002b18 <__init_tls+0x8>
    10000828:	00 00 00 60 	nop
    1000082c:	e8 00 61 e8 	ld      r3,232(r1)
    10000830:	f1 fe ff 4b 	bl      10000720 <__init_ssp>
    10000834:	00 00 00 60 	nop
    10000838:	78 00 41 e9 	ld      r10,120(r1)
    1000083c:	80 00 21 e9 	ld      r9,128(r1)
    10000840:	00 48 2a 7c 	cmpd    r10,r9
    10000844:	20 00 82 40 	bne     10000864 <__init_libc+0x134>
    10000848:	88 00 41 e9 	ld      r10,136(r1)
    1000084c:	90 00 21 e9 	ld      r9,144(r1)
    10000850:	00 48 2a 7c 	cmpd    r10,r9
    10000854:	10 00 82 40 	bne     10000864 <__init_libc+0x134>
    10000858:	d8 00 21 e9 	ld      r9,216(r1)
    1000085c:	00 00 29 2c 	cmpdi   r9,0
    10000860:	ac 00 82 41 	beq     1000090c <__init_libc+0x1dc>
    10000864:	8c 03 00 10 	vspltisw v0,0
    10000868:	50 01 20 39 	li      r9,336
    1000086c:	a7 00 00 38 	li      r0,167
    10000870:	50 01 61 38 	addi    r3,r1,336
    10000874:	03 00 80 38 	li      r4,3
    10000878:	ce 49 01 7c 	stvx    v0,r1,r9
    1000087c:	00 00 20 39 	li      r9,0
    10000880:	00 00 a0 38 	li      r5,0
    10000884:	60 01 21 f9 	std     r9,352(r1)
    10000888:	01 00 20 39 	li      r9,1
    1000088c:	58 01 21 91 	stw     r9,344(r1)
    10000890:	02 00 20 39 	li      r9,2
    10000894:	60 01 21 91 	stw     r9,352(r1)
    10000898:	02 00 00 44 	sc      
    1000089c:	08 00 e3 40 	bns+    100008a4 <__init_libc+0x174>
    100008a0:	d0 00 63 7c 	neg     r3,r3
    100008a4:	00 00 03 2c 	cmpwi   r3,0
    100008a8:	08 00 80 40 	bge     100008b0 <__init_libc+0x180>
    100008ac:	00 00 00 00 	.long 0x0
    100008b0:	fe ff a2 3f 	addis   r29,r2,-2
    100008b4:	01 00 80 3f 	lis     r28,1
    100008b8:	56 01 e1 3b 	addi    r31,r1,342
    100008bc:	f0 c5 bd 3b 	addi    r29,r29,-14864
    100008c0:	02 00 9c 63 	ori     r28,r28,2
    100008c4:	2e fa 3e 7d 	lhzx    r9,r30,r31
    100008c8:	20 00 29 71 	andi.   r9,r9,32
    100008cc:	28 00 82 41 	beq     100008f4 <__init_libc+0x1c4>
    100008d0:	05 00 00 38 	li      r0,5
    100008d4:	78 eb a3 7f 	mr      r3,r29
    100008d8:	78 e3 84 7f 	mr      r4,r28
    100008dc:	02 00 00 44 	sc      
    100008e0:	08 00 e3 40 	bns+    100008e8 <__init_libc+0x1b8>
    100008e4:	d0 00 63 7c 	neg     r3,r3
    100008e8:	00 00 23 2c 	cmpdi   r3,0
    100008ec:	08 00 80 40 	bge     100008f4 <__init_libc+0x1c4>
    100008f0:	00 00 00 00 	.long 0x0
    100008f4:	08 00 de 3b 	addi    r30,r30,8
    100008f8:	18 00 3e 28 	cmpldi  r30,24
    100008fc:	c8 ff 82 40 	bne     100008c4 <__init_libc+0x194>
    10000900:	01 00 20 39 	li      r9,1
    10000904:	00 00 00 60 	nop
    10000908:	52 82 22 99 	stb     r9,-32174(r2)
    1000090c:	90 01 21 38 	addi    r1,r1,400
    10000910:	cc 3a 00 48 	b       100043dc <_restgpr0_28>
    10000914:	25 00 3e 28 	cmpldi  r30,37
    10000918:	10 00 81 41 	bgt     10000928 <__init_libc+0x1f8>
    1000091c:	08 00 43 e9 	ld      r10,8(r3)
    10000920:	24 1f de 7b 	rldicr  r30,r30,3,60
    10000924:	2a f1 49 7d 	stdx    r10,r9,r30
    10000928:	10 00 63 38 	addi    r3,r3,16
    1000092c:	70 fe ff 4b 	b       1000079c <__init_libc+0x6c>
    10000930:	2f 00 0a 28 	cmplwi  r10,47
    10000934:	0c 00 82 40 	bne     10000940 <__init_libc+0x210>
    10000938:	02 00 ff 3b 	addi    r31,r31,2
    1000093c:	00 00 e8 fb 	std     r31,0(r8)
    10000940:	78 3b ff 7c 	mr      r31,r7
    10000944:	cc fe ff 4b 	b       10000810 <__init_libc+0xe0>
    10000948:	00 00 00 00 	.long 0x0
    1000094c:	00 00 00 01 	.long 0x1000000
    10000950:	80 04 00 00 	.long 0x480

0000000010000954 <__libc_start_init>:
    10000954:	02 10 40 3c 	lis     r2,4098
    10000958:	00 7f 42 38 	addi    r2,r2,32512
    1000095c:	a6 02 08 7c 	mflr    r0
    10000960:	f8 ff e1 fb 	std     r31,-8(r1)
    10000964:	10 00 01 f8 	std     r0,16(r1)
    10000968:	d1 ff 21 f8 	stdu    r1,-48(r1)
    1000096c:	bd f7 ff 4b 	bl      10000128 <_init+0x8>
    10000970:	00 00 00 60 	nop
    10000974:	ff ff e2 3f 	addis   r31,r2,-1
    10000978:	e0 7f ff 3b 	addi    r31,r31,32736
    1000097c:	ff ff 22 3d 	addis   r9,r2,-1
    10000980:	e0 7f 29 39 	addi    r9,r9,32736
    10000984:	40 48 3f 7c 	cmpld   r31,r9
    10000988:	0c 00 80 41 	blt     10000994 <__libc_start_init+0x40>
    1000098c:	30 00 21 38 	addi    r1,r1,48
    10000990:	68 3a 00 48 	b       100043f8 <_restgpr0_31>
    10000994:	00 00 9f e9 	ld      r12,0(r31)
    10000998:	18 00 41 f8 	std     r2,24(r1)
    1000099c:	08 00 ff 3b 	addi    r31,r31,8
    100009a0:	a6 03 89 7d 	mtctr   r12
    100009a4:	21 04 80 4e 	bctrl
    100009a8:	18 00 41 e8 	ld      r2,24(r1)
    100009ac:	d0 ff ff 4b 	b       1000097c <__libc_start_init+0x28>
    100009b0:	00 00 00 00 	.long 0x0
    100009b4:	00 00 00 01 	.long 0x1000000
    100009b8:	80 01 00 00 	.long 0x180

00000000100009bc <libc_start_main_stage2>:
    100009bc:	02 10 40 3c 	lis     r2,4098
    100009c0:	00 7f 42 38 	addi    r2,r2,32512
    100009c4:	a6 02 08 7c 	mflr    r0
    100009c8:	f1 39 00 48 	bl      100043b8 <_savegpr0_28>
    100009cc:	c1 ff 21 f8 	stdu    r1,-64(r1)
    100009d0:	01 00 e4 3b 	addi    r31,r4,1
    100009d4:	78 1b 7c 7c 	mr      r28,r3
    100009d8:	24 1f ff 7b 	rldicr  r31,r31,3,60
    100009dc:	78 23 9e 7c 	mr      r30,r4
    100009e0:	78 2b bd 7c 	mr      r29,r5
    100009e4:	14 fa e5 7f 	add     r31,r5,r31
    100009e8:	75 ff ff 4b 	bl      1000095c <__libc_start_init+0x8>
    100009ec:	00 00 00 60 	nop
    100009f0:	a6 03 89 7f 	mtctr   r28
    100009f4:	78 fb e5 7f 	mr      r5,r31
    100009f8:	18 00 41 f8 	std     r2,24(r1)
    100009fc:	78 eb a4 7f 	mr      r4,r29
    10000a00:	78 e3 8c 7f 	mr      r12,r28
    10000a04:	78 f3 c3 7f 	mr      r3,r30
    10000a08:	21 04 80 4e 	bctrl
    10000a0c:	18 00 41 e8 	ld      r2,24(r1)
    10000a10:	59 f7 ff 4b 	bl      10000168 <exit+0x8>
    10000a14:	00 00 00 60 	nop
    10000a18:	00 00 00 00 	.long 0x0
    10000a1c:	00 00 00 01 	.long 0x1000000
    10000a20:	80 04 00 00 	.long 0x480

0000000010000a24 <__libc_start_main>:
    10000a24:	02 10 40 3c 	lis     r2,4098
    10000a28:	00 7f 42 38 	addi    r2,r2,32512
    10000a2c:	a6 02 08 7c 	mflr    r0
    10000a30:	8d 39 00 48 	bl      100043bc <_savegpr0_29>
    10000a34:	c1 ff 21 f8 	stdu    r1,-64(r1)
    10000a38:	78 1b 7d 7c 	mr      r29,r3
    10000a3c:	78 23 9e 7c 	mr      r30,r4
    10000a40:	01 00 64 38 	addi    r3,r4,1
    10000a44:	00 00 85 e8 	ld      r4,0(r5)
    10000a48:	78 2b bf 7c 	mr      r31,r5
    10000a4c:	24 1f 63 78 	rldicr  r3,r3,3,60
    10000a50:	14 1a 65 7c 	add     r3,r5,r3
    10000a54:	e5 fc ff 4b 	bl      10000738 <__init_libc+0x8>
    10000a58:	fe ff 82 3d 	addis   r12,r2,-2
    10000a5c:	78 fb e5 7f 	mr      r5,r31
    10000a60:	bc 8a 8c 39 	addi    r12,r12,-30020
    10000a64:	78 f3 c4 7f 	mr      r4,r30
    10000a68:	a6 03 89 7d 	mtctr   r12
    10000a6c:	18 00 41 f8 	std     r2,24(r1)
    10000a70:	78 eb a3 7f 	mr      r3,r29
    10000a74:	21 04 80 4e 	bctrl
    10000a78:	18 00 41 e8 	ld      r2,24(r1)
    10000a7c:	40 00 21 38 	addi    r1,r1,64
    10000a80:	60 39 00 48 	b       100043e0 <_restgpr0_29>
    10000a84:	00 00 00 00 	.long 0x0
    10000a88:	00 00 00 01 	.long 0x1000000
    10000a8c:	80 03 00 00 	.long 0x380

0000000010000a90 <__funcs_on_exit>:
    10000a90:	20 00 80 4e 	blr
	...

0000000010000aa0 <__libc_exit_fini>:
    10000aa0:	02 10 40 3c 	lis     r2,4098
    10000aa4:	00 7f 42 38 	addi    r2,r2,32512
    10000aa8:	a6 02 08 7c 	mflr    r0
    10000aac:	f8 ff e1 fb 	std     r31,-8(r1)
    10000ab0:	ff ff e2 3f 	addis   r31,r2,-1
    10000ab4:	e0 7f ff 3b 	addi    r31,r31,32736
    10000ab8:	10 00 01 f8 	std     r0,16(r1)
    10000abc:	91 ff 21 f8 	stdu    r1,-112(r1)
    10000ac0:	ff ff 22 3d 	addis   r9,r2,-1
    10000ac4:	e0 7f 29 39 	addi    r9,r9,32736
    10000ac8:	40 48 3f 7c 	cmpld   r31,r9
    10000acc:	14 00 81 41 	bgt     10000ae0 <__libc_exit_fini+0x40>
    10000ad0:	ed 39 00 48 	bl      100044bc <_fini+0x8>
    10000ad4:	00 00 00 60 	nop
    10000ad8:	70 00 21 38 	addi    r1,r1,112
    10000adc:	1c 39 00 48 	b       100043f8 <_restgpr0_31>
    10000ae0:	f9 ff 9f e9 	ldu     r12,-8(r31)
    10000ae4:	18 00 41 f8 	std     r2,24(r1)
    10000ae8:	a6 03 89 7d 	mtctr   r12
    10000aec:	21 04 80 4e 	bctrl
    10000af0:	18 00 41 e8 	ld      r2,24(r1)
    10000af4:	cc ff ff 4b 	b       10000ac0 <__libc_exit_fini+0x20>
    10000af8:	00 00 00 00 	.long 0x0
    10000afc:	00 00 00 01 	.long 0x1000000
    10000b00:	80 01 00 00 	.long 0x180

0000000010000b04 <printf>:
    10000b04:	02 10 40 3c 	lis     r2,4098
    10000b08:	00 7f 42 38 	addi    r2,r2,32512
    10000b0c:	a6 02 08 7c 	mflr    r0
    10000b10:	10 00 01 f8 	std     r0,16(r1)
    10000b14:	e1 ff 21 f8 	stdu    r1,-32(r1)
    10000b18:	48 00 81 f8 	std     r4,72(r1)
    10000b1c:	78 1b 64 7c 	mr      r4,r3
    10000b20:	00 00 00 60 	nop
    10000b24:	50 00 a1 f8 	std     r5,80(r1)
    10000b28:	08 81 62 38 	addi    r3,r2,-32504
    10000b2c:	48 00 a1 38 	addi    r5,r1,72
    10000b30:	58 00 c1 f8 	std     r6,88(r1)
    10000b34:	60 00 e1 f8 	std     r7,96(r1)
    10000b38:	68 00 01 f9 	std     r8,104(r1)
    10000b3c:	70 00 21 f9 	std     r9,112(r1)
    10000b40:	78 00 41 f9 	std     r10,120(r1)
    10000b44:	d5 1a 00 48 	bl      10002618 <vfprintf+0x8>
    10000b48:	00 00 00 60 	nop
    10000b4c:	20 00 21 38 	addi    r1,r1,32
    10000b50:	10 00 01 e8 	ld      r0,16(r1)
    10000b54:	a6 03 08 7c 	mtlr    r0
    10000b58:	20 00 80 4e 	blr
    10000b5c:	00 00 00 00 	.long 0x0
    10000b60:	00 00 00 01 	.long 0x1000000
    10000b64:	80 00 00 00 	.long 0x80

0000000010000b68 <pop_arg>:
    10000b68:	02 10 40 3c 	lis     r2,4098
    10000b6c:	00 7f 42 38 	addi    r2,r2,32512
    10000b70:	f7 ff 84 38 	addi    r4,r4,-9
    10000b74:	11 00 04 28 	cmplwi  r4,17
    10000b78:	20 00 81 4d 	bgtlr   
    10000b7c:	fe ff 22 3d 	addis   r9,r2,-2
    10000b80:	a4 8c 29 39 	addi    r9,r9,-29532
    10000b84:	88 17 84 78 	rldic   r4,r4,2,30
    10000b88:	aa 22 49 7d 	lwax    r10,r9,r4
    10000b8c:	14 4a 4a 7d 	add     r10,r10,r9
    10000b90:	00 00 25 e9 	ld      r9,0(r5)
    10000b94:	a6 03 49 7d 	mtctr   r10
    10000b98:	08 00 49 39 	addi    r10,r9,8
    10000b9c:	00 00 45 f9 	std     r10,0(r5)
    10000ba0:	20 04 80 4e 	bctr
    10000ba4:	80 00 00 00 	.long 0x80
    10000ba8:	48 00 00 00 	.long 0x48
    10000bac:	54 00 00 00 	.long 0x54
    10000bb0:	80 00 00 00 	.long 0x80
    10000bb4:	80 00 00 00 	.long 0x80
    10000bb8:	80 00 00 00 	.long 0x80
    10000bbc:	5c 00 00 00 	.long 0x5c
    10000bc0:	64 00 00 00 	.long 0x64
    10000bc4:	6c 00 00 00 	.long 0x6c
    10000bc8:	78 00 00 00 	.long 0x78
    10000bcc:	80 00 00 00 	.long 0x80
    10000bd0:	80 00 00 00 	.long 0x80
    10000bd4:	80 00 00 00 	.long 0x80
    10000bd8:	80 00 00 00 	.long 0x80
    10000bdc:	80 00 00 00 	.long 0x80
    10000be0:	80 00 00 00 	.long 0x80
    10000be4:	88 00 00 00 	.long 0x88
    10000be8:	88 00 00 00 	.long 0x88
    10000bec:	02 00 29 e9 	lwa     r9,0(r9)
    10000bf0:	00 00 23 f9 	std     r9,0(r3)
    10000bf4:	20 00 80 4e 	blr
    10000bf8:	00 00 29 81 	lwz     r9,0(r9)
    10000bfc:	f4 ff ff 4b 	b       10000bf0 <pop_arg+0x88>
    10000c00:	00 00 29 a9 	lha     r9,0(r9)
    10000c04:	ec ff ff 4b 	b       10000bf0 <pop_arg+0x88>
    10000c08:	00 00 29 a1 	lhz     r9,0(r9)
    10000c0c:	e4 ff ff 4b 	b       10000bf0 <pop_arg+0x88>
    10000c10:	00 00 29 81 	lwz     r9,0(r9)
    10000c14:	74 07 29 7d 	extsb   r9,r9
    10000c18:	d8 ff ff 4b 	b       10000bf0 <pop_arg+0x88>
    10000c1c:	00 00 29 89 	lbz     r9,0(r9)
    10000c20:	d0 ff ff 4b 	b       10000bf0 <pop_arg+0x88>
    10000c24:	00 00 29 e9 	ld      r9,0(r9)
    10000c28:	c8 ff ff 4b 	b       10000bf0 <pop_arg+0x88>
    10000c2c:	00 00 09 c8 	lfd     f0,0(r9)
    10000c30:	00 00 03 d8 	stfd    f0,0(r3)
    10000c34:	20 00 80 4e 	blr
	...

0000000010000c44 <fmt_u>:
    10000c44:	78 1b 69 7c 	mr      r9,r3
    10000c48:	0a 00 e0 38 	li      r7,10
    10000c4c:	78 23 83 7c 	mr      r3,r4
    10000c50:	00 00 29 2c 	cmpdi   r9,0
    10000c54:	20 00 82 4d 	beqlr   
    10000c58:	92 3b 09 7d 	divdu   r8,r9,r7
    10000c5c:	0a 00 48 1d 	mulli   r10,r8,10
    10000c60:	50 48 2a 7d 	subf    r9,r10,r9
    10000c64:	30 00 29 39 	addi    r9,r9,48
    10000c68:	ff ff 23 9d 	stbu    r9,-1(r3)
    10000c6c:	78 43 09 7d 	mr      r9,r8
    10000c70:	e0 ff ff 4b 	b       10000c50 <fmt_u+0xc>
	...

0000000010000c80 <getint>:
    10000c80:	cc 0c c0 3c 	lis     r6,3276
    10000c84:	ff 7f a0 3c 	lis     r5,32767
    10000c88:	78 1b 67 7c 	mr      r7,r3
    10000c8c:	cc cc c6 60 	ori     r6,r6,52428
    10000c90:	00 00 60 38 	li      r3,0
    10000c94:	ff ff a5 60 	ori     r5,r5,65535
    10000c98:	00 00 07 e9 	ld      r8,0(r7)
    10000c9c:	00 00 48 89 	lbz     r10,0(r8)
    10000ca0:	d0 ff 4a 39 	addi    r10,r10,-48
    10000ca4:	09 00 0a 28 	cmplwi  r10,9
    10000ca8:	20 00 81 4d 	bgtlr   
    10000cac:	40 30 03 7c 	cmplw   r3,r6
    10000cb0:	2c 00 81 41 	bgt     10000cdc <getint+0x5c>
    10000cb4:	f6 ff 23 1d 	mulli   r9,r3,-10
    10000cb8:	14 2a 29 7d 	add     r9,r9,r5
    10000cbc:	00 50 09 7c 	cmpw    r9,r10
    10000cc0:	1c 00 80 41 	blt     10000cdc <getint+0x5c>
    10000cc4:	0a 00 23 1d 	mulli   r9,r3,10
    10000cc8:	14 4a 6a 7c 	add     r3,r10,r9
    10000ccc:	b4 07 63 7c 	extsw   r3,r3
    10000cd0:	01 00 08 39 	addi    r8,r8,1
    10000cd4:	00 00 07 f9 	std     r8,0(r7)
    10000cd8:	c0 ff ff 4b 	b       10000c98 <getint+0x18>
    10000cdc:	ff ff 60 38 	li      r3,-1
    10000ce0:	f0 ff ff 4b 	b       10000cd0 <getint+0x50>
	...

0000000010000cf0 <out>:
    10000cf0:	02 10 40 3c 	lis     r2,4098
    10000cf4:	00 7f 42 38 	addi    r2,r2,32512
    10000cf8:	00 00 43 81 	lwz     r10,0(r3)
    10000cfc:	78 1b 69 7c 	mr      r9,r3
    10000d00:	20 00 4a 71 	andi.   r10,r10,32
    10000d04:	20 00 82 4c 	bnelr   
    10000d08:	a6 02 08 7c 	mflr    r0
    10000d0c:	78 23 83 7c 	mr      r3,r4
    10000d10:	78 2b a4 7c 	mr      r4,r5
    10000d14:	78 4b 25 7d 	mr      r5,r9
    10000d18:	10 00 01 f8 	std     r0,16(r1)
    10000d1c:	e1 ff 21 f8 	stdu    r1,-32(r1)
    10000d20:	65 25 00 48 	bl      10003284 <__fwritex+0x8>
    10000d24:	00 00 00 60 	nop
    10000d28:	20 00 21 38 	addi    r1,r1,32
    10000d2c:	10 00 01 e8 	ld      r0,16(r1)
    10000d30:	a6 03 08 7c 	mtlr    r0
    10000d34:	20 00 80 4e 	blr
    10000d38:	00 00 00 00 	.long 0x0
    10000d3c:	00 00 00 01 	.long 0x1000000
    10000d40:	80 00 00 00 	.long 0x80

0000000010000d44 <pad>:
    10000d44:	02 10 40 3c 	lis     r2,4098
    10000d48:	00 7f 42 38 	addi    r2,r2,32512
    10000d4c:	9e 04 e9 54 	rlwinm  r9,r7,0,18,15
    10000d50:	e5 03 29 55 	rlwinm. r9,r9,0,15,18
    10000d54:	20 00 82 4c 	bnelr   
    10000d58:	00 28 06 7c 	cmpw    r6,r5
    10000d5c:	20 00 80 4c 	bgelr   
    10000d60:	a6 02 08 7c 	mflr    r0
    10000d64:	59 36 00 48 	bl      100043bc <_savegpr0_29>
    10000d68:	50 28 e6 7f 	subf    r31,r6,r5
    10000d6c:	c1 fe 21 f8 	stdu    r1,-320(r1)
    10000d70:	78 1b 7d 7c 	mr      r29,r3
    10000d74:	00 01 1f 2c 	cmpwi   r31,256
    10000d78:	b4 07 fe 7f 	extsw   r30,r31
    10000d7c:	78 fb e5 7f 	mr      r5,r31
    10000d80:	08 00 81 40 	ble     10000d88 <pad+0x44>
    10000d84:	00 01 a0 38 	li      r5,256
    10000d88:	b4 07 a5 7c 	extsw   r5,r5
    10000d8c:	20 00 61 38 	addi    r3,r1,32
    10000d90:	21 1a 00 48 	bl      100027b0 <memset>
    10000d94:	00 00 00 60 	nop
    10000d98:	ff 00 1e 2c 	cmpwi   r30,255
    10000d9c:	28 00 81 41 	bgt     10000dc4 <pad+0x80>
    10000da0:	3e c2 e5 57 	rlwinm  r5,r31,24,8,31
    10000da4:	20 00 81 38 	addi    r4,r1,32
    10000da8:	00 ff a5 1c 	mulli   r5,r5,-256
    10000dac:	78 eb a3 7f 	mr      r3,r29
    10000db0:	14 fa a5 7c 	add     r5,r5,r31
    10000db4:	b4 07 a5 7c 	extsw   r5,r5
    10000db8:	41 ff ff 4b 	bl      10000cf8 <out+0x8>
    10000dbc:	40 01 21 38 	addi    r1,r1,320
    10000dc0:	20 36 00 48 	b       100043e0 <_restgpr0_29>
    10000dc4:	00 01 a0 38 	li      r5,256
    10000dc8:	20 00 81 38 	addi    r4,r1,32
    10000dcc:	78 eb a3 7f 	mr      r3,r29
    10000dd0:	00 ff de 3b 	addi    r30,r30,-256
    10000dd4:	25 ff ff 4b 	bl      10000cf8 <out+0x8>
    10000dd8:	b4 07 de 7f 	extsw   r30,r30
    10000ddc:	bc ff ff 4b 	b       10000d98 <pad+0x54>
    10000de0:	00 00 00 00 	.long 0x0
    10000de4:	00 00 00 01 	.long 0x1000000
    10000de8:	80 03 00 00 	.long 0x380

0000000010000dec <printf_core>:
    10000dec:	02 10 40 3c 	lis     r2,4098
    10000df0:	00 7f 42 38 	addi    r2,r2,32512
    10000df4:	a6 02 08 7c 	mflr    r0
    10000df8:	f0 ff 81 39 	addi    r12,r1,-16
    10000dfc:	f0 ff c1 db 	stfd    f30,-16(r1)
    10000e00:	f8 ff e1 db 	stfd    f31,-8(r1)
    10000e04:	26 80 70 7d 	mfocrf  r11,8
    10000e08:	00 00 20 39 	li      r9,0
    10000e0c:	d0 f4 de f3 	xxlxor  vs30,vs30,vs30
    10000e10:	10 00 01 f8 	std     r0,16(r1)
    10000e14:	f5 35 00 48 	bl      10004408 <_savegpr1_14>
    10000e18:	08 00 61 91 	stw     r11,8(r1)
    10000e1c:	81 fc 21 f8 	stdu    r1,-896(r1)
    10000e20:	fe ff a2 3e 	addis   r21,r2,-2
    10000e24:	78 1b 7c 7c 	mr      r28,r3
    10000e28:	78 2b b3 7c 	mr      r19,r5
    10000e2c:	00 00 a0 3b 	li      r29,0
    10000e30:	00 00 c0 3a 	li      r22,0
    10000e34:	08 c6 b5 3a 	addi    r21,r21,-14840
    10000e38:	90 02 21 f9 	std     r9,656(r1)
    10000e3c:	fe ff 22 3d 	addis   r9,r2,-2
    10000e40:	a0 02 c1 f8 	std     r6,672(r1)
    10000e44:	68 c6 29 39 	addi    r9,r9,-14744
    10000e48:	98 02 e1 f8 	std     r7,664(r1)
    10000e4c:	78 02 81 f8 	std     r4,632(r1)
    10000e50:	c8 02 21 f9 	std     r9,712(r1)
    10000e54:	fe ff 22 3d 	addis   r9,r2,-2
    10000e58:	3c c6 29 39 	addi    r9,r9,-14788
    10000e5c:	b8 02 21 f9 	std     r9,696(r1)
    10000e60:	fe ff 22 3d 	addis   r9,r2,-2
    10000e64:	38 c8 29 39 	addi    r9,r9,-14280
    10000e68:	c0 02 21 f9 	std     r9,704(r1)
    10000e6c:	78 02 01 eb 	ld      r24,632(r1)
    10000e70:	14 ea 56 7f 	add     r26,r22,r29
    10000e74:	b4 07 56 7f 	extsw   r22,r26
    10000e78:	00 00 38 89 	lbz     r9,0(r24)
    10000e7c:	00 00 09 2c 	cmpwi   r9,0
    10000e80:	60 00 82 40 	bne     10000ee0 <printf_core+0xf4>
    10000e84:	00 00 3c 2c 	cmpdi   r28,0
    10000e88:	a8 03 82 40 	bne     10001230 <printf_core+0x444>
    10000e8c:	90 02 21 e9 	ld      r9,656(r1)
    10000e90:	01 00 e0 3b 	li      r31,1
    10000e94:	00 00 29 2c 	cmpdi   r9,0
    10000e98:	94 03 82 41 	beq     1000122c <printf_core+0x440>
    10000e9c:	98 02 41 e9 	ld      r10,664(r1)
    10000ea0:	64 17 e9 7b 	rldicr  r9,r31,2,61
    10000ea4:	aa 4a 8a 7c 	lwax    r4,r10,r9
    10000ea8:	00 00 24 2c 	cmpdi   r4,0
    10000eac:	30 17 82 40 	bne     100025dc <printf_core+0x17f0>
    10000eb0:	0a 00 3f 21 	subfic  r9,r31,10
    10000eb4:	a6 03 29 7d 	mtctr   r9
    10000eb8:	98 02 41 e9 	ld      r10,664(r1)
    10000ebc:	64 17 e9 7b 	rldicr  r9,r31,2,61
    10000ec0:	2e 48 2a 7d 	lwzx    r9,r10,r9
    10000ec4:	00 00 09 2c 	cmpwi   r9,0
    10000ec8:	84 02 82 40 	bne     1000114c <printf_core+0x360>
    10000ecc:	01 00 ff 3b 	addi    r31,r31,1
    10000ed0:	e8 ff 00 42 	bdnz    10000eb8 <printf_core+0xcc>
    10000ed4:	28 17 00 48 	b       100025fc <printf_core+0x1810>
    10000ed8:	01 00 bd 3b 	addi    r29,r29,1
    10000edc:	78 02 a1 fb 	std     r29,632(r1)
    10000ee0:	78 02 a1 eb 	ld      r29,632(r1)
    10000ee4:	00 00 3d 89 	lbz     r9,0(r29)
    10000ee8:	00 00 29 2c 	cmpdi   r9,0
    10000eec:	0c 00 82 41 	beq     10000ef8 <printf_core+0x10c>
    10000ef0:	25 00 09 28 	cmplwi  r9,37
    10000ef4:	e4 ff 82 40 	bne     10000ed8 <printf_core+0xec>
    10000ef8:	78 02 21 e9 	ld      r9,632(r1)
    10000efc:	00 00 49 89 	lbz     r10,0(r9)
    10000f00:	25 00 0a 2c 	cmpwi   r10,37
    10000f04:	10 00 82 40 	bne     10000f14 <printf_core+0x128>
    10000f08:	01 00 49 89 	lbz     r10,1(r9)
    10000f0c:	25 00 0a 2c 	cmpwi   r10,37
    10000f10:	fc 01 82 41 	beq     1000110c <printf_core+0x320>
    10000f14:	ff 7f 20 3d 	lis     r9,32767
    10000f18:	50 e8 b8 7f 	subf    r29,r24,r29
    10000f1c:	ff ff 29 61 	ori     r9,r9,65535
    10000f20:	50 48 3a 7d 	subf    r9,r26,r9
    10000f24:	b0 02 21 91 	stw     r9,688(r1)
    10000f28:	b4 07 29 7d 	extsw   r9,r9
    10000f2c:	00 48 3d 7c 	cmpd    r29,r9
    10000f30:	94 08 81 41 	bgt     100017c4 <printf_core+0x9d8>
    10000f34:	00 00 3c 2e 	cmpdi   cr4,r28,0
    10000f38:	b4 07 bd 7f 	extsw   r29,r29
    10000f3c:	14 00 92 41 	beq     cr4,10000f50 <printf_core+0x164>
    10000f40:	78 eb a5 7f 	mr      r5,r29
    10000f44:	78 c3 04 7f 	mr      r4,r24
    10000f48:	78 e3 83 7f 	mr      r3,r28
    10000f4c:	ad fd ff 4b 	bl      10000cf8 <out+0x8>
    10000f50:	00 00 3d 2c 	cmpdi   r29,0
    10000f54:	64 08 82 40 	bne     100017b8 <printf_core+0x9cc>
    10000f58:	78 02 21 e9 	ld      r9,632(r1)
    10000f5c:	01 00 29 8b 	lbz     r25,1(r9)
    10000f60:	d0 ff 39 3b 	addi    r25,r25,-48
    10000f64:	09 00 19 28 	cmplwi  r25,9
    10000f68:	b4 01 81 41 	bgt     1000111c <printf_core+0x330>
    10000f6c:	02 00 49 89 	lbz     r10,2(r9)
    10000f70:	24 00 0a 2c 	cmpwi   r10,36
    10000f74:	a8 01 82 40 	bne     1000111c <printf_core+0x330>
    10000f78:	01 00 40 39 	li      r10,1
    10000f7c:	b4 07 39 7f 	extsw   r25,r25
    10000f80:	03 00 29 39 	addi    r9,r9,3
    10000f84:	90 02 41 f9 	std     r10,656(r1)
    10000f88:	78 02 21 f9 	std     r9,632(r1)
    10000f8c:	01 00 c0 3c 	lis     r6,1
    10000f90:	00 00 c0 3b 	li      r30,0
    10000f94:	89 28 c6 60 	ori     r6,r6,10377
    10000f98:	01 00 a0 38 	li      r5,1
    10000f9c:	78 02 21 e9 	ld      r9,632(r1)
    10000fa0:	00 00 09 89 	lbz     r8,0(r9)
    10000fa4:	e0 ff 48 39 	addi    r10,r8,-32
    10000fa8:	1f 00 0a 28 	cmplwi  r10,31
    10000fac:	10 00 81 41 	bgt     10000fbc <printf_core+0x1d0>
    10000fb0:	30 54 c7 7c 	srw     r7,r6,r10
    10000fb4:	01 00 e7 70 	andi.   r7,r7,1
    10000fb8:	70 01 82 40 	bne     10001128 <printf_core+0x33c>
    10000fbc:	2a 00 08 28 	cmplwi  r8,42
    10000fc0:	cc 01 82 40 	bne     1000118c <printf_core+0x3a0>
    10000fc4:	01 00 49 89 	lbz     r10,1(r9)
    10000fc8:	d0 ff 0a 39 	addi    r8,r10,-48
    10000fcc:	09 00 08 28 	cmplwi  r8,9
    10000fd0:	70 01 81 41 	bgt     10001140 <printf_core+0x354>
    10000fd4:	02 00 09 89 	lbz     r8,2(r9)
    10000fd8:	24 00 08 2c 	cmpwi   r8,36
    10000fdc:	64 01 82 40 	bne     10001140 <printf_core+0x354>
    10000fe0:	98 02 01 e9 	ld      r8,664(r1)
    10000fe4:	64 17 4a 79 	rldicr  r10,r10,2,61
    10000fe8:	03 00 29 39 	addi    r9,r9,3
    10000fec:	14 52 48 7d 	add     r10,r8,r10
    10000ff0:	0a 00 00 39 	li      r8,10
    10000ff4:	40 ff 0a 91 	stw     r8,-192(r10)
    10000ff8:	a0 02 01 e9 	ld      r8,672(r1)
    10000ffc:	fe ff 49 89 	lbz     r10,-2(r9)
    10001000:	78 02 21 f9 	std     r9,632(r1)
    10001004:	01 00 20 39 	li      r9,1
    10001008:	90 02 21 f9 	std     r9,656(r1)
    1000100c:	24 1f 4a 79 	rldicr  r10,r10,3,60
    10001010:	14 52 48 7d 	add     r10,r8,r10
    10001014:	82 fe 6a eb 	lwa     r27,-384(r10)
    10001018:	00 00 1b 2c 	cmpwi   r27,0
    1000101c:	14 00 80 40 	bge     10001030 <printf_core+0x244>
    10001020:	00 20 c7 63 	ori     r7,r30,8192
    10001024:	d0 00 7b 7f 	neg     r27,r27
    10001028:	20 00 fe 78 	clrldi  r30,r7,32
    1000102c:	b4 07 7b 7f 	extsw   r27,r27
    10001030:	78 02 21 e9 	ld      r9,632(r1)
    10001034:	00 00 49 89 	lbz     r10,0(r9)
    10001038:	2e 00 0a 2c 	cmpwi   r10,46
    1000103c:	b4 01 82 40 	bne     100011f0 <printf_core+0x404>
    10001040:	01 00 49 89 	lbz     r10,1(r9)
    10001044:	2a 00 0a 2c 	cmpwi   r10,42
    10001048:	8c 01 82 40 	bne     100011d4 <printf_core+0x3e8>
    1000104c:	02 00 49 89 	lbz     r10,2(r9)
    10001050:	d0 ff 0a 39 	addi    r8,r10,-48
    10001054:	09 00 08 28 	cmplwi  r8,9
    10001058:	4c 01 81 41 	bgt     100011a4 <printf_core+0x3b8>
    1000105c:	03 00 09 89 	lbz     r8,3(r9)
    10001060:	24 00 08 2c 	cmpwi   r8,36
    10001064:	40 01 82 40 	bne     100011a4 <printf_core+0x3b8>
    10001068:	98 02 01 e9 	ld      r8,664(r1)
    1000106c:	64 17 4a 79 	rldicr  r10,r10,2,61
    10001070:	04 00 29 39 	addi    r9,r9,4
    10001074:	14 52 48 7d 	add     r10,r8,r10
    10001078:	0a 00 00 39 	li      r8,10
    1000107c:	40 ff 0a 91 	stw     r8,-192(r10)
    10001080:	a0 02 01 e9 	ld      r8,672(r1)
    10001084:	fe ff 49 89 	lbz     r10,-2(r9)
    10001088:	24 1f 4a 79 	rldicr  r10,r10,3,60
    1000108c:	14 52 48 7d 	add     r10,r8,r10
    10001090:	82 fe ea eb 	lwa     r31,-384(r10)
    10001094:	78 02 21 f9 	std     r9,632(r1)
    10001098:	f8 f8 f4 7f 	not     r20,r31
    1000109c:	fe 0f 94 56 	rlwinm  r20,r20,1,31,31
    100010a0:	00 00 e0 3a 	li      r23,0
    100010a4:	78 02 21 e9 	ld      r9,632(r1)
    100010a8:	00 00 49 89 	lbz     r10,0(r9)
    100010ac:	bf ff 4a 39 	addi    r10,r10,-65
    100010b0:	39 00 0a 28 	cmplwi  r10,57
    100010b4:	98 00 81 41 	bgt     1000114c <printf_core+0x360>
    100010b8:	01 00 49 39 	addi    r10,r9,1
    100010bc:	c8 02 01 e9 	ld      r8,712(r1)
    100010c0:	78 02 41 f9 	std     r10,632(r1)
    100010c4:	3a 00 57 1d 	mulli   r10,r23,58
    100010c8:	14 52 48 7d 	add     r10,r8,r10
    100010cc:	00 00 29 89 	lbz     r9,0(r9)
    100010d0:	bf ff 29 39 	addi    r9,r9,-65
    100010d4:	b4 07 29 7d 	extsw   r9,r9
    100010d8:	ae 48 8a 7c 	lbzx    r4,r10,r9
    100010dc:	ff ff 44 39 	addi    r10,r4,-1
    100010e0:	78 23 89 7c 	mr      r9,r4
    100010e4:	07 00 0a 28 	cmplwi  r10,7
    100010e8:	14 01 81 40 	ble     100011fc <printf_core+0x410>
    100010ec:	00 00 24 2c 	cmpdi   r4,0
    100010f0:	5c 00 82 41 	beq     1000114c <printf_core+0x360>
    100010f4:	1b 00 84 2b 	cmplwi  cr7,r4,27
    100010f8:	00 00 19 2c 	cmpwi   r25,0
    100010fc:	08 01 9e 40 	bne     cr7,10001204 <printf_core+0x418>
    10001100:	4c 00 80 40 	bge     1000114c <printf_core+0x360>
    10001104:	54 01 92 40 	bne     cr4,10001258 <printf_core+0x46c>
    10001108:	64 fd ff 4b 	b       10000e6c <printf_core+0x80>
    1000110c:	02 00 29 39 	addi    r9,r9,2
    10001110:	01 00 bd 3b 	addi    r29,r29,1
    10001114:	78 02 21 f9 	std     r9,632(r1)
    10001118:	e0 fd ff 4b 	b       10000ef8 <printf_core+0x10c>
    1000111c:	01 00 29 39 	addi    r9,r9,1
    10001120:	ff ff 20 3b 	li      r25,-1
    10001124:	64 fe ff 4b 	b       10000f88 <printf_core+0x19c>
    10001128:	30 50 a7 7c 	slw     r7,r5,r10
    1000112c:	01 00 29 39 	addi    r9,r9,1
    10001130:	78 f3 e7 7c 	or      r7,r7,r30
    10001134:	78 02 21 f9 	std     r9,632(r1)
    10001138:	20 00 fe 78 	clrldi  r30,r7,32
    1000113c:	60 fe ff 4b 	b       10000f9c <printf_core+0x1b0>
    10001140:	90 02 41 e9 	ld      r10,656(r1)
    10001144:	00 00 2a 2c 	cmpdi   r10,0
    10001148:	1c 00 82 41 	beq     10001164 <printf_core+0x378>
    1000114c:	d1 1b 00 48 	bl      10002d1c <__errno_location>
    10001150:	00 00 00 60 	nop
    10001154:	16 00 20 39 	li      r9,22
    10001158:	00 00 23 91 	stw     r9,0(r3)
    1000115c:	ff ff c0 3a 	li      r22,-1
    10001160:	d0 00 00 48 	b       10001230 <printf_core+0x444>
    10001164:	20 00 92 41 	beq     cr4,10001184 <printf_core+0x398>
    10001168:	00 00 53 e9 	ld      r10,0(r19)
    1000116c:	02 00 6a eb 	lwa     r27,0(r10)
    10001170:	08 00 0a 39 	addi    r8,r10,8
    10001174:	00 00 13 f9 	std     r8,0(r19)
    10001178:	01 00 29 39 	addi    r9,r9,1
    1000117c:	78 02 21 f9 	std     r9,632(r1)
    10001180:	98 fe ff 4b 	b       10001018 <printf_core+0x22c>
    10001184:	00 00 60 3b 	li      r27,0
    10001188:	f0 ff ff 4b 	b       10001178 <printf_core+0x38c>
    1000118c:	78 02 61 38 	addi    r3,r1,632
    10001190:	f1 fa ff 4b 	bl      10000c80 <getint>
    10001194:	00 00 03 2c 	cmpwi   r3,0
    10001198:	78 1b 7b 7c 	mr      r27,r3
    1000119c:	94 fe 80 40 	bge     10001030 <printf_core+0x244>
    100011a0:	24 06 00 48 	b       100017c4 <printf_core+0x9d8>
    100011a4:	90 02 41 e9 	ld      r10,656(r1)
    100011a8:	00 00 2a 2c 	cmpdi   r10,0
    100011ac:	a0 ff 82 40 	bne     1000114c <printf_core+0x360>
    100011b0:	1c 00 92 41 	beq     cr4,100011cc <printf_core+0x3e0>
    100011b4:	00 00 53 e9 	ld      r10,0(r19)
    100011b8:	02 00 ea eb 	lwa     r31,0(r10)
    100011bc:	08 00 0a 39 	addi    r8,r10,8
    100011c0:	00 00 13 f9 	std     r8,0(r19)
    100011c4:	02 00 29 39 	addi    r9,r9,2
    100011c8:	cc fe ff 4b 	b       10001094 <printf_core+0x2a8>
    100011cc:	00 00 e0 3b 	li      r31,0
    100011d0:	f4 ff ff 4b 	b       100011c4 <printf_core+0x3d8>
    100011d4:	01 00 29 39 	addi    r9,r9,1
    100011d8:	78 02 61 38 	addi    r3,r1,632
    100011dc:	01 00 80 3a 	li      r20,1
    100011e0:	78 02 21 f9 	std     r9,632(r1)
    100011e4:	9d fa ff 4b 	bl      10000c80 <getint>
    100011e8:	78 1b 7f 7c 	mr      r31,r3
    100011ec:	b4 fe ff 4b 	b       100010a0 <printf_core+0x2b4>
    100011f0:	00 00 80 3a 	li      r20,0
    100011f4:	ff ff e0 3b 	li      r31,-1
    100011f8:	a8 fe ff 4b 	b       100010a0 <printf_core+0x2b4>
    100011fc:	78 4b 37 7d 	mr      r23,r9
    10001200:	a4 fe ff 4b 	b       100010a4 <printf_core+0x2b8>
    10001204:	24 00 80 41 	blt     10001228 <printf_core+0x43c>
    10001208:	98 02 41 e9 	ld      r10,664(r1)
    1000120c:	64 17 29 7b 	rldicr  r9,r25,2,61
    10001210:	24 1f 39 7b 	rldicr  r25,r25,3,60
    10001214:	2e 49 8a 7c 	stwx    r4,r10,r9
    10001218:	a0 02 21 e9 	ld      r9,672(r1)
    1000121c:	2a c8 29 7d 	ldx     r9,r9,r25
    10001220:	70 02 21 f9 	std     r9,624(r1)
    10001224:	e0 fe ff 4b 	b       10001104 <printf_core+0x318>
    10001228:	24 00 92 40 	bne     cr4,1000124c <printf_core+0x460>
    1000122c:	00 00 c0 3a 	li      r22,0
    10001230:	80 03 21 38 	addi    r1,r1,896
    10001234:	f0 ff 81 39 	addi    r12,r1,-16
    10001238:	78 b3 c3 7e 	mr      r3,r22
    1000123c:	08 00 61 81 	lwz     r11,8(r1)
    10001240:	15 32 00 48 	bl      10004454 <_restgpr1_14>
    10001244:	20 81 70 7d 	mtocrf  8,r11
    10001248:	58 32 00 48 	b       100044a0 <_restfpr_30>
    1000124c:	78 9b 65 7e 	mr      r5,r19
    10001250:	70 02 61 38 	addi    r3,r1,624
    10001254:	1d f9 ff 4b 	bl      10000b70 <pop_arg+0x8>
    10001258:	78 02 41 e9 	ld      r10,632(r1)
    1000125c:	00 00 37 2c 	cmpdi   r23,0
    10001260:	ff ff 2a 89 	lbz     r9,-1(r10)
    10001264:	78 4b 39 7d 	mr      r25,r9
    10001268:	14 00 82 41 	beq     1000127c <printf_core+0x490>
    1000126c:	3e 07 29 55 	clrlwi  r9,r9,28
    10001270:	03 00 09 2c 	cmpwi   r9,3
    10001274:	08 00 82 40 	bne     1000127c <printf_core+0x490>
    10001278:	df 00 39 73 	andi.   r25,r25,223
    1000127c:	00 20 c9 73 	andi.   r9,r30,8192
    10001280:	0c 00 82 41 	beq     1000128c <printf_core+0x4a0>
    10001284:	1c 04 de 57 	rlwinm  r30,r30,0,16,14
    10001288:	20 00 de 7b 	clrldi  r30,r30,32
    1000128c:	bf ff 39 39 	addi    r9,r25,-65
    10001290:	37 00 09 28 	cmplwi  r9,55
    10001294:	34 13 81 41 	bgt     100025c8 <printf_core+0x17dc>
    10001298:	fe ff 42 3d 	addis   r10,r2,-2
    1000129c:	b4 93 4a 39 	addi    r10,r10,-27724
    100012a0:	88 17 29 79 	rldic   r9,r9,2,30
    100012a4:	aa 4a 2a 7d 	lwax    r9,r10,r9
    100012a8:	14 52 29 7d 	add     r9,r9,r10
    100012ac:	a6 03 29 7d 	mtctr   r9
    100012b0:	20 04 80 4e 	bctr
    100012b4:	64 05 00 00 	.long 0x564
    100012b8:	14 13 00 00 	.long 0x1314
    100012bc:	34 04 00 00 	.long 0x434
    100012c0:	14 13 00 00 	.long 0x1314
    100012c4:	64 05 00 00 	.long 0x564
    100012c8:	64 05 00 00 	.long 0x564
    100012cc:	64 05 00 00 	.long 0x564
    100012d0:	14 13 00 00 	.long 0x1314
    100012d4:	14 13 00 00 	.long 0x1314
    100012d8:	14 13 00 00 	.long 0x1314
    100012dc:	14 13 00 00 	.long 0x1314
    100012e0:	14 13 00 00 	.long 0x1314
    100012e4:	14 13 00 00 	.long 0x1314
    100012e8:	14 13 00 00 	.long 0x1314
    100012ec:	14 13 00 00 	.long 0x1314
    100012f0:	14 13 00 00 	.long 0x1314
    100012f4:	14 13 00 00 	.long 0x1314
    100012f8:	14 13 00 00 	.long 0x1314
    100012fc:	50 04 00 00 	.long 0x450
    10001300:	14 13 00 00 	.long 0x1314
    10001304:	14 13 00 00 	.long 0x1314
    10001308:	14 13 00 00 	.long 0x1314
    1000130c:	14 13 00 00 	.long 0x1314
    10001310:	74 01 00 00 	.long 0x174
    10001314:	14 13 00 00 	.long 0x1314
    10001318:	14 13 00 00 	.long 0x1314
    1000131c:	14 13 00 00 	.long 0x1314
    10001320:	14 13 00 00 	.long 0x1314
    10001324:	14 13 00 00 	.long 0x1314
    10001328:	14 13 00 00 	.long 0x1314
    1000132c:	14 13 00 00 	.long 0x1314
    10001330:	14 13 00 00 	.long 0x1314
    10001334:	64 05 00 00 	.long 0x564
    10001338:	14 13 00 00 	.long 0x1314
    1000133c:	98 03 00 00 	.long 0x398
    10001340:	38 03 00 00 	.long 0x338
    10001344:	64 05 00 00 	.long 0x564
    10001348:	64 05 00 00 	.long 0x564
    1000134c:	64 05 00 00 	.long 0x564
    10001350:	14 13 00 00 	.long 0x1314
    10001354:	38 03 00 00 	.long 0x338
    10001358:	14 13 00 00 	.long 0x1314
    1000135c:	14 13 00 00 	.long 0x1314
    10001360:	14 13 00 00 	.long 0x1314
    10001364:	bc 03 00 00 	.long 0x3bc
    10001368:	e0 00 00 00 	.long 0xe0
    1000136c:	ec 02 00 00 	.long 0x2ec
    10001370:	54 01 00 00 	.long 0x154
    10001374:	14 13 00 00 	.long 0x1314
    10001378:	14 13 00 00 	.long 0x1314
    1000137c:	1c 04 00 00 	.long 0x41c
    10001380:	14 13 00 00 	.long 0x1314
    10001384:	50 03 00 00 	.long 0x350
    10001388:	14 13 00 00 	.long 0x1314
    1000138c:	14 13 00 00 	.long 0x1314
    10001390:	74 01 00 00 	.long 0x174
    10001394:	07 00 17 28 	cmplwi  r23,7
    10001398:	20 04 81 41 	bgt     100017b8 <printf_core+0x9cc>
    1000139c:	fe ff 42 3d 	addis   r10,r2,-2
    100013a0:	b8 94 4a 39 	addi    r10,r10,-27464
    100013a4:	64 17 f7 7a 	rldicr  r23,r23,2,61
    100013a8:	aa ba 2a 7d 	lwax    r9,r10,r23
    100013ac:	14 52 29 7d 	add     r9,r9,r10
    100013b0:	a6 03 29 7d 	mtctr   r9
    100013b4:	20 04 80 4e 	bctr
    100013b8:	20 00 00 00 	.long 0x20
    100013bc:	44 00 00 00 	.long 0x44
    100013c0:	44 00 00 00 	.long 0x44
    100013c4:	2c 00 00 00 	.long 0x2c
    100013c8:	38 00 00 00 	.long 0x38
    100013cc:	00 04 00 00 	.long 0x400
    100013d0:	44 00 00 00 	.long 0x44
    100013d4:	44 00 00 00 	.long 0x44
    100013d8:	70 02 21 e9 	ld      r9,624(r1)
    100013dc:	00 00 49 93 	stw     r26,0(r9)
    100013e0:	8c fa ff 4b 	b       10000e6c <printf_core+0x80>
    100013e4:	70 02 21 e9 	ld      r9,624(r1)
    100013e8:	00 00 c9 b2 	sth     r22,0(r9)
    100013ec:	80 fa ff 4b 	b       10000e6c <printf_core+0x80>
    100013f0:	70 02 21 e9 	ld      r9,624(r1)
    100013f4:	00 00 c9 9a 	stb     r22,0(r9)
    100013f8:	74 fa ff 4b 	b       10000e6c <printf_core+0x80>
    100013fc:	70 02 21 e9 	ld      r9,624(r1)
    10001400:	00 00 c9 fa 	std     r22,0(r9)
    10001404:	68 fa ff 4b 	b       10000e6c <printf_core+0x80>
    10001408:	10 00 1f 28 	cmplwi  r31,16
    1000140c:	78 fb e9 7f 	mr      r9,r31
    10001410:	08 00 80 40 	bge     10001418 <printf_core+0x62c>
    10001414:	10 00 20 39 	li      r9,16
    10001418:	08 00 c7 63 	ori     r7,r30,8
    1000141c:	b4 07 3f 7d 	extsw   r31,r9
    10001420:	20 00 fe 78 	clrldi  r30,r7,32
    10001424:	78 00 20 3b 	li      r25,120
    10001428:	70 02 01 e9 	ld      r8,624(r1)
    1000142c:	b4 06 27 57 	rlwinm  r7,r25,0,26,26
    10001430:	40 02 01 3b 	addi    r24,r1,576
    10001434:	78 43 09 7d 	mr      r9,r8
    10001438:	00 00 29 2c 	cmpdi   r9,0
    1000143c:	48 01 82 40 	bne     10001584 <printf_core+0x798>
    10001440:	00 00 28 2c 	cmpdi   r8,0
    10001444:	78 ab ba 7e 	mr      r26,r21
    10001448:	18 00 82 41 	beq     10001460 <printf_core+0x674>
    1000144c:	08 00 c9 73 	andi.   r9,r30,8
    10001450:	10 00 82 41 	beq     10001460 <printf_core+0x674>
    10001454:	74 26 3a 7f 	sradi   r26,r25,4
    10001458:	02 00 a0 3b 	li      r29,2
    1000145c:	14 d2 55 7f 	add     r26,r21,r26
    10001460:	00 00 34 2c 	cmpdi   r20,0
    10001464:	14 00 82 41 	beq     10001478 <printf_core+0x68c>
    10001468:	00 00 1f 2c 	cmpwi   r31,0
    1000146c:	58 03 80 41 	blt     100017c4 <printf_core+0x9d8>
    10001470:	1c 04 de 57 	rlwinm  r30,r30,0,16,14
    10001474:	20 00 de 7b 	clrldi  r30,r30,32
    10001478:	70 02 01 e9 	ld      r8,624(r1)
    1000147c:	40 02 21 39 	addi    r9,r1,576
    10001480:	00 00 28 2c 	cmpdi   r8,0
    10001484:	0c 00 82 40 	bne     10001490 <printf_core+0x6a4>
    10001488:	00 00 3f 2c 	cmpdi   r31,0
    1000148c:	48 11 82 41 	beq     100025d4 <printf_core+0x17e8>
    10001490:	50 48 58 7d 	subf    r10,r24,r9
    10001494:	00 00 08 21 	subfic  r8,r8,0
    10001498:	94 01 4a 7d 	addze   r10,r10
    1000149c:	00 f8 2a 7c 	cmpd    r10,r31
    100014a0:	08 00 80 40 	bge     100014a8 <printf_core+0x6bc>
    100014a4:	78 fb ea 7f 	mr      r10,r31
    100014a8:	b4 07 5f 7d 	extsw   r31,r10
    100014ac:	50 48 38 7f 	subf    r25,r24,r9
    100014b0:	00 c8 3f 7c 	cmpd    r31,r25
    100014b4:	08 00 80 40 	bge     100014bc <printf_core+0x6d0>
    100014b8:	b4 07 3f 7f 	extsw   r31,r25
    100014bc:	ff 7f 20 3d 	lis     r9,32767
    100014c0:	ff ff 29 61 	ori     r9,r9,65535
    100014c4:	50 48 3d 7d 	subf    r9,r29,r9
    100014c8:	00 f8 09 7c 	cmpw    r9,r31
    100014cc:	f8 02 80 41 	blt     100017c4 <printf_core+0x9d8>
    100014d0:	14 ea 3f 7d 	add     r9,r31,r29
    100014d4:	00 d8 09 7c 	cmpw    r9,r27
    100014d8:	b4 07 37 7d 	extsw   r23,r9
    100014dc:	08 00 80 40 	bge     100014e4 <printf_core+0x6f8>
    100014e0:	78 db 69 7f 	mr      r9,r27
    100014e4:	b0 02 41 81 	lwz     r10,688(r1)
    100014e8:	b4 07 3b 7d 	extsw   r27,r9
    100014ec:	00 48 0a 7c 	cmpw    r10,r9
    100014f0:	d4 02 80 41 	blt     100017c4 <printf_core+0x9d8>
    100014f4:	b4 07 c7 7f 	extsw   r7,r30
    100014f8:	78 bb e6 7e 	mr      r6,r23
    100014fc:	78 db 65 7f 	mr      r5,r27
    10001500:	20 00 80 38 	li      r4,32
    10001504:	78 e3 83 7f 	mr      r3,r28
    10001508:	45 f8 ff 4b 	bl      10000d4c <pad+0x8>
    1000150c:	78 eb a5 7f 	mr      r5,r29
    10001510:	78 d3 44 7f 	mr      r4,r26
    10001514:	78 e3 83 7f 	mr      r3,r28
    10001518:	78 db 7d 7f 	mr      r29,r27
    1000151c:	dd f7 ff 4b 	bl      10000cf8 <out+0x8>
    10001520:	01 00 c7 6f 	xoris   r7,r30,1
    10001524:	78 bb e6 7e 	mr      r6,r23
    10001528:	b4 07 e7 7c 	extsw   r7,r7
    1000152c:	78 db 65 7f 	mr      r5,r27
    10001530:	30 00 80 38 	li      r4,48
    10001534:	78 e3 83 7f 	mr      r3,r28
    10001538:	15 f8 ff 4b 	bl      10000d4c <pad+0x8>
    1000153c:	00 00 e0 38 	li      r7,0
    10001540:	b4 07 26 7f 	extsw   r6,r25
    10001544:	78 fb e5 7f 	mr      r5,r31
    10001548:	30 00 80 38 	li      r4,48
    1000154c:	78 e3 83 7f 	mr      r3,r28
    10001550:	fd f7 ff 4b 	bl      10000d4c <pad+0x8>
    10001554:	78 cb 25 7f 	mr      r5,r25
    10001558:	78 c3 04 7f 	mr      r4,r24
    1000155c:	78 e3 83 7f 	mr      r3,r28
    10001560:	99 f7 ff 4b 	bl      10000cf8 <out+0x8>
    10001564:	00 20 c7 6b 	xori    r7,r30,8192
    10001568:	78 bb e6 7e 	mr      r6,r23
    1000156c:	b4 07 e7 7c 	extsw   r7,r7
    10001570:	78 db 65 7f 	mr      r5,r27
    10001574:	20 00 80 38 	li      r4,32
    10001578:	78 e3 83 7f 	mr      r3,r28
    1000157c:	d1 f7 ff 4b 	bl      10000d4c <pad+0x8>
    10001580:	ec f8 ff 4b 	b       10000e6c <printf_core+0x80>
    10001584:	c0 02 c1 e8 	ld      r6,704(r1)
    10001588:	20 07 2a 79 	clrldi  r10,r9,60
    1000158c:	02 e1 29 79 	rldicl  r9,r9,60,4
    10001590:	ae 50 46 7d 	lbzx    r10,r6,r10
    10001594:	78 3b 4a 7d 	or      r10,r10,r7
    10001598:	ff ff 58 9d 	stbu    r10,-1(r24)
    1000159c:	9c fe ff 4b 	b       10001438 <printf_core+0x64c>
    100015a0:	70 02 21 e9 	ld      r9,624(r1)
    100015a4:	40 02 01 3b 	addi    r24,r1,576
    100015a8:	78 c3 05 7f 	mr      r5,r24
    100015ac:	00 00 29 2c 	cmpdi   r9,0
    100015b0:	28 00 82 40 	bne     100015d8 <printf_core+0x7ec>
    100015b4:	08 00 c9 73 	andi.   r9,r30,8
    100015b8:	78 ab ba 7e 	mr      r26,r21
    100015bc:	a4 fe 82 41 	beq     10001460 <printf_core+0x674>
    100015c0:	50 28 b8 7c 	subf    r5,r24,r5
    100015c4:	00 f8 25 7c 	cmpd    r5,r31
    100015c8:	98 fe 80 41 	blt     10001460 <printf_core+0x674>
    100015cc:	01 00 a5 38 	addi    r5,r5,1
    100015d0:	b4 07 bf 7c 	extsw   r31,r5
    100015d4:	8c fe ff 4b 	b       10001460 <printf_core+0x674>
    100015d8:	7e 07 2a 55 	clrlwi  r10,r9,29
    100015dc:	c2 e8 29 79 	rldicl  r9,r9,61,3
    100015e0:	30 00 4a 39 	addi    r10,r10,48
    100015e4:	ff ff 58 9d 	stbu    r10,-1(r24)
    100015e8:	c4 ff ff 4b 	b       100015ac <printf_core+0x7c0>
    100015ec:	70 02 21 e9 	ld      r9,624(r1)
    100015f0:	00 00 29 2c 	cmpdi   r9,0
    100015f4:	28 00 80 40 	bge     1000161c <printf_core+0x830>
    100015f8:	d0 00 29 7d 	neg     r9,r9
    100015fc:	01 00 a0 3b 	li      r29,1
    10001600:	70 02 21 f9 	std     r9,624(r1)
    10001604:	78 ab ba 7e 	mr      r26,r21
    10001608:	70 02 61 e8 	ld      r3,624(r1)
    1000160c:	40 02 81 38 	addi    r4,r1,576
    10001610:	35 f6 ff 4b 	bl      10000c44 <fmt_u>
    10001614:	78 1b 78 7c 	mr      r24,r3
    10001618:	48 fe ff 4b 	b       10001460 <printf_core+0x674>
    1000161c:	00 08 c9 73 	andi.   r9,r30,2048
    10001620:	1c 00 82 40 	bne     1000163c <printf_core+0x850>
    10001624:	01 00 c9 73 	andi.   r9,r30,1
    10001628:	dc ff 82 41 	beq     10001604 <printf_core+0x818>
    1000162c:	fe ff 42 3f 	addis   r26,r2,-2
    10001630:	0a c6 5a 3b 	addi    r26,r26,-14838
    10001634:	01 00 a0 3b 	li      r29,1
    10001638:	d0 ff ff 4b 	b       10001608 <printf_core+0x81c>
    1000163c:	fe ff 42 3f 	addis   r26,r2,-2
    10001640:	09 c6 5a 3b 	addi    r26,r26,-14839
    10001644:	01 00 a0 3b 	li      r29,1
    10001648:	c0 ff ff 4b 	b       10001608 <printf_core+0x81c>
    1000164c:	70 02 21 e9 	ld      r9,624(r1)
    10001650:	1c 04 de 57 	rlwinm  r30,r30,0,16,14
    10001654:	78 ab ba 7e 	mr      r26,r21
    10001658:	20 00 de 7b 	clrldi  r30,r30,32
    1000165c:	01 00 e0 3b 	li      r31,1
    10001660:	3f 02 01 3b 	addi    r24,r1,575
    10001664:	3f 02 21 99 	stb     r9,575(r1)
    10001668:	40 02 21 39 	addi    r9,r1,576
    1000166c:	40 fe ff 4b 	b       100014ac <printf_core+0x6c0>
    10001670:	ad 16 00 48 	bl      10002d1c <__errno_location>
    10001674:	00 00 00 60 	nop
    10001678:	02 00 63 e8 	lwa     r3,0(r3)
    1000167c:	21 17 00 48 	bl      10002d9c <strerror+0x8>
    10001680:	00 00 00 60 	nop
    10001684:	78 1b 78 7c 	mr      r24,r3
    10001688:	00 00 1f 2e 	cmpwi   cr4,r31,0
    1000168c:	78 fb e4 7f 	mr      r4,r31
    10001690:	0c 00 90 40 	bge     cr4,1000169c <printf_core+0x8b0>
    10001694:	ff ff 80 38 	li      r4,-1
    10001698:	60 00 84 78 	clrldi  r4,r4,33
    1000169c:	78 c3 03 7f 	mr      r3,r24
    100016a0:	79 12 00 48 	bl      10002918 <strnlen+0x8>
    100016a4:	00 00 00 60 	nop
    100016a8:	14 1a 38 7d 	add     r9,r24,r3
    100016ac:	10 00 90 40 	bge     cr4,100016bc <printf_core+0x8d0>
    100016b0:	ae 18 58 7d 	lbzx    r10,r24,r3
    100016b4:	00 00 0a 2c 	cmpwi   r10,0
    100016b8:	0c 01 82 40 	bne     100017c4 <printf_core+0x9d8>
    100016bc:	1c 04 de 57 	rlwinm  r30,r30,0,16,14
    100016c0:	b4 07 7f 7c 	extsw   r31,r3
    100016c4:	20 00 de 7b 	clrldi  r30,r30,32
    100016c8:	78 ab ba 7e 	mr      r26,r21
    100016cc:	e0 fd ff 4b 	b       100014ac <printf_core+0x6c0>
    100016d0:	70 02 01 eb 	ld      r24,624(r1)
    100016d4:	00 00 38 2c 	cmpdi   r24,0
    100016d8:	b0 ff 82 40 	bne     10001688 <printf_core+0x89c>
    100016dc:	fe ff 02 3f 	addis   r24,r2,-2
    100016e0:	12 c6 18 3b 	addi    r24,r24,-14830
    100016e4:	a4 ff ff 4b 	b       10001688 <printf_core+0x89c>
    100016e8:	70 02 21 e9 	ld      r9,624(r1)
    100016ec:	ff ff e0 3b 	li      r31,-1
    100016f0:	64 02 21 91 	stw     r9,612(r1)
    100016f4:	00 00 20 39 	li      r9,0
    100016f8:	68 02 21 91 	stw     r9,616(r1)
    100016fc:	64 02 21 39 	addi    r9,r1,612
    10001700:	70 02 21 f9 	std     r9,624(r1)
    10001704:	70 02 41 eb 	ld      r26,624(r1)
    10001708:	00 00 a0 3b 	li      r29,0
    1000170c:	fc ff 5a 3b 	addi    r26,r26,-4
    10001710:	40 e8 3f 7c 	cmpld   r31,r29
    10001714:	34 00 81 40 	ble     10001748 <printf_core+0x95c>
    10001718:	06 00 9a e8 	lwa     r4,4(r26)
    1000171c:	04 00 5a 3b 	addi    r26,r26,4
    10001720:	00 00 24 2c 	cmpdi   r4,0
    10001724:	24 00 82 41 	beq     10001748 <printf_core+0x95c>
    10001728:	88 02 61 38 	addi    r3,r1,648
    1000172c:	7d 17 00 48 	bl      10002ea8 <wctomb+0x8>
    10001730:	00 00 00 60 	nop
    10001734:	00 00 03 2c 	cmpwi   r3,0
    10001738:	24 fa 80 41 	blt     1000115c <printf_core+0x370>
    1000173c:	50 f8 3d 7d 	subf    r9,r29,r31
    10001740:	40 48 23 7c 	cmpld   r3,r9
    10001744:	90 00 81 40 	ble     100017d4 <printf_core+0x9e8>
    10001748:	ff ff 20 39 	li      r9,-1
    1000174c:	60 00 29 79 	clrldi  r9,r9,33
    10001750:	40 48 3d 7c 	cmpld   r29,r9
    10001754:	70 00 81 41 	bgt     100017c4 <printf_core+0x9d8>
    10001758:	b4 07 ba 7f 	extsw   r26,r29
    1000175c:	b4 07 c7 7f 	extsw   r7,r30
    10001760:	78 d3 46 7f 	mr      r6,r26
    10001764:	78 db 65 7f 	mr      r5,r27
    10001768:	20 00 80 38 	li      r4,32
    1000176c:	78 e3 83 7f 	mr      r3,r28
    10001770:	dd f5 ff 4b 	bl      10000d4c <pad+0x8>
    10001774:	70 02 e1 eb 	ld      r31,624(r1)
    10001778:	00 00 20 3b 	li      r25,0
    1000177c:	fc ff ff 3b 	addi    r31,r31,-4
    10001780:	40 c8 3d 7c 	cmpld   r29,r25
    10001784:	58 00 81 41 	bgt     100017dc <printf_core+0x9f0>
    10001788:	00 20 c7 6b 	xori    r7,r30,8192
    1000178c:	78 d3 46 7f 	mr      r6,r26
    10001790:	b4 07 e7 7c 	extsw   r7,r7
    10001794:	78 db 65 7f 	mr      r5,r27
    10001798:	20 00 80 38 	li      r4,32
    1000179c:	78 e3 83 7f 	mr      r3,r28
    100017a0:	78 db 7d 7f 	mr      r29,r27
    100017a4:	a9 f5 ff 4b 	bl      10000d4c <pad+0x8>
    100017a8:	00 d0 1b 7c 	cmpw    r27,r26
    100017ac:	08 00 80 40 	bge     100017b4 <printf_core+0x9c8>
    100017b0:	78 d3 5d 7f 	mr      r29,r26
    100017b4:	b4 07 bd 7f 	extsw   r29,r29
    100017b8:	b0 02 21 81 	lwz     r9,688(r1)
    100017bc:	00 e8 09 7c 	cmpw    r9,r29
    100017c0:	ac f6 80 40 	bge     10000e6c <printf_core+0x80>
    100017c4:	59 15 00 48 	bl      10002d1c <__errno_location>
    100017c8:	00 00 00 60 	nop
    100017cc:	4b 00 20 39 	li      r9,75
    100017d0:	88 f9 ff 4b 	b       10001158 <printf_core+0x36c>
    100017d4:	14 1a bd 7f 	add     r29,r29,r3
    100017d8:	38 ff ff 4b 	b       10001710 <printf_core+0x924>
    100017dc:	06 00 9f e8 	lwa     r4,4(r31)
    100017e0:	04 00 ff 3b 	addi    r31,r31,4
    100017e4:	00 00 24 2c 	cmpdi   r4,0
    100017e8:	a0 ff 82 41 	beq     10001788 <printf_core+0x99c>
    100017ec:	88 02 61 38 	addi    r3,r1,648
    100017f0:	b9 16 00 48 	bl      10002ea8 <wctomb+0x8>
    100017f4:	00 00 00 60 	nop
    100017f8:	14 1a 39 7f 	add     r25,r25,r3
    100017fc:	78 1b 65 7c 	mr      r5,r3
    10001800:	40 e8 39 7c 	cmpld   r25,r29
    10001804:	84 ff 81 41 	bgt     10001788 <printf_core+0x99c>
    10001808:	88 02 81 38 	addi    r4,r1,648
    1000180c:	78 e3 83 7f 	mr      r3,r28
    10001810:	e9 f4 ff 4b 	bl      10000cf8 <out+0x8>
    10001814:	6c ff ff 4b 	b       10001780 <printf_core+0x994>
    10001818:	00 00 34 2c 	cmpdi   r20,0
    1000181c:	0c 00 82 41 	beq     10001828 <printf_core+0xa3c>
    10001820:	00 00 1f 2c 	cmpwi   r31,0
    10001824:	a0 ff 80 41 	blt     100017c4 <printf_core+0x9d8>
    10001828:	70 02 21 c8 	lfd     f1,624(r1)
    1000182c:	00 00 20 39 	li      r9,0
    10001830:	b4 07 c7 7f 	extsw   r7,r30
    10001834:	80 02 21 91 	stw     r9,640(r1)
    10001838:	66 00 29 7c 	mfvsrd  r9,vs1
    1000183c:	00 00 29 2c 	cmpdi   r9,0
    10001840:	b8 00 80 40 	bge     100018f8 <printf_core+0xb0c>
    10001844:	50 08 20 fc 	fneg    f1,f1
    10001848:	fe ff 82 3e 	addis   r20,r2,-2
    1000184c:	01 00 e0 3a 	li      r23,1
    10001850:	19 c6 94 3a 	addi    r20,r20,-14823
    10001854:	66 00 29 7c 	mfvsrd  r9,vs1
    10001858:	40 00 2a 79 	clrldi  r10,r9,1
    1000185c:	ef 7f 20 3d 	lis     r9,32751
    10001860:	ff ff 29 61 	ori     r9,r9,65535
    10001864:	c6 07 29 79 	rldicr  r9,r9,32,31
    10001868:	ff ff 29 65 	oris    r9,r9,65535
    1000186c:	ff ff 29 61 	ori     r9,r9,65535
    10001870:	40 48 2a 7c 	cmpld   r10,r9
    10001874:	d0 00 81 40 	ble     10001944 <printf_core+0xb58>
    10001878:	20 00 29 73 	andi.   r9,r25,32
    1000187c:	fe ff e2 3f 	addis   r31,r2,-2
    10001880:	2c c6 ff 3b 	addi    r31,r31,-14804
    10001884:	0c 00 82 40 	bne     10001890 <printf_core+0xaa4>
    10001888:	fe ff e2 3f 	addis   r31,r2,-2
    1000188c:	30 c6 ff 3b 	addi    r31,r31,-14800
    10001890:	00 08 81 ff 	fcmpu   cr7,f1,f1
    10001894:	10 00 9e 41 	beq     cr7,100018a4 <printf_core+0xab8>
    10001898:	a0 00 82 40 	bne     10001938 <printf_core+0xb4c>
    1000189c:	fe ff e2 3f 	addis   r31,r2,-2
    100018a0:	38 c6 ff 3b 	addi    r31,r31,-14792
    100018a4:	03 00 b7 3b 	addi    r29,r23,3
    100018a8:	1c 04 e7 54 	rlwinm  r7,r7,0,16,14
    100018ac:	b4 07 e7 7c 	extsw   r7,r7
    100018b0:	78 eb a6 7f 	mr      r6,r29
    100018b4:	78 db 65 7f 	mr      r5,r27
    100018b8:	20 00 80 38 	li      r4,32
    100018bc:	78 e3 83 7f 	mr      r3,r28
    100018c0:	03 00 57 3b 	addi    r26,r23,3
    100018c4:	89 f4 ff 4b 	bl      10000d4c <pad+0x8>
    100018c8:	78 bb e5 7e 	mr      r5,r23
    100018cc:	78 a3 84 7e 	mr      r4,r20
    100018d0:	78 e3 83 7f 	mr      r3,r28
    100018d4:	25 f4 ff 4b 	bl      10000cf8 <out+0x8>
    100018d8:	03 00 a0 38 	li      r5,3
    100018dc:	78 fb e4 7f 	mr      r4,r31
    100018e0:	78 e3 83 7f 	mr      r3,r28
    100018e4:	15 f4 ff 4b 	bl      10000cf8 <out+0x8>
    100018e8:	00 20 c7 6b 	xori    r7,r30,8192
    100018ec:	78 eb a6 7f 	mr      r6,r29
    100018f0:	b4 07 e7 7c 	extsw   r7,r7
    100018f4:	a0 fe ff 4b 	b       10001794 <printf_core+0x9a8>
    100018f8:	00 08 c9 73 	andi.   r9,r30,2048
    100018fc:	1c 00 82 40 	bne     10001918 <printf_core+0xb2c>
    10001900:	01 00 c9 73 	andi.   r9,r30,1
    10001904:	24 00 82 40 	bne     10001928 <printf_core+0xb3c>
    10001908:	fe ff 82 3e 	addis   r20,r2,-2
    1000190c:	1a c6 94 3a 	addi    r20,r20,-14822
    10001910:	00 00 e0 3a 	li      r23,0
    10001914:	40 ff ff 4b 	b       10001854 <printf_core+0xa68>
    10001918:	fe ff 82 3e 	addis   r20,r2,-2
    1000191c:	1c c6 94 3a 	addi    r20,r20,-14820
    10001920:	01 00 e0 3a 	li      r23,1
    10001924:	30 ff ff 4b 	b       10001854 <printf_core+0xa68>
    10001928:	fe ff 82 3e 	addis   r20,r2,-2
    1000192c:	1f c6 94 3a 	addi    r20,r20,-14817
    10001930:	01 00 e0 3a 	li      r23,1
    10001934:	20 ff ff 4b 	b       10001854 <printf_core+0xa68>
    10001938:	fe ff e2 3f 	addis   r31,r2,-2
    1000193c:	34 c6 ff 3b 	addi    r31,r31,-14796
    10001940:	64 ff ff 4b 	b       100018a4 <printf_core+0xab8>
    10001944:	80 02 81 38 	addi    r4,r1,640
    10001948:	d0 02 e1 f8 	std     r7,720(r1)
    1000194c:	25 15 00 48 	bl      10002e70 <frexpl+0x8>
    10001950:	00 00 00 60 	nop
    10001954:	d0 02 e1 e8 	ld      r7,720(r1)
    10001958:	2a 08 e1 ff 	fadd    f31,f1,f1
    1000195c:	00 f0 1f fc 	fcmpu   cr0,f31,f30
    10001960:	10 00 82 41 	beq     10001970 <printf_core+0xb84>
    10001964:	80 02 21 81 	lwz     r9,640(r1)
    10001968:	ff ff 29 39 	addi    r9,r9,-1
    1000196c:	80 02 21 91 	stw     r9,640(r1)
    10001970:	20 00 2b 63 	ori     r11,r25,32
    10001974:	61 00 0b 2c 	cmpwi   r11,97
    10001978:	b4 07 64 7d 	extsw   r4,r11
    1000197c:	5c 02 82 40 	bne     10001bd8 <printf_core+0xdec>
    10001980:	20 00 38 73 	andi.   r24,r25,32
    10001984:	08 00 82 41 	beq     1000198c <printf_core+0xba0>
    10001988:	09 00 94 3a 	addi    r20,r20,9
    1000198c:	0b 00 1f 28 	cmplwi  r31,11
    10001990:	fe ff 42 3f 	addis   r26,r2,-2
    10001994:	02 00 17 3a 	addi    r16,r23,2
    10001998:	20 00 ef 7b 	clrldi  r15,r31,32
    1000199c:	02 00 f7 3a 	addi    r23,r23,2
    100019a0:	40 c6 5a 3b 	addi    r26,r26,-14784
    100019a4:	3c 00 81 41 	bgt     100019e0 <printf_core+0xbf4>
    100019a8:	0c 00 3f 21 	subfic  r9,r31,12
    100019ac:	fe ff 42 3d 	addis   r10,r2,-2
    100019b0:	20 00 29 79 	clrldi  r9,r9,32
    100019b4:	01 00 29 39 	addi    r9,r9,1
    100019b8:	40 c6 2a c0 	lfs     f1,-14784(r10)
    100019bc:	a6 03 29 7d 	mtctr   r9
    100019c0:	f0 01 00 42 	bdnz    10001bb0 <printf_core+0xdc4>
    100019c4:	00 00 34 89 	lbz     r9,0(r20)
    100019c8:	2d 00 09 2c 	cmpwi   r9,45
    100019cc:	f0 01 82 40 	bne     10001bbc <printf_core+0xdd0>
    100019d0:	50 f8 e0 ff 	fneg    f31,f31
    100019d4:	28 08 ff ff 	fsub    f31,f31,f1
    100019d8:	2a f8 e1 ff 	fadd    f31,f1,f31
    100019dc:	50 f8 e0 ff 	fneg    f31,f31
    100019e0:	80 02 21 81 	lwz     r9,640(r1)
    100019e4:	64 02 a1 3b 	addi    r29,r1,612
    100019e8:	d0 02 e1 f8 	std     r7,720(r1)
    100019ec:	78 eb a4 7f 	mr      r4,r29
    100019f0:	70 fe 23 7d 	srawi   r3,r9,31
    100019f4:	78 4a 69 7c 	xor     r9,r3,r9
    100019f8:	50 48 63 7c 	subf    r3,r3,r9
    100019fc:	b4 07 63 7c 	extsw   r3,r3
    10001a00:	45 f2 ff 4b 	bl      10000c44 <fmt_u>
    10001a04:	d0 02 e1 e8 	ld      r7,720(r1)
    10001a08:	00 e8 23 7c 	cmpd    r3,r29
    10001a0c:	10 00 82 40 	bne     10001a1c <printf_core+0xc30>
    10001a10:	30 00 20 39 	li      r9,48
    10001a14:	63 02 61 38 	addi    r3,r1,611
    10001a18:	63 02 21 99 	stb     r9,611(r1)
    10001a1c:	80 02 41 81 	lwz     r10,640(r1)
    10001a20:	2d 00 20 39 	li      r9,45
    10001a24:	00 00 0a 2c 	cmpwi   r10,0
    10001a28:	08 00 80 41 	blt     10001a30 <printf_core+0xc44>
    10001a2c:	2b 00 20 39 	li      r9,43
    10001a30:	0f 00 39 3b 	addi    r25,r25,15
    10001a34:	00 00 1a c0 	lfs     f0,0(r26)
    10001a38:	ff ff 23 99 	stb     r9,-1(r3)
    10001a3c:	00 00 9f 2e 	cmpwi   cr5,r31,0
    10001a40:	40 02 21 39 	addi    r9,r1,576
    10001a44:	08 00 c8 73 	andi.   r8,r30,8
    10001a48:	fe ff 23 9b 	stb     r25,-2(r3)
    10001a4c:	fe ff 43 3a 	addi    r18,r3,-2
    10001a50:	78 4b 31 7d 	mr      r17,r9
    10001a54:	2e 00 40 39 	li      r10,46
    10001a58:	61 f9 00 f0 	xscvdpsxws vs32,vs31
    10001a5c:	c0 02 c1 e8 	ld      r6,704(r1)
    10001a60:	00 88 a9 7f 	cmpd    cr7,r9,r17
    10001a64:	01 00 49 3b 	addi    r26,r9,1
    10001a68:	e7 00 08 7c 	mfvrwz  r8,v0
    10001a6c:	4e 06 00 10 	vupkhsw v0,v0
    10001a70:	57 03 00 f0 	xxspltd vs32,vs32,1
    10001a74:	e3 05 00 f0 	xscvsxddp vs32,vs32
    10001a78:	b4 07 08 7d 	extsw   r8,r8
    10001a7c:	ae 40 06 7d 	lbzx    r8,r6,r8
    10001a80:	42 01 ff f3 	xssubdp vs31,vs31,vs32
    10001a84:	78 43 08 7f 	or      r8,r24,r8
    10001a88:	00 00 09 99 	stb     r8,0(r9)
    10001a8c:	32 00 ff ff 	fmul    f31,f31,f0
    10001a90:	1c 00 9e 40 	bne     cr7,10001aac <printf_core+0xcc0>
    10001a94:	00 f0 9f ff 	fcmpu   cr7,f31,f30
    10001a98:	0c 00 9e 40 	bne     cr7,10001aa4 <printf_core+0xcb8>
    10001a9c:	08 00 95 41 	bgt     cr5,10001aa4 <printf_core+0xcb8>
    10001aa0:	14 00 82 41 	beq     10001ab4 <printf_core+0xcc8>
    10001aa4:	01 00 49 99 	stb     r10,1(r9)
    10001aa8:	02 00 49 3b 	addi    r26,r9,2
    10001aac:	00 f0 9f ff 	fcmpu   cr7,f31,f30
    10001ab0:	18 01 9e 40 	bne     cr7,10001bc8 <printf_core+0xddc>
    10001ab4:	ff 7f 20 3d 	lis     r9,32767
    10001ab8:	50 e8 b2 7f 	subf    r29,r18,r29
    10001abc:	fd ff 29 61 	ori     r9,r9,65533
    10001ac0:	50 48 3d 7d 	subf    r9,r29,r9
    10001ac4:	50 48 37 7d 	subf    r9,r23,r9
    10001ac8:	00 48 3f 7c 	cmpd    r31,r9
    10001acc:	f8 fc 81 41 	bgt     100017c4 <printf_core+0x9d8>
    10001ad0:	00 00 3f 2c 	cmpdi   r31,0
    10001ad4:	50 d0 51 7f 	subf    r26,r17,r26
    10001ad8:	20 00 a5 7b 	clrldi  r5,r29,32
    10001adc:	14 d2 1d 7f 	add     r24,r29,r26
    10001ae0:	f0 00 82 41 	beq     10001bd0 <printf_core+0xde4>
    10001ae4:	ff ff 3a 39 	addi    r9,r26,-1
    10001ae8:	00 48 3f 7c 	cmpd    r31,r9
    10001aec:	e4 00 80 41 	blt     10001bd0 <printf_core+0xde4>
    10001af0:	02 00 ef 3b 	addi    r31,r15,2
    10001af4:	14 2a ff 7f 	add     r31,r31,r5
    10001af8:	b4 07 ff 7f 	extsw   r31,r31
    10001afc:	14 fa 30 7f 	add     r25,r16,r31
    10001b00:	78 db 65 7f 	mr      r5,r27
    10001b04:	b4 07 30 7f 	extsw   r16,r25
    10001b08:	20 00 80 38 	li      r4,32
    10001b0c:	78 83 06 7e 	mr      r6,r16
    10001b10:	78 e3 83 7f 	mr      r3,r28
    10001b14:	39 f2 ff 4b 	bl      10000d4c <pad+0x8>
    10001b18:	78 bb e5 7e 	mr      r5,r23
    10001b1c:	78 a3 84 7e 	mr      r4,r20
    10001b20:	78 e3 83 7f 	mr      r3,r28
    10001b24:	d5 f1 ff 4b 	bl      10000cf8 <out+0x8>
    10001b28:	01 00 c7 6f 	xoris   r7,r30,1
    10001b2c:	78 83 06 7e 	mr      r6,r16
    10001b30:	b4 07 e7 7c 	extsw   r7,r7
    10001b34:	78 db 65 7f 	mr      r5,r27
    10001b38:	30 00 80 38 	li      r4,48
    10001b3c:	78 e3 83 7f 	mr      r3,r28
    10001b40:	0d f2 ff 4b 	bl      10000d4c <pad+0x8>
    10001b44:	78 d3 45 7f 	mr      r5,r26
    10001b48:	78 8b 24 7e 	mr      r4,r17
    10001b4c:	78 e3 83 7f 	mr      r3,r28
    10001b50:	a9 f1 ff 4b 	bl      10000cf8 <out+0x8>
    10001b54:	50 f8 b8 7c 	subf    r5,r24,r31
    10001b58:	00 00 e0 38 	li      r7,0
    10001b5c:	00 00 c0 38 	li      r6,0
    10001b60:	b4 07 a5 7c 	extsw   r5,r5
    10001b64:	30 00 80 38 	li      r4,48
    10001b68:	78 e3 83 7f 	mr      r3,r28
    10001b6c:	e1 f1 ff 4b 	bl      10000d4c <pad+0x8>
    10001b70:	78 eb a5 7f 	mr      r5,r29
    10001b74:	78 93 44 7e 	mr      r4,r18
    10001b78:	78 e3 83 7f 	mr      r3,r28
    10001b7c:	7d f1 ff 4b 	bl      10000cf8 <out+0x8>
    10001b80:	00 20 c7 6b 	xori    r7,r30,8192
    10001b84:	78 83 06 7e 	mr      r6,r16
    10001b88:	b4 07 e7 7c 	extsw   r7,r7
    10001b8c:	78 db 65 7f 	mr      r5,r27
    10001b90:	20 00 80 38 	li      r4,32
    10001b94:	78 e3 83 7f 	mr      r3,r28
    10001b98:	78 db 7d 7f 	mr      r29,r27
    10001b9c:	b1 f1 ff 4b 	bl      10000d4c <pad+0x8>
    10001ba0:	00 c8 1b 7c 	cmpw    r27,r25
    10001ba4:	10 fc 80 40 	bge     100017b4 <printf_core+0x9c8>
    10001ba8:	78 cb 3d 7f 	mr      r29,r25
    10001bac:	08 fc ff 4b 	b       100017b4 <printf_core+0x9c8>
    10001bb0:	00 00 1a c0 	lfs     f0,0(r26)
    10001bb4:	32 00 21 fc 	fmul    f1,f1,f0
    10001bb8:	08 fe ff 4b 	b       100019c0 <printf_core+0xbd4>
    10001bbc:	2a 08 ff ff 	fadd    f31,f31,f1
    10001bc0:	28 08 ff ff 	fsub    f31,f31,f1
    10001bc4:	1c fe ff 4b 	b       100019e0 <printf_core+0xbf4>
    10001bc8:	78 d3 49 7f 	mr      r9,r26
    10001bcc:	8c fe ff 4b 	b       10001a58 <printf_core+0xc6c>
    10001bd0:	b4 07 1f 7f 	extsw   r31,r24
    10001bd4:	28 ff ff 4b 	b       10001afc <printf_core+0xd10>
    10001bd8:	00 00 1f 2c 	cmpwi   r31,0
    10001bdc:	08 00 80 40 	bge     10001be4 <printf_core+0xdf8>
    10001be0:	06 00 e0 3b 	li      r31,6
    10001be4:	00 f0 1f fc 	fcmpu   cr0,f31,f30
    10001be8:	1c 00 82 41 	beq     10001c04 <printf_core+0xe18>
    10001bec:	fe ff 22 3d 	addis   r9,r2,-2
    10001bf0:	54 c6 09 c0 	lfs     f0,-14764(r9)
    10001bf4:	80 02 21 81 	lwz     r9,640(r1)
    10001bf8:	e4 ff 29 39 	addi    r9,r9,-28
    10001bfc:	32 00 ff ff 	fmul    f31,f31,f0
    10001c00:	80 02 21 91 	stw     r9,640(r1)
    10001c04:	82 02 01 e9 	lwa     r8,640(r1)
    10001c08:	40 01 01 3b 	addi    r24,r1,320
    10001c0c:	00 00 08 2c 	cmpwi   r8,0
    10001c10:	08 00 80 40 	bge     10001c18 <printf_core+0xe2c>
    10001c14:	20 00 01 3b 	addi    r24,r1,32
    10001c18:	fe ff 42 3d 	addis   r10,r2,-2
    10001c1c:	78 c3 09 7f 	mr      r9,r24
    10001c20:	58 c6 8a c1 	lfs     f12,-14760(r10)
    10001c24:	1e f9 00 fc 	fctiwuz f0,f31
    10001c28:	e6 00 0a 7c 	mffprwz r10,f0
    10001c2c:	ae 4f 00 7c 	stfiwx  f0,0,r9
    10001c30:	04 00 29 39 	addi    r9,r9,4
    10001c34:	e6 01 0a 7c 	mtfprwz f0,r10
    10001c38:	9c 06 00 fc 	fcfid   f0,f0
    10001c3c:	28 00 ff ff 	fsub    f31,f31,f0
    10001c40:	32 03 ff ff 	fmul    f31,f31,f12
    10001c44:	00 f0 1f fc 	fcmpu   cr0,f31,f30
    10001c48:	dc ff 82 40 	bne     10001c24 <printf_core+0xe38>
    10001c4c:	78 c3 1a 7f 	mr      r26,r24
    10001c50:	00 00 40 39 	li      r10,0
    10001c54:	00 00 08 2c 	cmpwi   r8,0
    10001c58:	94 01 81 41 	bgt     10001dec <printf_core+0x1000>
    10001c5c:	00 00 2a 2c 	cmpdi   r10,0
    10001c60:	08 00 82 41 	beq     10001c68 <printf_core+0xe7c>
    10001c64:	80 02 01 91 	stw     r8,640(r1)
    10001c68:	82 02 a1 e8 	lwa     r5,640(r1)
    10001c6c:	09 00 40 39 	li      r10,9
    10001c70:	19 00 df 38 	addi    r6,r31,25
    10001c74:	96 53 c6 7c 	divwu   r6,r6,r10
    10001c78:	9a 3b c0 3d 	lis     r14,15258
    10001c7c:	66 00 84 2f 	cmpwi   cr7,r4,102
    10001c80:	00 00 40 39 	li      r10,0
    10001c84:	01 00 80 39 	li      r12,1
    10001c88:	00 ca ce 61 	ori     r14,r14,51712
    10001c8c:	01 00 c6 38 	addi    r6,r6,1
    10001c90:	20 00 cf 78 	clrldi  r15,r6,32
    10001c94:	88 17 c6 78 	rldic   r6,r6,2,30
    10001c98:	00 00 05 2c 	cmpwi   r5,0
    10001c9c:	00 02 80 41 	blt     10001e9c <printf_core+0x10b0>
    10001ca0:	00 00 2a 2c 	cmpdi   r10,0
    10001ca4:	08 00 82 41 	beq     10001cac <printf_core+0xec0>
    10001ca8:	80 02 a1 90 	stw     r5,640(r1)
    10001cac:	40 d0 29 7c 	cmpld   r9,r26
    10001cb0:	00 00 e0 39 	li      r15,0
    10001cb4:	24 00 81 40 	ble     10001cd8 <printf_core+0xeec>
    10001cb8:	50 c0 fa 7d 	subf    r15,r26,r24
    10001cbc:	00 00 1a 81 	lwz     r8,0(r26)
    10001cc0:	0a 00 40 39 	li      r10,10
    10001cc4:	74 16 ef 7d 	sradi   r15,r15,2
    10001cc8:	09 00 ef 1d 	mulli   r15,r15,9
    10001ccc:	b4 07 ef 7d 	extsw   r15,r15
    10001cd0:	40 50 08 7c 	cmplw   r8,r10
    10001cd4:	a0 02 80 40 	bge     10001f74 <printf_core+0x1188>
    10001cd8:	66 00 66 69 	xori    r6,r11,102
    10001cdc:	67 00 0b 2c 	cmpwi   r11,103
    10001ce0:	34 00 c6 7c 	cntlzw  r6,r6
    10001ce4:	00 00 40 39 	li      r10,0
    10001ce8:	7e d9 c6 54 	rlwinm  r6,r6,27,5,31
    10001cec:	01 00 c6 68 	xori    r6,r6,1
    10001cf0:	d6 79 c6 7c 	mullw   r6,r6,r15
    10001cf4:	50 f8 c6 7c 	subf    r6,r6,r31
    10001cf8:	10 00 82 40 	bne     10001d08 <printf_core+0xf1c>
    10001cfc:	34 00 ea 7f 	cntlzw  r10,r31
    10001d00:	7e d9 4a 55 	rlwinm  r10,r10,27,5,31
    10001d04:	01 00 4a 69 	xori    r10,r10,1
    10001d08:	50 30 ca 7c 	subf    r6,r10,r6
    10001d0c:	50 48 58 7d 	subf    r10,r24,r9
    10001d10:	74 16 4a 7d 	sradi   r10,r10,2
    10001d14:	b4 07 c8 7c 	extsw   r8,r6
    10001d18:	ff ff 4a 39 	addi    r10,r10,-1
    10001d1c:	09 00 4a 1d 	mulli   r10,r10,9
    10001d20:	00 50 a8 7f 	cmpd    cr7,r8,r10
    10001d24:	c4 02 9c 40 	bge     cr7,10001fe8 <printf_core+0x11fc>
    10001d28:	00 24 a6 38 	addi    r5,r6,9216
    10001d2c:	09 00 00 39 	li      r8,9
    10001d30:	d6 43 05 7d 	divw    r8,r5,r8
    10001d34:	09 00 c8 1c 	mulli   r6,r8,9
    10001d38:	b4 07 0a 7d 	extsw   r10,r8
    10001d3c:	64 17 4a 79 	rldicr  r10,r10,2,61
    10001d40:	0a 00 00 39 	li      r8,10
    10001d44:	04 f0 4a 39 	addi    r10,r10,-4092
    10001d48:	14 52 58 7d 	add     r10,r24,r10
    10001d4c:	50 28 c6 7c 	subf    r6,r6,r5
    10001d50:	08 00 c6 20 	subfic  r6,r6,8
    10001d54:	20 00 c6 78 	clrldi  r6,r6,32
    10001d58:	01 00 c6 38 	addi    r6,r6,1
    10001d5c:	a6 03 c9 7c 	mtctr   r6
    10001d60:	28 02 00 42 	bdnz    10001f88 <printf_core+0x119c>
    10001d64:	00 00 8a 80 	lwz     r4,0(r10)
    10001d68:	20 00 05 79 	clrldi  r5,r8,32
    10001d6c:	96 2b 64 7c 	divwu   r3,r4,r5
    10001d70:	d6 29 c3 7c 	mullw   r6,r3,r5
    10001d74:	50 20 c6 7c 	subf    r6,r6,r4
    10001d78:	00 00 86 2f 	cmpwi   cr7,r6,0
    10001d7c:	10 00 9e 40 	bne     cr7,10001d8c <printf_core+0xfa0>
    10001d80:	04 00 6a 39 	addi    r11,r10,4
    10001d84:	00 58 a9 7f 	cmpd    cr7,r9,r11
    10001d88:	50 02 9e 41 	beq     cr7,10001fd8 <printf_core+0x11ec>
    10001d8c:	e0 07 63 78 	clrldi  r3,r3,63
    10001d90:	00 00 a3 2f 	cmpdi   cr7,r3,0
    10001d94:	28 00 9e 40 	bne     cr7,10001dbc <printf_core+0xfd0>
    10001d98:	65 c4 03 6d 	xoris   r3,r8,50277
    10001d9c:	00 ca 83 2f 	cmpwi   cr7,r3,-13824
    10001da0:	f4 01 9e 40 	bne     cr7,10001f94 <printf_core+0x11a8>
    10001da4:	40 50 ba 7f 	cmpld   cr7,r26,r10
    10001da8:	ec 01 9c 40 	bge     cr7,10001f94 <printf_core+0x11a8>
    10001dac:	fc ff 6a 80 	lwz     r3,-4(r10)
    10001db0:	e0 07 63 78 	clrldi  r3,r3,63
    10001db4:	00 00 a3 2f 	cmpdi   cr7,r3,0
    10001db8:	dc 01 9e 41 	beq     cr7,10001f94 <printf_core+0x11a8>
    10001dbc:	fe ff 62 3c 	addis   r3,r2,-2
    10001dc0:	60 c6 83 c9 	lfd     f12,-14752(r3)
    10001dc4:	70 0e 08 7d 	srawi   r8,r8,1
    10001dc8:	40 40 86 7f 	cmplw   cr7,r6,r8
    10001dcc:	d4 01 9c 41 	blt     cr7,10001fa0 <printf_core+0x11b4>
    10001dd0:	10 00 9e 40 	bne     cr7,10001de0 <printf_core+0xff4>
    10001dd4:	04 00 0a 39 	addi    r8,r10,4
    10001dd8:	00 40 a9 7f 	cmpd    cr7,r9,r8
    10001ddc:	f4 03 9e 41 	beq     cr7,100021d0 <printf_core+0x13e4>
    10001de0:	fe ff 02 3d 	addis   r8,r2,-2
    10001de4:	48 c6 08 c0 	lfs     f0,-14776(r8)
    10001de8:	c0 01 00 48 	b       10001fa8 <printf_core+0x11bc>
    10001dec:	1d 00 08 2c 	cmpwi   r8,29
    10001df0:	78 43 06 7d 	mr      r6,r8
    10001df4:	08 00 81 40 	ble     10001dfc <printf_core+0x1010>
    10001df8:	1d 00 c0 38 	li      r6,29
    10001dfc:	fc ff 49 3a 	addi    r18,r9,-4
    10001e00:	fc ff 7a 38 	addi    r3,r26,-4
    10001e04:	40 90 23 7c 	cmpld   r3,r18
    10001e08:	50 48 5a 7d 	subf    r10,r26,r9
    10001e0c:	82 f0 4a 79 	rldicl  r10,r10,62,2
    10001e10:	b4 07 c6 7c 	extsw   r6,r6
    10001e14:	00 00 a0 38 	li      r5,0
    10001e18:	01 00 4a 39 	addi    r10,r10,1
    10001e1c:	08 00 81 40 	ble     10001e24 <printf_core+0x1038>
    10001e20:	01 00 40 39 	li      r10,1
    10001e24:	01 00 2a 2c 	cmpdi   r10,1
    10001e28:	ff ff 4a 39 	addi    r10,r10,-1
    10001e2c:	40 00 82 40 	bne     10001e6c <printf_core+0x1080>
    10001e30:	00 00 25 2c 	cmpdi   r5,0
    10001e34:	0c 00 82 41 	beq     10001e40 <printf_core+0x1054>
    10001e38:	fc ff ba 90 	stw     r5,-4(r26)
    10001e3c:	fc ff 5a 3b 	addi    r26,r26,-4
    10001e40:	78 4b 2a 7d 	mr      r10,r9
    10001e44:	40 d0 2a 7c 	cmpld   r10,r26
    10001e48:	78 53 49 7d 	mr      r9,r10
    10001e4c:	10 00 81 40 	ble     10001e5c <printf_core+0x1070>
    10001e50:	fc ff aa 84 	lwzu    r5,-4(r10)
    10001e54:	00 00 05 2c 	cmpwi   r5,0
    10001e58:	ec ff 82 41 	beq     10001e44 <printf_core+0x1058>
    10001e5c:	50 40 06 7d 	subf    r8,r6,r8
    10001e60:	01 00 40 39 	li      r10,1
    10001e64:	b4 07 08 7d 	extsw   r8,r8
    10001e68:	ec fd ff 4b 	b       10001c54 <printf_core+0xe68>
    10001e6c:	00 00 72 80 	lwz     r3,0(r18)
    10001e70:	9a 3b 00 3c 	lis     r0,15258
    10001e74:	fc ff 52 3a 	addi    r18,r18,-4
    10001e78:	00 ca 00 60 	ori     r0,r0,51712
    10001e7c:	36 30 63 7c 	sld     r3,r3,r6
    10001e80:	14 2a 63 7c 	add     r3,r3,r5
    10001e84:	92 03 a3 7c 	divdu   r5,r3,r0
    10001e88:	d2 01 05 7c 	mulld   r0,r5,r0
    10001e8c:	20 00 a5 78 	clrldi  r5,r5,32
    10001e90:	50 18 60 7c 	subf    r3,r0,r3
    10001e94:	04 00 72 90 	stw     r3,4(r18)
    10001e98:	8c ff ff 4b 	b       10001e24 <printf_core+0x1038>
    10001e9c:	f7 ff 05 2c 	cmpwi   r5,-9
    10001ea0:	09 00 00 39 	li      r8,9
    10001ea4:	0c 00 80 41 	blt     10001eb0 <printf_core+0x10c4>
    10001ea8:	d0 00 05 7d 	neg     r8,r5
    10001eac:	b4 07 08 7d 	extsw   r8,r8
    10001eb0:	03 00 89 38 	addi    r4,r9,3
    10001eb4:	50 48 5a 7d 	subf    r10,r26,r9
    10001eb8:	40 20 3a 7c 	cmpld   r26,r4
    10001ebc:	30 40 83 7d 	slw     r3,r12,r8
    10001ec0:	03 00 4a 39 	addi    r10,r10,3
    10001ec4:	ff ff 63 38 	addi    r3,r3,-1
    10001ec8:	30 46 d1 7d 	sraw    r17,r14,r8
    10001ecc:	82 f0 4a 79 	rldicl  r10,r10,62,2
    10001ed0:	20 00 63 78 	clrldi  r3,r3,32
    10001ed4:	20 00 31 7a 	clrldi  r17,r17,32
    10001ed8:	78 d3 52 7f 	mr      r18,r26
    10001edc:	00 00 00 38 	li      r0,0
    10001ee0:	01 00 4a 39 	addi    r10,r10,1
    10001ee4:	0c 00 81 41 	bgt     10001ef0 <printf_core+0x1104>
    10001ee8:	00 00 29 2c 	cmpdi   r9,0
    10001eec:	08 00 82 40 	bne     10001ef4 <printf_core+0x1108>
    10001ef0:	01 00 40 39 	li      r10,1
    10001ef4:	01 00 2a 2c 	cmpdi   r10,1
    10001ef8:	ff ff 4a 39 	addi    r10,r10,-1
    10001efc:	54 00 82 40 	bne     10001f50 <printf_core+0x1164>
    10001f00:	00 00 5a 81 	lwz     r10,0(r26)
    10001f04:	00 00 0a 2c 	cmpwi   r10,0
    10001f08:	08 00 82 40 	bne     10001f10 <printf_core+0x1124>
    10001f0c:	04 00 5a 3b 	addi    r26,r26,4
    10001f10:	00 00 20 2c 	cmpdi   r0,0
    10001f14:	0c 00 82 41 	beq     10001f20 <printf_core+0x1134>
    10001f18:	00 00 09 90 	stw     r0,0(r9)
    10001f1c:	04 00 29 39 	addi    r9,r9,4
    10001f20:	78 c3 0a 7f 	mr      r10,r24
    10001f24:	08 00 9e 41 	beq     cr7,10001f2c <printf_core+0x1140>
    10001f28:	78 d3 4a 7f 	mr      r10,r26
    10001f2c:	50 48 8a 7c 	subf    r4,r10,r9
    10001f30:	74 16 84 7c 	sradi   r4,r4,2
    10001f34:	00 78 24 7c 	cmpd    r4,r15
    10001f38:	08 00 81 40 	ble     10001f40 <printf_core+0x1154>
    10001f3c:	14 32 2a 7d 	add     r9,r10,r6
    10001f40:	14 2a a8 7c 	add     r5,r8,r5
    10001f44:	01 00 40 39 	li      r10,1
    10001f48:	b4 07 a5 7c 	extsw   r5,r5
    10001f4c:	4c fd ff 4b 	b       10001c98 <printf_core+0xeac>
    10001f50:	00 00 92 80 	lwz     r4,0(r18)
    10001f54:	04 00 52 3a 	addi    r18,r18,4
    10001f58:	30 44 90 7c 	srw     r16,r4,r8
    10001f5c:	14 02 10 7c 	add     r0,r16,r0
    10001f60:	fc ff 12 90 	stw     r0,-4(r18)
    10001f64:	38 20 60 7c 	and     r0,r3,r4
    10001f68:	d6 89 00 7c 	mullw   r0,r0,r17
    10001f6c:	20 00 00 78 	clrldi  r0,r0,32
    10001f70:	84 ff ff 4b 	b       10001ef4 <printf_core+0x1108>
    10001f74:	0a 00 4a 1d 	mulli   r10,r10,10
    10001f78:	01 00 ef 39 	addi    r15,r15,1
    10001f7c:	b4 07 ef 7d 	extsw   r15,r15
    10001f80:	b4 07 4a 7d 	extsw   r10,r10
    10001f84:	4c fd ff 4b 	b       10001cd0 <printf_core+0xee4>
    10001f88:	0a 00 08 1d 	mulli   r8,r8,10
    10001f8c:	b4 07 08 7d 	extsw   r8,r8
    10001f90:	d0 fd ff 4b 	b       10001d60 <printf_core+0xf74>
    10001f94:	fe ff 62 3c 	addis   r3,r2,-2
    10001f98:	44 c6 83 c1 	lfs     f12,-14780(r3)
    10001f9c:	28 fe ff 4b 	b       10001dc4 <printf_core+0xfd8>
    10001fa0:	fe ff 02 3d 	addis   r8,r2,-2
    10001fa4:	50 c6 08 c0 	lfs     f0,-14768(r8)
    10001fa8:	00 00 b7 2f 	cmpdi   cr7,r23,0
    10001fac:	18 00 9e 41 	beq     cr7,10001fc4 <printf_core+0x11d8>
    10001fb0:	00 00 14 89 	lbz     r8,0(r20)
    10001fb4:	2d 00 88 2f 	cmpwi   cr7,r8,45
    10001fb8:	0c 00 9e 40 	bne     cr7,10001fc4 <printf_core+0x11d8>
    10001fbc:	50 60 80 fd 	fneg    f12,f12
    10001fc0:	50 00 00 fc 	fneg    f0,f0
    10001fc4:	2a 00 0c fc 	fadd    f0,f12,f0
    10001fc8:	50 20 c6 7c 	subf    r6,r6,r4
    10001fcc:	00 00 8c ff 	fcmpu   cr7,f12,f0
    10001fd0:	0c 02 9e 40 	bne     cr7,100021dc <printf_core+0x13f0>
    10001fd4:	00 00 ca 90 	stw     r6,0(r10)
    10001fd8:	04 00 4a 39 	addi    r10,r10,4
    10001fdc:	40 50 a9 7f 	cmpld   cr7,r9,r10
    10001fe0:	08 00 9d 40 	ble     cr7,10001fe8 <printf_core+0x11fc>
    10001fe4:	78 53 49 7d 	mr      r9,r10
    10001fe8:	40 d0 a9 7f 	cmpld   cr7,r9,r26
    10001fec:	78 4b 32 7d 	mr      r18,r9
    10001ff0:	10 00 9d 40 	ble     cr7,10002000 <printf_core+0x1214>
    10001ff4:	fc ff 49 85 	lwzu    r10,-4(r9)
    10001ff8:	00 00 8a 2f 	cmpwi   cr7,r10,0
    10001ffc:	ec ff 9e 41 	beq     cr7,10001fe8 <printf_core+0x11fc>
    10002000:	8c 00 82 40 	bne     1000208c <printf_core+0x12a0>
    10002004:	00 00 3f 2c 	cmpdi   r31,0
    10002008:	08 00 82 40 	bne     10002010 <printf_core+0x1224>
    1000200c:	01 00 e0 3b 	li      r31,1
    10002010:	00 78 1f 7c 	cmpw    r31,r15
    10002014:	44 02 81 40 	ble     10002258 <printf_core+0x146c>
    10002018:	fc ff 0f 2c 	cmpwi   r15,-4
    1000201c:	3c 02 80 41 	blt     10002258 <printf_core+0x146c>
    10002020:	ff ff 39 3b 	addi    r25,r25,-1
    10002024:	01 00 af 38 	addi    r5,r15,1
    10002028:	b4 07 39 7f 	extsw   r25,r25
    1000202c:	50 f8 e5 7f 	subf    r31,r5,r31
    10002030:	08 00 c9 73 	andi.   r9,r30,8
    10002034:	b4 07 ff 7f 	extsw   r31,r31
    10002038:	54 00 82 40 	bne     1000208c <printf_core+0x12a0>
    1000203c:	40 d0 32 7c 	cmpld   r18,r26
    10002040:	09 00 40 39 	li      r10,9
    10002044:	10 00 81 40 	ble     10002054 <printf_core+0x1268>
    10002048:	fc ff d2 80 	lwz     r6,-4(r18)
    1000204c:	00 00 26 2c 	cmpdi   r6,0
    10002050:	3c 02 82 40 	bne     1000228c <printf_core+0x14a0>
    10002054:	20 00 28 63 	ori     r8,r25,32
    10002058:	50 90 38 7d 	subf    r9,r24,r18
    1000205c:	66 00 08 2c 	cmpwi   r8,102
    10002060:	74 16 29 7d 	sradi   r9,r9,2
    10002064:	ff ff 29 39 	addi    r9,r9,-1
    10002068:	09 00 29 1d 	mulli   r9,r9,9
    1000206c:	2c 02 82 40 	bne     10002298 <printf_core+0x14ac>
    10002070:	51 48 2a 7d 	subf.   r9,r10,r9
    10002074:	08 00 80 40 	bge     1000207c <printf_core+0x1290>
    10002078:	00 00 20 39 	li      r9,0
    1000207c:	00 f8 29 7c 	cmpd    r9,r31
    10002080:	08 00 81 40 	ble     10002088 <printf_core+0x129c>
    10002084:	78 fb e9 7f 	mr      r9,r31
    10002088:	b4 07 3f 7d 	extsw   r31,r9
    1000208c:	ff 7f 20 3d 	lis     r9,32767
    10002090:	fd ff 29 61 	ori     r9,r9,65533
    10002094:	00 48 1f 7c 	cmpw    r31,r9
    10002098:	2c f7 81 41 	bgt     100017c4 <printf_core+0x9d8>
    1000209c:	38 07 ce 57 	rlwinm  r14,r30,0,28,28
    100020a0:	20 00 28 63 	ori     r8,r25,32
    100020a4:	78 73 ee 7f 	or      r14,r31,r14
    100020a8:	66 00 08 2e 	cmpwi   cr4,r8,102
    100020ac:	20 00 d0 79 	clrldi  r16,r14,32
    100020b0:	34 00 ce 7d 	cntlzw  r14,r14
    100020b4:	01 00 3f 39 	addi    r9,r31,1
    100020b8:	ff 7f 40 3d 	lis     r10,32767
    100020bc:	7e d9 ce 55 	rlwinm  r14,r14,27,5,31
    100020c0:	ff ff 4a 61 	ori     r10,r10,65535
    100020c4:	01 00 ce 69 	xori    r14,r14,1
    100020c8:	38 07 d1 57 	rlwinm  r17,r30,0,28,28
    100020cc:	14 4a ce 7d 	add     r14,r14,r9
    100020d0:	50 50 4e 7d 	subf    r10,r14,r10
    100020d4:	b4 07 c4 7d 	extsw   r4,r14
    100020d8:	b4 07 49 7d 	extsw   r9,r10
    100020dc:	c4 01 92 40 	bne     cr4,100022a0 <printf_core+0x14b4>
    100020e0:	00 50 0f 7c 	cmpw    r15,r10
    100020e4:	e0 f6 81 41 	bgt     100017c4 <printf_core+0x9d8>
    100020e8:	00 00 0f 2c 	cmpwi   r15,0
    100020ec:	0c 00 81 40 	ble     100020f8 <printf_core+0x130c>
    100020f0:	14 72 2f 7f 	add     r25,r15,r14
    100020f4:	b4 07 24 7f 	extsw   r4,r25
    100020f8:	00 00 37 2c 	cmpdi   r23,0
    100020fc:	14 00 82 41 	beq     10002110 <printf_core+0x1324>
    10002100:	ff 7f 20 3d 	lis     r9,32767
    10002104:	fe ff 29 61 	ori     r9,r9,65534
    10002108:	00 20 09 7c 	cmpw    r9,r4
    1000210c:	b8 f6 80 41 	blt     100017c4 <printf_core+0x9d8>
    10002110:	14 22 37 7f 	add     r25,r23,r4
    10002114:	78 db 65 7f 	mr      r5,r27
    10002118:	b4 07 2f 7f 	extsw   r15,r25
    1000211c:	20 00 80 38 	li      r4,32
    10002120:	78 7b e6 7d 	mr      r6,r15
    10002124:	78 e3 83 7f 	mr      r3,r28
    10002128:	25 ec ff 4b 	bl      10000d4c <pad+0x8>
    1000212c:	78 bb e5 7e 	mr      r5,r23
    10002130:	78 a3 84 7e 	mr      r4,r20
    10002134:	78 e3 83 7f 	mr      r3,r28
    10002138:	c1 eb ff 4b 	bl      10000cf8 <out+0x8>
    1000213c:	01 00 c7 6f 	xoris   r7,r30,1
    10002140:	78 7b e6 7d 	mr      r6,r15
    10002144:	b4 07 e7 7c 	extsw   r7,r7
    10002148:	78 db 65 7f 	mr      r5,r27
    1000214c:	30 00 80 38 	li      r4,48
    10002150:	78 e3 83 7f 	mr      r3,r28
    10002154:	f9 eb ff 4b 	bl      10000d4c <pad+0x8>
    10002158:	2c 03 92 40 	bne     cr4,10002484 <printf_core+0x1698>
    1000215c:	40 d0 38 7c 	cmpld   r24,r26
    10002160:	78 c3 14 7f 	mr      r20,r24
    10002164:	08 00 81 40 	ble     1000216c <printf_core+0x1380>
    10002168:	78 d3 54 7f 	mr      r20,r26
    1000216c:	78 a3 91 7e 	mr      r17,r20
    10002170:	49 02 c1 39 	addi    r14,r1,585
    10002174:	40 02 41 3b 	addi    r26,r1,576
    10002178:	30 00 e0 3a 	li      r23,48
    1000217c:	40 88 38 7c 	cmpld   r24,r17
    10002180:	b8 01 80 40 	bge     10002338 <printf_core+0x154c>
    10002184:	01 00 58 39 	addi    r10,r24,1
    10002188:	fd ff 34 39 	addi    r9,r20,-3
    1000218c:	40 48 2a 7c 	cmpld   r10,r9
    10002190:	00 00 40 3b 	li      r26,0
    10002194:	10 00 80 41 	blt     100021a4 <printf_core+0x13b8>
    10002198:	04 00 18 3b 	addi    r24,r24,4
    1000219c:	50 c0 14 7f 	subf    r24,r20,r24
    100021a0:	64 07 1a 7b 	rldicr  r26,r24,0,61
    100021a4:	00 00 30 2c 	cmpdi   r16,0
    100021a8:	14 d2 54 7f 	add     r26,r20,r26
    100021ac:	18 00 82 41 	beq     100021c4 <printf_core+0x13d8>
    100021b0:	b8 02 81 e8 	ld      r4,696(r1)
    100021b4:	01 00 a0 38 	li      r5,1
    100021b8:	78 e3 83 7f 	mr      r3,r28
    100021bc:	78 fb fd 7f 	mr      r29,r31
    100021c0:	39 eb ff 4b 	bl      10000cf8 <out+0x8>
    100021c4:	40 02 01 3b 	addi    r24,r1,576
    100021c8:	30 00 e0 3b 	li      r31,48
    100021cc:	74 02 00 48 	b       10002440 <printf_core+0x1654>
    100021d0:	fe ff 02 3d 	addis   r8,r2,-2
    100021d4:	4c c6 08 c0 	lfs     f0,-14772(r8)
    100021d8:	d0 fd ff 4b 	b       10001fa8 <printf_core+0x11bc>
    100021dc:	14 32 a5 7c 	add     r5,r5,r6
    100021e0:	00 00 c0 38 	li      r6,0
    100021e4:	00 00 aa 90 	stw     r5,0(r10)
    100021e8:	9a 3b a0 3c 	lis     r5,15258
    100021ec:	ff c9 a5 60 	ori     r5,r5,51711
    100021f0:	00 00 0a 81 	lwz     r8,0(r10)
    100021f4:	40 28 88 7f 	cmplw   cr7,r8,r5
    100021f8:	38 00 9d 41 	bgt     cr7,10002230 <printf_core+0x1444>
    100021fc:	50 c0 fa 7d 	subf    r15,r26,r24
    10002200:	00 00 da 80 	lwz     r6,0(r26)
    10002204:	0a 00 00 39 	li      r8,10
    10002208:	74 16 ef 7d 	sradi   r15,r15,2
    1000220c:	09 00 ef 1d 	mulli   r15,r15,9
    10002210:	b4 07 ef 7d 	extsw   r15,r15
    10002214:	40 40 86 7f 	cmplw   cr7,r6,r8
    10002218:	c0 fd 9c 41 	blt     cr7,10001fd8 <printf_core+0x11ec>
    1000221c:	0a 00 08 1d 	mulli   r8,r8,10
    10002220:	01 00 ef 39 	addi    r15,r15,1
    10002224:	b4 07 ef 7d 	extsw   r15,r15
    10002228:	b4 07 08 7d 	extsw   r8,r8
    1000222c:	e8 ff ff 4b 	b       10002214 <printf_core+0x1428>
    10002230:	fc ff 4a 39 	addi    r10,r10,-4
    10002234:	04 00 ca 90 	stw     r6,4(r10)
    10002238:	40 d0 aa 7f 	cmpld   cr7,r10,r26
    1000223c:	0c 00 9c 40 	bge     cr7,10002248 <printf_core+0x145c>
    10002240:	fc ff da 90 	stw     r6,-4(r26)
    10002244:	fc ff 5a 3b 	addi    r26,r26,-4
    10002248:	00 00 0a 81 	lwz     r8,0(r10)
    1000224c:	01 00 08 39 	addi    r8,r8,1
    10002250:	00 00 0a 91 	stw     r8,0(r10)
    10002254:	9c ff ff 4b 	b       100021f0 <printf_core+0x1404>
    10002258:	fe ff 39 3b 	addi    r25,r25,-2
    1000225c:	ff ff ff 3b 	addi    r31,r31,-1
    10002260:	b4 07 39 7f 	extsw   r25,r25
    10002264:	cc fd ff 4b 	b       10002030 <printf_core+0x1244>
    10002268:	0a 00 08 1d 	mulli   r8,r8,10
    1000226c:	01 00 2a 39 	addi    r9,r10,1
    10002270:	b4 07 2a 7d 	extsw   r10,r9
    10002274:	b4 07 08 7d 	extsw   r8,r8
    10002278:	96 43 26 7d 	divwu   r9,r6,r8
    1000227c:	d6 41 29 7d 	mullw   r9,r9,r8
    10002280:	00 30 09 7c 	cmpw    r9,r6
    10002284:	e4 ff 82 41 	beq     10002268 <printf_core+0x147c>
    10002288:	cc fd ff 4b 	b       10002054 <printf_core+0x1268>
    1000228c:	00 00 40 39 	li      r10,0
    10002290:	0a 00 00 39 	li      r8,10
    10002294:	e4 ff ff 4b 	b       10002278 <printf_core+0x148c>
    10002298:	14 4a 2f 7d 	add     r9,r15,r9
    1000229c:	d4 fd ff 4b 	b       10002070 <printf_core+0x1284>
    100022a0:	70 fe e3 7d 	srawi   r3,r15,31
    100022a4:	64 02 81 38 	addi    r4,r1,612
    100022a8:	d0 02 21 f9 	std     r9,720(r1)
    100022ac:	a8 02 e1 f8 	std     r7,680(r1)
    100022b0:	78 7a 6a 7c 	xor     r10,r3,r15
    100022b4:	50 50 63 7c 	subf    r3,r3,r10
    100022b8:	b4 07 63 7c 	extsw   r3,r3
    100022bc:	89 e9 ff 4b 	bl      10000c44 <fmt_u>
    100022c0:	64 02 81 38 	addi    r4,r1,612
    100022c4:	a8 02 e1 e8 	ld      r7,680(r1)
    100022c8:	d0 02 21 e9 	ld      r9,720(r1)
    100022cc:	30 00 c0 38 	li      r6,48
    100022d0:	50 08 03 7d 	subf    r8,r3,r1
    100022d4:	50 18 44 7d 	subf    r10,r4,r3
    100022d8:	64 02 08 39 	addi    r8,r8,612
    100022dc:	03 00 4a 39 	addi    r10,r10,3
    100022e0:	02 00 28 2c 	cmpdi   r8,2
    100022e4:	08 00 81 40 	ble     100022ec <printf_core+0x1500>
    100022e8:	01 00 40 39 	li      r10,1
    100022ec:	01 00 2a 2c 	cmpdi   r10,1
    100022f0:	ff ff 4a 39 	addi    r10,r10,-1
    100022f4:	3c 00 82 40 	bne     10002330 <printf_core+0x1544>
    100022f8:	00 00 0f 2c 	cmpwi   r15,0
    100022fc:	2d 00 40 39 	li      r10,45
    10002300:	08 00 80 41 	blt     10002308 <printf_core+0x151c>
    10002304:	2b 00 40 39 	li      r10,43
    10002308:	ff ff 43 99 	stb     r10,-1(r3)
    1000230c:	fe ff 43 39 	addi    r10,r3,-2
    10002310:	fe ff 23 9b 	stb     r25,-2(r3)
    10002314:	50 20 8a 7c 	subf    r4,r10,r4
    10002318:	00 48 24 7c 	cmpd    r4,r9
    1000231c:	a8 02 41 f9 	std     r10,680(r1)
    10002320:	a4 f4 81 41 	bgt     100017c4 <printf_core+0x9d8>
    10002324:	14 72 84 7c 	add     r4,r4,r14
    10002328:	b4 07 84 7c 	extsw   r4,r4
    1000232c:	cc fd ff 4b 	b       100020f8 <printf_core+0x130c>
    10002330:	ff ff c3 9c 	stbu    r6,-1(r3)
    10002334:	b8 ff ff 4b 	b       100022ec <printf_core+0x1500>
    10002338:	00 00 71 80 	lwz     r3,0(r17)
    1000233c:	78 73 c4 7d 	mr      r4,r14
    10002340:	05 e9 ff 4b 	bl      10000c44 <fmt_u>
    10002344:	40 88 34 7c 	cmpld   r20,r17
    10002348:	78 1b 64 7c 	mr      r4,r3
    1000234c:	78 1b 68 7c 	mr      r8,r3
    10002350:	64 00 82 41 	beq     100023b4 <printf_core+0x15c8>
    10002354:	40 02 e1 38 	addi    r7,r1,576
    10002358:	50 18 3a 7d 	subf    r9,r26,r3
    1000235c:	40 38 23 7c 	cmpld   r3,r7
    10002360:	01 00 29 39 	addi    r9,r9,1
    10002364:	0c 00 80 41 	blt     10002370 <printf_core+0x1584>
    10002368:	bf fd 21 2c 	cmpdi   r1,-577
    1000236c:	08 00 82 40 	bne     10002374 <printf_core+0x1588>
    10002370:	01 00 20 39 	li      r9,1
    10002374:	01 00 29 2c 	cmpdi   r9,1
    10002378:	ff ff 29 39 	addi    r9,r9,-1
    1000237c:	2c 00 82 40 	bne     100023a8 <printf_core+0x15bc>
    10002380:	40 d0 24 7c 	cmpld   r4,r26
    10002384:	00 00 20 39 	li      r9,0
    10002388:	08 00 80 41 	blt     10002390 <printf_core+0x15a4>
    1000238c:	50 d0 24 7d 	subf    r9,r4,r26
    10002390:	14 4a 84 7c 	add     r4,r4,r9
    10002394:	50 70 a4 7c 	subf    r5,r4,r14
    10002398:	78 e3 83 7f 	mr      r3,r28
    1000239c:	5d e9 ff 4b 	bl      10000cf8 <out+0x8>
    100023a0:	04 00 31 3a 	addi    r17,r17,4
    100023a4:	d8 fd ff 4b 	b       1000217c <printf_core+0x1390>
    100023a8:	30 00 40 39 	li      r10,48
    100023ac:	ff ff 48 9d 	stbu    r10,-1(r8)
    100023b0:	c4 ff ff 4b 	b       10002374 <printf_core+0x1588>
    100023b4:	00 70 23 7c 	cmpd    r3,r14
    100023b8:	dc ff 82 40 	bne     10002394 <printf_core+0x15a8>
    100023bc:	48 02 e1 9a 	stb     r23,584(r1)
    100023c0:	48 02 81 38 	addi    r4,r1,584
    100023c4:	d0 ff ff 4b 	b       10002394 <printf_core+0x15a8>
    100023c8:	00 00 7a 80 	lwz     r3,0(r26)
    100023cc:	49 02 81 38 	addi    r4,r1,585
    100023d0:	75 e8 ff 4b 	bl      10000c44 <fmt_u>
    100023d4:	40 02 01 39 	addi    r8,r1,576
    100023d8:	40 40 23 7c 	cmpld   r3,r8
    100023dc:	50 18 38 7d 	subf    r9,r24,r3
    100023e0:	78 1b 6a 7c 	mr      r10,r3
    100023e4:	01 00 29 39 	addi    r9,r9,1
    100023e8:	0c 00 80 41 	blt     100023f4 <printf_core+0x1608>
    100023ec:	bf fd 21 2c 	cmpdi   r1,-577
    100023f0:	08 00 82 40 	bne     100023f8 <printf_core+0x160c>
    100023f4:	01 00 20 39 	li      r9,1
    100023f8:	01 00 29 2c 	cmpdi   r9,1
    100023fc:	ff ff 29 39 	addi    r9,r9,-1
    10002400:	7c 00 82 40 	bne     1000247c <printf_core+0x1690>
    10002404:	40 c0 23 7c 	cmpld   r3,r24
    10002408:	00 00 80 38 	li      r4,0
    1000240c:	08 00 80 41 	blt     10002414 <printf_core+0x1628>
    10002410:	50 c0 83 7c 	subf    r4,r3,r24
    10002414:	09 00 1d 2c 	cmpwi   r29,9
    10002418:	78 eb a5 7f 	mr      r5,r29
    1000241c:	08 00 81 40 	ble     10002424 <printf_core+0x1638>
    10002420:	09 00 a0 38 	li      r5,9
    10002424:	14 22 83 7c 	add     r4,r3,r4
    10002428:	b4 07 a5 7c 	extsw   r5,r5
    1000242c:	78 e3 83 7f 	mr      r3,r28
    10002430:	f7 ff bd 3b 	addi    r29,r29,-9
    10002434:	c5 e8 ff 4b 	bl      10000cf8 <out+0x8>
    10002438:	04 00 5a 3b 	addi    r26,r26,4
    1000243c:	b4 07 bd 7f 	extsw   r29,r29
    10002440:	40 d0 32 7c 	cmpld   r18,r26
    10002444:	0c 00 81 40 	ble     10002450 <printf_core+0x1664>
    10002448:	00 00 1d 2c 	cmpwi   r29,0
    1000244c:	7c ff 81 41 	bgt     100023c8 <printf_core+0x15dc>
    10002450:	09 00 bd 38 	addi    r5,r29,9
    10002454:	00 00 e0 38 	li      r7,0
    10002458:	09 00 c0 38 	li      r6,9
    1000245c:	b4 07 a5 7c 	extsw   r5,r5
    10002460:	30 00 80 38 	li      r4,48
    10002464:	78 e3 83 7f 	mr      r3,r28
    10002468:	e5 e8 ff 4b 	bl      10000d4c <pad+0x8>
    1000246c:	00 20 c7 6b 	xori    r7,r30,8192
    10002470:	78 7b e6 7d 	mr      r6,r15
    10002474:	b4 07 e7 7c 	extsw   r7,r7
    10002478:	14 f7 ff 4b 	b       10001b8c <printf_core+0xda0>
    1000247c:	ff ff ea 9f 	stbu    r31,-1(r10)
    10002480:	78 ff ff 4b 	b       100023f8 <printf_core+0x160c>
    10002484:	40 d0 32 7c 	cmpld   r18,r26
    10002488:	08 00 81 41 	bgt     10002490 <printf_core+0x16a4>
    1000248c:	04 00 5a 3a 	addi    r18,r26,4
    10002490:	78 d3 5d 7f 	mr      r29,r26
    10002494:	49 02 01 3b 	addi    r24,r1,585
    10002498:	30 00 80 3a 	li      r20,48
    1000249c:	40 02 e1 3a 	addi    r23,r1,576
    100024a0:	40 90 3d 7c 	cmpld   r29,r18
    100024a4:	0c 00 80 40 	bge     100024b0 <printf_core+0x16c4>
    100024a8:	00 00 1f 2c 	cmpwi   r31,0
    100024ac:	3c 00 80 40 	bge     100024e8 <printf_core+0x16fc>
    100024b0:	12 00 bf 38 	addi    r5,r31,18
    100024b4:	78 e3 83 7f 	mr      r3,r28
    100024b8:	00 00 e0 38 	li      r7,0
    100024bc:	12 00 c0 38 	li      r6,18
    100024c0:	b4 07 a5 7c 	extsw   r5,r5
    100024c4:	30 00 80 38 	li      r4,48
    100024c8:	85 e8 ff 4b 	bl      10000d4c <pad+0x8>
    100024cc:	a8 02 21 e9 	ld      r9,680(r1)
    100024d0:	64 02 a1 38 	addi    r5,r1,612
    100024d4:	78 e3 83 7f 	mr      r3,r28
    100024d8:	50 28 a9 7c 	subf    r5,r9,r5
    100024dc:	78 4b 24 7d 	mr      r4,r9
    100024e0:	19 e8 ff 4b 	bl      10000cf8 <out+0x8>
    100024e4:	88 ff ff 4b 	b       1000246c <printf_core+0x1680>
    100024e8:	00 00 7d 80 	lwz     r3,0(r29)
    100024ec:	78 c3 04 7f 	mr      r4,r24
    100024f0:	55 e7 ff 4b 	bl      10000c44 <fmt_u>
    100024f4:	00 c0 23 7c 	cmpd    r3,r24
    100024f8:	78 1b 64 7c 	mr      r4,r3
    100024fc:	0c 00 82 40 	bne     10002508 <printf_core+0x171c>
    10002500:	48 02 81 9a 	stb     r20,584(r1)
    10002504:	48 02 81 38 	addi    r4,r1,584
    10002508:	40 e8 3a 7c 	cmpld   r26,r29
    1000250c:	20 00 f0 7b 	clrldi  r16,r31,32
    10002510:	78 23 8a 7c 	mr      r10,r4
    10002514:	84 00 82 41 	beq     10002598 <printf_core+0x17ac>
    10002518:	40 02 01 39 	addi    r8,r1,576
    1000251c:	50 20 37 7d 	subf    r9,r23,r4
    10002520:	40 40 24 7c 	cmpld   r4,r8
    10002524:	01 00 29 39 	addi    r9,r9,1
    10002528:	0c 00 80 41 	blt     10002534 <printf_core+0x1748>
    1000252c:	bf fd 21 2c 	cmpdi   r1,-577
    10002530:	08 00 82 40 	bne     10002538 <printf_core+0x174c>
    10002534:	01 00 20 39 	li      r9,1
    10002538:	01 00 29 2c 	cmpdi   r9,1
    1000253c:	ff ff 29 39 	addi    r9,r9,-1
    10002540:	50 00 82 40 	bne     10002590 <printf_core+0x17a4>
    10002544:	40 b8 24 7c 	cmpld   r4,r23
    10002548:	00 00 c0 39 	li      r14,0
    1000254c:	08 00 80 41 	blt     10002554 <printf_core+0x1768>
    10002550:	50 b8 c4 7d 	subf    r14,r4,r23
    10002554:	14 72 c4 7d 	add     r14,r4,r14
    10002558:	50 c0 2e 7d 	subf    r9,r14,r24
    1000255c:	78 fb e5 7f 	mr      r5,r31
    10002560:	00 48 3f 7c 	cmpd    r31,r9
    10002564:	08 00 81 40 	ble     1000256c <printf_core+0x1780>
    10002568:	78 4b 25 7d 	mr      r5,r9
    1000256c:	78 73 c4 7d 	mr      r4,r14
    10002570:	78 e3 83 7f 	mr      r3,r28
    10002574:	d0 02 21 f9 	std     r9,720(r1)
    10002578:	81 e7 ff 4b 	bl      10000cf8 <out+0x8>
    1000257c:	d0 02 21 e9 	ld      r9,720(r1)
    10002580:	04 00 bd 3b 	addi    r29,r29,4
    10002584:	50 80 29 7d 	subf    r9,r9,r16
    10002588:	b4 07 3f 7d 	extsw   r31,r9
    1000258c:	14 ff ff 4b 	b       100024a0 <printf_core+0x16b4>
    10002590:	ff ff 8a 9e 	stbu    r20,-1(r10)
    10002594:	a4 ff ff 4b 	b       10002538 <printf_core+0x174c>
    10002598:	01 00 a0 38 	li      r5,1
    1000259c:	78 e3 83 7f 	mr      r3,r28
    100025a0:	01 00 c4 39 	addi    r14,r4,1
    100025a4:	55 e7 ff 4b 	bl      10000cf8 <out+0x8>
    100025a8:	78 83 29 7e 	or      r9,r17,r16
    100025ac:	00 00 09 2c 	cmpwi   r9,0
    100025b0:	a8 ff 82 41 	beq     10002558 <printf_core+0x176c>
    100025b4:	b8 02 81 e8 	ld      r4,696(r1)
    100025b8:	01 00 a0 38 	li      r5,1
    100025bc:	78 e3 83 7f 	mr      r3,r28
    100025c0:	39 e7 ff 4b 	bl      10000cf8 <out+0x8>
    100025c4:	94 ff ff 4b 	b       10002558 <printf_core+0x176c>
    100025c8:	78 ab ba 7e 	mr      r26,r21
    100025cc:	40 02 21 39 	addi    r9,r1,576
    100025d0:	dc ee ff 4b 	b       100014ac <printf_core+0x6c0>
    100025d4:	78 4b 38 7d 	mr      r24,r9
    100025d8:	d4 ee ff 4b 	b       100014ac <printf_core+0x6c0>
    100025dc:	a0 02 21 e9 	ld      r9,672(r1)
    100025e0:	24 1f e3 7b 	rldicr  r3,r31,3,60
    100025e4:	78 9b 65 7e 	mr      r5,r19
    100025e8:	01 00 ff 3b 	addi    r31,r31,1
    100025ec:	14 1a 69 7c 	add     r3,r9,r3
    100025f0:	81 e5 ff 4b 	bl      10000b70 <pop_arg+0x8>
    100025f4:	0a 00 3f 28 	cmpldi  r31,10
    100025f8:	a4 e8 82 40 	bne     10000e9c <printf_core+0xb0>
    100025fc:	01 00 c0 3a 	li      r22,1
    10002600:	30 ec ff 4b 	b       10001230 <printf_core+0x444>
    10002604:	00 00 00 00 	.long 0x0
    10002608:	00 00 02 03 	.long 0x3020000
    1000260c:	82 12 00 00 	.long 0x1282

0000000010002610 <vfprintf>:
    10002610:	02 10 40 3c 	lis     r2,4098
    10002614:	00 7f 42 38 	addi    r2,r2,32512
    10002618:	a6 02 08 7c 	mflr    r0
    1000261c:	8c 03 00 10 	vspltisw v0,0
    10002620:	c0 00 20 39 	li      r9,192
    10002624:	8d 1d 00 48 	bl      100043b0 <_savegpr0_26>
    10002628:	e1 fe 21 f8 	stdu    r1,-288(r1)
    1000262c:	78 1b 7f 7c 	mr      r31,r3
    10002630:	00 00 60 38 	li      r3,0
    10002634:	78 23 9a 7c 	mr      r26,r4
    10002638:	ff ff c0 3b 	li      r30,-1
    1000263c:	ce 49 01 7c 	stvx    v0,r1,r9
    10002640:	d0 00 20 39 	li      r9,208
    10002644:	e8 00 a1 f8 	std     r5,232(r1)
    10002648:	c0 00 e1 38 	addi    r7,r1,192
    1000264c:	70 00 c1 38 	addi    r6,r1,112
    10002650:	e8 00 a1 38 	addi    r5,r1,232
    10002654:	ce 49 01 7c 	stvx    v0,r1,r9
    10002658:	00 00 20 39 	li      r9,0
    1000265c:	e0 00 21 f9 	std     r9,224(r1)
    10002660:	95 e7 ff 4b 	bl      10000df4 <printf_core+0x8>
    10002664:	00 00 03 2c 	cmpwi   r3,0
    10002668:	1c 01 80 41 	blt     10002784 <vfprintf+0x174>
    1000266c:	8e 00 3f e9 	lwa     r9,140(r31)
    10002670:	00 00 80 3b 	li      r28,0
    10002674:	00 00 09 2c 	cmpwi   r9,0
    10002678:	14 00 80 41 	blt     1000268c <vfprintf+0x7c>
    1000267c:	78 fb e3 7f 	mr      r3,r31
    10002680:	b5 08 00 48 	bl      10002f34 <__lockfile+0x8>
    10002684:	00 00 00 60 	nop
    10002688:	78 1b 7c 7c 	mr      r28,r3
    1000268c:	88 00 5f 81 	lwz     r10,136(r31)
    10002690:	00 00 3f 81 	lwz     r9,0(r31)
    10002694:	00 00 0a 2c 	cmpwi   r10,0
    10002698:	b4 06 3b 55 	rlwinm  r27,r9,0,26,26
    1000269c:	0c 00 81 41 	bgt     100026a8 <vfprintf+0x98>
    100026a0:	f2 06 29 55 	rlwinm  r9,r9,0,27,25
    100026a4:	00 00 3f 91 	stw     r9,0(r31)
    100026a8:	60 00 3f e9 	ld      r9,96(r31)
    100026ac:	00 00 29 2c 	cmpdi   r9,0
    100026b0:	e0 00 82 40 	bne     10002790 <vfprintf+0x180>
    100026b4:	20 00 41 39 	addi    r10,r1,32
    100026b8:	58 00 bf eb 	ld      r29,88(r31)
    100026bc:	20 00 3f f9 	std     r9,32(r31)
    100026c0:	38 00 3f f9 	std     r9,56(r31)
    100026c4:	28 00 3f f9 	std     r9,40(r31)
    100026c8:	58 00 5f f9 	std     r10,88(r31)
    100026cc:	50 00 40 39 	li      r10,80
    100026d0:	60 00 5f f9 	std     r10,96(r31)
    100026d4:	78 fb e3 7f 	mr      r3,r31
    100026d8:	ff ff c0 3b 	li      r30,-1
    100026dc:	05 0b 00 48 	bl      100031e0 <__towrite>
    100026e0:	00 00 00 60 	nop
    100026e4:	00 00 23 2c 	cmpdi   r3,0
    100026e8:	20 00 82 40 	bne     10002708 <vfprintf+0xf8>
    100026ec:	c0 00 e1 38 	addi    r7,r1,192
    100026f0:	70 00 c1 38 	addi    r6,r1,112
    100026f4:	e8 00 a1 38 	addi    r5,r1,232
    100026f8:	78 d3 44 7f 	mr      r4,r26
    100026fc:	78 fb e3 7f 	mr      r3,r31
    10002700:	f5 e6 ff 4b 	bl      10000df4 <printf_core+0x8>
    10002704:	78 1b 7e 7c 	mr      r30,r3
    10002708:	00 00 3d 2c 	cmpdi   r29,0
    1000270c:	4c 00 82 41 	beq     10002758 <vfprintf+0x148>
    10002710:	48 00 9f e9 	ld      r12,72(r31)
    10002714:	18 00 41 f8 	std     r2,24(r1)
    10002718:	00 00 a0 38 	li      r5,0
    1000271c:	00 00 80 38 	li      r4,0
    10002720:	78 fb e3 7f 	mr      r3,r31
    10002724:	a6 03 89 7d 	mtctr   r12
    10002728:	21 04 80 4e 	bctrl
    1000272c:	18 00 41 e8 	ld      r2,24(r1)
    10002730:	28 00 3f e9 	ld      r9,40(r31)
    10002734:	00 00 29 2c 	cmpdi   r9,0
    10002738:	08 00 82 40 	bne     10002740 <vfprintf+0x130>
    1000273c:	ff ff c0 3b 	li      r30,-1
    10002740:	00 00 20 39 	li      r9,0
    10002744:	58 00 bf fb 	std     r29,88(r31)
    10002748:	60 00 3f f9 	std     r9,96(r31)
    1000274c:	20 00 3f f9 	std     r9,32(r31)
    10002750:	38 00 3f f9 	std     r9,56(r31)
    10002754:	28 00 3f f9 	std     r9,40(r31)
    10002758:	00 00 3f 81 	lwz     r9,0(r31)
    1000275c:	20 00 2a 71 	andi.   r10,r9,32
    10002760:	08 00 82 41 	beq     10002768 <vfprintf+0x158>
    10002764:	ff ff c0 3b 	li      r30,-1
    10002768:	00 00 3c 2c 	cmpdi   r28,0
    1000276c:	78 4b 7b 7f 	or      r27,r27,r9
    10002770:	00 00 7f 93 	stw     r27,0(r31)
    10002774:	10 00 82 41 	beq     10002784 <vfprintf+0x174>
    10002778:	78 fb e3 7f 	mr      r3,r31
    1000277c:	a9 08 00 48 	bl      10003024 <__unlockfile>
    10002780:	00 00 00 60 	nop
    10002784:	20 01 21 38 	addi    r1,r1,288
    10002788:	78 f3 c3 7f 	mr      r3,r30
    1000278c:	48 1c 00 48 	b       100043d4 <_restgpr0_26>
    10002790:	20 00 bf eb 	ld      r29,32(r31)
    10002794:	00 00 3d 2c 	cmpdi   r29,0
    10002798:	3c ff 82 41 	beq     100026d4 <vfprintf+0xc4>
    1000279c:	00 00 a0 3b 	li      r29,0
    100027a0:	4c ff ff 4b 	b       100026ec <vfprintf+0xdc>
    100027a4:	00 00 00 00 	.long 0x0
    100027a8:	00 00 00 01 	.long 0x1000000
    100027ac:	80 06 00 00 	.long 0x680

00000000100027b0 <memset>:
    100027b0:	00 00 25 2c 	cmpdi   r5,0
    100027b4:	20 00 82 4d 	beqlr   
    100027b8:	02 00 25 28 	cmpldi  r5,2
    100027bc:	3e 06 89 54 	clrlwi  r9,r4,24
    100027c0:	14 2a 03 7d 	add     r8,r3,r5
    100027c4:	00 00 23 99 	stb     r9,0(r3)
    100027c8:	ff ff 28 99 	stb     r9,-1(r8)
    100027cc:	20 00 81 4c 	blelr   
    100027d0:	06 00 25 28 	cmpldi  r5,6
    100027d4:	2e 40 2a 55 	rlwinm  r10,r9,8,0,23
    100027d8:	78 4b 4a 7d 	or      r10,r10,r9
    100027dc:	01 00 43 b1 	sth     r10,1(r3)
    100027e0:	fd ff 48 b1 	sth     r10,-3(r8)
    100027e4:	20 00 81 4c 	blelr   
    100027e8:	08 00 25 28 	cmpldi  r5,8
    100027ec:	03 00 23 99 	stb     r9,3(r3)
    100027f0:	fc ff 28 99 	stb     r9,-4(r8)
    100027f4:	20 00 81 4c 	blelr   
    100027f8:	d0 00 23 7d 	neg     r9,r3
    100027fc:	3e 06 8a 54 	clrlwi  r10,r4,24
    10002800:	a0 07 29 79 	clrldi  r9,r9,62
    10002804:	2e 44 84 54 	rlwinm  r4,r4,8,16,23
    10002808:	50 28 a9 7c 	subf    r5,r9,r5
    1000280c:	14 52 84 7c 	add     r4,r4,r10
    10002810:	64 07 a5 78 	rldicr  r5,r5,0,61
    10002814:	14 4a 03 7d 	add     r8,r3,r9
    10002818:	08 00 25 28 	cmpldi  r5,8
    1000281c:	1e 80 8a 54 	rlwinm  r10,r4,16,0,15
    10002820:	14 52 84 7c 	add     r4,r4,r10
    10002824:	14 2a c8 7c 	add     r6,r8,r5
    10002828:	20 00 87 78 	clrldi  r7,r4,32
    1000282c:	2e 49 83 7c 	stwx    r4,r3,r9
    10002830:	fc ff 86 90 	stw     r4,-4(r6)
    10002834:	20 00 81 4c 	blelr   
    10002838:	18 00 25 28 	cmpldi  r5,24
    1000283c:	c6 07 ea 78 	rldicr  r10,r7,32,31
    10002840:	78 53 e4 7c 	or      r4,r7,r10
    10002844:	04 00 88 f8 	std     r4,4(r8)
    10002848:	f4 ff 86 f8 	std     r4,-12(r6)
    1000284c:	20 00 81 4c 	blelr   
    10002850:	66 01 07 7c 	mtvsrd  vs0,r7
    10002854:	e8 ff a5 38 	addi    r5,r5,-24
    10002858:	7a 07 04 55 	rlwinm  r4,r8,0,29,29
    1000285c:	50 28 a4 7c 	subf    r5,r4,r5
    10002860:	0c 00 00 38 	li      r0,12
    10002864:	1f 00 25 28 	cmpldi  r5,31
    10002868:	e4 ff 60 39 	li      r11,-28
    1000286c:	78 3b 4a 7d 	or      r10,r10,r7
    10002870:	90 02 01 f0 	xxspltw vs0,vs0,1
    10002874:	98 07 08 7c 	stxvd2x vs0,r8,r0
    10002878:	98 5f 06 7c 	stxvd2x vs0,r6,r11
    1000287c:	20 00 81 4c 	blelr   
    10002880:	e0 ff a5 38 	addi    r5,r5,-32
    10002884:	66 01 0a 7c 	mtvsrd  vs0,r10
    10002888:	18 00 29 39 	addi    r9,r9,24
    1000288c:	42 d9 a5 78 	rldicl  r5,r5,59,5
    10002890:	14 22 29 7d 	add     r9,r9,r4
    10002894:	01 00 45 39 	addi    r10,r5,1
    10002898:	14 4a 23 7d 	add     r9,r3,r9
    1000289c:	01 00 48 71 	andi.   r8,r10,1
    100028a0:	10 00 e9 38 	addi    r7,r9,16
    100028a4:	00 00 00 39 	li      r8,0
    100028a8:	50 00 00 f0 	xxspltd vs0,vs0,0
    100028ac:	34 00 82 40 	bne     100028e0 <memset+0x130>
    100028b0:	42 f8 4a 79 	rldicl  r10,r10,63,1
    100028b4:	a6 03 49 7d 	mtctr   r10
    100028b8:	98 47 09 7c 	stxvd2x vs0,r9,r8
    100028bc:	20 00 48 39 	addi    r10,r8,32
    100028c0:	98 47 07 7c 	stxvd2x vs0,r7,r8
    100028c4:	40 00 08 39 	addi    r8,r8,64
    100028c8:	98 57 09 7c 	stxvd2x vs0,r9,r10
    100028cc:	98 57 07 7c 	stxvd2x vs0,r7,r10
    100028d0:	e8 ff 00 42 	bdnz    100028b8 <memset+0x108>
    100028d4:	20 00 80 4e 	blr
    100028d8:	00 00 00 60 	nop
    100028dc:	00 00 42 60 	ori     r2,r2,0
    100028e0:	98 4f 00 7c 	stxvd2x vs0,0,r9
    100028e4:	00 00 25 2c 	cmpdi   r5,0
    100028e8:	20 00 00 39 	li      r8,32
    100028ec:	98 3f 00 7c 	stxvd2x vs0,0,r7
    100028f0:	c0 ff 82 40 	bne     100028b0 <memset+0x100>
    100028f4:	20 00 80 4e 	blr
	...
    10002904:	00 00 00 60 	nop
    10002908:	00 00 00 60 	nop
    1000290c:	00 00 00 60 	nop

0000000010002910 <strnlen>:
    10002910:	02 10 40 3c 	lis     r2,4098
    10002914:	00 7f 42 38 	addi    r2,r2,32512
    10002918:	a6 02 08 7c 	mflr    r0
    1000291c:	f0 ff c1 fb 	std     r30,-16(r1)
    10002920:	f8 ff e1 fb 	std     r31,-8(r1)
    10002924:	78 23 9f 7c 	mr      r31,r4
    10002928:	78 fb e5 7f 	mr      r5,r31
    1000292c:	00 00 80 38 	li      r4,0
    10002930:	78 1b 7e 7c 	mr      r30,r3
    10002934:	10 00 01 f8 	std     r0,16(r1)
    10002938:	d1 ff 21 f8 	stdu    r1,-48(r1)
    1000293c:	15 0b 00 48 	bl      10003450 <memchr>
    10002940:	00 00 00 60 	nop
    10002944:	00 00 23 2c 	cmpdi   r3,0
    10002948:	28 00 82 41 	beq     10002970 <strnlen+0x60>
    1000294c:	30 00 21 38 	addi    r1,r1,48
    10002950:	50 18 7e 7c 	subf    r3,r30,r3
    10002954:	10 00 01 e8 	ld      r0,16(r1)
    10002958:	f0 ff c1 eb 	ld      r30,-16(r1)
    1000295c:	f8 ff e1 eb 	ld      r31,-8(r1)
    10002960:	a6 03 08 7c 	mtlr    r0
    10002964:	20 00 80 4e 	blr
    10002968:	00 00 00 60 	nop
    1000296c:	00 00 42 60 	ori     r2,r2,0
    10002970:	30 00 21 38 	addi    r1,r1,48
    10002974:	78 fb e3 7f 	mr      r3,r31
    10002978:	10 00 01 e8 	ld      r0,16(r1)
    1000297c:	f0 ff c1 eb 	ld      r30,-16(r1)
    10002980:	f8 ff e1 eb 	ld      r31,-8(r1)
    10002984:	a6 03 08 7c 	mtlr    r0
    10002988:	20 00 80 4e 	blr
    1000298c:	00 00 00 00 	.long 0x0
    10002990:	00 00 00 01 	.long 0x1000000
    10002994:	80 02 00 00 	.long 0x280

0000000010002998 <__init_tp>:
    10002998:	02 10 40 3c 	lis     r2,4098
    1000299c:	00 7f 42 38 	addi    r2,r2,32512
    100029a0:	a6 02 08 7c 	mflr    r0
    100029a4:	f8 ff e1 fb 	std     r31,-8(r1)
    100029a8:	78 1b 7f 7c 	mr      r31,r3
    100029ac:	10 00 01 f8 	std     r0,16(r1)
    100029b0:	d1 ff 21 f8 	stdu    r1,-48(r1)
    100029b4:	00 00 63 f8 	std     r3,0(r3)
    100029b8:	c8 70 63 38 	addi    r3,r3,28872
    100029bc:	91 11 00 48 	bl      10003b4c <__set_thread_area>
    100029c0:	00 00 00 60 	nop
    100029c4:	00 00 03 2c 	cmpwi   r3,0
    100029c8:	70 00 80 41 	blt     10002a38 <__init_tp+0xa0>
    100029cc:	00 00 23 2c 	cmpdi   r3,0
    100029d0:	10 00 82 40 	bne     100029e0 <__init_tp+0x48>
    100029d4:	01 00 20 39 	li      r9,1
    100029d8:	00 00 00 60 	nop
    100029dc:	50 82 22 99 	stb     r9,-32176(r2)
    100029e0:	02 00 20 39 	li      r9,2
    100029e4:	00 00 00 60 	nop
    100029e8:	e8 00 00 38 	li      r0,232
    100029ec:	d8 86 62 38 	addi    r3,r2,-31016
    100029f0:	28 00 3f 91 	stw     r9,40(r31)
    100029f4:	02 00 00 44 	sc      
    100029f8:	08 00 e3 40 	bns+    10002a00 <__init_tp+0x68>
    100029fc:	d0 00 63 7c 	neg     r3,r3
    10002a00:	00 00 00 60 	nop
    10002a04:	88 82 22 39 	addi    r9,r2,-32120
    10002a08:	08 00 ff fb 	std     r31,8(r31)
    10002a0c:	10 00 ff fb 	std     r31,16(r31)
    10002a10:	20 00 7f 90 	stw     r3,32(r31)
    10002a14:	00 00 60 38 	li      r3,0
    10002a18:	98 00 3f f9 	std     r9,152(r31)
    10002a1c:	78 00 3f 39 	addi    r9,r31,120
    10002a20:	78 00 3f f9 	std     r9,120(r31)
    10002a24:	00 00 00 60 	nop
    10002a28:	40 82 22 e9 	ld      r9,-32192(r2)
    10002a2c:	18 00 3f f9 	std     r9,24(r31)
    10002a30:	30 00 21 38 	addi    r1,r1,48
    10002a34:	c4 19 00 48 	b       100043f8 <_restgpr0_31>
    10002a38:	ff ff 60 38 	li      r3,-1
    10002a3c:	f4 ff ff 4b 	b       10002a30 <__init_tp+0x98>
    10002a40:	00 00 00 00 	.long 0x0
    10002a44:	00 00 00 01 	.long 0x1000000
    10002a48:	80 01 00 00 	.long 0x180

0000000010002a4c <__copy_tls>:
    10002a4c:	02 10 40 3c 	lis     r2,4098
    10002a50:	00 7f 42 38 	addi    r2,r2,32512
    10002a54:	a6 02 08 7c 	mflr    r0
    10002a58:	00 00 00 60 	nop
    10002a5c:	68 82 22 e9 	ld      r9,-32152(r2)
    10002a60:	f8 ff 29 39 	addi    r9,r9,-8
    10002a64:	49 19 00 48 	bl      100043ac <_savegpr0_25>
    10002a68:	00 00 00 60 	nop
    10002a6c:	78 82 a2 eb 	ld      r29,-32136(r2)
    10002a70:	00 00 00 60 	nop
    10002a74:	70 82 e2 eb 	ld      r31,-32144(r2)
    10002a78:	a1 ff 21 f8 	stdu    r1,-96(r1)
    10002a7c:	78 1b 7c 7c 	mr      r28,r3
    10002a80:	00 00 00 60 	nop
    10002a84:	60 82 c2 eb 	ld      r30,-32160(r2)
    10002a88:	24 1f bd 7b 	rldicr  r29,r29,3,60
    10002a8c:	ff ff ff 3b 	addi    r31,r31,-1
    10002a90:	50 48 bd 7f 	subf    r29,r29,r9
    10002a94:	38 ff 23 21 	subfic  r9,r3,-200
    10002a98:	38 48 ff 7f 	and     r31,r31,r9
    10002a9c:	14 ea 63 7f 	add     r27,r3,r29
    10002aa0:	14 fa e3 7f 	add     r31,r3,r31
    10002aa4:	78 db 7a 7f 	mr      r26,r27
    10002aa8:	c8 00 3f 3b 	addi    r25,r31,200
    10002aac:	00 00 3e 2c 	cmpdi   r30,0
    10002ab0:	20 00 82 40 	bne     10002ad0 <__copy_tls+0x84>
    10002ab4:	00 00 00 60 	nop
    10002ab8:	78 82 22 e9 	ld      r9,-32136(r2)
    10002abc:	60 00 21 38 	addi    r1,r1,96
    10002ac0:	78 fb e3 7f 	mr      r3,r31
    10002ac4:	2a e9 3c 7d 	stdx    r9,r28,r29
    10002ac8:	c0 00 7f fb 	std     r27,192(r31)
    10002acc:	04 19 00 48 	b       100043d0 <_restgpr0_25>
    10002ad0:	28 00 3e e9 	ld      r9,40(r30)
    10002ad4:	08 00 9e e8 	ld      r4,8(r30)
    10002ad8:	14 4a 39 7d 	add     r9,r25,r9
    10002adc:	01 00 29 3d 	addis   r9,r9,1
    10002ae0:	00 80 29 39 	addi    r9,r9,-32768
    10002ae4:	09 00 3a f9 	stdu    r9,8(r26)
    10002ae8:	28 00 7e e8 	ld      r3,40(r30)
    10002aec:	10 00 be e8 	ld      r5,16(r30)
    10002af0:	14 1a 79 7c 	add     r3,r25,r3
    10002af4:	2d 0b 00 48 	bl      10003620 <memcpy>
    10002af8:	00 00 00 60 	nop
    10002afc:	00 00 de eb 	ld      r30,0(r30)
    10002b00:	ac ff ff 4b 	b       10002aac <__copy_tls+0x60>
    10002b04:	00 00 00 00 	.long 0x0
    10002b08:	00 00 00 01 	.long 0x1000000
    10002b0c:	80 07 00 00 	.long 0x780

0000000010002b10 <__init_tls>:
    10002b10:	02 10 40 3c 	lis     r2,4098
    10002b14:	00 7f 42 38 	addi    r2,r2,32512
    10002b18:	a6 02 08 7c 	mflr    r0
    10002b1c:	00 00 00 60 	nop
    10002b20:	fc 81 a2 80 	lwz     r5,-32260(r2)
    10002b24:	00 00 80 38 	li      r4,0
    10002b28:	00 00 20 39 	li      r9,0
    10002b2c:	00 00 00 39 	li      r8,0
    10002b30:	80 00 80 3d 	lis     r12,128
    10002b34:	10 00 01 f8 	std     r0,16(r1)
    10002b38:	e1 ff 21 f8 	stdu    r1,-32(r1)
    10002b3c:	74 64 00 3c 	lis     r0,25716
    10002b40:	51 e5 00 60 	ori     r0,r0,58705
    10002b44:	28 00 c3 e8 	ld      r6,40(r3)
    10002b48:	18 00 63 e9 	ld      r11,24(r3)
    10002b4c:	01 00 e6 38 	addi    r7,r6,1
    10002b50:	78 5b 6a 7d 	mr      r10,r11
    10002b54:	a6 03 e9 7c 	mtctr   r7
    10002b58:	38 01 00 42 	bdnz    10002c90 <__init_tls+0x180>
    10002b5c:	00 00 24 2c 	cmpdi   r4,0
    10002b60:	0c 00 82 41 	beq     10002b6c <__init_tls+0x5c>
    10002b64:	00 00 00 60 	nop
    10002b68:	fc 81 a2 90 	stw     r5,-32260(r2)
    10002b6c:	00 00 28 2c 	cmpdi   r8,0
    10002b70:	54 00 82 41 	beq     10002bc4 <__init_tls+0xb4>
    10002b74:	10 00 48 e9 	ld      r10,16(r8)
    10002b78:	14 4a 2a 7d 	add     r9,r10,r9
    10002b7c:	00 00 00 60 	nop
    10002b80:	38 88 22 f9 	std     r9,-30664(r2)
    10002b84:	20 00 28 e9 	ld      r9,32(r8)
    10002b88:	00 00 00 60 	nop
    10002b8c:	40 88 22 f9 	std     r9,-30656(r2)
    10002b90:	28 00 28 e9 	ld      r9,40(r8)
    10002b94:	00 00 00 60 	nop
    10002b98:	48 88 22 f9 	std     r9,-30648(r2)
    10002b9c:	30 00 28 e9 	ld      r9,48(r8)
    10002ba0:	00 00 00 60 	nop
    10002ba4:	50 88 22 f9 	std     r9,-30640(r2)
    10002ba8:	01 00 20 39 	li      r9,1
    10002bac:	00 00 00 60 	nop
    10002bb0:	78 82 22 f9 	std     r9,-32136(r2)
    10002bb4:	00 00 00 60 	nop
    10002bb8:	00 00 00 60 	nop
    10002bbc:	30 88 22 39 	addi    r9,r2,-30672
    10002bc0:	60 82 22 f9 	std     r9,-32160(r2)
    10002bc4:	00 00 00 60 	nop
    10002bc8:	00 00 00 60 	nop
    10002bcc:	00 00 00 60 	nop
    10002bd0:	38 88 82 e8 	ld      r4,-30664(r2)
    10002bd4:	48 88 e2 e8 	ld      r7,-30648(r2)
    10002bd8:	50 88 22 e9 	ld      r9,-30640(r2)
    10002bdc:	14 22 47 7d 	add     r10,r7,r4
    10002be0:	ff ff 09 39 	addi    r8,r9,-1
    10002be4:	d0 00 4a 7d 	neg     r10,r10
    10002be8:	07 00 29 28 	cmpldi  r9,7
    10002bec:	38 40 4a 7d 	and     r10,r10,r8
    10002bf0:	38 40 88 7c 	and     r8,r4,r8
    10002bf4:	14 3a 4a 7d 	add     r10,r10,r7
    10002bf8:	00 00 00 60 	nop
    10002bfc:	48 88 42 f9 	std     r10,-30648(r2)
    10002c00:	58 88 02 f9 	std     r8,-30632(r2)
    10002c04:	0c 00 81 41 	bgt     10002c10 <__init_tls+0x100>
    10002c08:	08 00 20 39 	li      r9,8
    10002c0c:	50 88 22 f9 	std     r9,-30640(r2)
    10002c10:	00 00 00 60 	nop
    10002c14:	50 88 82 e8 	ld      r4,-30640(r2)
    10002c18:	00 00 00 60 	nop
    10002c1c:	00 00 00 60 	nop
    10002c20:	e0 86 62 38 	addi    r3,r2,-31008
    10002c24:	70 82 82 f8 	std     r4,-32144(r2)
    10002c28:	df 00 84 38 	addi    r4,r4,223
    10002c2c:	00 00 00 60 	nop
    10002c30:	14 42 84 7c 	add     r4,r4,r8
    10002c34:	14 52 84 7c 	add     r4,r4,r10
    10002c38:	24 07 84 78 	rldicr  r4,r4,0,60
    10002c3c:	50 01 24 28 	cmpldi  r4,336
    10002c40:	68 82 82 f8 	std     r4,-32152(r2)
    10002c44:	28 00 81 40 	ble     10002c6c <__init_tls+0x15c>
    10002c48:	5a 00 00 38 	li      r0,90
    10002c4c:	00 00 60 38 	li      r3,0
    10002c50:	03 00 a0 38 	li      r5,3
    10002c54:	22 00 c0 38 	li      r6,34
    10002c58:	ff ff e0 38 	li      r7,-1
    10002c5c:	00 00 00 39 	li      r8,0
    10002c60:	02 00 00 44 	sc      
    10002c64:	08 00 e3 40 	bns+    10002c6c <__init_tls+0x15c>
    10002c68:	d0 00 63 7c 	neg     r3,r3
    10002c6c:	e9 fd ff 4b 	bl      10002a54 <__copy_tls+0x8>
    10002c70:	31 fd ff 4b 	bl      100029a0 <__init_tp+0x8>
    10002c74:	00 00 03 2c 	cmpwi   r3,0
    10002c78:	08 00 80 40 	bge     10002c80 <__init_tls+0x170>
    10002c7c:	00 00 00 00 	.long 0x0
    10002c80:	20 00 21 38 	addi    r1,r1,32
    10002c84:	10 00 01 e8 	ld      r0,16(r1)
    10002c88:	a6 03 08 7c 	mtlr    r0
    10002c8c:	20 00 80 4e 	blr
    10002c90:	00 00 ca 80 	lwz     r6,0(r10)
    10002c94:	06 00 06 28 	cmplwi  r6,6
    10002c98:	18 00 82 40 	bne     10002cb0 <__init_tls+0x1a0>
    10002c9c:	10 00 2a e9 	ld      r9,16(r10)
    10002ca0:	50 58 29 7d 	subf    r9,r9,r11
    10002ca4:	20 00 e3 e8 	ld      r7,32(r3)
    10002ca8:	14 3a 4a 7d 	add     r10,r10,r7
    10002cac:	ac fe ff 4b 	b       10002b58 <__init_tls+0x48>
    10002cb0:	02 00 06 28 	cmplwi  r6,2
    10002cb4:	38 00 82 41 	beq     10002cec <__init_tls+0x1dc>
    10002cb8:	07 00 06 28 	cmplwi  r6,7
    10002cbc:	4c 00 82 41 	beq     10002d08 <__init_tls+0x1f8>
    10002cc0:	00 00 06 7c 	cmpw    r6,r0
    10002cc4:	e0 ff 82 40 	bne     10002ca4 <__init_tls+0x194>
    10002cc8:	28 00 ea e8 	ld      r7,40(r10)
    10002ccc:	40 28 27 7c 	cmpld   r7,r5
    10002cd0:	d4 ff 81 40 	ble     10002ca4 <__init_tls+0x194>
    10002cd4:	40 60 27 7c 	cmpld   r7,r12
    10002cd8:	08 00 81 40 	ble     10002ce0 <__init_tls+0x1d0>
    10002cdc:	80 00 e0 3c 	lis     r7,128
    10002ce0:	20 00 e5 78 	clrldi  r5,r7,32
    10002ce4:	01 00 80 38 	li      r4,1
    10002ce8:	bc ff ff 4b 	b       10002ca4 <__init_tls+0x194>
    10002cec:	00 00 00 60 	nop
    10002cf0:	20 80 e2 e8 	ld      r7,-32736(r2)
    10002cf4:	00 00 27 2c 	cmpdi   r7,0
    10002cf8:	ac ff 82 41 	beq     10002ca4 <__init_tls+0x194>
    10002cfc:	10 00 2a e9 	ld      r9,16(r10)
    10002d00:	50 38 29 7d 	subf    r9,r9,r7
    10002d04:	a0 ff ff 4b 	b       10002ca4 <__init_tls+0x194>
    10002d08:	78 53 48 7d 	mr      r8,r10
    10002d0c:	98 ff ff 4b 	b       10002ca4 <__init_tls+0x194>
    10002d10:	00 00 00 00 	.long 0x0
    10002d14:	00 00 00 01 	.long 0x1000000
    10002d18:	80 00 00 00 	.long 0x80

0000000010002d1c <__errno_location>:
    10002d1c:	5c 8f 6d 38 	addi    r3,r13,-28836
    10002d20:	20 00 80 4e 	blr
	...

0000000010002d30 <__strerror_l>:
    10002d30:	02 10 40 3c 	lis     r2,4098
    10002d34:	00 7f 42 38 	addi    r2,r2,32512
    10002d38:	a6 02 08 7c 	mflr    r0
    10002d3c:	83 00 03 28 	cmplwi  r3,131
    10002d40:	10 00 01 f8 	std     r0,16(r1)
    10002d44:	e1 ff 21 f8 	stdu    r1,-32(r1)
    10002d48:	08 00 81 40 	ble     10002d50 <__strerror_l+0x20>
    10002d4c:	00 00 60 38 	li      r3,0
    10002d50:	fe ff 22 3d 	addis   r9,r2,-2
    10002d54:	a4 0f 63 78 	rldicr  r3,r3,1,62
    10002d58:	28 00 84 e8 	ld      r4,40(r4)
    10002d5c:	48 c8 29 39 	addi    r9,r9,-14264
    10002d60:	2e 1a 29 7d 	lhzx    r9,r9,r3
    10002d64:	fe ff 62 3c 	addis   r3,r2,-2
    10002d68:	50 c9 63 38 	addi    r3,r3,-14000
    10002d6c:	14 4a 63 7c 	add     r3,r3,r9
    10002d70:	89 00 00 48 	bl      10002df8 <__lctrans+0x8>
    10002d74:	00 00 00 60 	nop
    10002d78:	20 00 21 38 	addi    r1,r1,32
    10002d7c:	10 00 01 e8 	ld      r0,16(r1)
    10002d80:	a6 03 08 7c 	mtlr    r0
    10002d84:	20 00 80 4e 	blr
    10002d88:	00 00 00 00 	.long 0x0
    10002d8c:	00 00 00 01 	.long 0x1000000
    10002d90:	80 00 00 00 	.long 0x80

0000000010002d94 <strerror>:
    10002d94:	02 10 40 3c 	lis     r2,4098
    10002d98:	00 7f 42 38 	addi    r2,r2,32512
    10002d9c:	d0 8f 8d e8 	ld      r4,-28720(r13)
    10002da0:	98 ff ff 4b 	b       10002d38 <__strerror_l+0x8>
	...

0000000010002db0 <_Exit>:
    10002db0:	f8 ff e1 fb 	std     r31,-8(r1)
    10002db4:	ea 00 00 38 	li      r0,234
    10002db8:	78 1b 7f 7c 	mr      r31,r3
    10002dbc:	02 00 00 44 	sc      
    10002dc0:	08 00 e3 40 	bns+    10002dc8 <_Exit+0x18>
    10002dc4:	d0 00 63 7c 	neg     r3,r3
    10002dc8:	01 00 00 38 	li      r0,1
    10002dcc:	78 fb e3 7f 	mr      r3,r31
    10002dd0:	ec ff ff 4b 	b       10002dbc <_Exit+0xc>
	...
    10002ddc:	00 01 00 00 	.long 0x100

0000000010002de0 <__lctrans_impl>:
    10002de0:	20 00 80 4e 	blr
	...

0000000010002df0 <__lctrans>:
    10002df0:	02 10 40 3c 	lis     r2,4098
    10002df4:	00 7f 42 38 	addi    r2,r2,32512
    10002df8:	a6 02 08 7c 	mflr    r0
    10002dfc:	10 00 01 f8 	std     r0,16(r1)
    10002e00:	e1 ff 21 f8 	stdu    r1,-32(r1)
    10002e04:	dd ff ff 4b 	bl      10002de0 <__lctrans_impl>
    10002e08:	00 00 00 60 	nop
    10002e0c:	20 00 21 38 	addi    r1,r1,32
    10002e10:	10 00 01 e8 	ld      r0,16(r1)
    10002e14:	a6 03 08 7c 	mtlr    r0
    10002e18:	20 00 80 4e 	blr
    10002e1c:	00 00 00 00 	.long 0x0
    10002e20:	00 00 00 01 	.long 0x1000000
    10002e24:	80 00 00 00 	.long 0x80

0000000010002e28 <__lctrans_cur>:
    10002e28:	02 10 40 3c 	lis     r2,4098
    10002e2c:	00 7f 42 38 	addi    r2,r2,32512
    10002e30:	a6 02 08 7c 	mflr    r0
    10002e34:	10 00 01 f8 	std     r0,16(r1)
    10002e38:	e1 ff 21 f8 	stdu    r1,-32(r1)
    10002e3c:	d0 8f 2d e9 	ld      r9,-28720(r13)
    10002e40:	28 00 89 e8 	ld      r4,40(r9)
    10002e44:	9d ff ff 4b 	bl      10002de0 <__lctrans_impl>
    10002e48:	00 00 00 60 	nop
    10002e4c:	20 00 21 38 	addi    r1,r1,32
    10002e50:	10 00 01 e8 	ld      r0,16(r1)
    10002e54:	a6 03 08 7c 	mtlr    r0
    10002e58:	20 00 80 4e 	blr
    10002e5c:	00 00 00 00 	.long 0x0
    10002e60:	00 00 00 01 	.long 0x1000000
    10002e64:	80 00 00 00 	.long 0x80

0000000010002e68 <frexpl>:
    10002e68:	02 10 40 3c 	lis     r2,4098
    10002e6c:	00 7f 42 38 	addi    r2,r2,32512
    10002e70:	a6 02 08 7c 	mflr    r0
    10002e74:	10 00 01 f8 	std     r0,16(r1)
    10002e78:	e1 ff 21 f8 	stdu    r1,-32(r1)
    10002e7c:	c5 0d 00 48 	bl      10003c40 <frexp+0x8>
    10002e80:	00 00 00 60 	nop
    10002e84:	20 00 21 38 	addi    r1,r1,32
    10002e88:	10 00 01 e8 	ld      r0,16(r1)
    10002e8c:	a6 03 08 7c 	mtlr    r0
    10002e90:	20 00 80 4e 	blr
    10002e94:	00 00 00 00 	.long 0x0
    10002e98:	00 00 00 01 	.long 0x1000000
    10002e9c:	80 00 00 00 	.long 0x80

0000000010002ea0 <wctomb>:
    10002ea0:	02 10 40 3c 	lis     r2,4098
    10002ea4:	00 7f 42 38 	addi    r2,r2,32512
    10002ea8:	00 00 23 2c 	cmpdi   r3,0
    10002eac:	30 00 82 41 	beq     10002edc <wctomb+0x3c>
    10002eb0:	a6 02 08 7c 	mflr    r0
    10002eb4:	00 00 a0 38 	li      r5,0
    10002eb8:	10 00 01 f8 	std     r0,16(r1)
    10002ebc:	e1 ff 21 f8 	stdu    r1,-32(r1)
    10002ec0:	19 0e 00 48 	bl      10003cd8 <wcrtomb+0x8>
    10002ec4:	00 00 00 60 	nop
    10002ec8:	20 00 21 38 	addi    r1,r1,32
    10002ecc:	10 00 01 e8 	ld      r0,16(r1)
    10002ed0:	b4 07 63 7c 	extsw   r3,r3
    10002ed4:	a6 03 08 7c 	mtlr    r0
    10002ed8:	20 00 80 4e 	blr
    10002edc:	00 00 60 38 	li      r3,0
    10002ee0:	20 00 80 4e 	blr
    10002ee4:	00 00 00 00 	.long 0x0
    10002ee8:	00 00 00 01 	.long 0x1000000
    10002eec:	80 00 00 00 	.long 0x80

0000000010002ef0 <a_cas>:
    10002ef0:	78 1b 69 7c 	mr      r9,r3
    10002ef4:	ac 04 00 7c 	hwsync
    10002ef8:	28 48 40 7d 	lwarx   r10,0,r9
    10002efc:	00 50 04 7c 	cmpw    r4,r10
    10002f00:	b4 07 43 7d 	extsw   r3,r10
    10002f04:	14 00 82 40 	bne     10002f18 <a_cas+0x28>
    10002f08:	2d 49 a0 7c 	stwcx.  r5,0,r9
    10002f0c:	26 00 40 7d 	mfcr    r10
    10002f10:	00 20 4a 75 	andis.  r10,r10,8192
    10002f14:	e4 ff 82 41 	beq     10002ef8 <a_cas+0x8>
    10002f18:	2c 01 00 4c 	isync
    10002f1c:	20 00 80 4e 	blr
	...

0000000010002f2c <__lockfile>:
    10002f2c:	02 10 40 3c 	lis     r2,4098
    10002f30:	00 7f 42 38 	addi    r2,r2,32512
    10002f34:	a6 02 08 7c 	mflr    r0
    10002f38:	8e 00 23 e9 	lwa     r9,140(r3)
    10002f3c:	80 00 29 55 	rlwinm  r9,r9,0,2,0
    10002f40:	79 14 00 48 	bl      100043b8 <_savegpr0_28>
    10002f44:	5a 8f cd eb 	lwa     r30,-28840(r13)
    10002f48:	c1 ff 21 f8 	stdu    r1,-64(r1)
    10002f4c:	00 f0 09 7c 	cmpw    r9,r30
    10002f50:	c0 00 82 41 	beq     10003010 <__lockfile+0xe4>
    10002f54:	8c 00 e3 3b 	addi    r31,r3,140
    10002f58:	78 f3 c5 7f 	mr      r5,r30
    10002f5c:	00 00 80 38 	li      r4,0
    10002f60:	78 fb e3 7f 	mr      r3,r31
    10002f64:	8d ff ff 4b 	bl      10002ef0 <a_cas>
    10002f68:	00 40 de 67 	oris    r30,r30,16384
    10002f6c:	b4 07 dd 7f 	extsw   r29,r30
    10002f70:	00 00 23 2c 	cmpdi   r3,0
    10002f74:	28 00 82 40 	bne     10002f9c <__lockfile+0x70>
    10002f78:	01 00 60 38 	li      r3,1
    10002f7c:	40 00 21 38 	addi    r1,r1,64
    10002f80:	5c 14 00 48 	b       100043dc <_restgpr0_28>
    10002f84:	78 e3 85 7f 	mr      r5,r28
    10002f88:	78 f3 c4 7f 	mr      r4,r30
    10002f8c:	78 fb e3 7f 	mr      r3,r31
    10002f90:	61 ff ff 4b 	bl      10002ef0 <a_cas>
    10002f94:	00 f0 03 7c 	cmpw    r3,r30
    10002f98:	2c 00 82 41 	beq     10002fc4 <__lockfile+0x98>
    10002f9c:	78 eb a5 7f 	mr      r5,r29
    10002fa0:	00 00 80 38 	li      r4,0
    10002fa4:	78 fb e3 7f 	mr      r3,r31
    10002fa8:	49 ff ff 4b 	bl      10002ef0 <a_cas>
    10002fac:	79 1b 7e 7c 	mr.     r30,r3
    10002fb0:	c8 ff 82 41 	beq     10002f78 <__lockfile+0x4c>
    10002fb4:	00 40 c9 77 	andis.  r9,r30,16384
    10002fb8:	00 40 dc 67 	oris    r28,r30,16384
    10002fbc:	b4 07 9c 7f 	extsw   r28,r28
    10002fc0:	c4 ff 82 41 	beq     10002f84 <__lockfile+0x58>
    10002fc4:	dd 00 00 38 	li      r0,221
    10002fc8:	78 fb e3 7f 	mr      r3,r31
    10002fcc:	80 00 80 38 	li      r4,128
    10002fd0:	78 e3 85 7f 	mr      r5,r28
    10002fd4:	00 00 c0 38 	li      r6,0
    10002fd8:	02 00 00 44 	sc      
    10002fdc:	08 00 e3 40 	bns+    10002fe4 <__lockfile+0xb8>
    10002fe0:	d0 00 63 7c 	neg     r3,r3
    10002fe4:	da ff 23 2c 	cmpdi   r3,-38
    10002fe8:	b4 ff 82 40 	bne     10002f9c <__lockfile+0x70>
    10002fec:	dd 00 00 38 	li      r0,221
    10002ff0:	78 fb e3 7f 	mr      r3,r31
    10002ff4:	00 00 80 38 	li      r4,0
    10002ff8:	78 e3 85 7f 	mr      r5,r28
    10002ffc:	00 00 c0 38 	li      r6,0
    10003000:	02 00 00 44 	sc      
    10003004:	08 00 e3 40 	bns+    1000300c <__lockfile+0xe0>
    10003008:	d0 00 63 7c 	neg     r3,r3
    1000300c:	90 ff ff 4b 	b       10002f9c <__lockfile+0x70>
    10003010:	00 00 60 38 	li      r3,0
    10003014:	68 ff ff 4b 	b       10002f7c <__lockfile+0x50>
    10003018:	00 00 00 00 	.long 0x0
    1000301c:	00 00 00 01 	.long 0x1000000
    10003020:	80 04 00 00 	.long 0x480

0000000010003024 <__unlockfile>:
    10003024:	f8 ff e1 fb 	std     r31,-8(r1)
    10003028:	8c 00 e3 3b 	addi    r31,r3,140
    1000302c:	ac 04 00 7c 	hwsync
    10003030:	00 00 40 39 	li      r10,0
    10003034:	28 f8 20 7d 	lwarx   r9,0,r31
    10003038:	b4 07 29 7d 	extsw   r9,r9
    1000303c:	2d f9 40 7d 	stwcx.  r10,0,r31
    10003040:	26 00 00 7d 	mfcr    r8
    10003044:	00 20 08 75 	andis.  r8,r8,8192
    10003048:	ec ff 82 41 	beq     10003034 <__unlockfile+0x10>
    1000304c:	2c 01 00 4c 	isync
    10003050:	00 40 29 75 	andis.  r9,r9,16384
    10003054:	44 00 82 41 	beq     10003098 <__unlockfile+0x74>
    10003058:	dd 00 00 38 	li      r0,221
    1000305c:	78 fb e3 7f 	mr      r3,r31
    10003060:	81 00 80 38 	li      r4,129
    10003064:	01 00 a0 38 	li      r5,1
    10003068:	02 00 00 44 	sc      
    1000306c:	08 00 e3 40 	bns+    10003074 <__unlockfile+0x50>
    10003070:	d0 00 63 7c 	neg     r3,r3
    10003074:	da ff 23 2c 	cmpdi   r3,-38
    10003078:	20 00 82 40 	bne     10003098 <__unlockfile+0x74>
    1000307c:	dd 00 00 38 	li      r0,221
    10003080:	78 fb e3 7f 	mr      r3,r31
    10003084:	01 00 80 38 	li      r4,1
    10003088:	01 00 a0 38 	li      r5,1
    1000308c:	02 00 00 44 	sc      
    10003090:	08 00 e3 40 	bns+    10003098 <__unlockfile+0x74>
    10003094:	d0 00 63 7c 	neg     r3,r3
    10003098:	f8 ff e1 eb 	ld      r31,-8(r1)
    1000309c:	20 00 80 4e 	blr
	...
    100030a8:	00 01 00 00 	.long 0x100

00000000100030ac <__aio_close>:
    100030ac:	20 00 80 4e 	blr
	...

00000000100030bc <__stdio_close>:
    100030bc:	02 10 40 3c 	lis     r2,4098
    100030c0:	00 7f 42 38 	addi    r2,r2,32512
    100030c4:	a6 02 08 7c 	mflr    r0
    100030c8:	10 00 01 f8 	std     r0,16(r1)
    100030cc:	e1 ff 21 f8 	stdu    r1,-32(r1)
    100030d0:	7a 00 63 e8 	lwa     r3,120(r3)
    100030d4:	d9 ff ff 4b 	bl      100030ac <__aio_close>
    100030d8:	00 00 00 60 	nop
    100030dc:	06 00 00 38 	li      r0,6
    100030e0:	02 00 00 44 	sc      
    100030e4:	08 00 e3 40 	bns+    100030ec <__stdio_close+0x30>
    100030e8:	d0 00 63 7c 	neg     r3,r3
    100030ec:	ed 0a 00 48 	bl      10003bd8 <__syscall_ret+0x8>
    100030f0:	00 00 00 60 	nop
    100030f4:	20 00 21 38 	addi    r1,r1,32
    100030f8:	10 00 01 e8 	ld      r0,16(r1)
    100030fc:	b4 07 63 7c 	extsw   r3,r3
    10003100:	a6 03 08 7c 	mtlr    r0
    10003104:	20 00 80 4e 	blr
    10003108:	00 00 00 00 	.long 0x0
    1000310c:	00 00 00 01 	.long 0x1000000
    10003110:	80 00 00 00 	.long 0x80

0000000010003114 <__stdio_seek>:
    10003114:	02 10 40 3c 	lis     r2,4098
    10003118:	00 7f 42 38 	addi    r2,r2,32512
    1000311c:	a6 02 08 7c 	mflr    r0
    10003120:	10 00 01 f8 	std     r0,16(r1)
    10003124:	e1 ff 21 f8 	stdu    r1,-32(r1)
    10003128:	7a 00 63 e8 	lwa     r3,120(r3)
    1000312c:	35 0a 00 48 	bl      10003b60 <__lseek+0x8>
    10003130:	00 00 00 60 	nop
    10003134:	20 00 21 38 	addi    r1,r1,32
    10003138:	10 00 01 e8 	ld      r0,16(r1)
    1000313c:	a6 03 08 7c 	mtlr    r0
    10003140:	20 00 80 4e 	blr
    10003144:	00 00 00 00 	.long 0x0
    10003148:	00 00 00 01 	.long 0x1000000
    1000314c:	80 00 00 00 	.long 0x80

0000000010003150 <__stdout_write>:
    10003150:	02 10 40 3c 	lis     r2,4098
    10003154:	00 7f 42 38 	addi    r2,r2,32512
    10003158:	a6 02 08 7c 	mflr    r0
    1000315c:	fe ff 22 3d 	addis   r9,r2,-2
    10003160:	4c c0 29 39 	addi    r9,r9,-16308
    10003164:	59 12 00 48 	bl      100043bc <_savegpr0_29>
    10003168:	b1 ff 21 f8 	stdu    r1,-80(r1)
    1000316c:	48 00 23 f9 	std     r9,72(r3)
    10003170:	78 1b 7f 7c 	mr      r31,r3
    10003174:	78 23 9e 7c 	mr      r30,r4
    10003178:	00 00 23 81 	lwz     r9,0(r3)
    1000317c:	78 2b bd 7c 	mr      r29,r5
    10003180:	40 00 29 71 	andi.   r9,r9,64
    10003184:	34 00 82 40 	bne     100031b8 <__stdout_write+0x68>
    10003188:	7a 00 63 e8 	lwa     r3,120(r3)
    1000318c:	08 40 80 3c 	lis     r4,16392
    10003190:	36 00 00 38 	li      r0,54
    10003194:	68 74 84 60 	ori     r4,r4,29800
    10003198:	20 00 a1 38 	addi    r5,r1,32
    1000319c:	02 00 00 44 	sc      
    100031a0:	08 00 e3 40 	bns+    100031a8 <__stdout_write+0x58>
    100031a4:	d0 00 63 7c 	neg     r3,r3
    100031a8:	00 00 23 2c 	cmpdi   r3,0
    100031ac:	0c 00 82 41 	beq     100031b8 <__stdout_write+0x68>
    100031b0:	ff ff 20 39 	li      r9,-1
    100031b4:	90 00 3f 91 	stw     r9,144(r31)
    100031b8:	78 eb a5 7f 	mr      r5,r29
    100031bc:	78 f3 c4 7f 	mr      r4,r30
    100031c0:	78 fb e3 7f 	mr      r3,r31
    100031c4:	91 0d 00 48 	bl      10003f54 <__stdio_write+0x8>
    100031c8:	00 00 00 60 	nop
    100031cc:	50 00 21 38 	addi    r1,r1,80
    100031d0:	10 12 00 48 	b       100043e0 <_restgpr0_29>
    100031d4:	00 00 00 00 	.long 0x0
    100031d8:	00 00 00 01 	.long 0x1000000
    100031dc:	80 03 00 00 	.long 0x380

00000000100031e0 <__towrite>:
    100031e0:	8a 00 43 e9 	lwa     r10,136(r3)
    100031e4:	ff ff 2a 39 	addi    r9,r10,-1
    100031e8:	78 53 29 7d 	or      r9,r9,r10
    100031ec:	88 00 23 91 	stw     r9,136(r3)
    100031f0:	00 00 23 81 	lwz     r9,0(r3)
    100031f4:	08 00 2a 71 	andi.   r10,r9,8
    100031f8:	14 00 82 41 	beq     1000320c <__towrite+0x2c>
    100031fc:	20 00 29 61 	ori     r9,r9,32
    10003200:	00 00 23 91 	stw     r9,0(r3)
    10003204:	ff ff 60 38 	li      r3,-1
    10003208:	20 00 80 4e 	blr
    1000320c:	00 00 20 39 	li      r9,0
    10003210:	60 00 43 e9 	ld      r10,96(r3)
    10003214:	10 00 23 f9 	std     r9,16(r3)
    10003218:	08 00 23 f9 	std     r9,8(r3)
    1000321c:	58 00 23 e9 	ld      r9,88(r3)
    10003220:	38 00 23 f9 	std     r9,56(r3)
    10003224:	28 00 23 f9 	std     r9,40(r3)
    10003228:	14 52 29 7d 	add     r9,r9,r10
    1000322c:	20 00 23 f9 	std     r9,32(r3)
    10003230:	00 00 60 38 	li      r3,0
    10003234:	20 00 80 4e 	blr
	...

0000000010003244 <__towrite_needs_stdio_exit>:
    10003244:	02 10 40 3c 	lis     r2,4098
    10003248:	00 7f 42 38 	addi    r2,r2,32512
    1000324c:	a6 02 08 7c 	mflr    r0
    10003250:	10 00 01 f8 	std     r0,16(r1)
    10003254:	e1 ff 21 f8 	stdu    r1,-32(r1)
    10003258:	81 0c 00 48 	bl      10003ed8 <__stdio_exit+0x8>
    1000325c:	00 00 00 60 	nop
    10003260:	20 00 21 38 	addi    r1,r1,32
    10003264:	10 00 01 e8 	ld      r0,16(r1)
    10003268:	a6 03 08 7c 	mtlr    r0
    1000326c:	20 00 80 4e 	blr
    10003270:	00 00 00 00 	.long 0x0
    10003274:	00 00 00 01 	.long 0x1000000
    10003278:	80 00 00 00 	.long 0x80

000000001000327c <__fwritex>:
    1000327c:	02 10 40 3c 	lis     r2,4098
    10003280:	00 7f 42 38 	addi    r2,r2,32512
    10003284:	a6 02 08 7c 	mflr    r0
    10003288:	20 00 25 e9 	ld      r9,32(r5)
    1000328c:	00 00 29 2c 	cmpdi   r9,0
    10003290:	29 11 00 48 	bl      100043b8 <_savegpr0_28>
    10003294:	c1 ff 21 f8 	stdu    r1,-64(r1)
    10003298:	78 1b 7c 7c 	mr      r28,r3
    1000329c:	78 23 9d 7c 	mr      r29,r4
    100032a0:	78 2b bf 7c 	mr      r31,r5
    100032a4:	3c 00 82 41 	beq     100032e0 <__fwritex+0x64>
    100032a8:	20 00 5f e9 	ld      r10,32(r31)
    100032ac:	28 00 3f e9 	ld      r9,40(r31)
    100032b0:	50 50 29 7d 	subf    r9,r9,r10
    100032b4:	40 e8 29 7c 	cmpld   r9,r29
    100032b8:	4c 00 80 40 	bge     10003304 <__fwritex+0x88>
    100032bc:	48 00 9f e9 	ld      r12,72(r31)
    100032c0:	18 00 41 f8 	std     r2,24(r1)
    100032c4:	78 eb a5 7f 	mr      r5,r29
    100032c8:	78 e3 84 7f 	mr      r4,r28
    100032cc:	78 fb e3 7f 	mr      r3,r31
    100032d0:	a6 03 89 7d 	mtctr   r12
    100032d4:	21 04 80 4e 	bctrl
    100032d8:	18 00 41 e8 	ld      r2,24(r1)
    100032dc:	20 00 00 48 	b       100032fc <__fwritex+0x80>
    100032e0:	78 2b a3 7c 	mr      r3,r5
    100032e4:	fd fe ff 4b 	bl      100031e0 <__towrite>
    100032e8:	00 00 00 60 	nop
    100032ec:	78 1b 69 7c 	mr      r9,r3
    100032f0:	00 00 60 38 	li      r3,0
    100032f4:	00 00 29 2c 	cmpdi   r9,0
    100032f8:	b0 ff 82 41 	beq     100032a8 <__fwritex+0x2c>
    100032fc:	40 00 21 38 	addi    r1,r1,64
    10003300:	dc 10 00 48 	b       100043dc <_restgpr0_28>
    10003304:	90 00 3f 81 	lwz     r9,144(r31)
    10003308:	78 eb be 7f 	mr      r30,r29
    1000330c:	00 00 09 2c 	cmpwi   r9,0
    10003310:	50 00 80 41 	blt     10003360 <__fwritex+0xe4>
    10003314:	01 00 3d 39 	addi    r9,r29,1
    10003318:	a6 03 29 7d 	mtctr   r9
    1000331c:	74 00 40 42 	bdz     10003390 <__fwritex+0x114>
    10003320:	ff ff 3e 39 	addi    r9,r30,-1
    10003324:	ae 48 5c 7d 	lbzx    r10,r28,r9
    10003328:	0a 00 0a 2c 	cmpwi   r10,10
    1000332c:	5c 00 82 40 	bne     10003388 <__fwritex+0x10c>
    10003330:	48 00 9f e9 	ld      r12,72(r31)
    10003334:	18 00 41 f8 	std     r2,24(r1)
    10003338:	78 f3 c5 7f 	mr      r5,r30
    1000333c:	78 e3 84 7f 	mr      r4,r28
    10003340:	78 fb e3 7f 	mr      r3,r31
    10003344:	a6 03 89 7d 	mtctr   r12
    10003348:	21 04 80 4e 	bctrl
    1000334c:	18 00 41 e8 	ld      r2,24(r1)
    10003350:	40 18 3e 7c 	cmpld   r30,r3
    10003354:	a8 ff 81 41 	bgt     100032fc <__fwritex+0x80>
    10003358:	14 f2 9c 7f 	add     r28,r28,r30
    1000335c:	50 e8 de 7f 	subf    r30,r30,r29
    10003360:	28 00 7f e8 	ld      r3,40(r31)
    10003364:	78 f3 c5 7f 	mr      r5,r30
    10003368:	78 e3 84 7f 	mr      r4,r28
    1000336c:	b5 02 00 48 	bl      10003620 <memcpy>
    10003370:	00 00 00 60 	nop
    10003374:	28 00 bf e8 	ld      r5,40(r31)
    10003378:	78 eb a3 7f 	mr      r3,r29
    1000337c:	14 f2 c5 7f 	add     r30,r5,r30
    10003380:	28 00 df fb 	std     r30,40(r31)
    10003384:	78 ff ff 4b 	b       100032fc <__fwritex+0x80>
    10003388:	78 4b 3e 7d 	mr      r30,r9
    1000338c:	90 ff ff 4b 	b       1000331c <__fwritex+0xa0>
    10003390:	78 eb be 7f 	mr      r30,r29
    10003394:	cc ff ff 4b 	b       10003360 <__fwritex+0xe4>
    10003398:	00 00 00 00 	.long 0x0
    1000339c:	00 00 00 01 	.long 0x1000000
    100033a0:	80 04 00 00 	.long 0x480

00000000100033a4 <fwrite>:
    100033a4:	02 10 40 3c 	lis     r2,4098
    100033a8:	00 7f 42 38 	addi    r2,r2,32512
    100033ac:	a6 02 08 7c 	mflr    r0
    100033b0:	00 00 24 2c 	cmpdi   r4,0
    100033b4:	fd 0f 00 48 	bl      100043b0 <_savegpr0_26>
    100033b8:	b1 ff 21 f8 	stdu    r1,-80(r1)
    100033bc:	d2 29 44 7f 	mulld   r26,r4,r5
    100033c0:	78 1b 7c 7c 	mr      r28,r3
    100033c4:	78 23 9d 7c 	mr      r29,r4
    100033c8:	78 33 de 7c 	mr      r30,r6
    100033cc:	00 00 e0 3b 	li      r31,0
    100033d0:	08 00 82 41 	beq     100033d8 <fwrite+0x34>
    100033d4:	78 2b bf 7c 	mr      r31,r5
    100033d8:	8e 00 3e e9 	lwa     r9,140(r30)
    100033dc:	00 00 60 3b 	li      r27,0
    100033e0:	00 00 09 2c 	cmpwi   r9,0
    100033e4:	14 00 80 41 	blt     100033f8 <fwrite+0x54>
    100033e8:	78 f3 c3 7f 	mr      r3,r30
    100033ec:	49 fb ff 4b 	bl      10002f34 <__lockfile+0x8>
    100033f0:	00 00 00 60 	nop
    100033f4:	78 1b 7b 7c 	mr      r27,r3
    100033f8:	78 e3 83 7f 	mr      r3,r28
    100033fc:	78 f3 c5 7f 	mr      r5,r30
    10003400:	78 d3 44 7f 	mr      r4,r26
    10003404:	81 fe ff 4b 	bl      10003284 <__fwritex+0x8>
    10003408:	00 00 3b 2c 	cmpdi   r27,0
    1000340c:	78 1b 7c 7c 	mr      r28,r3
    10003410:	10 00 82 41 	beq     10003420 <fwrite+0x7c>
    10003414:	78 f3 c3 7f 	mr      r3,r30
    10003418:	0d fc ff 4b 	bl      10003024 <__unlockfile>
    1000341c:	00 00 00 60 	nop
    10003420:	40 e0 3a 7c 	cmpld   r26,r28
    10003424:	08 00 82 41 	beq     1000342c <fwrite+0x88>
    10003428:	92 eb fc 7f 	divdu   r31,r28,r29
    1000342c:	50 00 21 38 	addi    r1,r1,80
    10003430:	78 fb e3 7f 	mr      r3,r31
    10003434:	a0 0f 00 48 	b       100043d4 <_restgpr0_26>
    10003438:	00 00 00 00 	.long 0x0
    1000343c:	00 00 00 01 	.long 0x1000000
    10003440:	80 06 00 00 	.long 0x680
    10003444:	00 00 00 60 	nop
    10003448:	00 00 00 60 	nop
    1000344c:	00 00 00 60 	nop

0000000010003450 <memchr>:
    10003450:	07 00 6a 70 	andi.   r10,r3,7
    10003454:	3e 06 87 54 	clrlwi  r7,r4,24
    10003458:	78 1b 69 7c 	mr      r9,r3
    1000345c:	3e 06 84 54 	clrlwi  r4,r4,24
    10003460:	00 01 82 41 	beq     10003560 <memchr+0x110>
    10003464:	00 00 25 2c 	cmpdi   r5,0
    10003468:	b8 00 82 41 	beq     10003520 <memchr+0xd0>
    1000346c:	01 00 aa 70 	andi.   r10,r5,1
    10003470:	ff ff 05 39 	addi    r8,r5,-1
    10003474:	78 2b aa 7c 	mr      r10,r5
    10003478:	b8 00 82 40 	bne     10003530 <memchr+0xe0>
    1000347c:	42 f8 4a 79 	rldicl  r10,r10,63,1
    10003480:	a6 03 49 7d 	mtctr   r10
    10003484:	3c 00 00 48 	b       100034c0 <memchr+0x70>
    10003488:	00 00 00 60 	nop
    1000348c:	00 00 42 60 	ori     r2,r2,0
    10003490:	01 00 29 39 	addi    r9,r9,1
    10003494:	ff ff a5 38 	addi    r5,r5,-1
    10003498:	07 00 2a 71 	andi.   r10,r9,7
    1000349c:	c4 00 82 41 	beq     10003560 <memchr+0x110>
    100034a0:	00 00 49 89 	lbz     r10,0(r9)
    100034a4:	00 20 0a 7c 	cmpw    r10,r4
    100034a8:	24 00 82 41 	beq     100034cc <memchr+0x7c>
    100034ac:	01 00 29 39 	addi    r9,r9,1
    100034b0:	ff ff a5 38 	addi    r5,r5,-1
    100034b4:	07 00 2a 71 	andi.   r10,r9,7
    100034b8:	a8 00 82 41 	beq     10003560 <memchr+0x110>
    100034bc:	64 00 40 42 	bdz     10003520 <memchr+0xd0>
    100034c0:	00 00 49 89 	lbz     r10,0(r9)
    100034c4:	00 20 0a 7c 	cmpw    r10,r4
    100034c8:	c8 ff 82 40 	bne     10003490 <memchr+0x40>
    100034cc:	78 2b aa 7c 	mr      r10,r5
    100034d0:	78 4b 23 7d 	mr      r3,r9
    100034d4:	01 00 48 71 	andi.   r8,r10,1
    100034d8:	14 2a a9 7c 	add     r5,r9,r5
    100034dc:	1c 00 82 41 	beq     100034f8 <memchr+0xa8>
    100034e0:	00 00 09 89 	lbz     r8,0(r9)
    100034e4:	00 20 08 7c 	cmpw    r8,r4
    100034e8:	20 00 82 4d 	beqlr   
    100034ec:	01 00 69 38 	addi    r3,r9,1
    100034f0:	40 28 23 7c 	cmpld   r3,r5
    100034f4:	2c 00 82 41 	beq     10003520 <memchr+0xd0>
    100034f8:	42 f8 49 79 	rldicl  r9,r10,63,1
    100034fc:	a6 03 29 7d 	mtctr   r9
    10003500:	00 00 23 89 	lbz     r9,0(r3)
    10003504:	00 20 09 7c 	cmpw    r9,r4
    10003508:	20 00 82 4d 	beqlr   
    1000350c:	01 00 23 8d 	lbzu    r9,1(r3)
    10003510:	00 20 09 7c 	cmpw    r9,r4
    10003514:	20 00 82 4d 	beqlr   
    10003518:	01 00 63 38 	addi    r3,r3,1
    1000351c:	e4 ff 00 42 	bdnz    10003500 <memchr+0xb0>
    10003520:	00 00 60 38 	li      r3,0
    10003524:	20 00 80 4e 	blr
    10003528:	00 00 00 60 	nop
    1000352c:	00 00 42 60 	ori     r2,r2,0
    10003530:	00 00 c3 88 	lbz     r6,0(r3)
    10003534:	00 20 06 7c 	cmpw    r6,r4
    10003538:	94 ff 82 41 	beq     100034cc <memchr+0x7c>
    1000353c:	01 00 23 39 	addi    r9,r3,1
    10003540:	78 43 05 7d 	mr      r5,r8
    10003544:	07 00 28 71 	andi.   r8,r9,7
    10003548:	18 00 82 41 	beq     10003560 <memchr+0x110>
    1000354c:	00 00 25 2c 	cmpdi   r5,0
    10003550:	2c ff 82 40 	bne     1000347c <memchr+0x2c>
    10003554:	cc ff ff 4b 	b       10003520 <memchr+0xd0>
    10003558:	00 00 00 60 	nop
    1000355c:	00 00 42 60 	ori     r2,r2,0
    10003560:	00 00 25 2c 	cmpdi   r5,0
    10003564:	00 00 60 38 	li      r3,0
    10003568:	20 00 82 4d 	beqlr   
    1000356c:	00 00 49 89 	lbz     r10,0(r9)
    10003570:	00 38 0a 7c 	cmpw    r10,r7
    10003574:	58 ff 82 41 	beq     100034cc <memchr+0x7c>
    10003578:	07 00 25 28 	cmpldi  r5,7
    1000357c:	01 01 e0 3c 	lis     r7,257
    10003580:	01 01 e7 60 	ori     r7,r7,257
    10003584:	0e 00 e7 78 	rldimi  r7,r7,32,0
    10003588:	d2 39 e4 7c 	mulld   r7,r4,r7
    1000358c:	40 ff 81 40 	ble     100034cc <memchr+0x7c>
    10003590:	fe fe 60 3c 	lis     r3,-258
    10003594:	f8 ff 45 39 	addi    r10,r5,-8
    10003598:	fe fe 63 60 	ori     r3,r3,65278
    1000359c:	c2 e8 4a 79 	rldicl  r10,r10,61,3
    100035a0:	c6 07 63 78 	rldicr  r3,r3,32,31
    100035a4:	80 80 c0 3c 	lis     r6,-32640
    100035a8:	fe fe 63 64 	oris    r3,r3,65278
    100035ac:	80 80 c6 60 	ori     r6,r6,32896
    100035b0:	01 00 4a 39 	addi    r10,r10,1
    100035b4:	ff fe 63 60 	ori     r3,r3,65279
    100035b8:	a6 03 49 7d 	mtctr   r10
    100035bc:	0e 00 c6 78 	rldimi  r6,r6,32,0
    100035c0:	1c 00 00 48 	b       100035dc <memchr+0x18c>
    100035c4:	00 00 00 60 	nop
    100035c8:	00 00 00 60 	nop
    100035cc:	00 00 42 60 	ori     r2,r2,0
    100035d0:	08 00 29 39 	addi    r9,r9,8
    100035d4:	f8 ff a5 38 	addi    r5,r5,-8
    100035d8:	20 00 40 42 	bdz     100035f8 <memchr+0x1a8>
    100035dc:	00 00 49 e9 	ld      r10,0(r9)
    100035e0:	78 52 ea 7c 	xor     r10,r7,r10
    100035e4:	14 1a 0a 7d 	add     r8,r10,r3
    100035e8:	78 50 0a 7d 	andc    r10,r8,r10
    100035ec:	39 30 4a 7d 	and.    r10,r10,r6
    100035f0:	e0 ff 82 41 	beq     100035d0 <memchr+0x180>
    100035f4:	d8 fe ff 4b 	b       100034cc <memchr+0x7c>
    100035f8:	00 00 25 2c 	cmpdi   r5,0
    100035fc:	00 00 60 38 	li      r3,0
    10003600:	20 00 82 4d 	beqlr   
    10003604:	c8 fe ff 4b 	b       100034cc <memchr+0x7c>
	...
    10003614:	00 00 00 60 	nop
    10003618:	00 00 00 60 	nop
    1000361c:	00 00 00 60 	nop

0000000010003620 <memcpy>:
    10003620:	03 00 89 70 	andi.   r9,r4,3
    10003624:	c4 04 82 41 	beq     10003ae8 <memcpy+0x4c8>
    10003628:	00 00 25 2c 	cmpdi   r5,0
    1000362c:	20 00 82 4d 	beqlr   
    10003630:	01 00 a9 70 	andi.   r9,r5,1
    10003634:	78 1b 68 7c 	mr      r8,r3
    10003638:	ff ff 45 39 	addi    r10,r5,-1
    1000363c:	78 2b a9 7c 	mr      r9,r5
    10003640:	c0 01 82 40 	bne     10003800 <memcpy+0x1e0>
    10003644:	42 f8 29 79 	rldicl  r9,r9,63,1
    10003648:	a6 03 29 7d 	mtctr   r9
    1000364c:	24 00 00 48 	b       10003670 <memcpy+0x50>
    10003650:	01 00 84 38 	addi    r4,r4,1
    10003654:	01 00 08 39 	addi    r8,r8,1
    10003658:	03 00 89 70 	andi.   r9,r4,3
    1000365c:	ff ff a5 38 	addi    r5,r5,-1
    10003660:	ff ff 24 89 	lbz     r9,-1(r4)
    10003664:	ff ff 28 99 	stb     r9,-1(r8)
    10003668:	24 00 82 41 	beq     1000368c <memcpy+0x6c>
    1000366c:	54 03 40 42 	bdz     100039c0 <memcpy+0x3a0>
    10003670:	01 00 84 38 	addi    r4,r4,1
    10003674:	01 00 08 39 	addi    r8,r8,1
    10003678:	03 00 89 70 	andi.   r9,r4,3
    1000367c:	ff ff a5 38 	addi    r5,r5,-1
    10003680:	ff ff 24 89 	lbz     r9,-1(r4)
    10003684:	ff ff 28 99 	stb     r9,-1(r8)
    10003688:	c8 ff 82 40 	bne     10003650 <memcpy+0x30>
    1000368c:	03 00 0a 71 	andi.   r10,r8,3
    10003690:	a0 01 82 41 	beq     10003830 <memcpy+0x210>
    10003694:	1f 00 25 28 	cmpldi  r5,31
    10003698:	cc 03 81 40 	ble     10003a64 <memcpy+0x444>
    1000369c:	e8 ff a1 fb 	std     r29,-24(r1)
    100036a0:	f0 ff c1 fb 	std     r30,-16(r1)
    100036a4:	02 00 2a 28 	cmpldi  r10,2
    100036a8:	f8 ff e1 fb 	std     r31,-8(r1)
    100036ac:	00 00 e4 88 	lbz     r7,0(r4)
    100036b0:	00 00 24 81 	lwz     r9,0(r4)
    100036b4:	1c 03 82 41 	beq     100039d0 <memcpy+0x3b0>
    100036b8:	03 00 2a 28 	cmpldi  r10,3
    100036bc:	64 02 82 41 	beq     10003920 <memcpy+0x300>
    100036c0:	00 00 e4 a0 	lhz     r7,0(r4)
    100036c4:	ec ff 45 39 	addi    r10,r5,-20
    100036c8:	02 00 c4 88 	lbz     r6,2(r4)
    100036cc:	03 00 c4 3b 	addi    r30,r4,3
    100036d0:	02 e1 44 79 	rldicl  r4,r10,60,4
    100036d4:	03 00 a8 3b 	addi    r29,r8,3
    100036d8:	01 00 e4 3b 	addi    r31,r4,1
    100036dc:	78 f3 cb 7f 	mr      r11,r30
    100036e0:	a6 03 e9 7f 	mtctr   r31
    100036e4:	00 00 e8 b0 	sth     r7,0(r8)
    100036e8:	02 00 c8 98 	stb     r6,2(r8)
    100036ec:	78 eb a6 7f 	mr      r6,r29
    100036f0:	01 00 eb 80 	lwz     r7,1(r11)
    100036f4:	05 00 0b 81 	lwz     r8,5(r11)
    100036f8:	09 00 4b 81 	lwz     r10,9(r11)
    100036fc:	3e 46 20 55 	rlwinm  r0,r9,8,24,31
    10003700:	0d 00 2b 81 	lwz     r9,13(r11)
    10003704:	10 00 c6 38 	addi    r6,r6,16
    10003708:	10 00 6b 39 	addi    r11,r11,16
    1000370c:	2e 40 ec 54 	rlwinm  r12,r7,8,0,23
    10003710:	3e 46 e7 54 	rlwinm  r7,r7,8,24,31
    10003714:	78 63 00 7c 	or      r0,r0,r12
    10003718:	2e 40 0c 55 	rlwinm  r12,r8,8,0,23
    1000371c:	3e 46 08 55 	rlwinm  r8,r8,8,24,31
    10003720:	78 63 e7 7c 	or      r7,r7,r12
    10003724:	f0 ff 06 90 	stw     r0,-16(r6)
    10003728:	2e 40 40 55 	rlwinm  r0,r10,8,0,23
    1000372c:	3e 46 4a 55 	rlwinm  r10,r10,8,24,31
    10003730:	78 03 08 7d 	or      r8,r8,r0
    10003734:	2e 40 20 55 	rlwinm  r0,r9,8,0,23
    10003738:	f4 ff e6 90 	stw     r7,-12(r6)
    1000373c:	78 03 4a 7d 	or      r10,r10,r0
    10003740:	f8 ff 06 91 	stw     r8,-8(r6)
    10003744:	fc ff 46 91 	stw     r10,-4(r6)
    10003748:	a8 ff 00 42 	bdnz    100036f0 <memcpy+0xd0>
    1000374c:	ed ff a5 38 	addi    r5,r5,-19
    10003750:	e4 26 89 78 	rldicr  r9,r4,4,59
    10003754:	e4 26 ff 7b 	rldicr  r31,r31,4,59
    10003758:	50 28 a9 7c 	subf    r5,r9,r5
    1000375c:	14 fa 1d 7d 	add     r8,r29,r31
    10003760:	10 00 a9 70 	andi.   r9,r5,16
    10003764:	38 07 ab 54 	rlwinm  r11,r5,0,28,28
    10003768:	7a 07 a6 54 	rlwinm  r6,r5,0,29,29
    1000376c:	bc 07 a7 54 	rlwinm  r7,r5,0,30,30
    10003770:	14 fa 9e 7c 	add     r4,r30,r31
    10003774:	e0 07 a5 78 	clrldi  r5,r5,63
    10003778:	a0 03 82 41 	beq     10003b18 <memcpy+0x4f8>
    1000377c:	98 26 00 7c 	lxvd2x  vs0,0,r4
    10003780:	10 00 24 39 	addi    r9,r4,16
    10003784:	10 00 48 39 	addi    r10,r8,16
    10003788:	98 47 00 7c 	stxvd2x vs0,0,r8
    1000378c:	00 00 2b 2c 	cmpdi   r11,0
    10003790:	68 03 82 41 	beq     10003af8 <memcpy+0x4d8>
    10003794:	00 00 89 e8 	ld      r4,0(r9)
    10003798:	08 00 0a 39 	addi    r8,r10,8
    1000379c:	08 00 29 39 	addi    r9,r9,8
    100037a0:	00 00 8a f8 	std     r4,0(r10)
    100037a4:	00 00 26 2c 	cmpdi   r6,0
    100037a8:	68 03 82 41 	beq     10003b10 <memcpy+0x4f0>
    100037ac:	ee 4e 00 7c 	lfiwzx  f0,0,r9
    100037b0:	04 00 48 39 	addi    r10,r8,4
    100037b4:	04 00 29 39 	addi    r9,r9,4
    100037b8:	ae 47 00 7c 	stfiwx  f0,0,r8
    100037bc:	00 00 27 2c 	cmpdi   r7,0
    100037c0:	30 03 82 41 	beq     10003af0 <memcpy+0x4d0>
    100037c4:	00 00 e9 a0 	lhz     r7,0(r9)
    100037c8:	02 00 0a 39 	addi    r8,r10,2
    100037cc:	02 00 29 39 	addi    r9,r9,2
    100037d0:	00 00 ea b0 	sth     r7,0(r10)
    100037d4:	00 00 25 2c 	cmpdi   r5,0
    100037d8:	0c 00 82 41 	beq     100037e4 <memcpy+0x1c4>
    100037dc:	00 00 29 89 	lbz     r9,0(r9)
    100037e0:	00 00 28 99 	stb     r9,0(r8)
    100037e4:	e8 ff a1 eb 	ld      r29,-24(r1)
    100037e8:	f0 ff c1 eb 	ld      r30,-16(r1)
    100037ec:	f8 ff e1 eb 	ld      r31,-8(r1)
    100037f0:	20 00 80 4e 	blr
    100037f4:	00 00 00 60 	nop
    100037f8:	00 00 00 60 	nop
    100037fc:	00 00 42 60 	ori     r2,r2,0
    10003800:	01 00 84 38 	addi    r4,r4,1
    10003804:	78 53 45 7d 	mr      r5,r10
    10003808:	03 00 87 70 	andi.   r7,r4,3
    1000380c:	01 00 03 39 	addi    r8,r3,1
    10003810:	ff ff 44 89 	lbz     r10,-1(r4)
    10003814:	ff ff 48 99 	stb     r10,-1(r8)
    10003818:	74 fe 82 41 	beq     1000368c <memcpy+0x6c>
    1000381c:	00 00 25 2c 	cmpdi   r5,0
    10003820:	24 fe 82 40 	bne     10003644 <memcpy+0x24>
    10003824:	20 00 80 4e 	blr
    10003828:	00 00 00 60 	nop
    1000382c:	00 00 42 60 	ori     r2,r2,0
    10003830:	0f 00 25 28 	cmpldi  r5,15
    10003834:	78 00 81 40 	ble     100038ac <memcpy+0x28c>
    10003838:	f0 ff 25 39 	addi    r9,r5,-16
    1000383c:	02 e1 29 79 	rldicl  r9,r9,60,4
    10003840:	01 00 e9 38 	addi    r7,r9,1
    10003844:	01 00 e6 70 	andi.   r6,r7,1
    10003848:	18 00 82 41 	beq     10003860 <memcpy+0x240>
    1000384c:	98 26 00 7c 	lxvd2x  vs0,0,r4
    10003850:	00 00 29 2c 	cmpdi   r9,0
    10003854:	10 00 40 39 	li      r10,16
    10003858:	98 47 00 7c 	stxvd2x vs0,0,r8
    1000385c:	40 00 82 41 	beq     1000389c <memcpy+0x27c>
    10003860:	42 f8 e9 78 	rldicl  r9,r7,63,1
    10003864:	a6 03 29 7d 	mtctr   r9
    10003868:	18 00 00 48 	b       10003880 <memcpy+0x260>
    1000386c:	00 00 00 60 	nop
    10003870:	00 00 00 60 	nop
    10003874:	00 00 00 60 	nop
    10003878:	00 00 00 60 	nop
    1000387c:	00 00 42 60 	ori     r2,r2,0
    10003880:	10 00 2a 39 	addi    r9,r10,16
    10003884:	98 56 84 7d 	lxvd2x  vs12,r4,r10
    10003888:	98 4e 04 7c 	lxvd2x  vs0,r4,r9
    1000388c:	98 57 88 7d 	stxvd2x vs12,r8,r10
    10003890:	20 00 4a 39 	addi    r10,r10,32
    10003894:	98 4f 08 7c 	stxvd2x vs0,r8,r9
    10003898:	e8 ff 00 42 	bdnz    10003880 <memcpy+0x260>
    1000389c:	e4 26 e7 78 	rldicr  r7,r7,4,59
    100038a0:	20 07 a5 78 	clrldi  r5,r5,60
    100038a4:	14 3a 08 7d 	add     r8,r8,r7
    100038a8:	14 3a 84 7c 	add     r4,r4,r7
    100038ac:	08 00 a9 70 	andi.   r9,r5,8
    100038b0:	7a 07 aa 54 	rlwinm  r10,r5,0,29,29
    100038b4:	bc 07 a9 54 	rlwinm  r9,r5,0,30,30
    100038b8:	e0 07 a5 78 	clrldi  r5,r5,63
    100038bc:	14 00 82 41 	beq     100038d0 <memcpy+0x2b0>
    100038c0:	00 00 e4 e8 	ld      r7,0(r4)
    100038c4:	08 00 08 39 	addi    r8,r8,8
    100038c8:	08 00 84 38 	addi    r4,r4,8
    100038cc:	f8 ff e8 f8 	std     r7,-8(r8)
    100038d0:	00 00 2a 2c 	cmpdi   r10,0
    100038d4:	14 00 82 41 	beq     100038e8 <memcpy+0x2c8>
    100038d8:	ee 26 00 7c 	lfiwzx  f0,0,r4
    100038dc:	04 00 84 38 	addi    r4,r4,4
    100038e0:	ae 47 00 7c 	stfiwx  f0,0,r8
    100038e4:	04 00 08 39 	addi    r8,r8,4
    100038e8:	00 00 29 2c 	cmpdi   r9,0
    100038ec:	38 02 82 41 	beq     10003b24 <memcpy+0x504>
    100038f0:	00 00 44 a1 	lhz     r10,0(r4)
    100038f4:	02 00 28 39 	addi    r9,r8,2
    100038f8:	02 00 84 38 	addi    r4,r4,2
    100038fc:	00 00 48 b1 	sth     r10,0(r8)
    10003900:	00 00 25 2c 	cmpdi   r5,0
    10003904:	20 00 82 4d 	beqlr   
    10003908:	00 00 44 89 	lbz     r10,0(r4)
    1000390c:	00 00 49 99 	stb     r10,0(r9)
    10003910:	20 00 80 4e 	blr
    10003914:	00 00 00 60 	nop
    10003918:	00 00 00 60 	nop
    1000391c:	00 00 42 60 	ori     r2,r2,0
    10003920:	ec ff 45 39 	addi    r10,r5,-20
    10003924:	01 00 c4 3b 	addi    r30,r4,1
    10003928:	00 00 e8 98 	stb     r7,0(r8)
    1000392c:	02 e1 44 79 	rldicl  r4,r10,60,4
    10003930:	01 00 a8 3b 	addi    r29,r8,1
    10003934:	01 00 e4 3b 	addi    r31,r4,1
    10003938:	78 f3 cb 7f 	mr      r11,r30
    1000393c:	a6 03 e9 7f 	mtctr   r31
    10003940:	78 eb a6 7f 	mr      r6,r29
    10003944:	00 00 00 60 	nop
    10003948:	00 00 00 60 	nop
    1000394c:	00 00 42 60 	ori     r2,r2,0
    10003950:	03 00 eb 80 	lwz     r7,3(r11)
    10003954:	07 00 0b 81 	lwz     r8,7(r11)
    10003958:	0b 00 4b 81 	lwz     r10,11(r11)
    1000395c:	3e c2 20 55 	rlwinm  r0,r9,24,8,31
    10003960:	0f 00 2b 81 	lwz     r9,15(r11)
    10003964:	10 00 c6 38 	addi    r6,r6,16
    10003968:	10 00 6b 39 	addi    r11,r11,16
    1000396c:	0e c0 ec 54 	rlwinm  r12,r7,24,0,7
    10003970:	3e c2 e7 54 	rlwinm  r7,r7,24,8,31
    10003974:	78 63 00 7c 	or      r0,r0,r12
    10003978:	0e c0 0c 55 	rlwinm  r12,r8,24,0,7
    1000397c:	3e c2 08 55 	rlwinm  r8,r8,24,8,31
    10003980:	78 63 e7 7c 	or      r7,r7,r12
    10003984:	f0 ff 06 90 	stw     r0,-16(r6)
    10003988:	0e c0 40 55 	rlwinm  r0,r10,24,0,7
    1000398c:	3e c2 4a 55 	rlwinm  r10,r10,24,8,31
    10003990:	78 03 08 7d 	or      r8,r8,r0
    10003994:	0e c0 20 55 	rlwinm  r0,r9,24,0,7
    10003998:	f4 ff e6 90 	stw     r7,-12(r6)
    1000399c:	78 03 4a 7d 	or      r10,r10,r0
    100039a0:	f8 ff 06 91 	stw     r8,-8(r6)
    100039a4:	fc ff 46 91 	stw     r10,-4(r6)
    100039a8:	a8 ff 00 42 	bdnz    10003950 <memcpy+0x330>
    100039ac:	ef ff a5 38 	addi    r5,r5,-17
    100039b0:	a0 fd ff 4b 	b       10003750 <memcpy+0x130>
    100039b4:	00 00 00 60 	nop
    100039b8:	00 00 00 60 	nop
    100039bc:	00 00 42 60 	ori     r2,r2,0
    100039c0:	20 00 80 4e 	blr
    100039c4:	00 00 00 60 	nop
    100039c8:	00 00 00 60 	nop
    100039cc:	00 00 42 60 	ori     r2,r2,0
    100039d0:	00 00 e4 a0 	lhz     r7,0(r4)
    100039d4:	ec ff 45 39 	addi    r10,r5,-20
    100039d8:	02 00 c4 3b 	addi    r30,r4,2
    100039dc:	02 e1 44 79 	rldicl  r4,r10,60,4
    100039e0:	02 00 a8 3b 	addi    r29,r8,2
    100039e4:	01 00 e4 3b 	addi    r31,r4,1
    100039e8:	78 f3 cb 7f 	mr      r11,r30
    100039ec:	a6 03 e9 7f 	mtctr   r31
    100039f0:	00 00 e8 b0 	sth     r7,0(r8)
    100039f4:	78 eb a6 7f 	mr      r6,r29
    100039f8:	00 00 00 60 	nop
    100039fc:	00 00 42 60 	ori     r2,r2,0
    10003a00:	02 00 eb 80 	lwz     r7,2(r11)
    10003a04:	06 00 0b 81 	lwz     r8,6(r11)
    10003a08:	0a 00 4b 81 	lwz     r10,10(r11)
    10003a0c:	3e 84 20 55 	rlwinm  r0,r9,16,16,31
    10003a10:	0e 00 2b 81 	lwz     r9,14(r11)
    10003a14:	10 00 c6 38 	addi    r6,r6,16
    10003a18:	10 00 6b 39 	addi    r11,r11,16
    10003a1c:	1e 80 ec 54 	rlwinm  r12,r7,16,0,15
    10003a20:	3e 84 e7 54 	rlwinm  r7,r7,16,16,31
    10003a24:	78 63 00 7c 	or      r0,r0,r12
    10003a28:	1e 80 0c 55 	rlwinm  r12,r8,16,0,15
    10003a2c:	3e 84 08 55 	rlwinm  r8,r8,16,16,31
    10003a30:	78 63 e7 7c 	or      r7,r7,r12
    10003a34:	f0 ff 06 90 	stw     r0,-16(r6)
    10003a38:	1e 80 40 55 	rlwinm  r0,r10,16,0,15
    10003a3c:	3e 84 4a 55 	rlwinm  r10,r10,16,16,31
    10003a40:	78 03 08 7d 	or      r8,r8,r0
    10003a44:	1e 80 20 55 	rlwinm  r0,r9,16,0,15
    10003a48:	f4 ff e6 90 	stw     r7,-12(r6)
    10003a4c:	78 03 4a 7d 	or      r10,r10,r0
    10003a50:	f8 ff 06 91 	stw     r8,-8(r6)
    10003a54:	fc ff 46 91 	stw     r10,-4(r6)
    10003a58:	a8 ff 00 42 	bdnz    10003a00 <memcpy+0x3e0>
    10003a5c:	ee ff a5 38 	addi    r5,r5,-18
    10003a60:	f0 fc ff 4b 	b       10003750 <memcpy+0x130>
    10003a64:	10 00 a9 70 	andi.   r9,r5,16
    10003a68:	38 07 ab 54 	rlwinm  r11,r5,0,28,28
    10003a6c:	7a 07 a6 54 	rlwinm  r6,r5,0,29,29
    10003a70:	bc 07 a7 54 	rlwinm  r7,r5,0,30,30
    10003a74:	e0 07 a5 78 	clrldi  r5,r5,63
    10003a78:	bc 00 82 41 	beq     10003b34 <memcpy+0x514>
    10003a7c:	98 26 00 7c 	lxvd2x  vs0,0,r4
    10003a80:	10 00 24 39 	addi    r9,r4,16
    10003a84:	10 00 48 39 	addi    r10,r8,16
    10003a88:	98 47 00 7c 	stxvd2x vs0,0,r8
    10003a8c:	00 00 2b 2c 	cmpdi   r11,0
    10003a90:	70 00 82 41 	beq     10003b00 <memcpy+0x4e0>
    10003a94:	00 00 89 e8 	ld      r4,0(r9)
    10003a98:	08 00 0a 39 	addi    r8,r10,8
    10003a9c:	08 00 29 39 	addi    r9,r9,8
    10003aa0:	00 00 8a f8 	std     r4,0(r10)
    10003aa4:	00 00 26 2c 	cmpdi   r6,0
    10003aa8:	84 00 82 41 	beq     10003b2c <memcpy+0x50c>
    10003aac:	ee 4e 00 7c 	lfiwzx  f0,0,r9
    10003ab0:	04 00 48 39 	addi    r10,r8,4
    10003ab4:	04 00 29 39 	addi    r9,r9,4
    10003ab8:	ae 47 00 7c 	stfiwx  f0,0,r8
    10003abc:	00 00 27 2c 	cmpdi   r7,0
    10003ac0:	48 00 82 41 	beq     10003b08 <memcpy+0x4e8>
    10003ac4:	00 00 e9 a0 	lhz     r7,0(r9)
    10003ac8:	02 00 0a 39 	addi    r8,r10,2
    10003acc:	02 00 29 39 	addi    r9,r9,2
    10003ad0:	00 00 ea b0 	sth     r7,0(r10)
    10003ad4:	00 00 25 2c 	cmpdi   r5,0
    10003ad8:	20 00 82 4d 	beqlr   
    10003adc:	00 00 29 89 	lbz     r9,0(r9)
    10003ae0:	00 00 28 99 	stb     r9,0(r8)
    10003ae4:	20 00 80 4e 	blr
    10003ae8:	78 1b 68 7c 	mr      r8,r3
    10003aec:	a0 fb ff 4b 	b       1000368c <memcpy+0x6c>
    10003af0:	78 53 48 7d 	mr      r8,r10
    10003af4:	e0 fc ff 4b 	b       100037d4 <memcpy+0x1b4>
    10003af8:	78 53 48 7d 	mr      r8,r10
    10003afc:	a8 fc ff 4b 	b       100037a4 <memcpy+0x184>
    10003b00:	78 53 48 7d 	mr      r8,r10
    10003b04:	a0 ff ff 4b 	b       10003aa4 <memcpy+0x484>
    10003b08:	78 53 48 7d 	mr      r8,r10
    10003b0c:	c8 ff ff 4b 	b       10003ad4 <memcpy+0x4b4>
    10003b10:	78 43 0a 7d 	mr      r10,r8
    10003b14:	a8 fc ff 4b 	b       100037bc <memcpy+0x19c>
    10003b18:	78 23 89 7c 	mr      r9,r4
    10003b1c:	78 43 0a 7d 	mr      r10,r8
    10003b20:	6c fc ff 4b 	b       1000378c <memcpy+0x16c>
    10003b24:	78 43 09 7d 	mr      r9,r8
    10003b28:	d8 fd ff 4b 	b       10003900 <memcpy+0x2e0>
    10003b2c:	78 43 0a 7d 	mr      r10,r8
    10003b30:	8c ff ff 4b 	b       10003abc <memcpy+0x49c>
    10003b34:	78 23 89 7c 	mr      r9,r4
    10003b38:	78 43 0a 7d 	mr      r10,r8
    10003b3c:	50 ff ff 4b 	b       10003a8c <memcpy+0x46c>
	...
    10003b48:	00 03 00 00 	.long 0x300

0000000010003b4c <__set_thread_area>:
    10003b4c:	78 1b 6d 7c 	mr      r13,r3
    10003b50:	00 00 60 38 	li      r3,0
    10003b54:	20 00 80 4e 	blr

0000000010003b58 <__lseek>:
    10003b58:	02 10 40 3c 	lis     r2,4098
    10003b5c:	00 7f 42 38 	addi    r2,r2,32512
    10003b60:	a6 02 08 7c 	mflr    r0
    10003b64:	78 23 89 7c 	mr      r9,r4
    10003b68:	78 2b a7 7c 	mr      r7,r5
    10003b6c:	76 06 84 7c 	sradi   r4,r4,32
    10003b70:	78 4b 25 7d 	mr      r5,r9
    10003b74:	10 00 01 f8 	std     r0,16(r1)
    10003b78:	d1 ff 21 f8 	stdu    r1,-48(r1)
    10003b7c:	8c 00 00 38 	li      r0,140
    10003b80:	20 00 c1 38 	addi    r6,r1,32
    10003b84:	02 00 00 44 	sc      
    10003b88:	08 00 e3 40 	bns+    10003b90 <__lseek+0x38>
    10003b8c:	d0 00 63 7c 	neg     r3,r3
    10003b90:	49 00 00 48 	bl      10003bd8 <__syscall_ret+0x8>
    10003b94:	00 00 00 60 	nop
    10003b98:	00 00 23 2c 	cmpdi   r3,0
    10003b9c:	18 00 82 40 	bne     10003bb4 <__lseek+0x5c>
    10003ba0:	20 00 61 e8 	ld      r3,32(r1)
    10003ba4:	30 00 21 38 	addi    r1,r1,48
    10003ba8:	10 00 01 e8 	ld      r0,16(r1)
    10003bac:	a6 03 08 7c 	mtlr    r0
    10003bb0:	20 00 80 4e 	blr
    10003bb4:	ff ff 60 38 	li      r3,-1
    10003bb8:	ec ff ff 4b 	b       10003ba4 <__lseek+0x4c>
    10003bbc:	00 00 00 00 	.long 0x0
    10003bc0:	00 00 00 01 	.long 0x1000000
    10003bc4:	80 00 00 00 	.long 0x80
    10003bc8:	00 00 00 60 	nop
    10003bcc:	00 00 00 60 	nop

0000000010003bd0 <__syscall_ret>:
    10003bd0:	02 10 40 3c 	lis     r2,4098
    10003bd4:	00 7f 42 38 	addi    r2,r2,32512
    10003bd8:	00 f0 20 39 	li      r9,-4096
    10003bdc:	f8 ff e1 fb 	std     r31,-8(r1)
    10003be0:	d1 ff 21 f8 	stdu    r1,-48(r1)
    10003be4:	78 1b 7f 7c 	mr      r31,r3
    10003be8:	40 48 23 7c 	cmpld   r3,r9
    10003bec:	14 00 81 41 	bgt     10003c00 <__syscall_ret+0x30>
    10003bf0:	30 00 21 38 	addi    r1,r1,48
    10003bf4:	f8 ff e1 eb 	ld      r31,-8(r1)
    10003bf8:	20 00 80 4e 	blr
    10003bfc:	00 00 42 60 	ori     r2,r2,0
    10003c00:	a6 02 08 7c 	mflr    r0
    10003c04:	d0 00 ff 7f 	neg     r31,r31
    10003c08:	40 00 01 f8 	std     r0,64(r1)
    10003c0c:	11 f1 ff 4b 	bl      10002d1c <__errno_location>
    10003c10:	00 00 00 60 	nop
    10003c14:	40 00 01 e8 	ld      r0,64(r1)
    10003c18:	78 1b 69 7c 	mr      r9,r3
    10003c1c:	ff ff 60 38 	li      r3,-1
    10003c20:	a6 03 08 7c 	mtlr    r0
    10003c24:	00 00 e9 93 	stw     r31,0(r9)
    10003c28:	c8 ff ff 4b 	b       10003bf0 <__syscall_ret+0x20>
    10003c2c:	00 00 00 00 	.long 0x0
    10003c30:	00 00 00 01 	.long 0x1000000
    10003c34:	80 01 00 00 	.long 0x180

0000000010003c38 <frexp>:
    10003c38:	02 10 40 3c 	lis     r2,4098
    10003c3c:	00 7f 42 38 	addi    r2,r2,32512
    10003c40:	a6 02 08 7c 	mflr    r0
    10003c44:	66 00 29 7c 	mfvsrd  r9,vs1
    10003c48:	f8 ff e1 fb 	std     r31,-8(r1)
    10003c4c:	78 23 9f 7c 	mr      r31,r4
    10003c50:	10 00 01 f8 	std     r0,16(r1)
    10003c54:	d1 ff 21 f8 	stdu    r1,-48(r1)
    10003c58:	61 65 28 79 	rldicl. r8,r9,12,53
    10003c5c:	60 65 2a 79 	rldicl  r10,r9,12,53
    10003c60:	3c 00 82 40 	bne     10003c9c <frexp+0x64>
    10003c64:	d0 04 00 f0 	xxlxor  vs0,vs0,vs0
    10003c68:	00 00 01 fc 	fcmpu   cr0,f1,f0
    10003c6c:	28 00 82 41 	beq     10003c94 <frexp+0x5c>
    10003c70:	fe ff 22 3d 	addis   r9,r2,-2
    10003c74:	70 d0 09 c0 	lfs     f0,-12176(r9)
    10003c78:	32 00 21 fc 	fmul    f1,f1,f0
    10003c7c:	c5 ff ff 4b 	bl      10003c40 <frexp+0x8>
    10003c80:	00 00 3f 81 	lwz     r9,0(r31)
    10003c84:	c0 ff 29 39 	addi    r9,r9,-64
    10003c88:	00 00 3f 91 	stw     r9,0(r31)
    10003c8c:	30 00 21 38 	addi    r1,r1,48
    10003c90:	68 07 00 48 	b       100043f8 <_restgpr0_31>
    10003c94:	00 00 44 91 	stw     r10,0(r4)
    10003c98:	f4 ff ff 4b 	b       10003c8c <frexp+0x54>
    10003c9c:	ff 07 0a 2c 	cmpwi   r10,2047
    10003ca0:	ec ff 82 41 	beq     10003c8c <frexp+0x54>
    10003ca4:	02 fc 4a 39 	addi    r10,r10,-1022
    10003ca8:	c0 0a 29 79 	rldicl  r9,r9,1,11
    10003cac:	02 f8 29 79 	rotldi  r9,r9,63
    10003cb0:	00 00 44 91 	stw     r10,0(r4)
    10003cb4:	ff ff 40 39 	li      r10,-1
    10003cb8:	8e a8 49 79 	rldimi  r9,r10,53,2
    10003cbc:	66 01 29 7c 	mtvsrd  vs1,r9
    10003cc0:	cc ff ff 4b 	b       10003c8c <frexp+0x54>
    10003cc4:	00 00 00 00 	.long 0x0
    10003cc8:	00 00 00 01 	.long 0x1000000
    10003ccc:	80 01 00 00 	.long 0x180

0000000010003cd0 <wcrtomb>:
    10003cd0:	02 10 40 3c 	lis     r2,4098
    10003cd4:	00 7f 42 38 	addi    r2,r2,32512
    10003cd8:	00 00 23 2c 	cmpdi   r3,0
    10003cdc:	14 00 82 41 	beq     10003cf0 <wcrtomb+0x20>
    10003ce0:	7f 00 04 28 	cmplwi  r4,127
    10003ce4:	20 00 89 78 	clrldi  r9,r4,32
    10003ce8:	28 00 81 41 	bgt     10003d10 <wcrtomb+0x40>
    10003cec:	00 00 83 98 	stb     r4,0(r3)
    10003cf0:	01 00 60 38 	li      r3,1
    10003cf4:	20 00 80 4e 	blr
    10003cf8:	00 00 83 98 	stb     r4,0(r3)
    10003cfc:	01 00 60 38 	li      r3,1
    10003d00:	20 00 21 38 	addi    r1,r1,32
    10003d04:	10 00 01 e8 	ld      r0,16(r1)
    10003d08:	a6 03 08 7c 	mtlr    r0
    10003d0c:	20 00 80 4e 	blr
    10003d10:	a6 02 08 7c 	mflr    r0
    10003d14:	10 00 01 f8 	std     r0,16(r1)
    10003d18:	e1 ff 21 f8 	stdu    r1,-32(r1)
    10003d1c:	d0 8f 4d e9 	ld      r10,-28720(r13)
    10003d20:	00 00 4a e9 	ld      r10,0(r10)
    10003d24:	00 00 2a 2c 	cmpdi   r10,0
    10003d28:	2c 00 82 40 	bne     10003d54 <wcrtomb+0x84>
    10003d2c:	ff ff 29 3d 	addis   r9,r9,-1
    10003d30:	80 20 29 39 	addi    r9,r9,8320
    10003d34:	7f 00 09 28 	cmplwi  r9,127
    10003d38:	c0 ff 81 40 	ble     10003cf8 <wcrtomb+0x28>
    10003d3c:	e1 ef ff 4b 	bl      10002d1c <__errno_location>
    10003d40:	00 00 00 60 	nop
    10003d44:	54 00 20 39 	li      r9,84
    10003d48:	00 00 23 91 	stw     r9,0(r3)
    10003d4c:	ff ff 60 38 	li      r3,-1
    10003d50:	b0 ff ff 4b 	b       10003d00 <wcrtomb+0x30>
    10003d54:	ff 07 09 28 	cmplwi  r9,2047
    10003d58:	2c 00 81 41 	bgt     10003d84 <wcrtomb+0xb4>
    10003d5c:	70 36 89 7c 	srawi   r9,r4,6
    10003d60:	ff ff 40 39 	li      r10,-1
    10003d64:	2c 30 49 79 	rldimi  r9,r10,6,32
    10003d68:	be 06 84 54 	clrlwi  r4,r4,26
    10003d6c:	00 00 23 99 	stb     r9,0(r3)
    10003d70:	ff ff 20 39 	li      r9,-1
    10003d74:	2c 38 24 79 	rldimi  r4,r9,7,32
    10003d78:	01 00 83 98 	stb     r4,1(r3)
    10003d7c:	02 00 60 38 	li      r3,2
    10003d80:	80 ff ff 4b 	b       10003d00 <wcrtomb+0x30>
    10003d84:	ff d7 09 28 	cmplwi  r9,55295
    10003d88:	14 00 81 40 	ble     10003d9c <wcrtomb+0xcc>
    10003d8c:	ff ff 29 3d 	addis   r9,r9,-1
    10003d90:	00 20 49 39 	addi    r10,r9,8192
    10003d94:	ff 1f 0a 28 	cmplwi  r10,8191
    10003d98:	38 00 81 41 	bgt     10003dd0 <wcrtomb+0x100>
    10003d9c:	70 66 89 7c 	srawi   r9,r4,12
    10003da0:	ff ff 40 39 	li      r10,-1
    10003da4:	2c 28 49 79 	rldimi  r9,r10,5,32
    10003da8:	00 00 23 99 	stb     r9,0(r3)
    10003dac:	be d6 89 54 	rlwinm  r9,r4,26,26,31
    10003db0:	be 06 84 54 	clrlwi  r4,r4,26
    10003db4:	2c 38 49 79 	rldimi  r9,r10,7,32
    10003db8:	01 00 23 99 	stb     r9,1(r3)
    10003dbc:	ff ff 20 39 	li      r9,-1
    10003dc0:	2c 38 24 79 	rldimi  r4,r9,7,32
    10003dc4:	02 00 83 98 	stb     r4,2(r3)
    10003dc8:	03 00 60 38 	li      r3,3
    10003dcc:	34 ff ff 4b 	b       10003d00 <wcrtomb+0x30>
    10003dd0:	10 00 40 3d 	lis     r10,16
    10003dd4:	40 50 09 7c 	cmplw   r9,r10
    10003dd8:	64 ff 80 40 	bge     10003d3c <wcrtomb+0x6c>
    10003ddc:	ff ff 40 39 	li      r10,-1
    10003de0:	70 96 89 7c 	srawi   r9,r4,18
    10003de4:	2c 20 49 79 	rldimi  r9,r10,4,32
    10003de8:	00 00 23 99 	stb     r9,0(r3)
    10003dec:	be a6 89 54 	rlwinm  r9,r4,20,26,31
    10003df0:	2c 38 49 79 	rldimi  r9,r10,7,32
    10003df4:	01 00 23 99 	stb     r9,1(r3)
    10003df8:	be d6 89 54 	rlwinm  r9,r4,26,26,31
    10003dfc:	be 06 84 54 	clrlwi  r4,r4,26
    10003e00:	2c 38 49 79 	rldimi  r9,r10,7,32
    10003e04:	02 00 23 99 	stb     r9,2(r3)
    10003e08:	ff ff 20 39 	li      r9,-1
    10003e0c:	2c 38 24 79 	rldimi  r4,r9,7,32
    10003e10:	03 00 83 98 	stb     r4,3(r3)
    10003e14:	04 00 60 38 	li      r3,4
    10003e18:	e8 fe ff 4b 	b       10003d00 <wcrtomb+0x30>
    10003e1c:	00 00 00 00 	.long 0x0
    10003e20:	00 00 00 01 	.long 0x1000000
    10003e24:	80 00 00 00 	.long 0x80

0000000010003e28 <close_file>:
    10003e28:	02 10 40 3c 	lis     r2,4098
    10003e2c:	00 7f 42 38 	addi    r2,r2,32512
    10003e30:	a6 02 08 7c 	mflr    r0
    10003e34:	f8 ff e1 fb 	std     r31,-8(r1)
    10003e38:	79 1b 7f 7c 	mr.     r31,r3
    10003e3c:	10 00 01 f8 	std     r0,16(r1)
    10003e40:	d1 ff 21 f8 	stdu    r1,-48(r1)
    10003e44:	78 00 82 41 	beq     10003ebc <close_file+0x94>
    10003e48:	8e 00 3f e9 	lwa     r9,140(r31)
    10003e4c:	00 00 09 2c 	cmpwi   r9,0
    10003e50:	0c 00 80 41 	blt     10003e5c <close_file+0x34>
    10003e54:	e1 f0 ff 4b 	bl      10002f34 <__lockfile+0x8>
    10003e58:	00 00 00 60 	nop
    10003e5c:	28 00 5f e9 	ld      r10,40(r31)
    10003e60:	38 00 3f e9 	ld      r9,56(r31)
    10003e64:	00 48 2a 7c 	cmpd    r10,r9
    10003e68:	24 00 82 41 	beq     10003e8c <close_file+0x64>
    10003e6c:	48 00 9f e9 	ld      r12,72(r31)
    10003e70:	18 00 41 f8 	std     r2,24(r1)
    10003e74:	00 00 a0 38 	li      r5,0
    10003e78:	00 00 80 38 	li      r4,0
    10003e7c:	78 fb e3 7f 	mr      r3,r31
    10003e80:	a6 03 89 7d 	mtctr   r12
    10003e84:	21 04 80 4e 	bctrl
    10003e88:	18 00 41 e8 	ld      r2,24(r1)
    10003e8c:	08 00 9f e8 	ld      r4,8(r31)
    10003e90:	10 00 3f e9 	ld      r9,16(r31)
    10003e94:	40 48 24 7c 	cmpld   r4,r9
    10003e98:	24 00 82 41 	beq     10003ebc <close_file+0x94>
    10003e9c:	50 00 9f e9 	ld      r12,80(r31)
    10003ea0:	01 00 a0 38 	li      r5,1
    10003ea4:	18 00 41 f8 	std     r2,24(r1)
    10003ea8:	50 20 89 7c 	subf    r4,r9,r4
    10003eac:	78 fb e3 7f 	mr      r3,r31
    10003eb0:	a6 03 89 7d 	mtctr   r12
    10003eb4:	21 04 80 4e 	bctrl
    10003eb8:	18 00 41 e8 	ld      r2,24(r1)
    10003ebc:	30 00 21 38 	addi    r1,r1,48
    10003ec0:	38 05 00 48 	b       100043f8 <_restgpr0_31>
    10003ec4:	00 00 00 00 	.long 0x0
    10003ec8:	00 00 00 01 	.long 0x1000000
    10003ecc:	80 01 00 00 	.long 0x180

0000000010003ed0 <__stdio_exit>:
    10003ed0:	02 10 40 3c 	lis     r2,4098
    10003ed4:	00 7f 42 38 	addi    r2,r2,32512
    10003ed8:	a6 02 08 7c 	mflr    r0
    10003edc:	f8 ff e1 fb 	std     r31,-8(r1)
    10003ee0:	10 00 01 f8 	std     r0,16(r1)
    10003ee4:	d1 ff 21 f8 	stdu    r1,-48(r1)
    10003ee8:	89 01 00 48 	bl      10004070 <__ofl_lock+0x8>
    10003eec:	00 00 00 60 	nop
    10003ef0:	00 00 e3 eb 	ld      r31,0(r3)
    10003ef4:	00 00 3f 2c 	cmpdi   r31,0
    10003ef8:	38 00 82 40 	bne     10003f30 <__stdio_exit+0x60>
    10003efc:	00 00 00 60 	nop
    10003f00:	60 88 62 e8 	ld      r3,-30624(r2)
    10003f04:	2d ff ff 4b 	bl      10003e30 <close_file+0x8>
    10003f08:	00 00 00 60 	nop
    10003f0c:	f0 81 62 e8 	ld      r3,-32272(r2)
    10003f10:	21 ff ff 4b 	bl      10003e30 <close_file+0x8>
    10003f14:	30 00 21 38 	addi    r1,r1,48
    10003f18:	00 00 00 60 	nop
    10003f1c:	60 88 62 e8 	ld      r3,-30624(r2)
    10003f20:	10 00 01 e8 	ld      r0,16(r1)
    10003f24:	f8 ff e1 eb 	ld      r31,-8(r1)
    10003f28:	a6 03 08 7c 	mtlr    r0
    10003f2c:	04 ff ff 4b 	b       10003e30 <close_file+0x8>
    10003f30:	78 fb e3 7f 	mr      r3,r31
    10003f34:	fd fe ff 4b 	bl      10003e30 <close_file+0x8>
    10003f38:	70 00 ff eb 	ld      r31,112(r31)
    10003f3c:	b8 ff ff 4b 	b       10003ef4 <__stdio_exit+0x24>
    10003f40:	00 00 00 00 	.long 0x0
    10003f44:	00 00 00 01 	.long 0x1000000
    10003f48:	80 01 00 00 	.long 0x180

0000000010003f4c <__stdio_write>:
    10003f4c:	02 10 40 3c 	lis     r2,4098
    10003f50:	00 7f 42 38 	addi    r2,r2,32512
    10003f54:	a6 02 08 7c 	mflr    r0
    10003f58:	28 00 23 e9 	ld      r9,40(r3)
    10003f5c:	59 04 00 48 	bl      100043b4 <_savegpr0_27>
    10003f60:	91 ff 21 f8 	stdu    r1,-112(r1)
    10003f64:	38 00 a3 eb 	ld      r29,56(r3)
    10003f68:	78 1b 7f 7c 	mr      r31,r3
    10003f6c:	78 2b bc 7c 	mr      r28,r5
    10003f70:	02 00 60 3b 	li      r27,2
    10003f74:	30 00 81 f8 	std     r4,48(r1)
    10003f78:	38 00 a1 f8 	std     r5,56(r1)
    10003f7c:	20 00 c1 3b 	addi    r30,r1,32
    10003f80:	20 00 a1 fb 	std     r29,32(r1)
    10003f84:	50 48 bd 7f 	subf    r29,r29,r9
    10003f88:	28 00 a1 fb 	std     r29,40(r1)
    10003f8c:	14 2a bd 7f 	add     r29,r29,r5
    10003f90:	7a 00 7f e8 	lwa     r3,120(r31)
    10003f94:	92 00 00 38 	li      r0,146
    10003f98:	78 f3 c4 7f 	mr      r4,r30
    10003f9c:	78 db 65 7f 	mr      r5,r27
    10003fa0:	02 00 00 44 	sc      
    10003fa4:	08 00 e3 40 	bns+    10003fac <__stdio_write+0x60>
    10003fa8:	d0 00 63 7c 	neg     r3,r3
    10003fac:	2d fc ff 4b 	bl      10003bd8 <__syscall_ret+0x8>
    10003fb0:	00 00 00 60 	nop
    10003fb4:	00 18 3d 7c 	cmpd    r29,r3
    10003fb8:	28 00 82 40 	bne     10003fe0 <__stdio_write+0x94>
    10003fbc:	58 00 3f e9 	ld      r9,88(r31)
    10003fc0:	60 00 5f e9 	ld      r10,96(r31)
    10003fc4:	14 52 49 7d 	add     r10,r9,r10
    10003fc8:	38 00 3f f9 	std     r9,56(r31)
    10003fcc:	28 00 3f f9 	std     r9,40(r31)
    10003fd0:	20 00 5f f9 	std     r10,32(r31)
    10003fd4:	70 00 21 38 	addi    r1,r1,112
    10003fd8:	78 e3 83 7f 	mr      r3,r28
    10003fdc:	fc 03 00 48 	b       100043d8 <_restgpr0_27>
    10003fe0:	00 00 23 2c 	cmpdi   r3,0
    10003fe4:	34 00 80 40 	bge     10004018 <__stdio_write+0xcc>
    10003fe8:	00 00 20 39 	li      r9,0
    10003fec:	02 00 1b 2c 	cmpwi   r27,2
    10003ff0:	20 00 3f f9 	std     r9,32(r31)
    10003ff4:	38 00 3f f9 	std     r9,56(r31)
    10003ff8:	28 00 3f f9 	std     r9,40(r31)
    10003ffc:	00 00 3f 81 	lwz     r9,0(r31)
    10004000:	20 00 29 61 	ori     r9,r9,32
    10004004:	00 00 3f 91 	stw     r9,0(r31)
    10004008:	4c 00 82 41 	beq     10004054 <__stdio_write+0x108>
    1000400c:	08 00 3e e9 	ld      r9,8(r30)
    10004010:	50 e0 89 7f 	subf    r28,r9,r28
    10004014:	c0 ff ff 4b 	b       10003fd4 <__stdio_write+0x88>
    10004018:	08 00 3e e9 	ld      r9,8(r30)
    1000401c:	50 e8 a3 7f 	subf    r29,r3,r29
    10004020:	40 48 23 7c 	cmpld   r3,r9
    10004024:	14 00 81 40 	ble     10004038 <__stdio_write+0xec>
    10004028:	ff ff 7b 3b 	addi    r27,r27,-1
    1000402c:	50 18 69 7c 	subf    r3,r9,r3
    10004030:	10 00 de 3b 	addi    r30,r30,16
    10004034:	b4 07 7b 7f 	extsw   r27,r27
    10004038:	00 00 3e e9 	ld      r9,0(r30)
    1000403c:	14 1a 29 7d 	add     r9,r9,r3
    10004040:	00 00 3e f9 	std     r9,0(r30)
    10004044:	08 00 3e e9 	ld      r9,8(r30)
    10004048:	50 48 63 7c 	subf    r3,r3,r9
    1000404c:	08 00 7e f8 	std     r3,8(r30)
    10004050:	40 ff ff 4b 	b       10003f90 <__stdio_write+0x44>
    10004054:	00 00 80 3b 	li      r28,0
    10004058:	7c ff ff 4b 	b       10003fd4 <__stdio_write+0x88>
    1000405c:	00 00 00 00 	.long 0x0
    10004060:	00 00 00 01 	.long 0x1000000
    10004064:	80 05 00 00 	.long 0x580

0000000010004068 <__ofl_lock>:
    10004068:	02 10 40 3c 	lis     r2,4098
    1000406c:	00 7f 42 38 	addi    r2,r2,32512
    10004070:	a6 02 08 7c 	mflr    r0
    10004074:	00 00 00 60 	nop
    10004078:	70 88 62 38 	addi    r3,r2,-30608
    1000407c:	10 00 01 f8 	std     r0,16(r1)
    10004080:	e1 ff 21 f8 	stdu    r1,-32(r1)
    10004084:	b1 00 00 48 	bl      10004134 <__lock+0x8>
    10004088:	00 00 00 60 	nop
    1000408c:	20 00 21 38 	addi    r1,r1,32
    10004090:	00 00 00 60 	nop
    10004094:	68 88 62 38 	addi    r3,r2,-30616
    10004098:	10 00 01 e8 	ld      r0,16(r1)
    1000409c:	a6 03 08 7c 	mtlr    r0
    100040a0:	20 00 80 4e 	blr
    100040a4:	00 00 00 00 	.long 0x0
    100040a8:	00 00 00 01 	.long 0x1000000
    100040ac:	80 00 00 00 	.long 0x80

00000000100040b0 <__ofl_unlock>:
    100040b0:	02 10 40 3c 	lis     r2,4098
    100040b4:	00 7f 42 38 	addi    r2,r2,32512
    100040b8:	a6 02 08 7c 	mflr    r0
    100040bc:	00 00 00 60 	nop
    100040c0:	70 88 62 38 	addi    r3,r2,-30608
    100040c4:	10 00 01 f8 	std     r0,16(r1)
    100040c8:	e1 ff 21 f8 	stdu    r1,-32(r1)
    100040cc:	b9 01 00 48 	bl      10004284 <__unlock>
    100040d0:	00 00 00 60 	nop
    100040d4:	20 00 21 38 	addi    r1,r1,32
    100040d8:	10 00 01 e8 	ld      r0,16(r1)
    100040dc:	a6 03 08 7c 	mtlr    r0
    100040e0:	20 00 80 4e 	blr
    100040e4:	00 00 00 00 	.long 0x0
    100040e8:	00 00 00 01 	.long 0x1000000
    100040ec:	80 00 00 00 	.long 0x80

00000000100040f0 <a_cas>:
    100040f0:	78 1b 69 7c 	mr      r9,r3
    100040f4:	ac 04 00 7c 	hwsync
    100040f8:	28 48 40 7d 	lwarx   r10,0,r9
    100040fc:	00 50 04 7c 	cmpw    r4,r10
    10004100:	b4 07 43 7d 	extsw   r3,r10
    10004104:	14 00 82 40 	bne     10004118 <a_cas+0x28>
    10004108:	2d 49 a0 7c 	stwcx.  r5,0,r9
    1000410c:	26 00 40 7d 	mfcr    r10
    10004110:	00 20 4a 75 	andis.  r10,r10,8192
    10004114:	e4 ff 82 41 	beq     100040f8 <a_cas+0x8>
    10004118:	2c 01 00 4c 	isync
    1000411c:	20 00 80 4e 	blr
	...

000000001000412c <__lock>:
    1000412c:	02 10 40 3c 	lis     r2,4098
    10004130:	00 7f 42 38 	addi    r2,r2,32512
    10004134:	a6 02 08 7c 	mflr    r0
    10004138:	81 02 00 48 	bl      100043b8 <_savegpr0_28>
    1000413c:	00 00 00 60 	nop
    10004140:	c1 ff 21 f8 	stdu    r1,-64(r1)
    10004144:	53 82 22 89 	lbz     r9,-32173(r2)
    10004148:	75 07 3f 7d 	extsb.  r31,r9
    1000414c:	24 01 82 41 	beq     10004270 <__lock+0x144>
    10004150:	00 80 a0 3c 	lis     r5,-32768
    10004154:	00 00 80 38 	li      r4,0
    10004158:	01 00 a5 60 	ori     r5,r5,1
    1000415c:	78 1b 7e 7c 	mr      r30,r3
    10004160:	91 ff ff 4b 	bl      100040f0 <a_cas>
    10004164:	00 00 1f 2c 	cmpwi   r31,0
    10004168:	0c 00 80 40 	bge     10004174 <__lock+0x48>
    1000416c:	00 00 20 39 	li      r9,0
    10004170:	53 82 22 99 	stb     r9,-32173(r2)
    10004174:	00 00 23 2c 	cmpdi   r3,0
    10004178:	f8 00 82 41 	beq     10004270 <__lock+0x144>
    1000417c:	ff 7f 80 3f 	lis     r28,32767
    10004180:	0a 00 a0 3b 	li      r29,10
    10004184:	ff ff 9c 63 	ori     r28,r28,65535
    10004188:	00 00 03 2c 	cmpwi   r3,0
    1000418c:	78 1b 7f 7c 	mr      r31,r3
    10004190:	0c 00 80 40 	bge     1000419c <__lock+0x70>
    10004194:	14 1a fc 7f 	add     r31,r28,r3
    10004198:	b4 07 ff 7f 	extsw   r31,r31
    1000419c:	00 80 bf 3c 	addis   r5,r31,-32768
    100041a0:	78 fb e4 7f 	mr      r4,r31
    100041a4:	01 00 a5 38 	addi    r5,r5,1
    100041a8:	78 f3 c3 7f 	mr      r3,r30
    100041ac:	b4 07 a5 7c 	extsw   r5,r5
    100041b0:	41 ff ff 4b 	bl      100040f0 <a_cas>
    100041b4:	00 18 1f 7c 	cmpw    r31,r3
    100041b8:	b8 00 82 41 	beq     10004270 <__lock+0x144>
    100041bc:	ff ff bd 3b 	addi    r29,r29,-1
    100041c0:	21 00 bd 7b 	clrldi. r29,r29,32
    100041c4:	c4 ff 82 40 	bne     10004188 <__lock+0x5c>
    100041c8:	ac 04 00 7c 	hwsync
    100041cc:	28 f0 20 7d 	lwarx   r9,0,r30
    100041d0:	01 00 29 39 	addi    r9,r9,1
    100041d4:	b4 07 3f 7d 	extsw   r31,r9
    100041d8:	2d f1 20 7d 	stwcx.  r9,0,r30
    100041dc:	26 00 20 7d 	mfcr    r9
    100041e0:	00 20 29 75 	andis.  r9,r9,8192
    100041e4:	e8 ff 82 41 	beq     100041cc <__lock+0xa0>
    100041e8:	2c 01 00 4c 	isync
    100041ec:	ff 7f 80 3f 	lis     r28,32767
    100041f0:	ff ff 9c 63 	ori     r28,r28,65535
    100041f4:	00 00 1f 2c 	cmpwi   r31,0
    100041f8:	78 fb fd 7f 	mr      r29,r31
    100041fc:	54 00 80 40 	bge     10004250 <__lock+0x124>
    10004200:	dd 00 00 38 	li      r0,221
    10004204:	78 f3 c3 7f 	mr      r3,r30
    10004208:	80 00 80 38 	li      r4,128
    1000420c:	78 fb e5 7f 	mr      r5,r31
    10004210:	00 00 c0 38 	li      r6,0
    10004214:	02 00 00 44 	sc      
    10004218:	08 00 e3 40 	bns+    10004220 <__lock+0xf4>
    1000421c:	d0 00 63 7c 	neg     r3,r3
    10004220:	da ff 23 2c 	cmpdi   r3,-38
    10004224:	24 00 82 40 	bne     10004248 <__lock+0x11c>
    10004228:	dd 00 00 38 	li      r0,221
    1000422c:	78 f3 c3 7f 	mr      r3,r30
    10004230:	00 00 80 38 	li      r4,0
    10004234:	78 fb e5 7f 	mr      r5,r31
    10004238:	00 00 c0 38 	li      r6,0
    1000423c:	02 00 00 44 	sc      
    10004240:	08 00 e3 40 	bns+    10004248 <__lock+0x11c>
    10004244:	d0 00 63 7c 	neg     r3,r3
    10004248:	14 fa fc 7f 	add     r31,r28,r31
    1000424c:	b4 07 fd 7f 	extsw   r29,r31
    10004250:	00 80 bd 3c 	addis   r5,r29,-32768
    10004254:	78 eb a4 7f 	mr      r4,r29
    10004258:	b4 07 a5 7c 	extsw   r5,r5
    1000425c:	78 f3 c3 7f 	mr      r3,r30
    10004260:	91 fe ff 4b 	bl      100040f0 <a_cas>
    10004264:	00 18 1d 7c 	cmpw    r29,r3
    10004268:	78 1b 7f 7c 	mr      r31,r3
    1000426c:	88 ff 82 40 	bne     100041f4 <__lock+0xc8>
    10004270:	40 00 21 38 	addi    r1,r1,64
    10004274:	68 01 00 48 	b       100043dc <_restgpr0_28>
    10004278:	00 00 00 00 	.long 0x0
    1000427c:	00 00 00 01 	.long 0x1000000
    10004280:	80 04 00 00 	.long 0x480

0000000010004284 <__unlock>:
    10004284:	02 00 23 e9 	lwa     r9,0(r3)
    10004288:	00 00 09 2c 	cmpwi   r9,0
    1000428c:	20 00 80 4c 	bgelr   
    10004290:	f8 ff e1 fb 	std     r31,-8(r1)
    10004294:	78 1b 7f 7c 	mr      r31,r3
    10004298:	ac 04 00 7c 	hwsync
    1000429c:	ff 7f 00 3d 	lis     r8,32767
    100042a0:	ff ff 08 61 	ori     r8,r8,65535
    100042a4:	28 f8 20 7d 	lwarx   r9,0,r31
    100042a8:	b4 07 2a 7d 	extsw   r10,r9
    100042ac:	14 4a 28 7d 	add     r9,r8,r9
    100042b0:	2d f9 20 7d 	stwcx.  r9,0,r31
    100042b4:	26 00 20 7d 	mfcr    r9
    100042b8:	00 20 29 75 	andis.  r9,r9,8192
    100042bc:	e8 ff 82 41 	beq     100042a4 <__unlock+0x20>
    100042c0:	2c 01 00 4c 	isync
    100042c4:	00 80 49 6d 	xoris   r9,r10,32768
    100042c8:	01 00 09 2c 	cmpwi   r9,1
    100042cc:	44 00 82 41 	beq     10004310 <__unlock+0x8c>
    100042d0:	dd 00 00 38 	li      r0,221
    100042d4:	78 fb e3 7f 	mr      r3,r31
    100042d8:	81 00 80 38 	li      r4,129
    100042dc:	01 00 a0 38 	li      r5,1
    100042e0:	02 00 00 44 	sc      
    100042e4:	08 00 e3 40 	bns+    100042ec <__unlock+0x68>
    100042e8:	d0 00 63 7c 	neg     r3,r3
    100042ec:	da ff 23 2c 	cmpdi   r3,-38
    100042f0:	20 00 82 40 	bne     10004310 <__unlock+0x8c>
    100042f4:	dd 00 00 38 	li      r0,221
    100042f8:	78 fb e3 7f 	mr      r3,r31
    100042fc:	01 00 80 38 	li      r4,1
    10004300:	01 00 a0 38 	li      r5,1
    10004304:	02 00 00 44 	sc      
    10004308:	08 00 e3 40 	bns+    10004310 <__unlock+0x8c>
    1000430c:	d0 00 63 7c 	neg     r3,r3
    10004310:	f8 ff e1 eb 	ld      r31,-8(r1)
    10004314:	20 00 80 4e 	blr
	...
    10004320:	00 01 00 00 	.long 0x100
    10004324:	00 00 00 60 	nop
    10004328:	00 00 00 60 	nop
    1000432c:	00 00 00 60 	nop
    10004330:	00 00 00 60 	nop
    10004334:	00 00 00 60 	nop
    10004338:	00 00 00 60 	nop
    1000433c:	00 00 00 60 	nop

0000000010004340 <__do_global_ctors_aux>:
    10004340:	02 10 40 3c 	lis     r2,4098
    10004344:	00 7f 42 38 	addi    r2,r2,32512
    10004348:	ff ff 82 3d 	addis   r12,r2,-1
    1000434c:	e0 7f 8c e9 	ld      r12,32736(r12)
    10004350:	f8 ff e1 fb 	std     r31,-8(r1)
    10004354:	ff ff e2 3f 	addis   r31,r2,-1
    10004358:	d1 ff 21 f8 	stdu    r1,-48(r1)
    1000435c:	e8 7f ff 3b 	addi    r31,r31,32744
    10004360:	ff ff 2c 2c 	cmpdi   r12,-1
    10004364:	3c 00 82 41 	beq     100043a0 <__do_global_ctors_aux+0x60>
    10004368:	a6 02 08 7c 	mflr    r0
    1000436c:	18 00 41 f8 	std     r2,24(r1)
    10004370:	f8 ff ff 3b 	addi    r31,r31,-8
    10004374:	40 00 01 f8 	std     r0,64(r1)
    10004378:	00 00 00 60 	nop
    1000437c:	00 00 42 60 	ori     r2,r2,0
    10004380:	a6 03 89 7d 	mtctr   r12
    10004384:	21 04 80 4e 	bctrl
    10004388:	18 00 41 e8 	ld      r2,24(r1)
    1000438c:	f9 ff 9f e9 	ldu     r12,-8(r31)
    10004390:	ff ff 2c 2c 	cmpdi   r12,-1
    10004394:	ec ff 82 40 	bne     10004380 <__do_global_ctors_aux+0x40>
    10004398:	40 00 01 e8 	ld      r0,64(r1)
    1000439c:	a6 03 08 7c 	mtlr    r0
    100043a0:	30 00 21 38 	addi    r1,r1,48
    100043a4:	f8 ff e1 eb 	ld      r31,-8(r1)
    100043a8:	20 00 80 4e 	blr

00000000100043ac <_savegpr0_25>:
    100043ac:	c8 ff 21 fb 	std     r25,-56(r1)

00000000100043b0 <_savegpr0_26>:
    100043b0:	d0 ff 41 fb 	std     r26,-48(r1)

00000000100043b4 <_savegpr0_27>:
    100043b4:	d8 ff 61 fb 	std     r27,-40(r1)

00000000100043b8 <_savegpr0_28>:
    100043b8:	e0 ff 81 fb 	std     r28,-32(r1)

00000000100043bc <_savegpr0_29>:
    100043bc:	e8 ff a1 fb 	std     r29,-24(r1)

00000000100043c0 <_savegpr0_30>:
    100043c0:	f0 ff c1 fb 	std     r30,-16(r1)

00000000100043c4 <_savegpr0_31>:
    100043c4:	f8 ff e1 fb 	std     r31,-8(r1)
    100043c8:	10 00 01 f8 	std     r0,16(r1)
    100043cc:	20 00 80 4e 	blr

00000000100043d0 <_restgpr0_25>:
    100043d0:	c8 ff 21 eb 	ld      r25,-56(r1)

00000000100043d4 <_restgpr0_26>:
    100043d4:	d0 ff 41 eb 	ld      r26,-48(r1)

00000000100043d8 <_restgpr0_27>:
    100043d8:	d8 ff 61 eb 	ld      r27,-40(r1)

00000000100043dc <_restgpr0_28>:
    100043dc:	e0 ff 81 eb 	ld      r28,-32(r1)

00000000100043e0 <_restgpr0_29>:
    100043e0:	10 00 01 e8 	ld      r0,16(r1)
    100043e4:	e8 ff a1 eb 	ld      r29,-24(r1)
    100043e8:	a6 03 08 7c 	mtlr    r0
    100043ec:	f0 ff c1 eb 	ld      r30,-16(r1)
    100043f0:	f8 ff e1 eb 	ld      r31,-8(r1)
    100043f4:	20 00 80 4e 	blr

00000000100043f8 <_restgpr0_31>:
    100043f8:	10 00 01 e8 	ld      r0,16(r1)
    100043fc:	f8 ff e1 eb 	ld      r31,-8(r1)
    10004400:	a6 03 08 7c 	mtlr    r0
    10004404:	20 00 80 4e 	blr

0000000010004408 <_savegpr1_14>:
    10004408:	70 ff cc f9 	std     r14,-144(r12)

000000001000440c <_savegpr1_15>:
    1000440c:	78 ff ec f9 	std     r15,-136(r12)

0000000010004410 <_savegpr1_16>:
    10004410:	80 ff 0c fa 	std     r16,-128(r12)

0000000010004414 <_savegpr1_17>:
    10004414:	88 ff 2c fa 	std     r17,-120(r12)

0000000010004418 <_savegpr1_18>:
    10004418:	90 ff 4c fa 	std     r18,-112(r12)

000000001000441c <_savegpr1_19>:
    1000441c:	98 ff 6c fa 	std     r19,-104(r12)

0000000010004420 <_savegpr1_20>:
    10004420:	a0 ff 8c fa 	std     r20,-96(r12)

0000000010004424 <_savegpr1_21>:
    10004424:	a8 ff ac fa 	std     r21,-88(r12)

0000000010004428 <_savegpr1_22>:
    10004428:	b0 ff cc fa 	std     r22,-80(r12)

000000001000442c <_savegpr1_23>:
    1000442c:	b8 ff ec fa 	std     r23,-72(r12)

0000000010004430 <_savegpr1_24>:
    10004430:	c0 ff 0c fb 	std     r24,-64(r12)

0000000010004434 <_savegpr1_25>:
    10004434:	c8 ff 2c fb 	std     r25,-56(r12)

0000000010004438 <_savegpr1_26>:
    10004438:	d0 ff 4c fb 	std     r26,-48(r12)

000000001000443c <_savegpr1_27>:
    1000443c:	d8 ff 6c fb 	std     r27,-40(r12)

0000000010004440 <_savegpr1_28>:
    10004440:	e0 ff 8c fb 	std     r28,-32(r12)

0000000010004444 <_savegpr1_29>:
    10004444:	e8 ff ac fb 	std     r29,-24(r12)

0000000010004448 <_savegpr1_30>:
    10004448:	f0 ff cc fb 	std     r30,-16(r12)

000000001000444c <_savegpr1_31>:
    1000444c:	f8 ff ec fb 	std     r31,-8(r12)
    10004450:	20 00 80 4e 	blr

0000000010004454 <_restgpr1_14>:
    10004454:	70 ff cc e9 	ld      r14,-144(r12)

0000000010004458 <_restgpr1_15>:
    10004458:	78 ff ec e9 	ld      r15,-136(r12)

000000001000445c <_restgpr1_16>:
    1000445c:	80 ff 0c ea 	ld      r16,-128(r12)

0000000010004460 <_restgpr1_17>:
    10004460:	88 ff 2c ea 	ld      r17,-120(r12)

0000000010004464 <_restgpr1_18>:
    10004464:	90 ff 4c ea 	ld      r18,-112(r12)

0000000010004468 <_restgpr1_19>:
    10004468:	98 ff 6c ea 	ld      r19,-104(r12)

000000001000446c <_restgpr1_20>:
    1000446c:	a0 ff 8c ea 	ld      r20,-96(r12)

0000000010004470 <_restgpr1_21>:
    10004470:	a8 ff ac ea 	ld      r21,-88(r12)

0000000010004474 <_restgpr1_22>:
    10004474:	b0 ff cc ea 	ld      r22,-80(r12)

0000000010004478 <_restgpr1_23>:
    10004478:	b8 ff ec ea 	ld      r23,-72(r12)

000000001000447c <_restgpr1_24>:
    1000447c:	c0 ff 0c eb 	ld      r24,-64(r12)

0000000010004480 <_restgpr1_25>:
    10004480:	c8 ff 2c eb 	ld      r25,-56(r12)

0000000010004484 <_restgpr1_26>:
    10004484:	d0 ff 4c eb 	ld      r26,-48(r12)

0000000010004488 <_restgpr1_27>:
    10004488:	d8 ff 6c eb 	ld      r27,-40(r12)

000000001000448c <_restgpr1_28>:
    1000448c:	e0 ff 8c eb 	ld      r28,-32(r12)

0000000010004490 <_restgpr1_29>:
    10004490:	e8 ff ac eb 	ld      r29,-24(r12)

0000000010004494 <_restgpr1_30>:
    10004494:	f0 ff cc eb 	ld      r30,-16(r12)

0000000010004498 <_restgpr1_31>:
    10004498:	f8 ff ec eb 	ld      r31,-8(r12)
    1000449c:	20 00 80 4e 	blr

00000000100044a0 <_restfpr_30>:
    100044a0:	f0 ff c1 cb 	lfd     f30,-16(r1)

00000000100044a4 <_restfpr_31>:
    100044a4:	10 00 01 e8 	ld      r0,16(r1)
    100044a8:	f8 ff e1 cb 	lfd     f31,-8(r1)
    100044ac:	a6 03 08 7c 	mtlr    r0
    100044b0:	20 00 80 4e 	blr

Disassembly of section .fini:

00000000100044b4 <_fini>:
    100044b4:	02 10 40 3c 	lis     r2,4098
    100044b8:	00 7f 42 38 	addi    r2,r2,32512
    100044bc:	a6 02 08 7c 	mflr    r0
    100044c0:	10 00 01 f8 	std     r0,16(r1)
    100044c4:	e1 ff 21 f8 	stdu    r1,-32(r1)
    100044c8:	51 be ff 4b 	bl      10000318 <__do_global_dtors_aux+0x8>
    100044cc:	00 00 00 60 	nop
    100044d0:	20 00 21 38 	addi    r1,r1,32
    100044d4:	10 00 01 e8 	ld      r0,16(r1)
    100044d8:	a6 03 08 7c 	mtlr    r0
    100044dc:	20 00 80 4e 	blr
