
../../out/mips/2-muli-branch.elf:     file format elf32-tradbigmips


Disassembly of section .init:

00400108 <_init>:
  400108:	27bdffe0 	addiu	sp,sp,-32
  40010c:	afbc0018 	sw	gp,24(sp)
  400110:	afbf001c 	sw	ra,28(sp)
  400114:	04110001 	bal	40011c <_init+0x14>
  400118:	00000000 	nop
  40011c:	3c1c0042 	lui	gp,0x42
  400120:	279cf1b0 	addiu	gp,gp,-3664
  400124:	8f998018 	lw	t9,-32744(gp)
  400128:	00000000 	nop
  40012c:	273903f4 	addiu	t9,t9,1012
  400130:	00000000 	nop
  400134:	0320f809 	jalr	t9
  400138:	00000000 	nop
  40013c:	04110001 	bal	400144 <_init+0x3c>
  400140:	00000000 	nop
  400144:	3c1c0042 	lui	gp,0x42
  400148:	279cf1b0 	addiu	gp,gp,-3664
  40014c:	8f998018 	lw	t9,-32744(gp)
  400150:	00000000 	nop
  400154:	27396280 	addiu	t9,t9,25216
  400158:	00000000 	nop
  40015c:	0320f809 	jalr	t9
  400160:	00000000 	nop
  400164:	8fbc0018 	lw	gp,24(sp)
  400168:	8fbf001c 	lw	ra,28(sp)
  40016c:	03e00008 	jr	ra
  400170:	27bd0020 	addiu	sp,sp,32

Disassembly of section .text:

00400180 <exit>:
  400180:	3c1c0002 	lui	gp,0x2
  400184:	279cf030 	addiu	gp,gp,-4048
  400188:	0399e021 	addu	gp,gp,t9
  40018c:	27bdffe0 	addiu	sp,sp,-32
  400190:	8f998024 	lw	t9,-32732(gp)
  400194:	afa40020 	sw	a0,32(sp)
  400198:	afbf001c 	sw	ra,28(sp)
  40019c:	afbc0010 	sw	gp,16(sp)
  4001a0:	04110237 	bal	400a80 <__funcs_on_exit>
  4001a4:	00000000 	nop
  4001a8:	8fbc0010 	lw	gp,16(sp)
  4001ac:	00000000 	nop
  4001b0:	8f998028 	lw	t9,-32728(gp)
  4001b4:	00000000 	nop
  4001b8:	04110233 	bal	400a88 <__libc_exit_fini>
  4001bc:	00000000 	nop
  4001c0:	8fbc0010 	lw	gp,16(sp)
  4001c4:	00000000 	nop
  4001c8:	8f99802c 	lw	t9,-32724(gp)
  4001cc:	00000000 	nop
  4001d0:	04111119 	bal	404638 <__stdio_exit>
  4001d4:	00000000 	nop
  4001d8:	8fbc0010 	lw	gp,16(sp)
  4001dc:	8fa40020 	lw	a0,32(sp)
  4001e0:	8f998030 	lw	t9,-32720(gp)
  4001e4:	00000000 	nop
  4001e8:	04110ceb 	bal	403598 <_Exit>
  4001ec:	00000000 	nop

004001f0 <__start>:
  4001f0:	04110004 	bal	400204 <__start+0x14>
  4001f4:	0000f025 	move	s8,zero
  4001f8:	fffe1048 	0xfffe1048
  4001fc:	fffe1080 	0xfffe1080
  400200:	ffbe0e50 	0xffbe0e50
  400204:	8ffc0000 	lw	gp,0(ra)
  400208:	03fce023 	subu	gp,ra,gp
  40020c:	03a02025 	move	a0,sp
  400210:	8fe50008 	lw	a1,8(ra)
  400214:	00bc2821 	addu	a1,a1,gp
  400218:	8ff90004 	lw	t9,4(ra)
  40021c:	033cc821 	addu	t9,t9,gp
  400220:	2401fff8 	li	at,-8
  400224:	03a1e824 	and	sp,sp,at
  400228:	0320f809 	jalr	t9
  40022c:	27bdfff0 	addiu	sp,sp,-16

00400230 <_start_c>:
  400230:	3c1c0042 	lui	gp,0x42
  400234:	279cf1b0 	addiu	gp,gp,-3664
  400238:	8f828020 	lw	v0,-32736(gp)
  40023c:	27bdffd8 	addiu	sp,sp,-40
  400240:	afa00014 	sw	zero,20(sp)
  400244:	afa20010 	sw	v0,16(sp)
  400248:	8c850000 	lw	a1,0(a0)
  40024c:	8f998034 	lw	t9,-32716(gp)
  400250:	24860004 	addiu	a2,a0,4
  400254:	8f878038 	lw	a3,-32712(gp)
  400258:	8f84803c 	lw	a0,-32708(gp)
  40025c:	afbf0024 	sw	ra,36(sp)
  400260:	afbc0018 	sw	gp,24(sp)
  400264:	041101e7 	bal	400a04 <__libc_start_main>
  400268:	00000000 	nop
  40026c:	8fbf0024 	lw	ra,36(sp)
  400270:	00000000 	nop
  400274:	03e00008 	jr	ra
  400278:	27bd0028 	addiu	sp,sp,40
  40027c:	00000000 	nop

00400280 <deregister_tm_clones>:
  400280:	3c040041 	lui	a0,0x41
  400284:	3c020041 	lui	v0,0x41
  400288:	248471c0 	addiu	a0,a0,29120
  40028c:	244271c0 	addiu	v0,v0,29120
  400290:	10440008 	beq	v0,a0,4002b4 <deregister_tm_clones+0x34>
  400294:	3c1c0042 	lui	gp,0x42
  400298:	279cf1b0 	addiu	gp,gp,-3664
  40029c:	8f998130 	lw	t9,-32464(gp)
  4002a0:	00000000 	nop
  4002a4:	13200003 	beqz	t9,4002b4 <deregister_tm_clones+0x34>
  4002a8:	00000000 	nop
  4002ac:	03200008 	jr	t9
  4002b0:	00000000 	nop
  4002b4:	03e00008 	jr	ra
  4002b8:	00000000 	nop

004002bc <register_tm_clones>:
  4002bc:	3c040041 	lui	a0,0x41
  4002c0:	3c020041 	lui	v0,0x41
  4002c4:	248471c0 	addiu	a0,a0,29120
  4002c8:	244571c0 	addiu	a1,v0,29120
  4002cc:	00a42823 	subu	a1,a1,a0
  4002d0:	00051083 	sra	v0,a1,0x2
  4002d4:	00052fc2 	srl	a1,a1,0x1f
  4002d8:	00a22821 	addu	a1,a1,v0
  4002dc:	00052843 	sra	a1,a1,0x1
  4002e0:	10a00008 	beqz	a1,400304 <register_tm_clones+0x48>
  4002e4:	3c1c0042 	lui	gp,0x42
  4002e8:	279cf1b0 	addiu	gp,gp,-3664
  4002ec:	8f998134 	lw	t9,-32460(gp)
  4002f0:	00000000 	nop
  4002f4:	13200003 	beqz	t9,400304 <register_tm_clones+0x48>
  4002f8:	00000000 	nop
  4002fc:	03200008 	jr	t9
  400300:	00000000 	nop
  400304:	03e00008 	jr	ra
  400308:	00000000 	nop

0040030c <__do_global_dtors_aux>:
  40030c:	27bdffd0 	addiu	sp,sp,-48
  400310:	afb30028 	sw	s3,40(sp)
  400314:	3c130041 	lui	s3,0x41
  400318:	3c1c0042 	lui	gp,0x42
  40031c:	926272f0 	lbu	v0,29424(s3)
  400320:	279cf1b0 	addiu	gp,gp,-3664
  400324:	afbf002c 	sw	ra,44(sp)
  400328:	afb20024 	sw	s2,36(sp)
  40032c:	afb10020 	sw	s1,32(sp)
  400330:	afb0001c 	sw	s0,28(sp)
  400334:	14400028 	bnez	v0,4003d8 <__do_global_dtors_aux+0xcc>
  400338:	afbc0010 	sw	gp,16(sp)
  40033c:	3c110041 	lui	s1,0x41
  400340:	3c020041 	lui	v0,0x41
  400344:	24427100 	addiu	v0,v0,28928
  400348:	26317104 	addiu	s1,s1,28932
  40034c:	02228823 	subu	s1,s1,v0
  400350:	3c100041 	lui	s0,0x41
  400354:	8e0272f4 	lw	v0,29428(s0)
  400358:	00118883 	sra	s1,s1,0x2
  40035c:	2631ffff 	addiu	s1,s1,-1
  400360:	3c040041 	lui	a0,0x41
  400364:	0051182b 	sltu	v1,v0,s1
  400368:	24927100 	addiu	s2,a0,28928
  40036c:	1060000c 	beqz	v1,4003a0 <__do_global_dtors_aux+0x94>
  400370:	24420001 	addiu	v0,v0,1
  400374:	00021880 	sll	v1,v0,0x2
  400378:	02431821 	addu	v1,s2,v1
  40037c:	8c790000 	lw	t9,0(v1)
  400380:	00000000 	nop
  400384:	0320f809 	jalr	t9
  400388:	ae0272f4 	sw	v0,29428(s0)
  40038c:	8e0272f4 	lw	v0,29428(s0)
  400390:	00000000 	nop
  400394:	0051182b 	sltu	v1,v0,s1
  400398:	1460fff6 	bnez	v1,400374 <__do_global_dtors_aux+0x68>
  40039c:	24420001 	addiu	v0,v0,1
  4003a0:	0c1000a0 	jal	400280 <deregister_tm_clones>
  4003a4:	00000000 	nop
  4003a8:	8fbc0010 	lw	gp,16(sp)
  4003ac:	00000000 	nop
  4003b0:	8f828138 	lw	v0,-32456(gp)
  4003b4:	00000000 	nop
  4003b8:	10400006 	beqz	v0,4003d4 <__do_global_dtors_aux+0xc8>
  4003bc:	24020001 	li	v0,1
  4003c0:	8f998138 	lw	t9,-32456(gp)
  4003c4:	3c040040 	lui	a0,0x40
  4003c8:	0320f809 	jalr	t9
  4003cc:	24847090 	addiu	a0,a0,28816
  4003d0:	24020001 	li	v0,1
  4003d4:	a26272f0 	sb	v0,29424(s3)
  4003d8:	8fbf002c 	lw	ra,44(sp)
  4003dc:	8fb30028 	lw	s3,40(sp)
  4003e0:	8fb20024 	lw	s2,36(sp)
  4003e4:	8fb10020 	lw	s1,32(sp)
  4003e8:	8fb0001c 	lw	s0,28(sp)
  4003ec:	03e00008 	jr	ra
  4003f0:	27bd0030 	addiu	sp,sp,48

004003f4 <frame_dummy>:
  4003f4:	3c1c0042 	lui	gp,0x42
  4003f8:	279cf1b0 	addiu	gp,gp,-3664
  4003fc:	8f82812c 	lw	v0,-32468(gp)
  400400:	27bdffe0 	addiu	sp,sp,-32
  400404:	afbf001c 	sw	ra,28(sp)
  400408:	10400008 	beqz	v0,40042c <frame_dummy+0x38>
  40040c:	afbc0010 	sw	gp,16(sp)
  400410:	8f99812c 	lw	t9,-32468(gp)
  400414:	3c050041 	lui	a1,0x41
  400418:	3c040040 	lui	a0,0x40
  40041c:	24a572f8 	addiu	a1,a1,29432
  400420:	0320f809 	jalr	t9
  400424:	24847090 	addiu	a0,a0,28816
  400428:	8fbc0010 	lw	gp,16(sp)
  40042c:	8fbf001c 	lw	ra,28(sp)
  400430:	081000af 	j	4002bc <register_tm_clones>
  400434:	27bd0020 	addiu	sp,sp,32
	...

00400440 <add>:
  400440:	27bdfff8 	addiu	sp,sp,-8
  400444:	afbe0004 	sw	s8,4(sp)
  400448:	03a0f025 	move	s8,sp
  40044c:	afc40008 	sw	a0,8(s8)
  400450:	afc5000c 	sw	a1,12(s8)
  400454:	8fc30008 	lw	v1,8(s8)
  400458:	8fc2000c 	lw	v0,12(s8)
  40045c:	00000000 	nop
  400460:	00621021 	addu	v0,v1,v0
  400464:	03c0e825 	move	sp,s8
  400468:	8fbe0004 	lw	s8,4(sp)
  40046c:	27bd0008 	addiu	sp,sp,8
  400470:	03e00008 	jr	ra
  400474:	00000000 	nop

00400478 <sub>:
  400478:	27bdfff8 	addiu	sp,sp,-8
  40047c:	afbe0004 	sw	s8,4(sp)
  400480:	03a0f025 	move	s8,sp
  400484:	afc40008 	sw	a0,8(s8)
  400488:	afc5000c 	sw	a1,12(s8)
  40048c:	8fc30008 	lw	v1,8(s8)
  400490:	8fc2000c 	lw	v0,12(s8)
  400494:	00000000 	nop
  400498:	00621023 	subu	v0,v1,v0
  40049c:	03c0e825 	move	sp,s8
  4004a0:	8fbe0004 	lw	s8,4(sp)
  4004a4:	27bd0008 	addiu	sp,sp,8
  4004a8:	03e00008 	jr	ra
  4004ac:	00000000 	nop

004004b0 <mul>:
  4004b0:	27bdfff8 	addiu	sp,sp,-8
  4004b4:	afbe0004 	sw	s8,4(sp)
  4004b8:	03a0f025 	move	s8,sp
  4004bc:	afc40008 	sw	a0,8(s8)
  4004c0:	afc5000c 	sw	a1,12(s8)
  4004c4:	8fc30008 	lw	v1,8(s8)
  4004c8:	8fc2000c 	lw	v0,12(s8)
  4004cc:	00000000 	nop
  4004d0:	00620018 	mult	v1,v0
  4004d4:	00001012 	mflo	v0
  4004d8:	03c0e825 	move	sp,s8
  4004dc:	8fbe0004 	lw	s8,4(sp)
  4004e0:	27bd0008 	addiu	sp,sp,8
  4004e4:	03e00008 	jr	ra
  4004e8:	00000000 	nop

004004ec <div>:
  4004ec:	27bdfff8 	addiu	sp,sp,-8
  4004f0:	afbe0004 	sw	s8,4(sp)
  4004f4:	03a0f025 	move	s8,sp
  4004f8:	afc40008 	sw	a0,8(s8)
  4004fc:	afc5000c 	sw	a1,12(s8)
  400500:	8fc30008 	lw	v1,8(s8)
  400504:	8fc2000c 	lw	v0,12(s8)
  400508:	00000000 	nop
  40050c:	0062001a 	div	zero,v1,v0
  400510:	14400002 	bnez	v0,40051c <div+0x30>
  400514:	00000000 	nop
  400518:	0007000d 	break	0x7
  40051c:	00001010 	mfhi	v0
  400520:	00001012 	mflo	v0
  400524:	03c0e825 	move	sp,s8
  400528:	8fbe0004 	lw	s8,4(sp)
  40052c:	27bd0008 	addiu	sp,sp,8
  400530:	03e00008 	jr	ra
  400534:	00000000 	nop

00400538 <main>:
  400538:	27bdffd0 	addiu	sp,sp,-48
  40053c:	afbf002c 	sw	ra,44(sp)
  400540:	afbe0028 	sw	s8,40(sp)
  400544:	03a0f025 	move	s8,sp
  400548:	3c1c0042 	lui	gp,0x42
  40054c:	279cf1b0 	addiu	gp,gp,-3664
  400550:	afbc0010 	sw	gp,16(sp)
  400554:	afc40030 	sw	a0,48(s8)
  400558:	afc50034 	sw	a1,52(s8)
  40055c:	24020005 	li	v0,5
  400560:	afc2001c 	sw	v0,28(s8)
  400564:	24020006 	li	v0,6
  400568:	afc20020 	sw	v0,32(s8)
  40056c:	afc00018 	sw	zero,24(s8)
  400570:	8fc30030 	lw	v1,48(s8)
  400574:	3c028000 	lui	v0,0x8000
  400578:	34420003 	ori	v0,v0,0x3
  40057c:	00621024 	and	v0,v1,v0
  400580:	04410005 	bgez	v0,400598 <main+0x60>
  400584:	00000000 	nop
  400588:	2442ffff 	addiu	v0,v0,-1
  40058c:	2403fffc 	li	v1,-4
  400590:	00431025 	or	v0,v0,v1
  400594:	24420001 	addiu	v0,v0,1
  400598:	24030003 	li	v1,3
  40059c:	10430020 	beq	v0,v1,400620 <main+0xe8>
  4005a0:	00000000 	nop
  4005a4:	28430004 	slti	v1,v0,4
  4005a8:	10600022 	beqz	v1,400634 <main+0xfc>
  4005ac:	00000000 	nop
  4005b0:	24030002 	li	v1,2
  4005b4:	10430015 	beq	v0,v1,40060c <main+0xd4>
  4005b8:	00000000 	nop
  4005bc:	28430003 	slti	v1,v0,3
  4005c0:	1060001c 	beqz	v1,400634 <main+0xfc>
  4005c4:	00000000 	nop
  4005c8:	10400006 	beqz	v0,4005e4 <main+0xac>
  4005cc:	00000000 	nop
  4005d0:	24030001 	li	v1,1
  4005d4:	10430008 	beq	v0,v1,4005f8 <main+0xc0>
  4005d8:	00000000 	nop
  4005dc:	10000015 	b	400634 <main+0xfc>
  4005e0:	00000000 	nop
  4005e4:	3c020040 	lui	v0,0x40
  4005e8:	24420440 	addiu	v0,v0,1088
  4005ec:	afc20018 	sw	v0,24(s8)
  4005f0:	10000011 	b	400638 <main+0x100>
  4005f4:	00000000 	nop
  4005f8:	3c020040 	lui	v0,0x40
  4005fc:	24420478 	addiu	v0,v0,1144
  400600:	afc20018 	sw	v0,24(s8)
  400604:	1000000c 	b	400638 <main+0x100>
  400608:	00000000 	nop
  40060c:	3c020040 	lui	v0,0x40
  400610:	244204b0 	addiu	v0,v0,1200
  400614:	afc20018 	sw	v0,24(s8)
  400618:	10000007 	b	400638 <main+0x100>
  40061c:	00000000 	nop
  400620:	3c020040 	lui	v0,0x40
  400624:	244204ec 	addiu	v0,v0,1260
  400628:	afc20018 	sw	v0,24(s8)
  40062c:	10000002 	b	400638 <main+0x100>
  400630:	00000000 	nop
  400634:	00000000 	nop
  400638:	8fc20018 	lw	v0,24(s8)
  40063c:	00000000 	nop
  400640:	10400013 	beqz	v0,400690 <main+0x158>
  400644:	00000000 	nop
  400648:	8fc20018 	lw	v0,24(s8)
  40064c:	8fc50020 	lw	a1,32(s8)
  400650:	8fc4001c 	lw	a0,28(s8)
  400654:	0040c825 	move	t9,v0
  400658:	0320f809 	jalr	t9
  40065c:	00000000 	nop
  400660:	8fdc0010 	lw	gp,16(s8)
  400664:	00403825 	move	a3,v0
  400668:	8fc60018 	lw	a2,24(s8)
  40066c:	8fc50030 	lw	a1,48(s8)
  400670:	3c020040 	lui	v0,0x40
  400674:	24446340 	addiu	a0,v0,25408
  400678:	8f828040 	lw	v0,-32704(gp)
  40067c:	00000000 	nop
  400680:	0040c825 	move	t9,v0
  400684:	0411011e 	bal	400b00 <printf>
  400688:	00000000 	nop
  40068c:	8fdc0010 	lw	gp,16(s8)
  400690:	00001025 	move	v0,zero
  400694:	03c0e825 	move	sp,s8
  400698:	8fbf002c 	lw	ra,44(sp)
  40069c:	8fbe0028 	lw	s8,40(sp)
  4006a0:	27bd0030 	addiu	sp,sp,48
  4006a4:	03e00008 	jr	ra
  4006a8:	00000000 	nop
  4006ac:	00000000 	nop

004006b0 <dummy>:
  4006b0:	03e00008 	jr	ra
  4006b4:	00000000 	nop

004006b8 <__init_ssp>:
  4006b8:	03e00008 	jr	ra
  4006bc:	00000000 	nop

004006c0 <__init_libc>:
  4006c0:	3c1c0002 	lui	gp,0x2
  4006c4:	279ceaf0 	addiu	gp,gp,-5392
  4006c8:	0399e021 	addu	gp,gp,t9
  4006cc:	27bdff28 	addiu	sp,sp,-216
  4006d0:	8f998044 	lw	t9,-32700(gp)
  4006d4:	24060098 	li	a2,152
  4006d8:	afbc0010 	sw	gp,16(sp)
  4006dc:	afb100d0 	sw	s1,208(sp)
  4006e0:	afb000cc 	sw	s0,204(sp)
  4006e4:	00808825 	move	s1,a0
  4006e8:	afbf00d4 	sw	ra,212(sp)
  4006ec:	27a40018 	addiu	a0,sp,24
  4006f0:	00a08025 	move	s0,a1
  4006f4:	04110a1a 	bal	402f60 <memset>
  4006f8:	00002825 	move	a1,zero
  4006fc:	8fbc0010 	lw	gp,16(sp)
  400700:	00402025 	move	a0,v0
  400704:	8f828048 	lw	v0,-32696(gp)
  400708:	00000000 	nop
  40070c:	ac510000 	sw	s1,0(v0)
  400710:	00001025 	move	v0,zero
  400714:	00021880 	sll	v1,v0,0x2
  400718:	02231821 	addu	v1,s1,v1
  40071c:	8c630000 	lw	v1,0(v1)
  400720:	00000000 	nop
  400724:	1460fffb 	bnez	v1,400714 <__init_libc+0x54>
  400728:	24420001 	addiu	v0,v0,1
  40072c:	00021080 	sll	v0,v0,0x2
  400730:	02221021 	addu	v0,s1,v0
  400734:	8f91804c 	lw	s1,-32692(gp)
  400738:	00000000 	nop
  40073c:	ae220008 	sw	v0,8(s1)
  400740:	8c430000 	lw	v1,0(v0)
  400744:	00000000 	nop
  400748:	1460004c 	bnez	v1,40087c <__init_libc+0x1bc>
  40074c:	00000000 	nop
  400750:	8f828050 	lw	v0,-32688(gp)
  400754:	8fa30058 	lw	v1,88(sp)
  400758:	00000000 	nop
  40075c:	ac430000 	sw	v1,0(v0)
  400760:	8fa20098 	lw	v0,152(sp)
  400764:	00000000 	nop
  400768:	10400004 	beqz	v0,40077c <__init_libc+0xbc>
  40076c:	00000000 	nop
  400770:	8f838054 	lw	v1,-32684(gp)
  400774:	00000000 	nop
  400778:	ac620000 	sw	v0,0(v1)
  40077c:	8fa20030 	lw	v0,48(sp)
  400780:	16000008 	bnez	s0,4007a4 <__init_libc+0xe4>
  400784:	ae22001c 	sw	v0,28(s1)
  400788:	8fb00094 	lw	s0,148(sp)
  40078c:	00000000 	nop
  400790:	16000004 	bnez	s0,4007a4 <__init_libc+0xe4>
  400794:	00000000 	nop
  400798:	8f908018 	lw	s0,-32744(gp)
  40079c:	00000000 	nop
  4007a0:	26106350 	addiu	s0,s0,25424
  4007a4:	8f828058 	lw	v0,-32680(gp)
  4007a8:	8f83805c 	lw	v1,-32676(gp)
  4007ac:	ac500000 	sw	s0,0(v0)
  4007b0:	ac700000 	sw	s0,0(v1)
  4007b4:	2405002f 	li	a1,47
  4007b8:	26100001 	addiu	s0,s0,1
  4007bc:	8202ffff 	lb	v0,-1(s0)
  4007c0:	00000000 	nop
  4007c4:	14400035 	bnez	v0,40089c <__init_libc+0x1dc>
  4007c8:	00000000 	nop
  4007cc:	8f998060 	lw	t9,-32672(gp)
  4007d0:	00000000 	nop
  4007d4:	04110ab0 	bal	403298 <__init_tls>
  4007d8:	00000000 	nop
  4007dc:	8fbc0010 	lw	gp,16(sp)
  4007e0:	8fa4007c 	lw	a0,124(sp)
  4007e4:	8f998064 	lw	t9,-32668(gp)
  4007e8:	00000000 	nop
  4007ec:	0411ffb2 	bal	4006b8 <__init_ssp>
  4007f0:	00000000 	nop
  4007f4:	8fa40044 	lw	a0,68(sp)
  4007f8:	8fa30048 	lw	v1,72(sp)
  4007fc:	8fbc0010 	lw	gp,16(sp)
  400800:	1483000a 	bne	a0,v1,40082c <__init_libc+0x16c>
  400804:	24030001 	li	v1,1
  400808:	8fa4004c 	lw	a0,76(sp)
  40080c:	8fa30050 	lw	v1,80(sp)
  400810:	00000000 	nop
  400814:	14830005 	bne	a0,v1,40082c <__init_libc+0x16c>
  400818:	24030001 	li	v1,1
  40081c:	8fa30074 	lw	v1,116(sp)
  400820:	00000000 	nop
  400824:	10600037 	beqz	v1,400904 <__init_libc+0x244>
  400828:	24030001 	li	v1,1
  40082c:	afa300b8 	sw	v1,184(sp)
  400830:	24030002 	li	v1,2
  400834:	afa000b0 	sw	zero,176(sp)
  400838:	afa000b4 	sw	zero,180(sp)
  40083c:	afa000bc 	sw	zero,188(sp)
  400840:	afa000c4 	sw	zero,196(sp)
  400844:	afa300c0 	sw	v1,192(sp)
  400848:	27a400b0 	addiu	a0,sp,176
  40084c:	24050003 	li	a1,3
  400850:	00003025 	move	a2,zero
  400854:	2402105c 	li	v0,4188
  400858:	0000000c 	syscall
  40085c:	10e00003 	beqz	a3,40086c <__init_libc+0x1ac>
  400860:	00000000 	nop
  400864:	1c400003 	bgtz	v0,400874 <__init_libc+0x1b4>
  400868:	00000000 	nop
  40086c:	04410010 	bgez	v0,4008b0 <__init_libc+0x1f0>
  400870:	27a600b0 	addiu	a2,sp,176
  400874:	a0000000 	sb	zero,0(zero)
  400878:	0000000d 	break
  40087c:	2c650026 	sltiu	a1,v1,38
  400880:	10a00004 	beqz	a1,400894 <__init_libc+0x1d4>
  400884:	00031880 	sll	v1,v1,0x2
  400888:	8c450004 	lw	a1,4(v0)
  40088c:	00831821 	addu	v1,a0,v1
  400890:	ac650000 	sw	a1,0(v1)
  400894:	1000ffaa 	b	400740 <__init_libc+0x80>
  400898:	24420008 	addiu	v0,v0,8
  40089c:	14450002 	bne	v0,a1,4008a8 <__init_libc+0x1e8>
  4008a0:	00000000 	nop
  4008a4:	ac700000 	sw	s0,0(v1)
  4008a8:	1000ffc4 	b	4007bc <__init_libc+0xfc>
  4008ac:	26100001 	addiu	s0,s0,1
  4008b0:	8f848018 	lw	a0,-32744(gp)
  4008b4:	27b000c8 	addiu	s0,sp,200
  4008b8:	24846354 	addiu	a0,a0,25428
  4008bc:	94c30006 	lhu	v1,6(a2)
  4008c0:	00000000 	nop
  4008c4:	30630020 	andi	v1,v1,0x20
  4008c8:	10600009 	beqz	v1,4008f0 <__init_libc+0x230>
  4008cc:	24052002 	li	a1,8194
  4008d0:	24020fa5 	li	v0,4005
  4008d4:	0000000c 	syscall
  4008d8:	10e00003 	beqz	a3,4008e8 <__init_libc+0x228>
  4008dc:	00000000 	nop
  4008e0:	1c40ffe4 	bgtz	v0,400874 <__init_libc+0x1b4>
  4008e4:	00000000 	nop
  4008e8:	0440ffe2 	bltz	v0,400874 <__init_libc+0x1b4>
  4008ec:	00000000 	nop
  4008f0:	24c60008 	addiu	a2,a2,8
  4008f4:	1606fff1 	bne	s0,a2,4008bc <__init_libc+0x1fc>
  4008f8:	00000000 	nop
  4008fc:	24020001 	li	v0,1
  400900:	a2220002 	sb	v0,2(s1)
  400904:	8fbf00d4 	lw	ra,212(sp)
  400908:	8fb100d0 	lw	s1,208(sp)
  40090c:	8fb000cc 	lw	s0,204(sp)
  400910:	03e00008 	jr	ra
  400914:	27bd00d8 	addiu	sp,sp,216

00400918 <__libc_start_init>:
  400918:	3c1c0002 	lui	gp,0x2
  40091c:	279ce898 	addiu	gp,gp,-5992
  400920:	0399e021 	addu	gp,gp,t9
  400924:	27bdffd8 	addiu	sp,sp,-40
  400928:	8f998038 	lw	t9,-32712(gp)
  40092c:	afbc0010 	sw	gp,16(sp)
  400930:	afb10020 	sw	s1,32(sp)
  400934:	afb0001c 	sw	s0,28(sp)
  400938:	afbf0024 	sw	ra,36(sp)
  40093c:	0411fdf2 	bal	400108 <_init>
  400940:	00000000 	nop
  400944:	8fbc0010 	lw	gp,16(sp)
  400948:	00000000 	nop
  40094c:	8f90801c 	lw	s0,-32740(gp)
  400950:	8f91801c 	lw	s1,-32740(gp)
  400954:	00000000 	nop
  400958:	0211102b 	sltu	v0,s0,s1
  40095c:	14400006 	bnez	v0,400978 <__libc_start_init+0x60>
  400960:	00000000 	nop
  400964:	8fbf0024 	lw	ra,36(sp)
  400968:	8fb10020 	lw	s1,32(sp)
  40096c:	8fb0001c 	lw	s0,28(sp)
  400970:	03e00008 	jr	ra
  400974:	27bd0028 	addiu	sp,sp,40
  400978:	8e190000 	lw	t9,0(s0)
  40097c:	00000000 	nop
  400980:	0320f809 	jalr	t9
  400984:	26100004 	addiu	s0,s0,4
  400988:	1000fff4 	b	40095c <__libc_start_init+0x44>
  40098c:	0211102b 	sltu	v0,s0,s1

00400990 <libc_start_main_stage2>:
  400990:	3c1c0002 	lui	gp,0x2
  400994:	279ce820 	addiu	gp,gp,-6112
  400998:	0399e021 	addu	gp,gp,t9
  40099c:	24a20001 	addiu	v0,a1,1
  4009a0:	27bdffd0 	addiu	sp,sp,-48
  4009a4:	00021080 	sll	v0,v0,0x2
  4009a8:	8f998068 	lw	t9,-32664(gp)
  4009ac:	afb10024 	sw	s1,36(sp)
  4009b0:	00c08825 	move	s1,a2
  4009b4:	00c23021 	addu	a2,a2,v0
  4009b8:	afbc0010 	sw	gp,16(sp)
  4009bc:	afbf002c 	sw	ra,44(sp)
  4009c0:	afb20028 	sw	s2,40(sp)
  4009c4:	afb00020 	sw	s0,32(sp)
  4009c8:	afa60018 	sw	a2,24(sp)
  4009cc:	00809025 	move	s2,a0
  4009d0:	0411ffd1 	bal	400918 <__libc_start_init>
  4009d4:	00a08025 	move	s0,a1
  4009d8:	8fa60018 	lw	a2,24(sp)
  4009dc:	02002025 	move	a0,s0
  4009e0:	0240c825 	move	t9,s2
  4009e4:	0320f809 	jalr	t9
  4009e8:	02202825 	move	a1,s1
  4009ec:	8fbc0010 	lw	gp,16(sp)
  4009f0:	00000000 	nop
  4009f4:	8f99806c 	lw	t9,-32660(gp)
  4009f8:	00000000 	nop
  4009fc:	0411fde0 	bal	400180 <exit>
  400a00:	00402025 	move	a0,v0

00400a04 <__libc_start_main>:
  400a04:	3c1c0002 	lui	gp,0x2
  400a08:	279ce7ac 	addiu	gp,gp,-6228
  400a0c:	0399e021 	addu	gp,gp,t9
  400a10:	27bdffd8 	addiu	sp,sp,-40
  400a14:	afb20020 	sw	s2,32(sp)
  400a18:	00809025 	move	s2,a0
  400a1c:	24a40001 	addiu	a0,a1,1
  400a20:	afb1001c 	sw	s1,28(sp)
  400a24:	8f998070 	lw	t9,-32656(gp)
  400a28:	00a08825 	move	s1,a1
  400a2c:	00042080 	sll	a0,a0,0x2
  400a30:	8cc50000 	lw	a1,0(a2)
  400a34:	afb00018 	sw	s0,24(sp)
  400a38:	afbf0024 	sw	ra,36(sp)
  400a3c:	afbc0010 	sw	gp,16(sp)
  400a40:	00c42021 	addu	a0,a2,a0
  400a44:	0411ff1e 	bal	4006c0 <__init_libc>
  400a48:	00c08025 	move	s0,a2
  400a4c:	8fbc0010 	lw	gp,16(sp)
  400a50:	02003025 	move	a2,s0
  400a54:	8f998018 	lw	t9,-32744(gp)
  400a58:	02202825 	move	a1,s1
  400a5c:	27390990 	addiu	t9,t9,2448
  400a60:	02402025 	move	a0,s2
  400a64:	8fbf0024 	lw	ra,36(sp)
  400a68:	8fb20020 	lw	s2,32(sp)
  400a6c:	8fb1001c 	lw	s1,28(sp)
  400a70:	8fb00018 	lw	s0,24(sp)
  400a74:	03200008 	jr	t9
  400a78:	27bd0028 	addiu	sp,sp,40
  400a7c:	00000000 	nop

00400a80 <__funcs_on_exit>:
  400a80:	03e00008 	jr	ra
  400a84:	00000000 	nop

00400a88 <__libc_exit_fini>:
  400a88:	3c1c0002 	lui	gp,0x2
  400a8c:	279ce728 	addiu	gp,gp,-6360
  400a90:	0399e021 	addu	gp,gp,t9
  400a94:	27bdffd8 	addiu	sp,sp,-40
  400a98:	afb10020 	sw	s1,32(sp)
  400a9c:	afb0001c 	sw	s0,28(sp)
  400aa0:	8f91801c 	lw	s1,-32740(gp)
  400aa4:	8f90801c 	lw	s0,-32740(gp)
  400aa8:	afbc0010 	sw	gp,16(sp)
  400aac:	afbf0024 	sw	ra,36(sp)
  400ab0:	0230102b 	sltu	v0,s1,s0
  400ab4:	14400008 	bnez	v0,400ad8 <__libc_exit_fini+0x50>
  400ab8:	00000000 	nop
  400abc:	8fbf0024 	lw	ra,36(sp)
  400ac0:	8fb10020 	lw	s1,32(sp)
  400ac4:	8fb0001c 	lw	s0,28(sp)
  400ac8:	8f998020 	lw	t9,-32736(gp)
  400acc:	00000000 	nop
  400ad0:	10001607 	b	4062f0 <_fini>
  400ad4:	27bd0028 	addiu	sp,sp,40
  400ad8:	8e19fffc 	lw	t9,-4(s0)
  400adc:	00000000 	nop
  400ae0:	0320f809 	jalr	t9
  400ae4:	2610fffc 	addiu	s0,s0,-4
  400ae8:	8fbc0010 	lw	gp,16(sp)
  400aec:	1000fff1 	b	400ab4 <__libc_exit_fini+0x2c>
  400af0:	0230102b 	sltu	v0,s1,s0
	...

00400b00 <printf>:
  400b00:	3c1c0002 	lui	gp,0x2
  400b04:	279ce6b0 	addiu	gp,gp,-6480
  400b08:	0399e021 	addu	gp,gp,t9
  400b0c:	27bdffd8 	addiu	sp,sp,-40
  400b10:	8f998074 	lw	t9,-32652(gp)
  400b14:	afa5002c 	sw	a1,44(sp)
  400b18:	afa60030 	sw	a2,48(sp)
  400b1c:	00802825 	move	a1,a0
  400b20:	27a6002c 	addiu	a2,sp,44
  400b24:	8f848078 	lw	a0,-32648(gp)
  400b28:	afbf0024 	sw	ra,36(sp)
  400b2c:	afbc0010 	sw	gp,16(sp)
  400b30:	afa70034 	sw	a3,52(sp)
  400b34:	afa60018 	sw	a2,24(sp)
  400b38:	04110881 	bal	402d40 <vfprintf>
  400b3c:	00000000 	nop
  400b40:	8fbf0024 	lw	ra,36(sp)
  400b44:	00000000 	nop
  400b48:	03e00008 	jr	ra
  400b4c:	27bd0028 	addiu	sp,sp,40

00400b50 <pop_arg>:
  400b50:	3c1c0002 	lui	gp,0x2
  400b54:	279ce660 	addiu	gp,gp,-6560
  400b58:	0399e021 	addu	gp,gp,t9
  400b5c:	24a5fff7 	addiu	a1,a1,-9
  400b60:	2ca20012 	sltiu	v0,a1,18
  400b64:	1040004c 	beqz	v0,400c98 <pop_arg+0x148>
  400b68:	00052880 	sll	a1,a1,0x2
  400b6c:	8f828018 	lw	v0,-32744(gp)
  400b70:	00000000 	nop
  400b74:	24426360 	addiu	v0,v0,25440
  400b78:	00452821 	addu	a1,v0,a1
  400b7c:	8ca30000 	lw	v1,0(a1)
  400b80:	8cc20000 	lw	v0,0(a2)
  400b84:	007c1821 	addu	v1,v1,gp
  400b88:	00600008 	jr	v1
  400b8c:	00000000 	nop
  400b90:	24430004 	addiu	v1,v0,4
  400b94:	acc30000 	sw	v1,0(a2)
  400b98:	8c420000 	lw	v0,0(v0)
  400b9c:	03e00008 	jr	ra
  400ba0:	ac820000 	sw	v0,0(a0)
  400ba4:	24430004 	addiu	v1,v0,4
  400ba8:	acc30000 	sw	v1,0(a2)
  400bac:	8c420000 	lw	v0,0(v0)
  400bb0:	00000000 	nop
  400bb4:	ac820004 	sw	v0,4(a0)
  400bb8:	1000fff8 	b	400b9c <pop_arg+0x4c>
  400bbc:	000217c3 	sra	v0,v0,0x1f
  400bc0:	24430004 	addiu	v1,v0,4
  400bc4:	acc30000 	sw	v1,0(a2)
  400bc8:	84420002 	lh	v0,2(v0)
  400bcc:	1000fffa 	b	400bb8 <pop_arg+0x68>
  400bd0:	ac820004 	sw	v0,4(a0)
  400bd4:	24430004 	addiu	v1,v0,4
  400bd8:	94420002 	lhu	v0,2(v0)
  400bdc:	acc30000 	sw	v1,0(a2)
  400be0:	ac820004 	sw	v0,4(a0)
  400be4:	03e00008 	jr	ra
  400be8:	ac800000 	sw	zero,0(a0)
  400bec:	24430004 	addiu	v1,v0,4
  400bf0:	acc30000 	sw	v1,0(a2)
  400bf4:	80420003 	lb	v0,3(v0)
  400bf8:	1000ffef 	b	400bb8 <pop_arg+0x68>
  400bfc:	ac820004 	sw	v0,4(a0)
  400c00:	24430004 	addiu	v1,v0,4
  400c04:	acc30000 	sw	v1,0(a2)
  400c08:	90420003 	lbu	v0,3(v0)
  400c0c:	1000fff5 	b	400be4 <pop_arg+0x94>
  400c10:	ac820004 	sw	v0,4(a0)
  400c14:	2403fff8 	li	v1,-8
  400c18:	24420007 	addiu	v0,v0,7
  400c1c:	00431024 	and	v0,v0,v1
  400c20:	24430008 	addiu	v1,v0,8
  400c24:	acc30000 	sw	v1,0(a2)
  400c28:	8c430004 	lw	v1,4(v0)
  400c2c:	8c420000 	lw	v0,0(v0)
  400c30:	1000ffda 	b	400b9c <pop_arg+0x4c>
  400c34:	ac830004 	sw	v1,4(a0)
  400c38:	24430004 	addiu	v1,v0,4
  400c3c:	acc30000 	sw	v1,0(a2)
  400c40:	8c420000 	lw	v0,0(v0)
  400c44:	1000ffe7 	b	400be4 <pop_arg+0x94>
  400c48:	ac820004 	sw	v0,4(a0)
  400c4c:	2403fff8 	li	v1,-8
  400c50:	24420007 	addiu	v0,v0,7
  400c54:	00431024 	and	v0,v0,v1
  400c58:	c4400004 	lwc1	$f0,4(v0)
  400c5c:	24430008 	addiu	v1,v0,8
  400c60:	c4410000 	lwc1	$f1,0(v0)
  400c64:	acc30000 	sw	v1,0(a2)
  400c68:	e4800004 	swc1	$f0,4(a0)
  400c6c:	03e00008 	jr	ra
  400c70:	e4810000 	swc1	$f1,0(a0)
  400c74:	2403fff8 	li	v1,-8
  400c78:	24420007 	addiu	v0,v0,7
  400c7c:	00431024 	and	v0,v0,v1
  400c80:	c4400004 	lwc1	$f0,4(v0)
  400c84:	24430008 	addiu	v1,v0,8
  400c88:	c4410000 	lwc1	$f1,0(v0)
  400c8c:	acc30000 	sw	v1,0(a2)
  400c90:	e4800004 	swc1	$f0,4(a0)
  400c94:	e4810000 	swc1	$f1,0(a0)
  400c98:	03e00008 	jr	ra
  400c9c:	00000000 	nop

00400ca0 <fmt_u>:
  400ca0:	3c1c0002 	lui	gp,0x2
  400ca4:	279ce510 	addiu	gp,gp,-6896
  400ca8:	0399e021 	addu	gp,gp,t9
  400cac:	27bdffd8 	addiu	sp,sp,-40
  400cb0:	afb00020 	sw	s0,32(sp)
  400cb4:	afbc0010 	sw	gp,16(sp)
  400cb8:	afbf0024 	sw	ra,36(sp)
  400cbc:	00c08025 	move	s0,a2
  400cc0:	14800008 	bnez	a0,400ce4 <fmt_u+0x44>
  400cc4:	2407000a 	li	a3,10
  400cc8:	2403000a 	li	v1,10
  400ccc:	14a00018 	bnez	a1,400d30 <fmt_u+0x90>
  400cd0:	02001025 	move	v0,s0
  400cd4:	8fbf0024 	lw	ra,36(sp)
  400cd8:	8fb00020 	lw	s0,32(sp)
  400cdc:	03e00008 	jr	ra
  400ce0:	27bd0028 	addiu	sp,sp,40
  400ce4:	8f99807c 	lw	t9,-32644(gp)
  400ce8:	00003025 	move	a2,zero
  400cec:	afa4001c 	sw	a0,28(sp)
  400cf0:	041113fb 	bal	405ce0 <__umoddi3>
  400cf4:	afa50018 	sw	a1,24(sp)
  400cf8:	8fbc0010 	lw	gp,16(sp)
  400cfc:	8fa4001c 	lw	a0,28(sp)
  400d00:	8f998080 	lw	t9,-32640(gp)
  400d04:	8fa50018 	lw	a1,24(sp)
  400d08:	24620030 	addiu	v0,v1,48
  400d0c:	2407000a 	li	a3,10
  400d10:	00003025 	move	a2,zero
  400d14:	0411127e 	bal	405710 <__udivdi3>
  400d18:	a202ffff 	sb	v0,-1(s0)
  400d1c:	2610ffff 	addiu	s0,s0,-1
  400d20:	8fbc0010 	lw	gp,16(sp)
  400d24:	00602825 	move	a1,v1
  400d28:	1000ffe5 	b	400cc0 <fmt_u+0x20>
  400d2c:	00402025 	move	a0,v0
  400d30:	14600002 	bnez	v1,400d3c <fmt_u+0x9c>
  400d34:	00a3001b 	divu	zero,a1,v1
  400d38:	0007000d 	break	0x7
  400d3c:	2610ffff 	addiu	s0,s0,-1
  400d40:	00001010 	mfhi	v0
  400d44:	24420030 	addiu	v0,v0,48
  400d48:	00002812 	mflo	a1
  400d4c:	1000ffdf 	b	400ccc <fmt_u+0x2c>
  400d50:	a2020000 	sb	v0,0(s0)

00400d54 <getint>:
  400d54:	3c070ccc 	lui	a3,0xccc
  400d58:	3c087fff 	lui	t0,0x7fff
  400d5c:	00001025 	move	v0,zero
  400d60:	34e7cccd 	ori	a3,a3,0xcccd
  400d64:	2409fff6 	li	t1,-10
  400d68:	3508ffff 	ori	t0,t0,0xffff
  400d6c:	8c860000 	lw	a2,0(a0)
  400d70:	00000000 	nop
  400d74:	80c30000 	lb	v1,0(a2)
  400d78:	00000000 	nop
  400d7c:	2463ffd0 	addiu	v1,v1,-48
  400d80:	2c65000a 	sltiu	a1,v1,10
  400d84:	14a00003 	bnez	a1,400d94 <getint+0x40>
  400d88:	0047282b 	sltu	a1,v0,a3
  400d8c:	03e00008 	jr	ra
  400d90:	00000000 	nop
  400d94:	10a0000c 	beqz	a1,400dc8 <getint+0x74>
  400d98:	00490018 	mult	v0,t1
  400d9c:	00002812 	mflo	a1
  400da0:	00a82821 	addu	a1,a1,t0
  400da4:	00a3282a 	slt	a1,a1,v1
  400da8:	14a00007 	bnez	a1,400dc8 <getint+0x74>
  400dac:	00022880 	sll	a1,v0,0x2
  400db0:	00a21021 	addu	v0,a1,v0
  400db4:	00021040 	sll	v0,v0,0x1
  400db8:	00621021 	addu	v0,v1,v0
  400dbc:	24c60001 	addiu	a2,a2,1
  400dc0:	1000ffea 	b	400d6c <getint+0x18>
  400dc4:	ac860000 	sw	a2,0(a0)
  400dc8:	1000fffc 	b	400dbc <getint+0x68>
  400dcc:	2402ffff 	li	v0,-1

00400dd0 <out>:
  400dd0:	3c1c0002 	lui	gp,0x2
  400dd4:	279ce3e0 	addiu	gp,gp,-7200
  400dd8:	0399e021 	addu	gp,gp,t9
  400ddc:	00801025 	move	v0,a0
  400de0:	8c430000 	lw	v1,0(v0)
  400de4:	00a02025 	move	a0,a1
  400de8:	30630020 	andi	v1,v1,0x20
  400dec:	14600005 	bnez	v1,400e04 <out+0x34>
  400df0:	00c02825 	move	a1,a2
  400df4:	8f998084 	lw	t9,-32636(gp)
  400df8:	00000000 	nop
  400dfc:	10000b08 	b	403a20 <__fwritex>
  400e00:	00403025 	move	a2,v0
  400e04:	03e00008 	jr	ra
  400e08:	00000000 	nop

00400e0c <pad>:
  400e0c:	3c1c0002 	lui	gp,0x2
  400e10:	279ce3a4 	addiu	gp,gp,-7260
  400e14:	0399e021 	addu	gp,gp,t9
  400e18:	27bdfed0 	addiu	sp,sp,-304
  400e1c:	3c030001 	lui	v1,0x1
  400e20:	8fa20140 	lw	v0,320(sp)
  400e24:	24632000 	addiu	v1,v1,8192
  400e28:	afbc0010 	sw	gp,16(sp)
  400e2c:	00431024 	and	v0,v0,v1
  400e30:	afbf012c 	sw	ra,300(sp)
  400e34:	afb40128 	sw	s4,296(sp)
  400e38:	afb30124 	sw	s3,292(sp)
  400e3c:	afb20120 	sw	s2,288(sp)
  400e40:	afb1011c 	sw	s1,284(sp)
  400e44:	afb00118 	sw	s0,280(sp)
  400e48:	1440001a 	bnez	v0,400eb4 <pad+0xa8>
  400e4c:	00e6102a 	slt	v0,a3,a2
  400e50:	10400018 	beqz	v0,400eb4 <pad+0xa8>
  400e54:	00c78023 	subu	s0,a2,a3
  400e58:	2e020101 	sltiu	v0,s0,257
  400e5c:	00809025 	move	s2,a0
  400e60:	0200a025 	move	s4,s0
  400e64:	14400002 	bnez	v0,400e70 <pad+0x64>
  400e68:	02003025 	move	a2,s0
  400e6c:	24060100 	li	a2,256
  400e70:	8f998044 	lw	t9,-32700(gp)
  400e74:	27b30018 	addiu	s3,sp,24
  400e78:	04110839 	bal	402f60 <memset>
  400e7c:	02602025 	move	a0,s3
  400e80:	8fbc0010 	lw	gp,16(sp)
  400e84:	00000000 	nop
  400e88:	8f918018 	lw	s1,-32744(gp)
  400e8c:	00000000 	nop
  400e90:	26310dd0 	addiu	s1,s1,3536
  400e94:	2a020100 	slti	v0,s0,256
  400e98:	1040000e 	beqz	v0,400ed4 <pad+0xc8>
  400e9c:	24060100 	li	a2,256
  400ea0:	328600ff 	andi	a2,s4,0xff
  400ea4:	02602825 	move	a1,s3
  400ea8:	0220c825 	move	t9,s1
  400eac:	0411ffc8 	bal	400dd0 <out>
  400eb0:	02402025 	move	a0,s2
  400eb4:	8fbf012c 	lw	ra,300(sp)
  400eb8:	8fb40128 	lw	s4,296(sp)
  400ebc:	8fb30124 	lw	s3,292(sp)
  400ec0:	8fb20120 	lw	s2,288(sp)
  400ec4:	8fb1011c 	lw	s1,284(sp)
  400ec8:	8fb00118 	lw	s0,280(sp)
  400ecc:	03e00008 	jr	ra
  400ed0:	27bd0130 	addiu	sp,sp,304
  400ed4:	02602825 	move	a1,s3
  400ed8:	0220c825 	move	t9,s1
  400edc:	0411ffbc 	bal	400dd0 <out>
  400ee0:	02402025 	move	a0,s2
  400ee4:	1000ffeb 	b	400e94 <pad+0x88>
  400ee8:	2610ff00 	addiu	s0,s0,-256

00400eec <printf_core>:
  400eec:	3c1c0002 	lui	gp,0x2
  400ef0:	279ce2c4 	addiu	gp,gp,-7484
  400ef4:	0399e021 	addu	gp,gp,t9
  400ef8:	8f828018 	lw	v0,-32744(gp)
  400efc:	27bdfcd8 	addiu	sp,sp,-808
  400f00:	afa20294 	sw	v0,660(sp)
  400f04:	8f828018 	lw	v0,-32744(gp)
  400f08:	e7b4030c 	swc1	$f20,780(sp)
  400f0c:	e7b50308 	swc1	$f21,776(sp)
  400f10:	c4546704 	lwc1	$f20,26372(v0)
  400f14:	e7b60314 	swc1	$f22,788(sp)
  400f18:	c4556700 	lwc1	$f21,26368(v0)
  400f1c:	8f828018 	lw	v0,-32744(gp)
  400f20:	e7b70310 	swc1	$f23,784(sp)
  400f24:	c456670c 	lwc1	$f22,26380(v0)
  400f28:	e7b8031c 	swc1	$f24,796(sp)
  400f2c:	c4576708 	lwc1	$f23,26376(v0)
  400f30:	8f828018 	lw	v0,-32744(gp)
  400f34:	e7b90318 	swc1	$f25,792(sp)
  400f38:	c4586714 	lwc1	$f24,26388(v0)
  400f3c:	afbc0018 	sw	gp,24(sp)
  400f40:	afb702fc 	sw	s7,764(sp)
  400f44:	afb102e4 	sw	s1,740(sp)
  400f48:	afbf0304 	sw	ra,772(sp)
  400f4c:	afbe0300 	sw	s8,768(sp)
  400f50:	afb602f8 	sw	s6,760(sp)
  400f54:	afb502f4 	sw	s5,756(sp)
  400f58:	afb402f0 	sw	s4,752(sp)
  400f5c:	afb302ec 	sw	s3,748(sp)
  400f60:	afb202e8 	sw	s2,744(sp)
  400f64:	afb002e0 	sw	s0,736(sp)
  400f68:	e7ba0324 	swc1	$f26,804(sp)
  400f6c:	e7bb0320 	swc1	$f27,800(sp)
  400f70:	afa60330 	sw	a2,816(sp)
  400f74:	afa70334 	sw	a3,820(sp)
  400f78:	afa50280 	sw	a1,640(sp)
  400f7c:	afa00288 	sw	zero,648(sp)
  400f80:	afa0028c 	sw	zero,652(sp)
  400f84:	c4596710 	lwc1	$f25,26384(v0)
  400f88:	00808825 	move	s1,a0
  400f8c:	0000b825 	move	s7,zero
  400f90:	8fa20288 	lw	v0,648(sp)
  400f94:	8fb30280 	lw	s3,640(sp)
  400f98:	00571021 	addu	v0,v0,s7
  400f9c:	afa20288 	sw	v0,648(sp)
  400fa0:	82620000 	lb	v0,0(s3)
  400fa4:	00000000 	nop
  400fa8:	10400737 	beqz	v0,402c88 <printf_core+0x1d9c>
  400fac:	24030025 	li	v1,37
  400fb0:	8fa90280 	lw	t1,640(sp)
  400fb4:	00000000 	nop
  400fb8:	81220000 	lb	v0,0(t1)
  400fbc:	00000000 	nop
  400fc0:	10400004 	beqz	v0,400fd4 <printf_core+0xe8>
  400fc4:	00000000 	nop
  400fc8:	14430004 	bne	v0,v1,400fdc <printf_core+0xf0>
  400fcc:	25290001 	addiu	t1,t1,1
  400fd0:	2529ffff 	addiu	t1,t1,-1
  400fd4:	10000005 	b	400fec <printf_core+0x100>
  400fd8:	24030025 	li	v1,37
  400fdc:	1000fff4 	b	400fb0 <printf_core+0xc4>
  400fe0:	afa90280 	sw	t1,640(sp)
  400fe4:	25290001 	addiu	t1,t1,1
  400fe8:	afa20280 	sw	v0,640(sp)
  400fec:	8fa20280 	lw	v0,640(sp)
  400ff0:	00000000 	nop
  400ff4:	80440000 	lb	a0,0(v0)
  400ff8:	00000000 	nop
  400ffc:	14830005 	bne	a0,v1,401014 <printf_core+0x128>
  401000:	00000000 	nop
  401004:	80440001 	lb	a0,1(v0)
  401008:	00000000 	nop
  40100c:	1083fff5 	beq	a0,v1,400fe4 <printf_core+0xf8>
  401010:	24420002 	addiu	v0,v0,2
  401014:	8fa30288 	lw	v1,648(sp)
  401018:	3c027fff 	lui	v0,0x7fff
  40101c:	3442ffff 	ori	v0,v0,0xffff
  401020:	00431023 	subu	v0,v0,v1
  401024:	0133b823 	subu	s7,t1,s3
  401028:	afa202a0 	sw	v0,672(sp)
  40102c:	0057102a 	slt	v0,v0,s7
  401030:	14400270 	bnez	v0,4019f4 <printf_core+0xb08>
  401034:	00000000 	nop
  401038:	12200007 	beqz	s1,401058 <printf_core+0x16c>
  40103c:	02e03025 	move	a2,s7
  401040:	8fa20294 	lw	v0,660(sp)
  401044:	02602825 	move	a1,s3
  401048:	24590dd0 	addiu	t9,v0,3536
  40104c:	0411ff60 	bal	400dd0 <out>
  401050:	02202025 	move	a0,s1
  401054:	8fbc0018 	lw	gp,24(sp)
  401058:	16e0ffcd 	bnez	s7,400f90 <printf_core+0xa4>
  40105c:	00000000 	nop
  401060:	8fa20280 	lw	v0,640(sp)
  401064:	00000000 	nop
  401068:	804a0001 	lb	t2,1(v0)
  40106c:	00000000 	nop
  401070:	254affd0 	addiu	t2,t2,-48
  401074:	2d43000a 	sltiu	v1,t2,10
  401078:	1060007b 	beqz	v1,401268 <printf_core+0x37c>
  40107c:	24030024 	li	v1,36
  401080:	80440002 	lb	a0,2(v0)
  401084:	00000000 	nop
  401088:	14830077 	bne	a0,v1,401268 <printf_core+0x37c>
  40108c:	24030001 	li	v1,1
  401090:	24420003 	addiu	v0,v0,3
  401094:	afa3028c 	sw	v1,652(sp)
  401098:	3c050001 	lui	a1,0x1
  40109c:	afa20280 	sw	v0,640(sp)
  4010a0:	00008025 	move	s0,zero
  4010a4:	24a52889 	addiu	a1,a1,10377
  4010a8:	24070001 	li	a3,1
  4010ac:	8fa20280 	lw	v0,640(sp)
  4010b0:	00000000 	nop
  4010b4:	80460000 	lb	a2,0(v0)
  4010b8:	00000000 	nop
  4010bc:	24c3ffe0 	addiu	v1,a2,-32
  4010c0:	2c640020 	sltiu	a0,v1,32
  4010c4:	10800004 	beqz	a0,4010d8 <printf_core+0x1ec>
  4010c8:	00652006 	srlv	a0,a1,v1
  4010cc:	30840001 	andi	a0,a0,0x1
  4010d0:	14800068 	bnez	a0,401274 <printf_core+0x388>
  4010d4:	00671804 	sllv	v1,a3,v1
  4010d8:	2403002a 	li	v1,42
  4010dc:	14c30081 	bne	a2,v1,4012e4 <printf_core+0x3f8>
  4010e0:	00000000 	nop
  4010e4:	80430001 	lb	v1,1(v0)
  4010e8:	00000000 	nop
  4010ec:	2464ffd0 	addiu	a0,v1,-48
  4010f0:	2c84000a 	sltiu	a0,a0,10
  4010f4:	10800063 	beqz	a0,401284 <printf_core+0x398>
  4010f8:	24040024 	li	a0,36
  4010fc:	80450002 	lb	a1,2(v0)
  401100:	00000000 	nop
  401104:	14a4005f 	bne	a1,a0,401284 <printf_core+0x398>
  401108:	00031880 	sll	v1,v1,0x2
  40110c:	8fa40338 	lw	a0,824(sp)
  401110:	00000000 	nop
  401114:	00831821 	addu	v1,a0,v1
  401118:	2404000a 	li	a0,10
  40111c:	ac64ff40 	sw	a0,-192(v1)
  401120:	80430001 	lb	v1,1(v0)
  401124:	8fa40334 	lw	a0,820(sp)
  401128:	000318c0 	sll	v1,v1,0x3
  40112c:	24420003 	addiu	v0,v0,3
  401130:	00831821 	addu	v1,a0,v1
  401134:	afa20280 	sw	v0,640(sp)
  401138:	8c72fe84 	lw	s2,-380(v1)
  40113c:	24020001 	li	v0,1
  401140:	afa2028c 	sw	v0,652(sp)
  401144:	06410003 	bgez	s2,401154 <printf_core+0x268>
  401148:	00000000 	nop
  40114c:	36102000 	ori	s0,s0,0x2000
  401150:	00129023 	negu	s2,s2
  401154:	8fa20280 	lw	v0,640(sp)
  401158:	2403002e 	li	v1,46
  40115c:	80440000 	lb	a0,0(v0)
  401160:	00000000 	nop
  401164:	14830082 	bne	a0,v1,401370 <printf_core+0x484>
  401168:	2403002a 	li	v1,42
  40116c:	80440001 	lb	a0,1(v0)
  401170:	00000000 	nop
  401174:	14830074 	bne	a0,v1,401348 <printf_core+0x45c>
  401178:	00000000 	nop
  40117c:	80430002 	lb	v1,2(v0)
  401180:	00000000 	nop
  401184:	2464ffd0 	addiu	a0,v1,-48
  401188:	2c84000a 	sltiu	a0,a0,10
  40118c:	1080005f 	beqz	a0,40130c <printf_core+0x420>
  401190:	24040024 	li	a0,36
  401194:	80450003 	lb	a1,3(v0)
  401198:	00000000 	nop
  40119c:	14a4005b 	bne	a1,a0,40130c <printf_core+0x420>
  4011a0:	00031880 	sll	v1,v1,0x2
  4011a4:	8fa40338 	lw	a0,824(sp)
  4011a8:	00000000 	nop
  4011ac:	00831821 	addu	v1,a0,v1
  4011b0:	2404000a 	li	a0,10
  4011b4:	ac64ff40 	sw	a0,-192(v1)
  4011b8:	80430002 	lb	v1,2(v0)
  4011bc:	8fa40334 	lw	a0,820(sp)
  4011c0:	000318c0 	sll	v1,v1,0x3
  4011c4:	00831821 	addu	v1,a0,v1
  4011c8:	8c7efe84 	lw	s8,-380(v1)
  4011cc:	24420004 	addiu	v0,v0,4
  4011d0:	001ea827 	nor	s5,zero,s8
  4011d4:	afa20280 	sw	v0,640(sp)
  4011d8:	0015afc2 	srl	s5,s5,0x1f
  4011dc:	8f838018 	lw	v1,-32744(gp)
  4011e0:	00003825 	move	a3,zero
  4011e4:	2404003a 	li	a0,58
  4011e8:	246364f4 	addiu	v1,v1,25844
  4011ec:	8fa50280 	lw	a1,640(sp)
  4011f0:	00000000 	nop
  4011f4:	80a20000 	lb	v0,0(a1)
  4011f8:	00000000 	nop
  4011fc:	2442ffbf 	addiu	v0,v0,-65
  401200:	2c42003a 	sltiu	v0,v0,58
  401204:	10400023 	beqz	v0,401294 <printf_core+0x3a8>
  401208:	00e40018 	mult	a3,a0
  40120c:	24a20001 	addiu	v0,a1,1
  401210:	afa20280 	sw	v0,640(sp)
  401214:	80a50000 	lb	a1,0(a1)
  401218:	00001012 	mflo	v0
  40121c:	00431021 	addu	v0,v0,v1
  401220:	00451021 	addu	v0,v0,a1
  401224:	9045ffbf 	lbu	a1,-65(v0)
  401228:	00000000 	nop
  40122c:	24a2ffff 	addiu	v0,a1,-1
  401230:	2c420008 	sltiu	v0,v0,8
  401234:	14400051 	bnez	v0,40137c <printf_core+0x490>
  401238:	00000000 	nop
  40123c:	10a00015 	beqz	a1,401294 <printf_core+0x3a8>
  401240:	00000000 	nop
  401244:	2402001b 	li	v0,27
  401248:	14a2004e 	bne	a1,v0,401384 <printf_core+0x498>
  40124c:	00000000 	nop
  401250:	05410010 	bgez	t2,401294 <printf_core+0x3a8>
  401254:	00000000 	nop
  401258:	16200076 	bnez	s1,401434 <printf_core+0x548>
  40125c:	00000000 	nop
  401260:	1000ff4b 	b	400f90 <printf_core+0xa4>
  401264:	00000000 	nop
  401268:	24420001 	addiu	v0,v0,1
  40126c:	1000ff8a 	b	401098 <printf_core+0x1ac>
  401270:	240affff 	li	t2,-1
  401274:	24420001 	addiu	v0,v0,1
  401278:	02038025 	or	s0,s0,v1
  40127c:	1000ff8b 	b	4010ac <printf_core+0x1c0>
  401280:	afa20280 	sw	v0,640(sp)
  401284:	8fa3028c 	lw	v1,652(sp)
  401288:	00000000 	nop
  40128c:	10600009 	beqz	v1,4012b4 <printf_core+0x3c8>
  401290:	00000000 	nop
  401294:	8f998088 	lw	t9,-32632(gp)
  401298:	00000000 	nop
  40129c:	04110890 	bal	4034e0 <__errno_location>
  4012a0:	00000000 	nop
  4012a4:	24030016 	li	v1,22
  4012a8:	ac430000 	sw	v1,0(v0)
  4012ac:	100006a2 	b	402d38 <printf_core+0x1e4c>
  4012b0:	2402ffff 	li	v0,-1
  4012b4:	12200008 	beqz	s1,4012d8 <printf_core+0x3ec>
  4012b8:	00009025 	move	s2,zero
  4012bc:	8fa30330 	lw	v1,816(sp)
  4012c0:	8fa50330 	lw	a1,816(sp)
  4012c4:	8c630000 	lw	v1,0(v1)
  4012c8:	00000000 	nop
  4012cc:	24640004 	addiu	a0,v1,4
  4012d0:	8c720000 	lw	s2,0(v1)
  4012d4:	aca40000 	sw	a0,0(a1)
  4012d8:	24420001 	addiu	v0,v0,1
  4012dc:	1000ff99 	b	401144 <printf_core+0x258>
  4012e0:	afa20280 	sw	v0,640(sp)
  4012e4:	8f998018 	lw	t9,-32744(gp)
  4012e8:	00000000 	nop
  4012ec:	27390d54 	addiu	t9,t9,3412
  4012f0:	0411fe98 	bal	400d54 <getint>
  4012f4:	27a40280 	addiu	a0,sp,640
  4012f8:	8fbc0018 	lw	gp,24(sp)
  4012fc:	0441ff95 	bgez	v0,401154 <printf_core+0x268>
  401300:	00409025 	move	s2,v0
  401304:	100001bb 	b	4019f4 <printf_core+0xb08>
  401308:	00000000 	nop
  40130c:	8fa3028c 	lw	v1,652(sp)
  401310:	00000000 	nop
  401314:	1460ffdf 	bnez	v1,401294 <printf_core+0x3a8>
  401318:	00000000 	nop
  40131c:	12200008 	beqz	s1,401340 <printf_core+0x454>
  401320:	0000f025 	move	s8,zero
  401324:	8fa30330 	lw	v1,816(sp)
  401328:	8fa50330 	lw	a1,816(sp)
  40132c:	8c630000 	lw	v1,0(v1)
  401330:	00000000 	nop
  401334:	24640004 	addiu	a0,v1,4
  401338:	8c7e0000 	lw	s8,0(v1)
  40133c:	aca40000 	sw	a0,0(a1)
  401340:	1000ffa3 	b	4011d0 <printf_core+0x2e4>
  401344:	24420002 	addiu	v0,v0,2
  401348:	8f998018 	lw	t9,-32744(gp)
  40134c:	24420001 	addiu	v0,v0,1
  401350:	afa20280 	sw	v0,640(sp)
  401354:	27390d54 	addiu	t9,t9,3412
  401358:	0411fe7e 	bal	400d54 <getint>
  40135c:	27a40280 	addiu	a0,sp,640
  401360:	0040f025 	move	s8,v0
  401364:	8fbc0018 	lw	gp,24(sp)
  401368:	1000ff9c 	b	4011dc <printf_core+0x2f0>
  40136c:	24150001 	li	s5,1
  401370:	0000a825 	move	s5,zero
  401374:	1000ff99 	b	4011dc <printf_core+0x2f0>
  401378:	241effff 	li	s8,-1
  40137c:	1000ff9b 	b	4011ec <printf_core+0x300>
  401380:	00a03825 	move	a3,a1
  401384:	0540000d 	bltz	t2,4013bc <printf_core+0x4d0>
  401388:	000a1080 	sll	v0,t2,0x2
  40138c:	8fa30338 	lw	v1,824(sp)
  401390:	00000000 	nop
  401394:	00621021 	addu	v0,v1,v0
  401398:	ac450000 	sw	a1,0(v0)
  40139c:	8fa20334 	lw	v0,820(sp)
  4013a0:	000a50c0 	sll	t2,t2,0x3
  4013a4:	004a5021 	addu	t2,v0,t2
  4013a8:	8d430004 	lw	v1,4(t2)
  4013ac:	8d420000 	lw	v0,0(t2)
  4013b0:	afa30274 	sw	v1,628(sp)
  4013b4:	1000ffa8 	b	401258 <printf_core+0x36c>
  4013b8:	afa20270 	sw	v0,624(sp)
  4013bc:	16200017 	bnez	s1,40141c <printf_core+0x530>
  4013c0:	00000000 	nop
  4013c4:	afa00288 	sw	zero,648(sp)
  4013c8:	c7ba0324 	lwc1	$f26,804(sp)
  4013cc:	c7b8031c 	lwc1	$f24,796(sp)
  4013d0:	c7b60314 	lwc1	$f22,788(sp)
  4013d4:	c7b4030c 	lwc1	$f20,780(sp)
  4013d8:	8fbf0304 	lw	ra,772(sp)
  4013dc:	8fa20288 	lw	v0,648(sp)
  4013e0:	8fbe0300 	lw	s8,768(sp)
  4013e4:	8fb702fc 	lw	s7,764(sp)
  4013e8:	8fb602f8 	lw	s6,760(sp)
  4013ec:	8fb502f4 	lw	s5,756(sp)
  4013f0:	8fb402f0 	lw	s4,752(sp)
  4013f4:	8fb302ec 	lw	s3,748(sp)
  4013f8:	8fb202e8 	lw	s2,744(sp)
  4013fc:	8fb102e4 	lw	s1,740(sp)
  401400:	8fb002e0 	lw	s0,736(sp)
  401404:	c7bb0320 	lwc1	$f27,800(sp)
  401408:	c7b90318 	lwc1	$f25,792(sp)
  40140c:	c7b70310 	lwc1	$f23,784(sp)
  401410:	c7b50308 	lwc1	$f21,776(sp)
  401414:	03e00008 	jr	ra
  401418:	27bd0328 	addiu	sp,sp,808
  40141c:	8f998018 	lw	t9,-32744(gp)
  401420:	8fa60330 	lw	a2,816(sp)
  401424:	27390b50 	addiu	t9,t9,2896
  401428:	0411fdc9 	bal	400b50 <pop_arg>
  40142c:	27a40270 	addiu	a0,sp,624
  401430:	8fbc0018 	lw	gp,24(sp)
  401434:	8fa20280 	lw	v0,640(sp)
  401438:	00000000 	nop
  40143c:	8056ffff 	lb	s6,-1(v0)
  401440:	10e00008 	beqz	a3,401464 <printf_core+0x578>
  401444:	32022000 	andi	v0,s0,0x2000
  401448:	32c2000f 	andi	v0,s6,0xf
  40144c:	24030003 	li	v1,3
  401450:	14430004 	bne	v0,v1,401464 <printf_core+0x578>
  401454:	32022000 	andi	v0,s0,0x2000
  401458:	2402ffdf 	li	v0,-33
  40145c:	02c2b024 	and	s6,s6,v0
  401460:	32022000 	andi	v0,s0,0x2000
  401464:	10400005 	beqz	v0,40147c <printf_core+0x590>
  401468:	26c2ffbf 	addiu	v0,s6,-65
  40146c:	3c02fffe 	lui	v0,0xfffe
  401470:	3442ffff 	ori	v0,v0,0xffff
  401474:	02028024 	and	s0,s0,v0
  401478:	26c2ffbf 	addiu	v0,s6,-65
  40147c:	2c430038 	sltiu	v1,v0,56
  401480:	106005fb 	beqz	v1,402c70 <printf_core+0x1d84>
  401484:	00000000 	nop
  401488:	00021880 	sll	v1,v0,0x2
  40148c:	8f828018 	lw	v0,-32744(gp)
  401490:	00000000 	nop
  401494:	244263e4 	addiu	v0,v0,25572
  401498:	00431021 	addu	v0,v0,v1
  40149c:	8c420000 	lw	v0,0(v0)
  4014a0:	00000000 	nop
  4014a4:	005c1021 	addu	v0,v0,gp
  4014a8:	00400008 	jr	v0
  4014ac:	00000000 	nop
  4014b0:	2ce20008 	sltiu	v0,a3,8
  4014b4:	1040014a 	beqz	v0,4019e0 <printf_core+0xaf4>
  4014b8:	00073880 	sll	a3,a3,0x2
  4014bc:	8f828018 	lw	v0,-32744(gp)
  4014c0:	00000000 	nop
  4014c4:	244264c4 	addiu	v0,v0,25796
  4014c8:	00473821 	addu	a3,v0,a3
  4014cc:	8ce20000 	lw	v0,0(a3)
  4014d0:	00000000 	nop
  4014d4:	005c1021 	addu	v0,v0,gp
  4014d8:	00400008 	jr	v0
  4014dc:	00000000 	nop
  4014e0:	8fa20270 	lw	v0,624(sp)
  4014e4:	8fa30288 	lw	v1,648(sp)
  4014e8:	1000fea9 	b	400f90 <printf_core+0xa4>
  4014ec:	a4430000 	sh	v1,0(v0)
  4014f0:	8fa20270 	lw	v0,624(sp)
  4014f4:	8fa30288 	lw	v1,648(sp)
  4014f8:	1000fea5 	b	400f90 <printf_core+0xa4>
  4014fc:	a0430000 	sb	v1,0(v0)
  401500:	8fa20270 	lw	v0,624(sp)
  401504:	8fa30288 	lw	v1,648(sp)
  401508:	1000fea1 	b	400f90 <printf_core+0xa4>
  40150c:	ac430000 	sw	v1,0(v0)
  401510:	8fa30288 	lw	v1,648(sp)
  401514:	8fa20270 	lw	v0,624(sp)
  401518:	00000000 	nop
  40151c:	ac430004 	sw	v1,4(v0)
  401520:	1000fff9 	b	401508 <printf_core+0x61c>
  401524:	00031fc3 	sra	v1,v1,0x1f
  401528:	2fc20008 	sltiu	v0,s8,8
  40152c:	10400002 	beqz	v0,401538 <printf_core+0x64c>
  401530:	03c04025 	move	t0,s8
  401534:	24080008 	li	t0,8
  401538:	0100f025 	move	s8,t0
  40153c:	36100008 	ori	s0,s0,0x8
  401540:	24160078 	li	s6,120
  401544:	8fa70270 	lw	a3,624(sp)
  401548:	8fa30274 	lw	v1,628(sp)
  40154c:	8f858018 	lw	a1,-32744(gp)
  401550:	32ca0020 	andi	t2,s6,0x20
  401554:	00e02025 	move	a0,a3
  401558:	00601025 	move	v0,v1
  40155c:	27b30240 	addiu	s3,sp,576
  401560:	24a564e4 	addiu	a1,a1,25828
  401564:	00823025 	or	a2,a0,v0
  401568:	14c00066 	bnez	a2,401704 <printf_core+0x818>
  40156c:	00000000 	nop
  401570:	8f948018 	lw	s4,-32744(gp)
  401574:	00e31825 	or	v1,a3,v1
  401578:	10600006 	beqz	v1,401594 <printf_core+0x6a8>
  40157c:	269463a8 	addiu	s4,s4,25512
  401580:	32020008 	andi	v0,s0,0x8
  401584:	10400003 	beqz	v0,401594 <printf_core+0x6a8>
  401588:	0016b103 	sra	s6,s6,0x4
  40158c:	0296a021 	addu	s4,s4,s6
  401590:	24170002 	li	s7,2
  401594:	12a00006 	beqz	s5,4015b0 <printf_core+0x6c4>
  401598:	00000000 	nop
  40159c:	07c00115 	bltz	s8,4019f4 <printf_core+0xb08>
  4015a0:	00000000 	nop
  4015a4:	3c02fffe 	lui	v0,0xfffe
  4015a8:	3442ffff 	ori	v0,v0,0xffff
  4015ac:	02028024 	and	s0,s0,v0
  4015b0:	8fa30270 	lw	v1,624(sp)
  4015b4:	8fa20274 	lw	v0,628(sp)
  4015b8:	00000000 	nop
  4015bc:	00621825 	or	v1,v1,v0
  4015c0:	14600003 	bnez	v1,4015d0 <printf_core+0x6e4>
  4015c4:	27b50240 	addiu	s5,sp,576
  4015c8:	13c005ad 	beqz	s8,402c80 <printf_core+0x1d94>
  4015cc:	00000000 	nop
  4015d0:	2c630001 	sltiu	v1,v1,1
  4015d4:	02b31023 	subu	v0,s5,s3
  4015d8:	00431021 	addu	v0,v0,v1
  4015dc:	03c2182a 	slt	v1,s8,v0
  4015e0:	10600002 	beqz	v1,4015ec <printf_core+0x700>
  4015e4:	00000000 	nop
  4015e8:	0040f025 	move	s8,v0
  4015ec:	02b3a823 	subu	s5,s5,s3
  4015f0:	02be102a 	slt	v0,s5,s8
  4015f4:	10400002 	beqz	v0,401600 <printf_core+0x714>
  4015f8:	02a01825 	move	v1,s5
  4015fc:	03c01825 	move	v1,s8
  401600:	3c027fff 	lui	v0,0x7fff
  401604:	3442ffff 	ori	v0,v0,0xffff
  401608:	00571023 	subu	v0,v0,s7
  40160c:	0043102a 	slt	v0,v0,v1
  401610:	144000f8 	bnez	v0,4019f4 <printf_core+0xb08>
  401614:	0077f021 	addu	s8,v1,s7
  401618:	03d2102a 	slt	v0,s8,s2
  40161c:	10400002 	beqz	v0,401628 <printf_core+0x73c>
  401620:	03c0b025 	move	s6,s8
  401624:	0240b025 	move	s6,s2
  401628:	8fa202a0 	lw	v0,672(sp)
  40162c:	00000000 	nop
  401630:	0056102a 	slt	v0,v0,s6
  401634:	144000ef 	bnez	v0,4019f4 <printf_core+0xb08>
  401638:	afa30290 	sw	v1,656(sp)
  40163c:	8f928018 	lw	s2,-32744(gp)
  401640:	03c03825 	move	a3,s8
  401644:	26520e0c 	addiu	s2,s2,3596
  401648:	afb00010 	sw	s0,16(sp)
  40164c:	02c03025 	move	a2,s6
  401650:	24050020 	li	a1,32
  401654:	0240c825 	move	t9,s2
  401658:	0411fdec 	bal	400e0c <pad>
  40165c:	02202025 	move	a0,s1
  401660:	8fa20294 	lw	v0,660(sp)
  401664:	02802825 	move	a1,s4
  401668:	24540dd0 	addiu	s4,v0,3536
  40166c:	02e03025 	move	a2,s7
  401670:	0280c825 	move	t9,s4
  401674:	0411fdd6 	bal	400dd0 <out>
  401678:	02202025 	move	a0,s1
  40167c:	3c020001 	lui	v0,0x1
  401680:	02021026 	xor	v0,s0,v0
  401684:	afa20010 	sw	v0,16(sp)
  401688:	03c03825 	move	a3,s8
  40168c:	02c03025 	move	a2,s6
  401690:	24050030 	li	a1,48
  401694:	0240c825 	move	t9,s2
  401698:	0411fddc 	bal	400e0c <pad>
  40169c:	02202025 	move	a0,s1
  4016a0:	8fa30290 	lw	v1,656(sp)
  4016a4:	02a03825 	move	a3,s5
  4016a8:	00603025 	move	a2,v1
  4016ac:	24050030 	li	a1,48
  4016b0:	02202025 	move	a0,s1
  4016b4:	0240c825 	move	t9,s2
  4016b8:	afa00010 	sw	zero,16(sp)
  4016bc:	0411fdd3 	bal	400e0c <pad>
  4016c0:	3a102000 	xori	s0,s0,0x2000
  4016c4:	02a03025 	move	a2,s5
  4016c8:	02602825 	move	a1,s3
  4016cc:	0280c825 	move	t9,s4
  4016d0:	0411fdbf 	bal	400dd0 <out>
  4016d4:	02202025 	move	a0,s1
  4016d8:	afb00010 	sw	s0,16(sp)
  4016dc:	03c03825 	move	a3,s8
  4016e0:	02c03025 	move	a2,s6
  4016e4:	24050020 	li	a1,32
  4016e8:	02202025 	move	a0,s1
  4016ec:	0240c825 	move	t9,s2
  4016f0:	0411fdc6 	bal	400e0c <pad>
  4016f4:	02c0b825 	move	s7,s6
  4016f8:	8fbc0018 	lw	gp,24(sp)
  4016fc:	1000fe24 	b	400f90 <printf_core+0xa4>
  401700:	00000000 	nop
  401704:	3046000f 	andi	a2,v0,0xf
  401708:	00a63021 	addu	a2,a1,a2
  40170c:	90c60000 	lbu	a2,0(a2)
  401710:	2673ffff 	addiu	s3,s3,-1
  401714:	01463025 	or	a2,t2,a2
  401718:	a2660000 	sb	a2,0(s3)
  40171c:	00021102 	srl	v0,v0,0x4
  401720:	00043700 	sll	a2,a0,0x1c
  401724:	00c21025 	or	v0,a2,v0
  401728:	1000ff8e 	b	401564 <printf_core+0x678>
  40172c:	00042102 	srl	a0,a0,0x4
  401730:	27b30240 	addiu	s3,sp,576
  401734:	8fa40270 	lw	a0,624(sp)
  401738:	8fa20274 	lw	v0,628(sp)
  40173c:	02601825 	move	v1,s3
  401740:	00822825 	or	a1,a0,v0
  401744:	14a0000b 	bnez	a1,401774 <printf_core+0x888>
  401748:	00000000 	nop
  40174c:	8f948018 	lw	s4,-32744(gp)
  401750:	32020008 	andi	v0,s0,0x8
  401754:	1040ff8f 	beqz	v0,401594 <printf_core+0x6a8>
  401758:	269463a8 	addiu	s4,s4,25512
  40175c:	00731823 	subu	v1,v1,s3
  401760:	007e102a 	slt	v0,v1,s8
  401764:	1440ff8b 	bnez	v0,401594 <printf_core+0x6a8>
  401768:	00000000 	nop
  40176c:	1000ff89 	b	401594 <printf_core+0x6a8>
  401770:	247e0001 	addiu	s8,v1,1
  401774:	30450007 	andi	a1,v0,0x7
  401778:	24a50030 	addiu	a1,a1,48
  40177c:	000210c2 	srl	v0,v0,0x3
  401780:	a265ffff 	sb	a1,-1(s3)
  401784:	00042f40 	sll	a1,a0,0x1d
  401788:	2673ffff 	addiu	s3,s3,-1
  40178c:	00a21025 	or	v0,a1,v0
  401790:	1000ffeb 	b	401740 <printf_core+0x854>
  401794:	000420c2 	srl	a0,a0,0x3
  401798:	8fa20270 	lw	v0,624(sp)
  40179c:	8fa40274 	lw	a0,628(sp)
  4017a0:	04410013 	bgez	v0,4017f0 <printf_core+0x904>
  4017a4:	00041823 	negu	v1,a0
  4017a8:	00021023 	negu	v0,v0
  4017ac:	0004202b 	sltu	a0,zero,a0
  4017b0:	00441023 	subu	v0,v0,a0
  4017b4:	afa20270 	sw	v0,624(sp)
  4017b8:	afa30274 	sw	v1,628(sp)
  4017bc:	24170001 	li	s7,1
  4017c0:	8f948018 	lw	s4,-32744(gp)
  4017c4:	00000000 	nop
  4017c8:	269463a8 	addiu	s4,s4,25512
  4017cc:	8f998018 	lw	t9,-32744(gp)
  4017d0:	8fa50274 	lw	a1,628(sp)
  4017d4:	8fa40270 	lw	a0,624(sp)
  4017d8:	27390ca0 	addiu	t9,t9,3232
  4017dc:	0411fd30 	bal	400ca0 <fmt_u>
  4017e0:	27a60240 	addiu	a2,sp,576
  4017e4:	8fbc0018 	lw	gp,24(sp)
  4017e8:	1000ff6a 	b	401594 <printf_core+0x6a8>
  4017ec:	00409825 	move	s3,v0
  4017f0:	32020800 	andi	v0,s0,0x800
  4017f4:	14400007 	bnez	v0,401814 <printf_core+0x928>
  4017f8:	32020001 	andi	v0,s0,0x1
  4017fc:	1040fff0 	beqz	v0,4017c0 <printf_core+0x8d4>
  401800:	00000000 	nop
  401804:	8f948018 	lw	s4,-32744(gp)
  401808:	24170001 	li	s7,1
  40180c:	1000ffef 	b	4017cc <printf_core+0x8e0>
  401810:	269463aa 	addiu	s4,s4,25514
  401814:	8f948018 	lw	s4,-32744(gp)
  401818:	24170001 	li	s7,1
  40181c:	1000ffeb 	b	4017cc <printf_core+0x8e0>
  401820:	269463a9 	addiu	s4,s4,25513
  401824:	8fa20274 	lw	v0,628(sp)
  401828:	8f948018 	lw	s4,-32744(gp)
  40182c:	a3a2023f 	sb	v0,575(sp)
  401830:	3c02fffe 	lui	v0,0xfffe
  401834:	3442ffff 	ori	v0,v0,0xffff
  401838:	02028024 	and	s0,s0,v0
  40183c:	269463a8 	addiu	s4,s4,25512
  401840:	241e0001 	li	s8,1
  401844:	27b50240 	addiu	s5,sp,576
  401848:	1000ff68 	b	4015ec <printf_core+0x700>
  40184c:	27b3023f 	addiu	s3,sp,575
  401850:	8f998088 	lw	t9,-32632(gp)
  401854:	00000000 	nop
  401858:	04110721 	bal	4034e0 <__errno_location>
  40185c:	00000000 	nop
  401860:	8fbc0018 	lw	gp,24(sp)
  401864:	8c440000 	lw	a0,0(v0)
  401868:	8f99808c 	lw	t9,-32628(gp)
  40186c:	00000000 	nop
  401870:	04110738 	bal	403554 <strerror>
  401874:	00000000 	nop
  401878:	8fbc0018 	lw	gp,24(sp)
  40187c:	00409825 	move	s3,v0
  401880:	07c10003 	bgez	s8,401890 <printf_core+0x9a4>
  401884:	03c02825 	move	a1,s8
  401888:	3c057fff 	lui	a1,0x7fff
  40188c:	34a5ffff 	ori	a1,a1,0xffff
  401890:	8f998090 	lw	t9,-32624(gp)
  401894:	00000000 	nop
  401898:	041105f9 	bal	403080 <strnlen>
  40189c:	02602025 	move	a0,s3
  4018a0:	8fbc0018 	lw	gp,24(sp)
  4018a4:	07c10005 	bgez	s8,4018bc <printf_core+0x9d0>
  4018a8:	0262a821 	addu	s5,s3,v0
  4018ac:	82a30000 	lb	v1,0(s5)
  4018b0:	00000000 	nop
  4018b4:	1460004f 	bnez	v1,4019f4 <printf_core+0xb08>
  4018b8:	00000000 	nop
  4018bc:	8f948018 	lw	s4,-32744(gp)
  4018c0:	0040f025 	move	s8,v0
  4018c4:	3c02fffe 	lui	v0,0xfffe
  4018c8:	3442ffff 	ori	v0,v0,0xffff
  4018cc:	02028024 	and	s0,s0,v0
  4018d0:	1000ff46 	b	4015ec <printf_core+0x700>
  4018d4:	269463a8 	addiu	s4,s4,25512
  4018d8:	8fb30270 	lw	s3,624(sp)
  4018dc:	00000000 	nop
  4018e0:	1660ffe7 	bnez	s3,401880 <printf_core+0x994>
  4018e4:	00000000 	nop
  4018e8:	8f938018 	lw	s3,-32744(gp)
  4018ec:	1000ffe4 	b	401880 <printf_core+0x994>
  4018f0:	267363b4 	addiu	s3,s3,25524
  4018f4:	8fa20274 	lw	v0,628(sp)
  4018f8:	afa00268 	sw	zero,616(sp)
  4018fc:	afa20264 	sw	v0,612(sp)
  401900:	27a20264 	addiu	v0,sp,612
  401904:	afa20270 	sw	v0,624(sp)
  401908:	241effff 	li	s8,-1
  40190c:	8fb40270 	lw	s4,624(sp)
  401910:	0000b025 	move	s6,zero
  401914:	27b3027c 	addiu	s3,sp,636
  401918:	02de102b 	sltu	v0,s6,s8
  40191c:	10400010 	beqz	v0,401960 <printf_core+0xa74>
  401920:	00000000 	nop
  401924:	8e850000 	lw	a1,0(s4)
  401928:	00000000 	nop
  40192c:	10a0000c 	beqz	a1,401960 <printf_core+0xa74>
  401930:	00000000 	nop
  401934:	8f998094 	lw	t9,-32620(gp)
  401938:	00000000 	nop
  40193c:	04110744 	bal	403650 <wctomb>
  401940:	02602025 	move	a0,s3
  401944:	8fbc0018 	lw	gp,24(sp)
  401948:	0440fe58 	bltz	v0,4012ac <printf_core+0x3c0>
  40194c:	26940004 	addiu	s4,s4,4
  401950:	03d61823 	subu	v1,s8,s6
  401954:	0062182b 	sltu	v1,v1,v0
  401958:	1060002c 	beqz	v1,401a0c <printf_core+0xb20>
  40195c:	00000000 	nop
  401960:	06c00024 	bltz	s6,4019f4 <printf_core+0xb08>
  401964:	02403025 	move	a2,s2
  401968:	8f938018 	lw	s3,-32744(gp)
  40196c:	afb00010 	sw	s0,16(sp)
  401970:	26730e0c 	addiu	s3,s3,3596
  401974:	02c03825 	move	a3,s6
  401978:	24050020 	li	a1,32
  40197c:	0260c825 	move	t9,s3
  401980:	0411fd22 	bal	400e0c <pad>
  401984:	02202025 	move	a0,s1
  401988:	8fa20294 	lw	v0,660(sp)
  40198c:	8fbc0018 	lw	gp,24(sp)
  401990:	8fbe0270 	lw	s8,624(sp)
  401994:	0000b825 	move	s7,zero
  401998:	27b4027c 	addiu	s4,sp,636
  40199c:	24550dd0 	addiu	s5,v0,3536
  4019a0:	02f6102b 	sltu	v0,s7,s6
  4019a4:	1440001b 	bnez	v0,401a14 <printf_core+0xb28>
  4019a8:	00000000 	nop
  4019ac:	3a102000 	xori	s0,s0,0x2000
  4019b0:	afb00010 	sw	s0,16(sp)
  4019b4:	02c03825 	move	a3,s6
  4019b8:	02403025 	move	a2,s2
  4019bc:	24050020 	li	a1,32
  4019c0:	0260c825 	move	t9,s3
  4019c4:	0411fd11 	bal	400e0c <pad>
  4019c8:	02202025 	move	a0,s1
  4019cc:	02d2102a 	slt	v0,s6,s2
  4019d0:	8fbc0018 	lw	gp,24(sp)
  4019d4:	10400002 	beqz	v0,4019e0 <printf_core+0xaf4>
  4019d8:	02c0b825 	move	s7,s6
  4019dc:	0240b825 	move	s7,s2
  4019e0:	8fa202a0 	lw	v0,672(sp)
  4019e4:	00000000 	nop
  4019e8:	0057102a 	slt	v0,v0,s7
  4019ec:	1040fd68 	beqz	v0,400f90 <printf_core+0xa4>
  4019f0:	00000000 	nop
  4019f4:	8f998088 	lw	t9,-32632(gp)
  4019f8:	00000000 	nop
  4019fc:	041106b8 	bal	4034e0 <__errno_location>
  401a00:	00000000 	nop
  401a04:	1000fe28 	b	4012a8 <printf_core+0x3bc>
  401a08:	2403004f 	li	v1,79
  401a0c:	1000ffc2 	b	401918 <printf_core+0xa2c>
  401a10:	02c2b021 	addu	s6,s6,v0
  401a14:	8fc50000 	lw	a1,0(s8)
  401a18:	00000000 	nop
  401a1c:	10a0ffe3 	beqz	a1,4019ac <printf_core+0xac0>
  401a20:	00000000 	nop
  401a24:	8f998094 	lw	t9,-32620(gp)
  401a28:	00000000 	nop
  401a2c:	04110708 	bal	403650 <wctomb>
  401a30:	02802025 	move	a0,s4
  401a34:	02e2b821 	addu	s7,s7,v0
  401a38:	00403025 	move	a2,v0
  401a3c:	02d7102b 	sltu	v0,s6,s7
  401a40:	1440ffda 	bnez	v0,4019ac <printf_core+0xac0>
  401a44:	27de0004 	addiu	s8,s8,4
  401a48:	02802825 	move	a1,s4
  401a4c:	02a0c825 	move	t9,s5
  401a50:	0320f809 	jalr	t9
  401a54:	02202025 	move	a0,s1
  401a58:	8fbc0018 	lw	gp,24(sp)
  401a5c:	1000ffd1 	b	4019a4 <printf_core+0xab8>
  401a60:	02f6102b 	sltu	v0,s7,s6
  401a64:	12a00003 	beqz	s5,401a74 <printf_core+0xb88>
  401a68:	00000000 	nop
  401a6c:	07c0ffe1 	bltz	s8,4019f4 <printf_core+0xb08>
  401a70:	00000000 	nop
  401a74:	8fa20270 	lw	v0,624(sp)
  401a78:	8fa30274 	lw	v1,628(sp)
  401a7c:	000247c2 	srl	t0,v0,0x1f
  401a80:	110000ef 	beqz	t0,401e40 <printf_core+0xf54>
  401a84:	afa00278 	sw	zero,632(sp)
  401a88:	3c048000 	lui	a0,0x8000
  401a8c:	00822026 	xor	a0,a0,v0
  401a90:	afa402c0 	sw	a0,704(sp)
  401a94:	8f958018 	lw	s5,-32744(gp)
  401a98:	afa302c4 	sw	v1,708(sp)
  401a9c:	8fa302c4 	lw	v1,708(sp)
  401aa0:	8fa202c0 	lw	v0,704(sp)
  401aa4:	26a463bc 	addiu	a0,s5,25532
  401aa8:	afa40290 	sw	a0,656(sp)
  401aac:	3c047fff 	lui	a0,0x7fff
  401ab0:	3484ffff 	ori	a0,a0,0xffff
  401ab4:	00442024 	and	a0,v0,a0
  401ab8:	3c057ff0 	lui	a1,0x7ff0
  401abc:	0085202b 	sltu	a0,a0,a1
  401ac0:	108000f0 	beqz	a0,401e84 <printf_core+0xf98>
  401ac4:	00000000 	nop
  401ac8:	44836000 	mtc1	v1,$f12
  401acc:	8f998098 	lw	t9,-32616(gp)
  401ad0:	44826800 	mtc1	v0,$f13
  401ad4:	afa80298 	sw	t0,664(sp)
  401ad8:	041106d5 	bal	403630 <frexpl>
  401adc:	27a60278 	addiu	a2,sp,632
  401ae0:	4480d000 	mtc1	zero,$f26
  401ae4:	46200000 	add.d	$f0,$f0,$f0
  401ae8:	4480d800 	mtc1	zero,$f27
  401aec:	8fbc0018 	lw	gp,24(sp)
  401af0:	463a0032 	c.eq.d	$f0,$f26
  401af4:	440f0000 	mfc1	t7,$f0
  401af8:	440e0800 	mfc1	t6,$f1
  401afc:	8fa80298 	lw	t0,664(sp)
  401b00:	45010005 	bc1t	401b18 <printf_core+0xc2c>
  401b04:	36d40020 	ori	s4,s6,0x20
  401b08:	8fa20278 	lw	v0,632(sp)
  401b0c:	00000000 	nop
  401b10:	2442ffff 	addiu	v0,v0,-1
  401b14:	afa20278 	sw	v0,632(sp)
  401b18:	24020061 	li	v0,97
  401b1c:	16820129 	bne	s4,v0,401fc4 <printf_core+0x10d8>
  401b20:	32c20020 	andi	v0,s6,0x20
  401b24:	10400006 	beqz	v0,401b40 <printf_core+0xc54>
  401b28:	2fc2000c 	sltiu	v0,s8,12
  401b2c:	8fa20290 	lw	v0,656(sp)
  401b30:	00000000 	nop
  401b34:	24420009 	addiu	v0,v0,9
  401b38:	afa20290 	sw	v0,656(sp)
  401b3c:	2fc2000c 	sltiu	v0,s8,12
  401b40:	8f938018 	lw	s3,-32744(gp)
  401b44:	1040001d 	beqz	v0,401bbc <printf_core+0xcd0>
  401b48:	25170002 	addiu	s7,t0,2
  401b4c:	c66066cc 	lwc1	$f0,26316(s3)
  401b50:	2402000c 	li	v0,12
  401b54:	c66166c8 	lwc1	$f1,26312(s3)
  401b58:	005e1023 	subu	v0,v0,s8
  401b5c:	2403ffff 	li	v1,-1
  401b60:	46200086 	mov.d	$f2,$f0
  401b64:	2442ffff 	addiu	v0,v0,-1
  401b68:	14430108 	bne	v0,v1,401f8c <printf_core+0x10a0>
  401b6c:	00000000 	nop
  401b70:	8fa20290 	lw	v0,656(sp)
  401b74:	00000000 	nop
  401b78:	80430000 	lb	v1,0(v0)
  401b7c:	2402002d 	li	v0,45
  401b80:	14620104 	bne	v1,v0,401f94 <printf_core+0x10a8>
  401b84:	00000000 	nop
  401b88:	3c048000 	lui	a0,0x8000
  401b8c:	afaf02b4 	sw	t7,692(sp)
  401b90:	008e1026 	xor	v0,a0,t6
  401b94:	c7a202b4 	lwc1	$f2,692(sp)
  401b98:	afa202b0 	sw	v0,688(sp)
  401b9c:	c7a302b0 	lwc1	$f3,688(sp)
  401ba0:	00000000 	nop
  401ba4:	46201081 	sub.d	$f2,$f2,$f0
  401ba8:	46220000 	add.d	$f0,$f0,$f2
  401bac:	44030000 	mfc1	v1,$f0
  401bb0:	44020800 	mfc1	v0,$f1
  401bb4:	00607825 	move	t7,v1
  401bb8:	00827026 	xor	t6,a0,v0
  401bbc:	8fa50278 	lw	a1,632(sp)
  401bc0:	8f998018 	lw	t9,-32744(gp)
  401bc4:	000517c3 	sra	v0,a1,0x1f
  401bc8:	00452826 	xor	a1,v0,a1
  401bcc:	00a22823 	subu	a1,a1,v0
  401bd0:	27b40264 	addiu	s4,sp,612
  401bd4:	afaf029c 	sw	t7,668(sp)
  401bd8:	afae0298 	sw	t6,664(sp)
  401bdc:	02803025 	move	a2,s4
  401be0:	27390ca0 	addiu	t9,t9,3232
  401be4:	0411fc2e 	bal	400ca0 <fmt_u>
  401be8:	000527c3 	sra	a0,a1,0x1f
  401bec:	8fbc0018 	lw	gp,24(sp)
  401bf0:	8faf029c 	lw	t7,668(sp)
  401bf4:	8fae0298 	lw	t6,664(sp)
  401bf8:	14540004 	bne	v0,s4,401c0c <printf_core+0xd20>
  401bfc:	00000000 	nop
  401c00:	24020030 	li	v0,48
  401c04:	a3a20263 	sb	v0,611(sp)
  401c08:	27a20263 	addiu	v0,sp,611
  401c0c:	8fa40278 	lw	a0,632(sp)
  401c10:	00000000 	nop
  401c14:	04800002 	bltz	a0,401c20 <printf_core+0xd34>
  401c18:	2403002d 	li	v1,45
  401c1c:	2403002b 	li	v1,43
  401c20:	c66266cc 	lwc1	$f2,26316(s3)
  401c24:	8f858018 	lw	a1,-32744(gp)
  401c28:	a043ffff 	sb	v1,-1(v0)
  401c2c:	26c3000f 	addiu	v1,s6,15
  401c30:	a043fffe 	sb	v1,-2(v0)
  401c34:	c66366c8 	lwc1	$f3,26312(s3)
  401c38:	27a30240 	addiu	v1,sp,576
  401c3c:	244dfffe 	addiu	t5,v0,-2
  401c40:	24a564e4 	addiu	a1,a1,25828
  401c44:	32d60020 	andi	s6,s6,0x20
  401c48:	00603025 	move	a2,v1
  401c4c:	240a0001 	li	t2,1
  401c50:	00604825 	move	t1,v1
  401c54:	240b002e 	li	t3,46
  401c58:	320c0008 	andi	t4,s0,0x8
  401c5c:	448f0000 	mtc1	t7,$f0
  401c60:	448f2000 	mtc1	t7,$f4
  401c64:	448e0800 	mtc1	t6,$f1
  401c68:	448e2800 	mtc1	t6,$f5
  401c6c:	4458f800 	cfc1	t8,$31
  401c70:	4458f800 	cfc1	t8,$31
  401c74:	00000000 	nop
  401c78:	37010003 	ori	at,t8,0x3
  401c7c:	38210002 	xori	at,at,0x2
  401c80:	44c1f800 	ctc1	at,$31
  401c84:	00000000 	nop
  401c88:	46200024 	cvt.w.d	$f0,$f0
  401c8c:	44d8f800 	ctc1	t8,$31
  401c90:	00000000 	nop
  401c94:	44040000 	mfc1	a0,$f0
  401c98:	46800021 	cvt.d.w	$f0,$f0
  401c9c:	46202001 	sub.d	$f0,$f4,$f0
  401ca0:	00853821 	addu	a3,a0,a1
  401ca4:	46220002 	mul.d	$f0,$f0,$f2
  401ca8:	90e70000 	lbu	a3,0(a3)
  401cac:	24620001 	addiu	v0,v1,1
  401cb0:	02c73825 	or	a3,s6,a3
  401cb4:	00462023 	subu	a0,v0,a2
  401cb8:	440f0000 	mfc1	t7,$f0
  401cbc:	440e0800 	mfc1	t6,$f1
  401cc0:	148a000b 	bne	a0,t2,401cf0 <printf_core+0xe04>
  401cc4:	a0670000 	sb	a3,0(v1)
  401cc8:	463a0032 	c.eq.d	$f0,$f26
  401ccc:	00000000 	nop
  401cd0:	45000005 	bc1f	401ce8 <printf_core+0xdfc>
  401cd4:	00000000 	nop
  401cd8:	1fc00003 	bgtz	s8,401ce8 <printf_core+0xdfc>
  401cdc:	00000000 	nop
  401ce0:	1180000b 	beqz	t4,401d10 <printf_core+0xe24>
  401ce4:	00000000 	nop
  401ce8:	24620002 	addiu	v0,v1,2
  401cec:	a06b0001 	sb	t3,1(v1)
  401cf0:	448f0000 	mtc1	t7,$f0
  401cf4:	00000000 	nop
  401cf8:	448e0800 	mtc1	t6,$f1
  401cfc:	00000000 	nop
  401d00:	463a0032 	c.eq.d	$f0,$f26
  401d04:	00000000 	nop
  401d08:	4500ffd4 	bc1f	401c5c <printf_core+0xd70>
  401d0c:	00401825 	move	v1,v0
  401d10:	27a30264 	addiu	v1,sp,612
  401d14:	3c047fff 	lui	a0,0x7fff
  401d18:	006da023 	subu	s4,v1,t5
  401d1c:	3484fffd 	ori	a0,a0,0xfffd
  401d20:	00942023 	subu	a0,a0,s4
  401d24:	00972023 	subu	a0,a0,s7
  401d28:	009e202a 	slt	a0,a0,s8
  401d2c:	1480ff31 	bnez	a0,4019f4 <printf_core+0xb08>
  401d30:	00000000 	nop
  401d34:	13c000a1 	beqz	s8,401fbc <printf_core+0x10d0>
  401d38:	0049b023 	subu	s6,v0,t1
  401d3c:	26c2ffff 	addiu	v0,s6,-1
  401d40:	03c2102a 	slt	v0,s8,v0
  401d44:	1440009d 	bnez	v0,401fbc <printf_core+0x10d0>
  401d48:	27c80002 	addiu	t0,s8,2
  401d4c:	0114f021 	addu	s8,t0,s4
  401d50:	8f938018 	lw	s3,-32744(gp)
  401d54:	02fea821 	addu	s5,s7,s8
  401d58:	26730e0c 	addiu	s3,s3,3596
  401d5c:	afad0298 	sw	t5,664(sp)
  401d60:	02a03825 	move	a3,s5
  401d64:	afb00010 	sw	s0,16(sp)
  401d68:	02403025 	move	a2,s2
  401d6c:	24050020 	li	a1,32
  401d70:	0260c825 	move	t9,s3
  401d74:	0411fc25 	bal	400e0c <pad>
  401d78:	02202025 	move	a0,s1
  401d7c:	8fa20294 	lw	v0,660(sp)
  401d80:	02e03025 	move	a2,s7
  401d84:	8fa50290 	lw	a1,656(sp)
  401d88:	24570dd0 	addiu	s7,v0,3536
  401d8c:	02e0c825 	move	t9,s7
  401d90:	0411fc0f 	bal	400dd0 <out>
  401d94:	02202025 	move	a0,s1
  401d98:	3c020001 	lui	v0,0x1
  401d9c:	02021026 	xor	v0,s0,v0
  401da0:	afa20010 	sw	v0,16(sp)
  401da4:	02a03825 	move	a3,s5
  401da8:	02403025 	move	a2,s2
  401dac:	24050030 	li	a1,48
  401db0:	0260c825 	move	t9,s3
  401db4:	0411fc15 	bal	400e0c <pad>
  401db8:	02202025 	move	a0,s1
  401dbc:	02e0c825 	move	t9,s7
  401dc0:	02c03025 	move	a2,s6
  401dc4:	27a50240 	addiu	a1,sp,576
  401dc8:	0411fc01 	bal	400dd0 <out>
  401dcc:	02202025 	move	a0,s1
  401dd0:	03d44023 	subu	t0,s8,s4
  401dd4:	01163023 	subu	a2,t0,s6
  401dd8:	00003825 	move	a3,zero
  401ddc:	24050030 	li	a1,48
  401de0:	02202025 	move	a0,s1
  401de4:	0260c825 	move	t9,s3
  401de8:	0411fc08 	bal	400e0c <pad>
  401dec:	afa00010 	sw	zero,16(sp)
  401df0:	8fad0298 	lw	t5,664(sp)
  401df4:	02e0c825 	move	t9,s7
  401df8:	01a02825 	move	a1,t5
  401dfc:	02803025 	move	a2,s4
  401e00:	02202025 	move	a0,s1
  401e04:	0411fbf2 	bal	400dd0 <out>
  401e08:	3a102000 	xori	s0,s0,0x2000
  401e0c:	afb00010 	sw	s0,16(sp)
  401e10:	02a03825 	move	a3,s5
  401e14:	02403025 	move	a2,s2
  401e18:	24050020 	li	a1,32
  401e1c:	0260c825 	move	t9,s3
  401e20:	0411fbfa 	bal	400e0c <pad>
  401e24:	02202025 	move	a0,s1
  401e28:	0255102a 	slt	v0,s2,s5
  401e2c:	8fbc0018 	lw	gp,24(sp)
  401e30:	1040feeb 	beqz	v0,4019e0 <printf_core+0xaf4>
  401e34:	0240b825 	move	s7,s2
  401e38:	1000fee9 	b	4019e0 <printf_core+0xaf4>
  401e3c:	02a0b825 	move	s7,s5
  401e40:	32040800 	andi	a0,s0,0x800
  401e44:	14800007 	bnez	a0,401e64 <printf_core+0xf78>
  401e48:	00000000 	nop
  401e4c:	32040001 	andi	a0,s0,0x1
  401e50:	14800008 	bnez	a0,401e74 <printf_core+0xf88>
  401e54:	00000000 	nop
  401e58:	8f958018 	lw	s5,-32744(gp)
  401e5c:	1000ff12 	b	401aa8 <printf_core+0xbbc>
  401e60:	26a463bd 	addiu	a0,s5,25533
  401e64:	8f958018 	lw	s5,-32744(gp)
  401e68:	24080001 	li	t0,1
  401e6c:	1000ff0e 	b	401aa8 <printf_core+0xbbc>
  401e70:	26a463bf 	addiu	a0,s5,25535
  401e74:	8f958018 	lw	s5,-32744(gp)
  401e78:	24080001 	li	t0,1
  401e7c:	1000ff0a 	b	401aa8 <printf_core+0xbbc>
  401e80:	26a463c2 	addiu	a0,s5,25538
  401e84:	32d60020 	andi	s6,s6,0x20
  401e88:	16c0003a 	bnez	s6,401f74 <printf_core+0x1088>
  401e8c:	00000000 	nop
  401e90:	8f938018 	lw	s3,-32744(gp)
  401e94:	00000000 	nop
  401e98:	267363d4 	addiu	s3,s3,25556
  401e9c:	44830000 	mtc1	v1,$f0
  401ea0:	00000000 	nop
  401ea4:	44820800 	mtc1	v0,$f1
  401ea8:	00000000 	nop
  401eac:	46200032 	c.eq.d	$f0,$f0
  401eb0:	00000000 	nop
  401eb4:	45010006 	bc1t	401ed0 <printf_core+0xfe4>
  401eb8:	00000000 	nop
  401ebc:	16c00030 	bnez	s6,401f80 <printf_core+0x1094>
  401ec0:	00000000 	nop
  401ec4:	8f938018 	lw	s3,-32744(gp)
  401ec8:	00000000 	nop
  401ecc:	267363dc 	addiu	s3,s3,25564
  401ed0:	8f948018 	lw	s4,-32744(gp)
  401ed4:	3c02fffe 	lui	v0,0xfffe
  401ed8:	3442ffff 	ori	v0,v0,0xffff
  401edc:	25160003 	addiu	s6,t0,3
  401ee0:	02021024 	and	v0,s0,v0
  401ee4:	26940e0c 	addiu	s4,s4,3596
  401ee8:	02c03825 	move	a3,s6
  401eec:	afa80298 	sw	t0,664(sp)
  401ef0:	afa20010 	sw	v0,16(sp)
  401ef4:	02403025 	move	a2,s2
  401ef8:	24050020 	li	a1,32
  401efc:	0280c825 	move	t9,s4
  401f00:	0411fbc2 	bal	400e0c <pad>
  401f04:	02202025 	move	a0,s1
  401f08:	8fa20294 	lw	v0,660(sp)
  401f0c:	8fa80298 	lw	t0,664(sp)
  401f10:	24550dd0 	addiu	s5,v0,3536
  401f14:	8fa50290 	lw	a1,656(sp)
  401f18:	01003025 	move	a2,t0
  401f1c:	02202025 	move	a0,s1
  401f20:	02a0c825 	move	t9,s5
  401f24:	0411fbaa 	bal	400dd0 <out>
  401f28:	3a102000 	xori	s0,s0,0x2000
  401f2c:	24060003 	li	a2,3
  401f30:	02602825 	move	a1,s3
  401f34:	02a0c825 	move	t9,s5
  401f38:	0411fba5 	bal	400dd0 <out>
  401f3c:	02202025 	move	a0,s1
  401f40:	afb00010 	sw	s0,16(sp)
  401f44:	02c03825 	move	a3,s6
  401f48:	02403025 	move	a2,s2
  401f4c:	24050020 	li	a1,32
  401f50:	0280c825 	move	t9,s4
  401f54:	0411fbad 	bal	400e0c <pad>
  401f58:	02202025 	move	a0,s1
  401f5c:	0256102a 	slt	v0,s2,s6
  401f60:	8fbc0018 	lw	gp,24(sp)
  401f64:	1040fe9e 	beqz	v0,4019e0 <printf_core+0xaf4>
  401f68:	0240b825 	move	s7,s2
  401f6c:	1000fe9c 	b	4019e0 <printf_core+0xaf4>
  401f70:	02c0b825 	move	s7,s6
  401f74:	8f938018 	lw	s3,-32744(gp)
  401f78:	1000ffc8 	b	401e9c <printf_core+0xfb0>
  401f7c:	267363d0 	addiu	s3,s3,25552
  401f80:	8f938018 	lw	s3,-32744(gp)
  401f84:	1000ffd2 	b	401ed0 <printf_core+0xfe4>
  401f88:	267363d8 	addiu	s3,s3,25560
  401f8c:	1000fef5 	b	401b64 <printf_core+0xc78>
  401f90:	46220002 	mul.d	$f0,$f0,$f2
  401f94:	448f1000 	mtc1	t7,$f2
  401f98:	00000000 	nop
  401f9c:	448e1800 	mtc1	t6,$f3
  401fa0:	00000000 	nop
  401fa4:	46201080 	add.d	$f2,$f2,$f0
  401fa8:	46201001 	sub.d	$f0,$f2,$f0
  401fac:	440f0000 	mfc1	t7,$f0
  401fb0:	440e0800 	mfc1	t6,$f1
  401fb4:	1000ff01 	b	401bbc <printf_core+0xcd0>
  401fb8:	00000000 	nop
  401fbc:	1000ff64 	b	401d50 <printf_core+0xe64>
  401fc0:	0296f021 	addu	s8,s4,s6
  401fc4:	07c10002 	bgez	s8,401fd0 <printf_core+0x10e4>
  401fc8:	00000000 	nop
  401fcc:	241e0006 	li	s8,6
  401fd0:	448f0000 	mtc1	t7,$f0
  401fd4:	00000000 	nop
  401fd8:	448e0800 	mtc1	t6,$f1
  401fdc:	00000000 	nop
  401fe0:	463a0032 	c.eq.d	$f0,$f26
  401fe4:	00000000 	nop
  401fe8:	4501000c 	bc1t	40201c <printf_core+0x1130>
  401fec:	00000000 	nop
  401ff0:	8f828018 	lw	v0,-32744(gp)
  401ff4:	448f1000 	mtc1	t7,$f2
  401ff8:	c44066fc 	lwc1	$f0,26364(v0)
  401ffc:	448e1800 	mtc1	t6,$f3
  402000:	c44166f8 	lwc1	$f1,26360(v0)
  402004:	8fa20278 	lw	v0,632(sp)
  402008:	46201002 	mul.d	$f0,$f2,$f0
  40200c:	2442ffe4 	addiu	v0,v0,-28
  402010:	afa20278 	sw	v0,632(sp)
  402014:	440f0000 	mfc1	t7,$f0
  402018:	440e0800 	mfc1	t6,$f1
  40201c:	8fb30278 	lw	s3,632(sp)
  402020:	00000000 	nop
  402024:	06610002 	bgez	s3,402030 <printf_core+0x1144>
  402028:	27ac0140 	addiu	t4,sp,320
  40202c:	27ac0020 	addiu	t4,sp,32
  402030:	0180a825 	move	s5,t4
  402034:	3c038000 	lui	v1,0x8000
  402038:	448f0000 	mtc1	t7,$f0
  40203c:	00000000 	nop
  402040:	448e0800 	mtc1	t6,$f1
  402044:	00000000 	nop
  402048:	4620a03e 	c.le.d	$f20,$f0
  40204c:	00000000 	nop
  402050:	4501008d 	bc1t	402288 <printf_core+0x139c>
  402054:	00000000 	nop
  402058:	4444f800 	cfc1	a0,$31
  40205c:	4444f800 	cfc1	a0,$31
  402060:	00000000 	nop
  402064:	34810003 	ori	at,a0,0x3
  402068:	38210002 	xori	at,at,0x2
  40206c:	44c1f800 	ctc1	at,$31
  402070:	00000000 	nop
  402074:	46200024 	cvt.w.d	$f0,$f0
  402078:	44c4f800 	ctc1	a0,$31
  40207c:	00000000 	nop
  402080:	44020000 	mfc1	v0,$f0
  402084:	00000000 	nop
  402088:	44820000 	mtc1	v0,$f0
  40208c:	aea20000 	sw	v0,0(s5)
  402090:	46800021 	cvt.d.w	$f0,$f0
  402094:	04410002 	bgez	v0,4020a0 <printf_core+0x11b4>
  402098:	26b50004 	addiu	s5,s5,4
  40209c:	46360000 	add.d	$f0,$f0,$f22
  4020a0:	448f1000 	mtc1	t7,$f2
  4020a4:	00000000 	nop
  4020a8:	448e1800 	mtc1	t6,$f3
  4020ac:	00000000 	nop
  4020b0:	46201001 	sub.d	$f0,$f2,$f0
  4020b4:	46380002 	mul.d	$f0,$f0,$f24
  4020b8:	463a0032 	c.eq.d	$f0,$f26
  4020bc:	440f0000 	mfc1	t7,$f0
  4020c0:	440e0800 	mfc1	t6,$f1
  4020c4:	4500ffdc 	bc1f	402038 <printf_core+0x114c>
  4020c8:	01805825 	move	t3,t4
  4020cc:	00001025 	move	v0,zero
  4020d0:	1e60007f 	bgtz	s3,4022d0 <printf_core+0x13e4>
  4020d4:	00000000 	nop
  4020d8:	10400002 	beqz	v0,4020e4 <printf_core+0x11f8>
  4020dc:	27c20019 	addiu	v0,s8,25
  4020e0:	afb30278 	sw	s3,632(sp)
  4020e4:	24030009 	li	v1,9
  4020e8:	14600002 	bnez	v1,4020f4 <printf_core+0x1208>
  4020ec:	0043001b 	divu	zero,v0,v1
  4020f0:	0007000d 	break	0x7
  4020f4:	3c0d3b9a 	lui	t5,0x3b9a
  4020f8:	8fa20278 	lw	v0,632(sp)
  4020fc:	00001825 	move	v1,zero
  402100:	24180001 	li	t8,1
  402104:	35adca00 	ori	t5,t5,0xca00
  402108:	24190066 	li	t9,102
  40210c:	00003012 	mflo	a2
  402110:	24c60001 	addiu	a2,a2,1
  402114:	00067880 	sll	t7,a2,0x2
  402118:	044000af 	bltz	v0,4023d8 <printf_core+0x14ec>
  40211c:	00000000 	nop
  402120:	10600002 	beqz	v1,40212c <printf_core+0x1240>
  402124:	00000000 	nop
  402128:	afa20278 	sw	v0,632(sp)
  40212c:	0175102b 	sltu	v0,t3,s5
  402130:	1040000a 	beqz	v0,40215c <printf_core+0x1270>
  402134:	00009825 	move	s3,zero
  402138:	018b9823 	subu	s3,t4,t3
  40213c:	00131083 	sra	v0,s3,0x2
  402140:	000298c0 	sll	s3,v0,0x3
  402144:	8d630000 	lw	v1,0(t3)
  402148:	02629821 	addu	s3,s3,v0
  40214c:	2402000a 	li	v0,10
  402150:	0062202b 	sltu	a0,v1,v0
  402154:	108000cb 	beqz	a0,402484 <printf_core+0x1598>
  402158:	00022080 	sll	a0,v0,0x2
  40215c:	3a820066 	xori	v0,s4,0x66
  402160:	0002102b 	sltu	v0,zero,v0
  402164:	00530018 	mult	v0,s3
  402168:	24040067 	li	a0,103
  40216c:	00001825 	move	v1,zero
  402170:	00001012 	mflo	v0
  402174:	16840002 	bne	s4,a0,402180 <printf_core+0x1294>
  402178:	03c21023 	subu	v0,s8,v0
  40217c:	001e182b 	sltu	v1,zero,s8
  402180:	00431023 	subu	v0,v0,v1
  402184:	02ac1823 	subu	v1,s5,t4
  402188:	00031883 	sra	v1,v1,0x2
  40218c:	2463ffff 	addiu	v1,v1,-1
  402190:	000320c0 	sll	a0,v1,0x3
  402194:	00831821 	addu	v1,a0,v1
  402198:	0043182a 	slt	v1,v0,v1
  40219c:	106000f1 	beqz	v1,402564 <printf_core+0x1678>
  4021a0:	24422400 	addiu	v0,v0,9216
  4021a4:	24030009 	li	v1,9
  4021a8:	14600002 	bnez	v1,4021b4 <printf_core+0x12c8>
  4021ac:	0043001a 	div	zero,v0,v1
  4021b0:	0007000d 	break	0x7
  4021b4:	2405000a 	li	a1,10
  4021b8:	00002012 	mflo	a0
  4021bc:	00042080 	sll	a0,a0,0x2
  4021c0:	2484f004 	addiu	a0,a0,-4092
  4021c4:	00001010 	mfhi	v0
  4021c8:	01842021 	addu	a0,t4,a0
  4021cc:	24420001 	addiu	v0,v0,1
  4021d0:	144300b0 	bne	v0,v1,402494 <printf_core+0x15a8>
  4021d4:	00053080 	sll	a2,a1,0x2
  4021d8:	8c870000 	lw	a3,0(a0)
  4021dc:	00000000 	nop
  4021e0:	14a00002 	bnez	a1,4021ec <printf_core+0x1300>
  4021e4:	00e5001b 	divu	zero,a3,a1
  4021e8:	0007000d 	break	0x7
  4021ec:	00003010 	mfhi	a2
  4021f0:	00001012 	mflo	v0
  4021f4:	14c00003 	bnez	a2,402204 <printf_core+0x1318>
  4021f8:	24830004 	addiu	v1,a0,4
  4021fc:	12a300d4 	beq	s5,v1,402550 <printf_core+0x1664>
  402200:	00000000 	nop
  402204:	30420001 	andi	v0,v0,0x1
  402208:	1440000c 	bnez	v0,40223c <printf_core+0x1350>
  40220c:	3c023b9a 	lui	v0,0x3b9a
  402210:	3442ca00 	ori	v0,v0,0xca00
  402214:	14a200a3 	bne	a1,v0,4024a4 <printf_core+0x15b8>
  402218:	00000000 	nop
  40221c:	0164102b 	sltu	v0,t3,a0
  402220:	104000a0 	beqz	v0,4024a4 <printf_core+0x15b8>
  402224:	00000000 	nop
  402228:	8c82fffc 	lw	v0,-4(a0)
  40222c:	00000000 	nop
  402230:	30420001 	andi	v0,v0,0x1
  402234:	1040009b 	beqz	v0,4024a4 <printf_core+0x15b8>
  402238:	00000000 	nop
  40223c:	8f828018 	lw	v0,-32744(gp)
  402240:	00000000 	nop
  402244:	8c5966dc 	lw	t9,26332(v0)
  402248:	8c5866d8 	lw	t8,26328(v0)
  40224c:	00051043 	sra	v0,a1,0x1
  402250:	00c2182b 	sltu	v1,a2,v0
  402254:	14600099 	bnez	v1,4024bc <printf_core+0x15d0>
  402258:	00000000 	nop
  40225c:	14c20004 	bne	a2,v0,402270 <printf_core+0x1384>
  402260:	00000000 	nop
  402264:	24820004 	addiu	v0,a0,4
  402268:	12a20159 	beq	s5,v0,4027d0 <printf_core+0x18e4>
  40226c:	00000000 	nop
  402270:	8f828018 	lw	v0,-32744(gp)
  402274:	00000000 	nop
  402278:	8c4366e4 	lw	v1,26340(v0)
  40227c:	8c4266e0 	lw	v0,26336(v0)
  402280:	10000092 	b	4024cc <printf_core+0x15e0>
  402284:	00000000 	nop
  402288:	448f0000 	mtc1	t7,$f0
  40228c:	00000000 	nop
  402290:	448e0800 	mtc1	t6,$f1
  402294:	00000000 	nop
  402298:	46340001 	sub.d	$f0,$f0,$f20
  40229c:	4444f800 	cfc1	a0,$31
  4022a0:	4444f800 	cfc1	a0,$31
  4022a4:	00000000 	nop
  4022a8:	34810003 	ori	at,a0,0x3
  4022ac:	38210002 	xori	at,at,0x2
  4022b0:	44c1f800 	ctc1	at,$31
  4022b4:	00000000 	nop
  4022b8:	46200024 	cvt.w.d	$f0,$f0
  4022bc:	44c4f800 	ctc1	a0,$31
  4022c0:	00000000 	nop
  4022c4:	44020000 	mfc1	v0,$f0
  4022c8:	1000ff6f 	b	402088 <printf_core+0x119c>
  4022cc:	00431025 	or	v0,v0,v1
  4022d0:	2a62001e 	slti	v0,s3,30
  4022d4:	14400002 	bnez	v0,4022e0 <printf_core+0x13f4>
  4022d8:	02606825 	move	t5,s3
  4022dc:	240d001d 	li	t5,29
  4022e0:	26a9fffc 	addiu	t1,s5,-4
  4022e4:	00003825 	move	a3,zero
  4022e8:	012b102b 	sltu	v0,t1,t3
  4022ec:	1040000f 	beqz	v0,40232c <printf_core+0x1440>
  4022f0:	01a03025 	move	a2,t5
  4022f4:	10e00004 	beqz	a3,402308 <printf_core+0x141c>
  4022f8:	0175102b 	sltu	v0,t3,s5
  4022fc:	ad67fffc 	sw	a3,-4(t3)
  402300:	256bfffc 	addiu	t3,t3,-4
  402304:	0175102b 	sltu	v0,t3,s5
  402308:	10400005 	beqz	v0,402320 <printf_core+0x1434>
  40230c:	00000000 	nop
  402310:	8ea2fffc 	lw	v0,-4(s5)
  402314:	00000000 	nop
  402318:	1040002d 	beqz	v0,4023d0 <printf_core+0x14e4>
  40231c:	00000000 	nop
  402320:	026d9823 	subu	s3,s3,t5
  402324:	1000ff6a 	b	4020d0 <printf_core+0x11e4>
  402328:	24020001 	li	v0,1
  40232c:	8f99809c 	lw	t9,-32612(gp)
  402330:	8d250000 	lw	a1,0(t1)
  402334:	afac02dc 	sw	t4,732(sp)
  402338:	afab02d8 	sw	t3,728(sp)
  40233c:	afa802bc 	sw	t0,700(sp)
  402340:	afad02b8 	sw	t5,696(sp)
  402344:	afa90298 	sw	t1,664(sp)
  402348:	afa702a8 	sw	a3,680(sp)
  40234c:	041109f0 	bal	404b10 <__ashldi3>
  402350:	00002025 	move	a0,zero
  402354:	8fa702a8 	lw	a3,680(sp)
  402358:	8fbc0018 	lw	gp,24(sp)
  40235c:	00672821 	addu	a1,v1,a3
  402360:	00a3202b 	sltu	a0,a1,v1
  402364:	00822021 	addu	a0,a0,v0
  402368:	3c073b9a 	lui	a3,0x3b9a
  40236c:	8f99807c 	lw	t9,-32644(gp)
  402370:	34e7ca00 	ori	a3,a3,0xca00
  402374:	00003025 	move	a2,zero
  402378:	afa402ac 	sw	a0,684(sp)
  40237c:	04110e58 	bal	405ce0 <__umoddi3>
  402380:	afa502a8 	sw	a1,680(sp)
  402384:	8fbc0018 	lw	gp,24(sp)
  402388:	8fa90298 	lw	t1,664(sp)
  40238c:	8fa402ac 	lw	a0,684(sp)
  402390:	8f998080 	lw	t9,-32640(gp)
  402394:	8fa502a8 	lw	a1,680(sp)
  402398:	3c073b9a 	lui	a3,0x3b9a
  40239c:	ad230000 	sw	v1,0(t1)
  4023a0:	34e7ca00 	ori	a3,a3,0xca00
  4023a4:	04110cda 	bal	405710 <__udivdi3>
  4023a8:	00003025 	move	a2,zero
  4023ac:	8fa90298 	lw	t1,664(sp)
  4023b0:	8fbc0018 	lw	gp,24(sp)
  4023b4:	8fac02dc 	lw	t4,732(sp)
  4023b8:	8fab02d8 	lw	t3,728(sp)
  4023bc:	8fa802bc 	lw	t0,700(sp)
  4023c0:	8fad02b8 	lw	t5,696(sp)
  4023c4:	00603825 	move	a3,v1
  4023c8:	1000ffc7 	b	4022e8 <printf_core+0x13fc>
  4023cc:	2529fffc 	addiu	t1,t1,-4
  4023d0:	1000ffcc 	b	402304 <printf_core+0x1418>
  4023d4:	26b5fffc 	addiu	s5,s5,-4
  4023d8:	2843fff7 	slti	v1,v0,-9
  4023dc:	14600002 	bnez	v1,4023e8 <printf_core+0x14fc>
  4023e0:	24040009 	li	a0,9
  4023e4:	00022023 	negu	a0,v0
  4023e8:	00987004 	sllv	t6,t8,a0
  4023ec:	25ceffff 	addiu	t6,t6,-1
  4023f0:	008d9807 	srav	s3,t5,a0
  4023f4:	01602825 	move	a1,t3
  4023f8:	00001825 	move	v1,zero
  4023fc:	00b5382b 	sltu	a3,a1,s5
  402400:	14e00016 	bnez	a3,40245c <printf_core+0x1570>
  402404:	00000000 	nop
  402408:	8d650000 	lw	a1,0(t3)
  40240c:	00000000 	nop
  402410:	14a00002 	bnez	a1,40241c <printf_core+0x1530>
  402414:	00000000 	nop
  402418:	256b0004 	addiu	t3,t3,4
  40241c:	10600003 	beqz	v1,40242c <printf_core+0x1540>
  402420:	00000000 	nop
  402424:	aea30000 	sw	v1,0(s5)
  402428:	26b50004 	addiu	s5,s5,4
  40242c:	12990002 	beq	s4,t9,402438 <printf_core+0x154c>
  402430:	01802825 	move	a1,t4
  402434:	01602825 	move	a1,t3
  402438:	02a51823 	subu	v1,s5,a1
  40243c:	00031883 	sra	v1,v1,0x2
  402440:	00c3182a 	slt	v1,a2,v1
  402444:	10600002 	beqz	v1,402450 <printf_core+0x1564>
  402448:	00000000 	nop
  40244c:	00afa821 	addu	s5,a1,t7
  402450:	00441021 	addu	v0,v0,a0
  402454:	1000ff30 	b	402118 <printf_core+0x122c>
  402458:	24030001 	li	v1,1
  40245c:	8ca70000 	lw	a3,0(a1)
  402460:	24a50004 	addiu	a1,a1,4
  402464:	00874806 	srlv	t1,a3,a0
  402468:	01c73824 	and	a3,t6,a3
  40246c:	00f30018 	mult	a3,s3
  402470:	01231821 	addu	v1,t1,v1
  402474:	aca3fffc 	sw	v1,-4(a1)
  402478:	00001812 	mflo	v1
  40247c:	1000ffe0 	b	402400 <printf_core+0x1514>
  402480:	00b5382b 	sltu	a3,a1,s5
  402484:	00821021 	addu	v0,a0,v0
  402488:	00021040 	sll	v0,v0,0x1
  40248c:	1000ff30 	b	402150 <printf_core+0x1264>
  402490:	26730001 	addiu	s3,s3,1
  402494:	00c52821 	addu	a1,a2,a1
  402498:	00052840 	sll	a1,a1,0x1
  40249c:	1000ff4c 	b	4021d0 <printf_core+0x12e4>
  4024a0:	24420001 	addiu	v0,v0,1
  4024a4:	8f828018 	lw	v0,-32744(gp)
  4024a8:	00000000 	nop
  4024ac:	8c5966d4 	lw	t9,26324(v0)
  4024b0:	8c5866d0 	lw	t8,26320(v0)
  4024b4:	1000ff66 	b	402250 <printf_core+0x1364>
  4024b8:	00051043 	sra	v0,a1,0x1
  4024bc:	8f828018 	lw	v0,-32744(gp)
  4024c0:	00000000 	nop
  4024c4:	8c4366f4 	lw	v1,26356(v0)
  4024c8:	8c4266f0 	lw	v0,26352(v0)
  4024cc:	11000011 	beqz	t0,402514 <printf_core+0x1628>
  4024d0:	240d002d 	li	t5,45
  4024d4:	8fa90290 	lw	t1,656(sp)
  4024d8:	00000000 	nop
  4024dc:	812e0000 	lb	t6,0(t1)
  4024e0:	00000000 	nop
  4024e4:	15cd000b 	bne	t6,t5,402514 <printf_core+0x1628>
  4024e8:	3c0d8000 	lui	t5,0x8000
  4024ec:	01b84826 	xor	t1,t5,t8
  4024f0:	afa902c8 	sw	t1,712(sp)
  4024f4:	01a24826 	xor	t1,t5,v0
  4024f8:	afb902cc 	sw	t9,716(sp)
  4024fc:	afa902d0 	sw	t1,720(sp)
  402500:	afa302d4 	sw	v1,724(sp)
  402504:	8fb902cc 	lw	t9,716(sp)
  402508:	8fb802c8 	lw	t8,712(sp)
  40250c:	8fa302d4 	lw	v1,724(sp)
  402510:	8fa202d0 	lw	v0,720(sp)
  402514:	44990000 	mtc1	t9,$f0
  402518:	44831000 	mtc1	v1,$f2
  40251c:	44980800 	mtc1	t8,$f1
  402520:	44821800 	mtc1	v0,$f3
  402524:	00000000 	nop
  402528:	46220000 	add.d	$f0,$f0,$f2
  40252c:	44991000 	mtc1	t9,$f2
  402530:	00000000 	nop
  402534:	44981800 	mtc1	t8,$f3
  402538:	00000000 	nop
  40253c:	46201032 	c.eq.d	$f2,$f0
  402540:	00000000 	nop
  402544:	450000a8 	bc1f	4027e8 <printf_core+0x18fc>
  402548:	00e63023 	subu	a2,a3,a2
  40254c:	ac860000 	sw	a2,0(a0)
  402550:	24840004 	addiu	a0,a0,4
  402554:	0095102b 	sltu	v0,a0,s5
  402558:	10400003 	beqz	v0,402568 <printf_core+0x167c>
  40255c:	0175102b 	sltu	v0,t3,s5
  402560:	0080a825 	move	s5,a0
  402564:	0175102b 	sltu	v0,t3,s5
  402568:	10400005 	beqz	v0,402580 <printf_core+0x1694>
  40256c:	24020067 	li	v0,103
  402570:	8ea2fffc 	lw	v0,-4(s5)
  402574:	00000000 	nop
  402578:	104000bb 	beqz	v0,402868 <printf_core+0x197c>
  40257c:	24020067 	li	v0,103
  402580:	16820026 	bne	s4,v0,40261c <printf_core+0x1730>
  402584:	3c037fff 	lui	v1,0x7fff
  402588:	17c00003 	bnez	s8,402598 <printf_core+0x16ac>
  40258c:	027e102a 	slt	v0,s3,s8
  402590:	241e0001 	li	s8,1
  402594:	027e102a 	slt	v0,s3,s8
  402598:	104000b5 	beqz	v0,402870 <printf_core+0x1984>
  40259c:	2a62fffc 	slti	v0,s3,-4
  4025a0:	144000b3 	bnez	v0,402870 <printf_core+0x1984>
  4025a4:	26620001 	addiu	v0,s3,1
  4025a8:	26d6ffff 	addiu	s6,s6,-1
  4025ac:	03c2f023 	subu	s8,s8,v0
  4025b0:	32020008 	andi	v0,s0,0x8
  4025b4:	14400019 	bnez	v0,40261c <printf_core+0x1730>
  4025b8:	3c037fff 	lui	v1,0x7fff
  4025bc:	0175102b 	sltu	v0,t3,s5
  4025c0:	10400005 	beqz	v0,4025d8 <printf_core+0x16ec>
  4025c4:	24040009 	li	a0,9
  4025c8:	8ea5fffc 	lw	a1,-4(s5)
  4025cc:	00000000 	nop
  4025d0:	14a000b5 	bnez	a1,4028a8 <printf_core+0x19bc>
  4025d4:	00000000 	nop
  4025d8:	02ac1023 	subu	v0,s5,t4
  4025dc:	00021083 	sra	v0,v0,0x2
  4025e0:	2442ffff 	addiu	v0,v0,-1
  4025e4:	000218c0 	sll	v1,v0,0x3
  4025e8:	00621021 	addu	v0,v1,v0
  4025ec:	24050066 	li	a1,102
  4025f0:	36c30020 	ori	v1,s6,0x20
  4025f4:	146500af 	bne	v1,a1,4028b4 <printf_core+0x19c8>
  4025f8:	00000000 	nop
  4025fc:	00441023 	subu	v0,v0,a0
  402600:	04410003 	bgez	v0,402610 <printf_core+0x1724>
  402604:	005e182a 	slt	v1,v0,s8
  402608:	00001025 	move	v0,zero
  40260c:	005e182a 	slt	v1,v0,s8
  402610:	10600002 	beqz	v1,40261c <printf_core+0x1730>
  402614:	3c037fff 	lui	v1,0x7fff
  402618:	0040f025 	move	s8,v0
  40261c:	3463fffe 	ori	v1,v1,0xfffe
  402620:	03c3102a 	slt	v0,s8,v1
  402624:	1040fcf3 	beqz	v0,4019f4 <printf_core+0xb08>
  402628:	36d40020 	ori	s4,s6,0x20
  40262c:	32020008 	andi	v0,s0,0x8
  402630:	afa202ac 	sw	v0,684(sp)
  402634:	03c21025 	or	v0,s8,v0
  402638:	0002382b 	sltu	a3,zero,v0
  40263c:	afa202b8 	sw	v0,696(sp)
  402640:	27c20001 	addiu	v0,s8,1
  402644:	00e23821 	addu	a3,a3,v0
  402648:	24630001 	addiu	v1,v1,1
  40264c:	24020066 	li	v0,102
  402650:	168200a2 	bne	s4,v0,4028dc <printf_core+0x19f0>
  402654:	00671823 	subu	v1,v1,a3
  402658:	0073182a 	slt	v1,v1,s3
  40265c:	1460fce5 	bnez	v1,4019f4 <printf_core+0xb08>
  402660:	00000000 	nop
  402664:	1a600002 	blez	s3,402670 <printf_core+0x1784>
  402668:	00000000 	nop
  40266c:	00f33821 	addu	a3,a3,s3
  402670:	11000005 	beqz	t0,402688 <printf_core+0x179c>
  402674:	3c027fff 	lui	v0,0x7fff
  402678:	3442fffe 	ori	v0,v0,0xfffe
  40267c:	0047102a 	slt	v0,v0,a3
  402680:	1440fcdc 	bnez	v0,4019f4 <printf_core+0xb08>
  402684:	00000000 	nop
  402688:	8f828018 	lw	v0,-32744(gp)
  40268c:	01079821 	addu	s3,t0,a3
  402690:	24420e0c 	addiu	v0,v0,3596
  402694:	afac02d8 	sw	t4,728(sp)
  402698:	afab02bc 	sw	t3,700(sp)
  40269c:	02603825 	move	a3,s3
  4026a0:	0040c825 	move	t9,v0
  4026a4:	afa802a8 	sw	t0,680(sp)
  4026a8:	02403025 	move	a2,s2
  4026ac:	24050020 	li	a1,32
  4026b0:	02202025 	move	a0,s1
  4026b4:	afa20298 	sw	v0,664(sp)
  4026b8:	0411f9d4 	bal	400e0c <pad>
  4026bc:	afb00010 	sw	s0,16(sp)
  4026c0:	8fa20294 	lw	v0,660(sp)
  4026c4:	8fa802a8 	lw	t0,680(sp)
  4026c8:	24420dd0 	addiu	v0,v0,3536
  4026cc:	8fa50290 	lw	a1,656(sp)
  4026d0:	01003025 	move	a2,t0
  4026d4:	0040c825 	move	t9,v0
  4026d8:	02202025 	move	a0,s1
  4026dc:	0411f9bc 	bal	400dd0 <out>
  4026e0:	afa20290 	sw	v0,656(sp)
  4026e4:	3c020001 	lui	v0,0x1
  4026e8:	02021026 	xor	v0,s0,v0
  4026ec:	8fb90298 	lw	t9,664(sp)
  4026f0:	afa20010 	sw	v0,16(sp)
  4026f4:	02603825 	move	a3,s3
  4026f8:	02403025 	move	a2,s2
  4026fc:	24050030 	li	a1,48
  402700:	0320f809 	jalr	t9
  402704:	02202025 	move	a0,s1
  402708:	24020066 	li	v0,102
  40270c:	8fbc0018 	lw	gp,24(sp)
  402710:	8fab02bc 	lw	t3,700(sp)
  402714:	8fac02d8 	lw	t4,728(sp)
  402718:	168200f5 	bne	s4,v0,402af0 <printf_core+0x1c04>
  40271c:	0175102b 	sltu	v0,t3,s5
  402720:	016c102b 	sltu	v0,t3,t4
  402724:	10400002 	beqz	v0,402730 <printf_core+0x1844>
  402728:	0180a025 	move	s4,t4
  40272c:	0160a025 	move	s4,t3
  402730:	27a20249 	addiu	v0,sp,585
  402734:	afa202a8 	sw	v0,680(sp)
  402738:	8f828018 	lw	v0,-32744(gp)
  40273c:	0280b025 	move	s6,s4
  402740:	24420ca0 	addiu	v0,v0,3232
  402744:	afa202bc 	sw	v0,700(sp)
  402748:	27a20240 	addiu	v0,sp,576
  40274c:	afa202ac 	sw	v0,684(sp)
  402750:	0196102b 	sltu	v0,t4,s6
  402754:	1040008b 	beqz	v0,402984 <printf_core+0x1a98>
  402758:	2682fffd 	addiu	v0,s4,-3
  40275c:	25830001 	addiu	v1,t4,1
  402760:	0062182b 	sltu	v1,v1,v0
  402764:	14600005 	bnez	v1,40277c <printf_core+0x1890>
  402768:	00001025 	move	v0,zero
  40276c:	258c0004 	addiu	t4,t4,4
  402770:	01946023 	subu	t4,t4,s4
  402774:	000c6082 	srl	t4,t4,0x2
  402778:	000c1080 	sll	v0,t4,0x2
  40277c:	0282a021 	addu	s4,s4,v0
  402780:	8fa202b8 	lw	v0,696(sp)
  402784:	00000000 	nop
  402788:	1040000a 	beqz	v0,4027b4 <printf_core+0x18c8>
  40278c:	27a20249 	addiu	v0,sp,585
  402790:	8f858018 	lw	a1,-32744(gp)
  402794:	8fb90290 	lw	t9,656(sp)
  402798:	24060001 	li	a2,1
  40279c:	24a563e0 	addiu	a1,a1,25568
  4027a0:	0320f809 	jalr	t9
  4027a4:	02202025 	move	a0,s1
  4027a8:	8fbc0018 	lw	gp,24(sp)
  4027ac:	03c0b825 	move	s7,s8
  4027b0:	27a20249 	addiu	v0,sp,585
  4027b4:	afa202a8 	sw	v0,680(sp)
  4027b8:	8f828018 	lw	v0,-32744(gp)
  4027bc:	27b60240 	addiu	s6,sp,576
  4027c0:	24420ca0 	addiu	v0,v0,3232
  4027c4:	afa202ac 	sw	v0,684(sp)
  4027c8:	100000ad 	b	402a80 <printf_core+0x1b94>
  4027cc:	241e0030 	li	s8,48
  4027d0:	8f828018 	lw	v0,-32744(gp)
  4027d4:	00000000 	nop
  4027d8:	8c4366ec 	lw	v1,26348(v0)
  4027dc:	8c4266e8 	lw	v0,26344(v0)
  4027e0:	1000ff3a 	b	4024cc <printf_core+0x15e0>
  4027e4:	00000000 	nop
  4027e8:	00a62821 	addu	a1,a1,a2
  4027ec:	3c033b9a 	lui	v1,0x3b9a
  4027f0:	ac850000 	sw	a1,0(a0)
  4027f4:	3463ca00 	ori	v1,v1,0xca00
  4027f8:	8c820000 	lw	v0,0(a0)
  4027fc:	00000000 	nop
  402800:	0043102b 	sltu	v0,v0,v1
  402804:	1040000d 	beqz	v0,40283c <printf_core+0x1950>
  402808:	018b9823 	subu	s3,t4,t3
  40280c:	00131083 	sra	v0,s3,0x2
  402810:	000298c0 	sll	s3,v0,0x3
  402814:	8d660000 	lw	a2,0(t3)
  402818:	02629821 	addu	s3,s3,v0
  40281c:	2405000a 	li	a1,10
  402820:	00c5182b 	sltu	v1,a2,a1
  402824:	1460ff4a 	bnez	v1,402550 <printf_core+0x1664>
  402828:	00051080 	sll	v0,a1,0x2
  40282c:	00452821 	addu	a1,v0,a1
  402830:	00052840 	sll	a1,a1,0x1
  402834:	1000fffa 	b	402820 <printf_core+0x1934>
  402838:	26730001 	addiu	s3,s3,1
  40283c:	2484fffc 	addiu	a0,a0,-4
  402840:	008b102b 	sltu	v0,a0,t3
  402844:	10400003 	beqz	v0,402854 <printf_core+0x1968>
  402848:	ac800004 	sw	zero,4(a0)
  40284c:	ad60fffc 	sw	zero,-4(t3)
  402850:	256bfffc 	addiu	t3,t3,-4
  402854:	8c820000 	lw	v0,0(a0)
  402858:	00000000 	nop
  40285c:	24420001 	addiu	v0,v0,1
  402860:	1000ffe5 	b	4027f8 <printf_core+0x190c>
  402864:	ac820000 	sw	v0,0(a0)
  402868:	1000ff3e 	b	402564 <printf_core+0x1678>
  40286c:	26b5fffc 	addiu	s5,s5,-4
  402870:	26d6fffe 	addiu	s6,s6,-2
  402874:	1000ff4e 	b	4025b0 <printf_core+0x16c4>
  402878:	27deffff 	addiu	s8,s8,-1
  40287c:	00621021 	addu	v0,v1,v0
  402880:	00021040 	sll	v0,v0,0x1
  402884:	24840001 	addiu	a0,a0,1
  402888:	14400002 	bnez	v0,402894 <printf_core+0x19a8>
  40288c:	00a2001b 	divu	zero,a1,v0
  402890:	0007000d 	break	0x7
  402894:	00001810 	mfhi	v1
  402898:	1060fff8 	beqz	v1,40287c <printf_core+0x1990>
  40289c:	00021880 	sll	v1,v0,0x2
  4028a0:	1000ff4e 	b	4025dc <printf_core+0x16f0>
  4028a4:	02ac1023 	subu	v0,s5,t4
  4028a8:	00002025 	move	a0,zero
  4028ac:	1000fff6 	b	402888 <printf_core+0x199c>
  4028b0:	2402000a 	li	v0,10
  4028b4:	02621021 	addu	v0,s3,v0
  4028b8:	00442023 	subu	a0,v0,a0
  4028bc:	04810003 	bgez	a0,4028cc <printf_core+0x19e0>
  4028c0:	009e102a 	slt	v0,a0,s8
  4028c4:	00002025 	move	a0,zero
  4028c8:	009e102a 	slt	v0,a0,s8
  4028cc:	1040ff53 	beqz	v0,40261c <printf_core+0x1730>
  4028d0:	3c037fff 	lui	v1,0x7fff
  4028d4:	1000ff51 	b	40261c <printf_core+0x1730>
  4028d8:	0080f025 	move	s8,a0
  4028dc:	00132fc3 	sra	a1,s3,0x1f
  4028e0:	8f998018 	lw	t9,-32744(gp)
  4028e4:	00b31026 	xor	v0,a1,s3
  4028e8:	00452823 	subu	a1,v0,a1
  4028ec:	27a60264 	addiu	a2,sp,612
  4028f0:	afa302dc 	sw	v1,732(sp)
  4028f4:	afa702d8 	sw	a3,728(sp)
  4028f8:	afac02bc 	sw	t4,700(sp)
  4028fc:	afab02a8 	sw	t3,680(sp)
  402900:	afa802a4 	sw	t0,676(sp)
  402904:	afa60298 	sw	a2,664(sp)
  402908:	27390ca0 	addiu	t9,t9,3232
  40290c:	0411f8e4 	bal	400ca0 <fmt_u>
  402910:	000527c3 	sra	a0,a1,0x1f
  402914:	8fbc0018 	lw	gp,24(sp)
  402918:	8fa60298 	lw	a2,664(sp)
  40291c:	8fa802a4 	lw	t0,676(sp)
  402920:	8fab02a8 	lw	t3,680(sp)
  402924:	8fac02bc 	lw	t4,700(sp)
  402928:	8fa702d8 	lw	a3,728(sp)
  40292c:	8fa302dc 	lw	v1,732(sp)
  402930:	24050030 	li	a1,48
  402934:	00c22023 	subu	a0,a2,v0
  402938:	28840002 	slti	a0,a0,2
  40293c:	1480000e 	bnez	a0,402978 <printf_core+0x1a8c>
  402940:	00000000 	nop
  402944:	06600002 	bltz	s3,402950 <printf_core+0x1a64>
  402948:	2404002d 	li	a0,45
  40294c:	2404002b 	li	a0,43
  402950:	a044ffff 	sb	a0,-1(v0)
  402954:	a056fffe 	sb	s6,-2(v0)
  402958:	2444fffe 	addiu	a0,v0,-2
  40295c:	27a20264 	addiu	v0,sp,612
  402960:	00441023 	subu	v0,v0,a0
  402964:	0062182a 	slt	v1,v1,v0
  402968:	1460fc22 	bnez	v1,4019f4 <printf_core+0xb08>
  40296c:	afa402a4 	sw	a0,676(sp)
  402970:	1000ff3f 	b	402670 <printf_core+0x1784>
  402974:	00e23821 	addu	a3,a3,v0
  402978:	2442ffff 	addiu	v0,v0,-1
  40297c:	1000ffed 	b	402934 <printf_core+0x1a48>
  402980:	a0450000 	sb	a1,0(v0)
  402984:	8ec50000 	lw	a1,0(s6)
  402988:	8fa602a8 	lw	a2,680(sp)
  40298c:	8fb902bc 	lw	t9,700(sp)
  402990:	afac02d8 	sw	t4,728(sp)
  402994:	0320f809 	jalr	t9
  402998:	00002025 	move	a0,zero
  40299c:	8fac02d8 	lw	t4,728(sp)
  4029a0:	1696000b 	bne	s4,s6,4029d0 <printf_core+0x1ae4>
  4029a4:	00402825 	move	a1,v0
  4029a8:	8fa202a8 	lw	v0,680(sp)
  4029ac:	00000000 	nop
  4029b0:	14a20012 	bne	a1,v0,4029fc <printf_core+0x1b10>
  4029b4:	00000000 	nop
  4029b8:	24020030 	li	v0,48
  4029bc:	a3a20248 	sb	v0,584(sp)
  4029c0:	1000000d 	b	4029f8 <printf_core+0x1b0c>
  4029c4:	27a50248 	addiu	a1,sp,584
  4029c8:	24030030 	li	v1,48
  4029cc:	a0430000 	sb	v1,0(v0)
  4029d0:	8fa302ac 	lw	v1,684(sp)
  4029d4:	00000000 	nop
  4029d8:	0062202b 	sltu	a0,v1,v0
  4029dc:	1480fffa 	bnez	a0,4029c8 <printf_core+0x1adc>
  4029e0:	2442ffff 	addiu	v0,v0,-1
  4029e4:	00a3102b 	sltu	v0,a1,v1
  4029e8:	14400002 	bnez	v0,4029f4 <printf_core+0x1b08>
  4029ec:	00002025 	move	a0,zero
  4029f0:	00652023 	subu	a0,v1,a1
  4029f4:	00a42821 	addu	a1,a1,a0
  4029f8:	8fa202a8 	lw	v0,680(sp)
  4029fc:	8fb90290 	lw	t9,656(sp)
  402a00:	afac02d8 	sw	t4,728(sp)
  402a04:	00453023 	subu	a2,v0,a1
  402a08:	0320f809 	jalr	t9
  402a0c:	02202025 	move	a0,s1
  402a10:	8fbc0018 	lw	gp,24(sp)
  402a14:	8fac02d8 	lw	t4,728(sp)
  402a18:	1000ff4d 	b	402750 <printf_core+0x1864>
  402a1c:	26d60004 	addiu	s6,s6,4
  402a20:	8fa602a8 	lw	a2,680(sp)
  402a24:	8e850000 	lw	a1,0(s4)
  402a28:	8fb902ac 	lw	t9,684(sp)
  402a2c:	00000000 	nop
  402a30:	0320f809 	jalr	t9
  402a34:	00002025 	move	a0,zero
  402a38:	00401825 	move	v1,v0
  402a3c:	02c3202b 	sltu	a0,s6,v1
  402a40:	14800029 	bnez	a0,402ae8 <printf_core+0x1bfc>
  402a44:	2463ffff 	addiu	v1,v1,-1
  402a48:	0056182b 	sltu	v1,v0,s6
  402a4c:	14600002 	bnez	v1,402a58 <printf_core+0x1b6c>
  402a50:	00002825 	move	a1,zero
  402a54:	02c22823 	subu	a1,s6,v0
  402a58:	2ae3000a 	slti	v1,s7,10
  402a5c:	14600002 	bnez	v1,402a68 <printf_core+0x1b7c>
  402a60:	02e03025 	move	a2,s7
  402a64:	24060009 	li	a2,9
  402a68:	8fb90290 	lw	t9,656(sp)
  402a6c:	00452821 	addu	a1,v0,a1
  402a70:	02202025 	move	a0,s1
  402a74:	26940004 	addiu	s4,s4,4
  402a78:	0320f809 	jalr	t9
  402a7c:	26f7fff7 	addiu	s7,s7,-9
  402a80:	0295102b 	sltu	v0,s4,s5
  402a84:	10400003 	beqz	v0,402a94 <printf_core+0x1ba8>
  402a88:	00000000 	nop
  402a8c:	1ee0ffe4 	bgtz	s7,402a20 <printf_core+0x1b34>
  402a90:	00000000 	nop
  402a94:	8fb90298 	lw	t9,664(sp)
  402a98:	afa00010 	sw	zero,16(sp)
  402a9c:	24070009 	li	a3,9
  402aa0:	26e60009 	addiu	a2,s7,9
  402aa4:	24050030 	li	a1,48
  402aa8:	0320f809 	jalr	t9
  402aac:	02202025 	move	a0,s1
  402ab0:	8fb90298 	lw	t9,664(sp)
  402ab4:	3a102000 	xori	s0,s0,0x2000
  402ab8:	afb00010 	sw	s0,16(sp)
  402abc:	02603825 	move	a3,s3
  402ac0:	02403025 	move	a2,s2
  402ac4:	24050020 	li	a1,32
  402ac8:	0320f809 	jalr	t9
  402acc:	02202025 	move	a0,s1
  402ad0:	0253102a 	slt	v0,s2,s3
  402ad4:	8fbc0018 	lw	gp,24(sp)
  402ad8:	1040fbc1 	beqz	v0,4019e0 <printf_core+0xaf4>
  402adc:	0240b825 	move	s7,s2
  402ae0:	1000fbbf 	b	4019e0 <printf_core+0xaf4>
  402ae4:	0260b825 	move	s7,s3
  402ae8:	1000ffd4 	b	402a3c <printf_core+0x1b50>
  402aec:	a07e0000 	sb	s8,0(v1)
  402af0:	14400002 	bnez	v0,402afc <printf_core+0x1c10>
  402af4:	00000000 	nop
  402af8:	25750004 	addiu	s5,t3,4
  402afc:	8f978018 	lw	s7,-32744(gp)
  402b00:	27a20249 	addiu	v0,sp,585
  402b04:	8f968018 	lw	s6,-32744(gp)
  402b08:	afa202a8 	sw	v0,680(sp)
  402b0c:	26e20ca0 	addiu	v0,s7,3232
  402b10:	afa202b8 	sw	v0,696(sp)
  402b14:	26c263e0 	addiu	v0,s6,25568
  402b18:	0160a025 	move	s4,t3
  402b1c:	afa202bc 	sw	v0,700(sp)
  402b20:	0295102b 	sltu	v0,s4,s5
  402b24:	10400003 	beqz	v0,402b34 <printf_core+0x1c48>
  402b28:	00000000 	nop
  402b2c:	07c10011 	bgez	s8,402b74 <printf_core+0x1c88>
  402b30:	00000000 	nop
  402b34:	8fb90298 	lw	t9,664(sp)
  402b38:	27c60012 	addiu	a2,s8,18
  402b3c:	02202025 	move	a0,s1
  402b40:	afa00010 	sw	zero,16(sp)
  402b44:	24070012 	li	a3,18
  402b48:	0320f809 	jalr	t9
  402b4c:	24050030 	li	a1,48
  402b50:	8fa202a4 	lw	v0,676(sp)
  402b54:	27a60264 	addiu	a2,sp,612
  402b58:	8fb90290 	lw	t9,656(sp)
  402b5c:	00c23023 	subu	a2,a2,v0
  402b60:	00402825 	move	a1,v0
  402b64:	0320f809 	jalr	t9
  402b68:	02202025 	move	a0,s1
  402b6c:	1000ffd0 	b	402ab0 <printf_core+0x1bc4>
  402b70:	00000000 	nop
  402b74:	8e850000 	lw	a1,0(s4)
  402b78:	8fa602a8 	lw	a2,680(sp)
  402b7c:	8fb902b8 	lw	t9,696(sp)
  402b80:	afab02d8 	sw	t3,728(sp)
  402b84:	0320f809 	jalr	t9
  402b88:	00002025 	move	a0,zero
  402b8c:	00402825 	move	a1,v0
  402b90:	8fa202a8 	lw	v0,680(sp)
  402b94:	8fab02d8 	lw	t3,728(sp)
  402b98:	14a20004 	bne	a1,v0,402bac <printf_core+0x1cc0>
  402b9c:	00000000 	nop
  402ba0:	24020030 	li	v0,48
  402ba4:	a3a20248 	sb	v0,584(sp)
  402ba8:	27a50248 	addiu	a1,sp,584
  402bac:	1174001d 	beq	t3,s4,402c24 <printf_core+0x1d38>
  402bb0:	00a01025 	move	v0,a1
  402bb4:	27a30240 	addiu	v1,sp,576
  402bb8:	24060030 	li	a2,48
  402bbc:	0062202b 	sltu	a0,v1,v0
  402bc0:	14800015 	bnez	a0,402c18 <printf_core+0x1d2c>
  402bc4:	00a3202b 	sltu	a0,a1,v1
  402bc8:	14800002 	bnez	a0,402bd4 <printf_core+0x1ce8>
  402bcc:	00001025 	move	v0,zero
  402bd0:	00651023 	subu	v0,v1,a1
  402bd4:	00a2b021 	addu	s6,a1,v0
  402bd8:	8fa202a8 	lw	v0,680(sp)
  402bdc:	00000000 	nop
  402be0:	0056b823 	subu	s7,v0,s6
  402be4:	02fe202a 	slt	a0,s7,s8
  402be8:	10800002 	beqz	a0,402bf4 <printf_core+0x1d08>
  402bec:	03c03025 	move	a2,s8
  402bf0:	02e03025 	move	a2,s7
  402bf4:	8fb90290 	lw	t9,656(sp)
  402bf8:	afab02d8 	sw	t3,728(sp)
  402bfc:	02c02825 	move	a1,s6
  402c00:	0320f809 	jalr	t9
  402c04:	02202025 	move	a0,s1
  402c08:	03d7f023 	subu	s8,s8,s7
  402c0c:	8fab02d8 	lw	t3,728(sp)
  402c10:	1000ffc3 	b	402b20 <printf_core+0x1c34>
  402c14:	26940004 	addiu	s4,s4,4
  402c18:	2442ffff 	addiu	v0,v0,-1
  402c1c:	1000ffe7 	b	402bbc <printf_core+0x1cd0>
  402c20:	a0460000 	sb	a2,0(v0)
  402c24:	8fb90290 	lw	t9,656(sp)
  402c28:	afab02d8 	sw	t3,728(sp)
  402c2c:	24060001 	li	a2,1
  402c30:	02202025 	move	a0,s1
  402c34:	0320f809 	jalr	t9
  402c38:	24b60001 	addiu	s6,a1,1
  402c3c:	8fa202ac 	lw	v0,684(sp)
  402c40:	8fab02d8 	lw	t3,728(sp)
  402c44:	03c21825 	or	v1,s8,v0
  402c48:	1060ffe3 	beqz	v1,402bd8 <printf_core+0x1cec>
  402c4c:	00000000 	nop
  402c50:	8fa502bc 	lw	a1,700(sp)
  402c54:	8fb90290 	lw	t9,656(sp)
  402c58:	24060001 	li	a2,1
  402c5c:	0320f809 	jalr	t9
  402c60:	02202025 	move	a0,s1
  402c64:	8fab02d8 	lw	t3,728(sp)
  402c68:	1000ffdb 	b	402bd8 <printf_core+0x1cec>
  402c6c:	00000000 	nop
  402c70:	8f948018 	lw	s4,-32744(gp)
  402c74:	27b50240 	addiu	s5,sp,576
  402c78:	1000fa5c 	b	4015ec <printf_core+0x700>
  402c7c:	269463a8 	addiu	s4,s4,25512
  402c80:	1000fa5a 	b	4015ec <printf_core+0x700>
  402c84:	02a09825 	move	s3,s5
  402c88:	1620f9cf 	bnez	s1,4013c8 <printf_core+0x4dc>
  402c8c:	00000000 	nop
  402c90:	8fa2028c 	lw	v0,652(sp)
  402c94:	00000000 	nop
  402c98:	1040f9ca 	beqz	v0,4013c4 <printf_core+0x4d8>
  402c9c:	00000000 	nop
  402ca0:	8f998018 	lw	t9,-32744(gp)
  402ca4:	2407000a 	li	a3,10
  402ca8:	27390b50 	addiu	t9,t9,2896
  402cac:	8fa2028c 	lw	v0,652(sp)
  402cb0:	8fa30338 	lw	v1,824(sp)
  402cb4:	00021080 	sll	v0,v0,0x2
  402cb8:	00621021 	addu	v0,v1,v0
  402cbc:	8c450000 	lw	a1,0(v0)
  402cc0:	00000000 	nop
  402cc4:	14a00010 	bnez	a1,402d08 <printf_core+0x1e1c>
  402cc8:	2403000a 	li	v1,10
  402ccc:	8fa2028c 	lw	v0,652(sp)
  402cd0:	8fa40338 	lw	a0,824(sp)
  402cd4:	00021080 	sll	v0,v0,0x2
  402cd8:	00821021 	addu	v0,a0,v0
  402cdc:	8c420000 	lw	v0,0(v0)
  402ce0:	00000000 	nop
  402ce4:	1440f96b 	bnez	v0,401294 <printf_core+0x3a8>
  402ce8:	00000000 	nop
  402cec:	8fa2028c 	lw	v0,652(sp)
  402cf0:	00000000 	nop
  402cf4:	24420001 	addiu	v0,v0,1
  402cf8:	1443fff4 	bne	v0,v1,402ccc <printf_core+0x1de0>
  402cfc:	afa2028c 	sw	v0,652(sp)
  402d00:	1000000d 	b	402d38 <printf_core+0x1e4c>
  402d04:	24020001 	li	v0,1
  402d08:	8fa2028c 	lw	v0,652(sp)
  402d0c:	8fa60330 	lw	a2,816(sp)
  402d10:	000220c0 	sll	a0,v0,0x3
  402d14:	8fa20334 	lw	v0,820(sp)
  402d18:	0411f78d 	bal	400b50 <pop_arg>
  402d1c:	00442021 	addu	a0,v0,a0
  402d20:	8fa2028c 	lw	v0,652(sp)
  402d24:	8fbc0018 	lw	gp,24(sp)
  402d28:	24420001 	addiu	v0,v0,1
  402d2c:	1447ffdf 	bne	v0,a3,402cac <printf_core+0x1dc0>
  402d30:	afa2028c 	sw	v0,652(sp)
  402d34:	24020001 	li	v0,1
  402d38:	1000f9a3 	b	4013c8 <printf_core+0x4dc>
  402d3c:	afa20288 	sw	v0,648(sp)

00402d40 <vfprintf>:
  402d40:	3c1c0002 	lui	gp,0x2
  402d44:	279cc470 	addiu	gp,gp,-15248
  402d48:	0399e021 	addu	gp,gp,t9
  402d4c:	27bdfee0 	addiu	sp,sp,-288
  402d50:	8f998044 	lw	t9,-32700(gp)
  402d54:	afb70114 	sw	s7,276(sp)
  402d58:	27b700c0 	addiu	s7,sp,192
  402d5c:	afbc0018 	sw	gp,24(sp)
  402d60:	afbf011c 	sw	ra,284(sp)
  402d64:	afbe0118 	sw	s8,280(sp)
  402d68:	afb5010c 	sw	s5,268(sp)
  402d6c:	afb40108 	sw	s4,264(sp)
  402d70:	afb100fc 	sw	s1,252(sp)
  402d74:	afb000f8 	sw	s0,248(sp)
  402d78:	00c08825 	move	s1,a2
  402d7c:	00a0a825 	move	s5,a1
  402d80:	24060028 	li	a2,40
  402d84:	00002825 	move	a1,zero
  402d88:	afb60110 	sw	s6,272(sp)
  402d8c:	afb30104 	sw	s3,260(sp)
  402d90:	afb20100 	sw	s2,256(sp)
  402d94:	00808025 	move	s0,a0
  402d98:	04110071 	bal	402f60 <memset>
  402d9c:	02e02025 	move	a0,s7
  402da0:	8fbc0018 	lw	gp,24(sp)
  402da4:	27a70070 	addiu	a3,sp,112
  402da8:	8f948018 	lw	s4,-32744(gp)
  402dac:	27be00e8 	addiu	s8,sp,232
  402db0:	26940eec 	addiu	s4,s4,3820
  402db4:	afb100e8 	sw	s1,232(sp)
  402db8:	afb70010 	sw	s7,16(sp)
  402dbc:	afa700f0 	sw	a3,240(sp)
  402dc0:	03c03025 	move	a2,s8
  402dc4:	02a02825 	move	a1,s5
  402dc8:	0280c825 	move	t9,s4
  402dcc:	0411f847 	bal	400eec <printf_core>
  402dd0:	00002025 	move	a0,zero
  402dd4:	8fbc0018 	lw	gp,24(sp)
  402dd8:	0440004c 	bltz	v0,402f0c <vfprintf+0x1cc>
  402ddc:	2411ffff 	li	s1,-1
  402de0:	8e02004c 	lw	v0,76(s0)
  402de4:	8fa700f0 	lw	a3,240(sp)
  402de8:	04400008 	bltz	v0,402e0c <vfprintf+0xcc>
  402dec:	00009825 	move	s3,zero
  402df0:	8f9980a0 	lw	t9,-32608(gp)
  402df4:	00000000 	nop
  402df8:	0411022c 	bal	4036ac <__lockfile>
  402dfc:	02002025 	move	a0,s0
  402e00:	8fbc0018 	lw	gp,24(sp)
  402e04:	8fa700f0 	lw	a3,240(sp)
  402e08:	00409825 	move	s3,v0
  402e0c:	8e020000 	lw	v0,0(s0)
  402e10:	8e030048 	lw	v1,72(s0)
  402e14:	00000000 	nop
  402e18:	1c600004 	bgtz	v1,402e2c <vfprintf+0xec>
  402e1c:	30560020 	andi	s6,v0,0x20
  402e20:	2403ffdf 	li	v1,-33
  402e24:	00431024 	and	v0,v0,v1
  402e28:	ae020000 	sw	v0,0(s0)
  402e2c:	8e020030 	lw	v0,48(s0)
  402e30:	00000000 	nop
  402e34:	14400042 	bnez	v0,402f40 <vfprintf+0x200>
  402e38:	27a20020 	addiu	v0,sp,32
  402e3c:	8e12002c 	lw	s2,44(s0)
  402e40:	ae02002c 	sw	v0,44(s0)
  402e44:	24020050 	li	v0,80
  402e48:	ae020030 	sw	v0,48(s0)
  402e4c:	ae000010 	sw	zero,16(s0)
  402e50:	ae00001c 	sw	zero,28(s0)
  402e54:	ae000014 	sw	zero,20(s0)
  402e58:	8f9980a4 	lw	t9,-32604(gp)
  402e5c:	afa700f0 	sw	a3,240(sp)
  402e60:	041102cf 	bal	4039a0 <__towrite>
  402e64:	02002025 	move	a0,s0
  402e68:	8fbc0018 	lw	gp,24(sp)
  402e6c:	1440000a 	bnez	v0,402e98 <vfprintf+0x158>
  402e70:	2411ffff 	li	s1,-1
  402e74:	8fa700f0 	lw	a3,240(sp)
  402e78:	afb70010 	sw	s7,16(sp)
  402e7c:	03c03025 	move	a2,s8
  402e80:	02a02825 	move	a1,s5
  402e84:	0280c825 	move	t9,s4
  402e88:	0411f818 	bal	400eec <printf_core>
  402e8c:	02002025 	move	a0,s0
  402e90:	8fbc0018 	lw	gp,24(sp)
  402e94:	00408825 	move	s1,v0
  402e98:	1240000f 	beqz	s2,402ed8 <vfprintf+0x198>
  402e9c:	00003025 	move	a2,zero
  402ea0:	8e190024 	lw	t9,36(s0)
  402ea4:	00002825 	move	a1,zero
  402ea8:	0320f809 	jalr	t9
  402eac:	02002025 	move	a0,s0
  402eb0:	8e020014 	lw	v0,20(s0)
  402eb4:	8fbc0018 	lw	gp,24(sp)
  402eb8:	14400002 	bnez	v0,402ec4 <vfprintf+0x184>
  402ebc:	00000000 	nop
  402ec0:	2411ffff 	li	s1,-1
  402ec4:	ae12002c 	sw	s2,44(s0)
  402ec8:	ae000030 	sw	zero,48(s0)
  402ecc:	ae000010 	sw	zero,16(s0)
  402ed0:	ae00001c 	sw	zero,28(s0)
  402ed4:	ae000014 	sw	zero,20(s0)
  402ed8:	8e020000 	lw	v0,0(s0)
  402edc:	00000000 	nop
  402ee0:	30430020 	andi	v1,v0,0x20
  402ee4:	10600002 	beqz	v1,402ef0 <vfprintf+0x1b0>
  402ee8:	00000000 	nop
  402eec:	2411ffff 	li	s1,-1
  402ef0:	02c2b025 	or	s6,s6,v0
  402ef4:	12600005 	beqz	s3,402f0c <vfprintf+0x1cc>
  402ef8:	ae160000 	sw	s6,0(s0)
  402efc:	8f9980a8 	lw	t9,-32600(gp)
  402f00:	00000000 	nop
  402f04:	04110237 	bal	4037e4 <__unlockfile>
  402f08:	02002025 	move	a0,s0
  402f0c:	8fbf011c 	lw	ra,284(sp)
  402f10:	8fbe0118 	lw	s8,280(sp)
  402f14:	8fb70114 	lw	s7,276(sp)
  402f18:	8fb60110 	lw	s6,272(sp)
  402f1c:	8fb5010c 	lw	s5,268(sp)
  402f20:	8fb40108 	lw	s4,264(sp)
  402f24:	8fb30104 	lw	s3,260(sp)
  402f28:	8fb20100 	lw	s2,256(sp)
  402f2c:	8fb000f8 	lw	s0,248(sp)
  402f30:	02201025 	move	v0,s1
  402f34:	8fb100fc 	lw	s1,252(sp)
  402f38:	03e00008 	jr	ra
  402f3c:	27bd0120 	addiu	sp,sp,288
  402f40:	8e120010 	lw	s2,16(s0)
  402f44:	00000000 	nop
  402f48:	1240ffc3 	beqz	s2,402e58 <vfprintf+0x118>
  402f4c:	00000000 	nop
  402f50:	1000ffc9 	b	402e78 <vfprintf+0x138>
  402f54:	00009025 	move	s2,zero
	...

00402f60 <memset>:
  402f60:	10c00045 	beqz	a2,403078 <memset+0x118>
  402f64:	00801025 	move	v0,a0
  402f68:	30a300ff 	andi	v1,a1,0xff
  402f6c:	00862021 	addu	a0,a0,a2
  402f70:	2cc70003 	sltiu	a3,a2,3
  402f74:	a0430000 	sb	v1,0(v0)
  402f78:	14e0003f 	bnez	a3,403078 <memset+0x118>
  402f7c:	a083ffff 	sb	v1,-1(a0)
  402f80:	2cc70007 	sltiu	a3,a2,7
  402f84:	a0430001 	sb	v1,1(v0)
  402f88:	a0430002 	sb	v1,2(v0)
  402f8c:	a083fffe 	sb	v1,-2(a0)
  402f90:	14e00039 	bnez	a3,403078 <memset+0x118>
  402f94:	a083fffd 	sb	v1,-3(a0)
  402f98:	2cc70009 	sltiu	a3,a2,9
  402f9c:	a0430003 	sb	v1,3(v0)
  402fa0:	14e00035 	bnez	a3,403078 <memset+0x118>
  402fa4:	a083fffc 	sb	v1,-4(a0)
  402fa8:	30a500ff 	andi	a1,a1,0xff
  402fac:	00021823 	negu	v1,v0
  402fb0:	30630003 	andi	v1,v1,0x3
  402fb4:	00053a00 	sll	a3,a1,0x8
  402fb8:	00e53821 	addu	a3,a3,a1
  402fbc:	00c33023 	subu	a2,a2,v1
  402fc0:	2404fffc 	li	a0,-4
  402fc4:	00c43024 	and	a2,a2,a0
  402fc8:	00431821 	addu	v1,v0,v1
  402fcc:	00072400 	sll	a0,a3,0x10
  402fd0:	00e43821 	addu	a3,a3,a0
  402fd4:	2cc50009 	sltiu	a1,a2,9
  402fd8:	00662021 	addu	a0,v1,a2
  402fdc:	ac670000 	sw	a3,0(v1)
  402fe0:	14a00025 	bnez	a1,403078 <memset+0x118>
  402fe4:	ac87fffc 	sw	a3,-4(a0)
  402fe8:	2cc50019 	sltiu	a1,a2,25
  402fec:	ac670004 	sw	a3,4(v1)
  402ff0:	ac670008 	sw	a3,8(v1)
  402ff4:	ac87fff4 	sw	a3,-12(a0)
  402ff8:	14a0001f 	bnez	a1,403078 <memset+0x118>
  402ffc:	ac87fff8 	sw	a3,-8(a0)
  403000:	30650004 	andi	a1,v1,0x4
  403004:	24a50018 	addiu	a1,a1,24
  403008:	00c53023 	subu	a2,a2,a1
  40300c:	2cc80020 	sltiu	t0,a2,32
  403010:	ac67000c 	sw	a3,12(v1)
  403014:	ac670010 	sw	a3,16(v1)
  403018:	ac670014 	sw	a3,20(v1)
  40301c:	ac670018 	sw	a3,24(v1)
  403020:	00651821 	addu	v1,v1,a1
  403024:	ac87ffe4 	sw	a3,-28(a0)
  403028:	ac87ffe8 	sw	a3,-24(a0)
  40302c:	ac87ffec 	sw	a3,-20(a0)
  403030:	15000011 	bnez	t0,403078 <memset+0x118>
  403034:	ac87fff0 	sw	a3,-16(a0)
  403038:	24c5ffe0 	addiu	a1,a2,-32
  40303c:	00052942 	srl	a1,a1,0x5
  403040:	24a50001 	addiu	a1,a1,1
  403044:	00052940 	sll	a1,a1,0x5
  403048:	00652821 	addu	a1,v1,a1
  40304c:	ac670000 	sw	a3,0(v1)
  403050:	ac670004 	sw	a3,4(v1)
  403054:	ac670008 	sw	a3,8(v1)
  403058:	ac67000c 	sw	a3,12(v1)
  40305c:	ac670010 	sw	a3,16(v1)
  403060:	ac670014 	sw	a3,20(v1)
  403064:	ac670018 	sw	a3,24(v1)
  403068:	ac67001c 	sw	a3,28(v1)
  40306c:	24630020 	addiu	v1,v1,32
  403070:	1465fff6 	bne	v1,a1,40304c <memset+0xec>
  403074:	00000000 	nop
  403078:	03e00008 	jr	ra
  40307c:	00000000 	nop

00403080 <strnlen>:
  403080:	3c1c0002 	lui	gp,0x2
  403084:	279cc130 	addiu	gp,gp,-16080
  403088:	0399e021 	addu	gp,gp,t9
  40308c:	27bdffd8 	addiu	sp,sp,-40
  403090:	8f9980ac 	lw	t9,-32596(gp)
  403094:	00a03025 	move	a2,a1
  403098:	afb10020 	sw	s1,32(sp)
  40309c:	afb0001c 	sw	s0,28(sp)
  4030a0:	afbc0010 	sw	gp,16(sp)
  4030a4:	afbf0024 	sw	ra,36(sp)
  4030a8:	00a08025 	move	s0,a1
  4030ac:	00002825 	move	a1,zero
  4030b0:	041102e7 	bal	403c50 <memchr>
  4030b4:	00808825 	move	s1,a0
  4030b8:	10400006 	beqz	v0,4030d4 <strnlen+0x54>
  4030bc:	00511023 	subu	v0,v0,s1
  4030c0:	8fbf0024 	lw	ra,36(sp)
  4030c4:	8fb0001c 	lw	s0,28(sp)
  4030c8:	8fb10020 	lw	s1,32(sp)
  4030cc:	03e00008 	jr	ra
  4030d0:	27bd0028 	addiu	sp,sp,40
  4030d4:	8fbf0024 	lw	ra,36(sp)
  4030d8:	8fb10020 	lw	s1,32(sp)
  4030dc:	02001025 	move	v0,s0
  4030e0:	8fb0001c 	lw	s0,28(sp)
  4030e4:	03e00008 	jr	ra
  4030e8:	27bd0028 	addiu	sp,sp,40
  4030ec:	00000000 	nop

004030f0 <__init_tp>:
  4030f0:	3c1c0002 	lui	gp,0x2
  4030f4:	279cc0c0 	addiu	gp,gp,-16192
  4030f8:	0399e021 	addu	gp,gp,t9
  4030fc:	27bdffe0 	addiu	sp,sp,-32
  403100:	8f9980b0 	lw	t9,-32592(gp)
  403104:	afbc0010 	sw	gp,16(sp)
  403108:	afb00018 	sw	s0,24(sp)
  40310c:	afbf001c 	sw	ra,28(sp)
  403110:	00808025 	move	s0,a0
  403114:	ac840000 	sw	a0,0(a0)
  403118:	0411043d 	bal	404210 <__set_thread_area>
  40311c:	24847070 	addiu	a0,a0,28784
  403120:	8fbc0010 	lw	gp,16(sp)
  403124:	0440001b 	bltz	v0,403194 <__init_tp+0xa4>
  403128:	2404ffff 	li	a0,-1
  40312c:	8f85804c 	lw	a1,-32692(gp)
  403130:	14400004 	bnez	v0,403144 <__init_tp+0x54>
  403134:	24030002 	li	v1,2
  403138:	24030001 	li	v1,1
  40313c:	a0a30000 	sb	v1,0(a1)
  403140:	24030002 	li	v1,2
  403144:	8f8480b4 	lw	a0,-32588(gp)
  403148:	ae030018 	sw	v1,24(s0)
  40314c:	2402109c 	li	v0,4252
  403150:	0000000c 	syscall
  403154:	10e00004 	beqz	a3,403168 <__init_tp+0x78>
  403158:	00000000 	nop
  40315c:	18400002 	blez	v0,403168 <__init_tp+0x78>
  403160:	00000000 	nop
  403164:	00021023 	negu	v0,v0
  403168:	ae020010 	sw	v0,16(s0)
  40316c:	26020044 	addiu	v0,s0,68
  403170:	ae020044 	sw	v0,68(s0)
  403174:	8f828054 	lw	v0,-32684(gp)
  403178:	24a50020 	addiu	a1,a1,32
  40317c:	8c420000 	lw	v0,0(v0)
  403180:	ae050058 	sw	a1,88(s0)
  403184:	ae02000c 	sw	v0,12(s0)
  403188:	ae100004 	sw	s0,4(s0)
  40318c:	ae100008 	sw	s0,8(s0)
  403190:	00002025 	move	a0,zero
  403194:	8fbf001c 	lw	ra,28(sp)
  403198:	8fb00018 	lw	s0,24(sp)
  40319c:	00801025 	move	v0,a0
  4031a0:	03e00008 	jr	ra
  4031a4:	27bd0020 	addiu	sp,sp,32

004031a8 <__copy_tls>:
  4031a8:	3c1c0002 	lui	gp,0x2
  4031ac:	279cc008 	addiu	gp,gp,-16376
  4031b0:	0399e021 	addu	gp,gp,t9
  4031b4:	27bdffc8 	addiu	sp,sp,-56
  4031b8:	afb30024 	sw	s3,36(sp)
  4031bc:	8f93804c 	lw	s3,-32692(gp)
  4031c0:	afb00018 	sw	s0,24(sp)
  4031c4:	8e700018 	lw	s0,24(s3)
  4031c8:	8e620010 	lw	v0,16(s3)
  4031cc:	00108027 	nor	s0,zero,s0
  4031d0:	afb1001c 	sw	s1,28(sp)
  4031d4:	00108080 	sll	s0,s0,0x2
  4031d8:	8e710014 	lw	s1,20(s3)
  4031dc:	02028021 	addu	s0,s0,v0
  4031e0:	2402ff90 	li	v0,-112
  4031e4:	2631ffff 	addiu	s1,s1,-1
  4031e8:	00441023 	subu	v0,v0,a0
  4031ec:	02228824 	and	s1,s1,v0
  4031f0:	afb20020 	sw	s2,32(sp)
  4031f4:	00908021 	addu	s0,a0,s0
  4031f8:	00918821 	addu	s1,a0,s1
  4031fc:	8e72000c 	lw	s2,12(s3)
  403200:	afb60030 	sw	s6,48(sp)
  403204:	afb5002c 	sw	s5,44(sp)
  403208:	afb40028 	sw	s4,40(sp)
  40320c:	afbc0010 	sw	gp,16(sp)
  403210:	afbf0034 	sw	ra,52(sp)
  403214:	26350070 	addiu	s5,s1,112
  403218:	26140004 	addiu	s4,s0,4
  40321c:	34168000 	li	s6,0x8000
  403220:	1640000f 	bnez	s2,403260 <__copy_tls+0xb8>
  403224:	00000000 	nop
  403228:	8e620018 	lw	v0,24(s3)
  40322c:	8fbf0034 	lw	ra,52(sp)
  403230:	ae020000 	sw	v0,0(s0)
  403234:	8fb60030 	lw	s6,48(sp)
  403238:	ae30006c 	sw	s0,108(s1)
  40323c:	8fb5002c 	lw	s5,44(sp)
  403240:	8fb40028 	lw	s4,40(sp)
  403244:	8fb30024 	lw	s3,36(sp)
  403248:	8fb20020 	lw	s2,32(sp)
  40324c:	8fb00018 	lw	s0,24(sp)
  403250:	02201025 	move	v0,s1
  403254:	8fb1001c 	lw	s1,28(sp)
  403258:	03e00008 	jr	ra
  40325c:	27bd0038 	addiu	sp,sp,56
  403260:	8e420014 	lw	v0,20(s2)
  403264:	8f9980b8 	lw	t9,-32584(gp)
  403268:	02a21021 	addu	v0,s5,v0
  40326c:	00561021 	addu	v0,v0,s6
  403270:	ae820000 	sw	v0,0(s4)
  403274:	8e440014 	lw	a0,20(s2)
  403278:	8e460008 	lw	a2,8(s2)
  40327c:	8e450004 	lw	a1,4(s2)
  403280:	041102b3 	bal	403d50 <memcpy>
  403284:	02a42021 	addu	a0,s5,a0
  403288:	8fbc0010 	lw	gp,16(sp)
  40328c:	8e520000 	lw	s2,0(s2)
  403290:	1000ffe3 	b	403220 <__copy_tls+0x78>
  403294:	26940004 	addiu	s4,s4,4

00403298 <__init_tls>:
  403298:	3c1c0002 	lui	gp,0x2
  40329c:	279cbf18 	addiu	gp,gp,-16616
  4032a0:	0399e021 	addu	gp,gp,t9
  4032a4:	8f8c80bc 	lw	t4,-32580(gp)
  4032a8:	8c8e000c 	lw	t6,12(a0)
  4032ac:	27bdffe0 	addiu	sp,sp,-32
  4032b0:	3c0a6474 	lui	t2,0x6474
  4032b4:	3c0b0080 	lui	t3,0x80
  4032b8:	8c890014 	lw	t1,20(a0)
  4032bc:	8d870000 	lw	a3,0(t4)
  4032c0:	240f0000 	li	t7,0
  4032c4:	01c01825 	move	v1,t6
  4032c8:	afbf001c 	sw	ra,28(sp)
  4032cc:	afbc0010 	sw	gp,16(sp)
  4032d0:	afb00018 	sw	s0,24(sp)
  4032d4:	00006825 	move	t5,zero
  4032d8:	00002825 	move	a1,zero
  4032dc:	00003025 	move	a2,zero
  4032e0:	24180006 	li	t8,6
  4032e4:	24190002 	li	t9,2
  4032e8:	241f0007 	li	ra,7
  4032ec:	354ae551 	ori	t2,t2,0xe551
  4032f0:	256b0001 	addiu	t3,t3,1
  4032f4:	1520004d 	bnez	t1,40342c <__init_tls+0x194>
  4032f8:	00000000 	nop
  4032fc:	11a00002 	beqz	t5,403308 <__init_tls+0x70>
  403300:	00000000 	nop
  403304:	ad870000 	sw	a3,0(t4)
  403308:	8f8380c0 	lw	v1,-32576(gp)
  40330c:	8f87804c 	lw	a3,-32692(gp)
  403310:	10c0000f 	beqz	a2,403350 <__init_tls+0xb8>
  403314:	24637790 	addiu	v1,v1,30608
  403318:	8cc40008 	lw	a0,8(a2)
  40331c:	ace3000c 	sw	v1,12(a3)
  403320:	00852821 	addu	a1,a0,a1
  403324:	8cc40010 	lw	a0,16(a2)
  403328:	ac650004 	sw	a1,4(v1)
  40332c:	ac640008 	sw	a0,8(v1)
  403330:	8cc40014 	lw	a0,20(a2)
  403334:	00000000 	nop
  403338:	ac64000c 	sw	a0,12(v1)
  40333c:	8cc4001c 	lw	a0,28(a2)
  403340:	00000000 	nop
  403344:	ac640010 	sw	a0,16(v1)
  403348:	24040001 	li	a0,1
  40334c:	ace40018 	sw	a0,24(a3)
  403350:	8c69000c 	lw	t1,12(v1)
  403354:	8c650004 	lw	a1,4(v1)
  403358:	8c680010 	lw	t0,16(v1)
  40335c:	01252021 	addu	a0,t1,a1
  403360:	2506ffff 	addiu	a2,t0,-1
  403364:	00042023 	negu	a0,a0
  403368:	00862024 	and	a0,a0,a2
  40336c:	00892021 	addu	a0,a0,t1
  403370:	00a63024 	and	a2,a1,a2
  403374:	2d080004 	sltiu	t0,t0,4
  403378:	ac64000c 	sw	a0,12(v1)
  40337c:	11000003 	beqz	t0,40338c <__init_tls+0xf4>
  403380:	ac660014 	sw	a2,20(v1)
  403384:	24050004 	li	a1,4
  403388:	ac650010 	sw	a1,16(v1)
  40338c:	8c630010 	lw	v1,16(v1)
  403390:	00000000 	nop
  403394:	2465007b 	addiu	a1,v1,123
  403398:	00a62821 	addu	a1,a1,a2
  40339c:	ace30014 	sw	v1,20(a3)
  4033a0:	00a42821 	addu	a1,a1,a0
  4033a4:	2403fffc 	li	v1,-4
  4033a8:	00a32824 	and	a1,a1,v1
  4033ac:	2ca300b5 	sltiu	v1,a1,181
  4033b0:	14600044 	bnez	v1,4034c4 <__init_tls+0x22c>
  4033b4:	ace50010 	sw	a1,16(a3)
  4033b8:	00002025 	move	a0,zero
  4033bc:	24060003 	li	a2,3
  4033c0:	24070802 	li	a3,2050
  4033c4:	2408ffff 	li	t0,-1
  4033c8:	00004825 	move	t1,zero
  4033cc:	27bdffe0 	addiu	sp,sp,-32
  4033d0:	afa80010 	sw	t0,16(sp)
  4033d4:	afa90014 	sw	t1,20(sp)
  4033d8:	24021072 	li	v0,4210
  4033dc:	0000000c 	syscall
  4033e0:	10e00036 	beqz	a3,4034bc <__init_tls+0x224>
  4033e4:	27bd0020 	addiu	sp,sp,32
  4033e8:	18400034 	blez	v0,4034bc <__init_tls+0x224>
  4033ec:	00000000 	nop
  4033f0:	00022023 	negu	a0,v0
  4033f4:	8f9980c4 	lw	t9,-32572(gp)
  4033f8:	00000000 	nop
  4033fc:	0411ff6a 	bal	4031a8 <__copy_tls>
  403400:	00000000 	nop
  403404:	8fbc0010 	lw	gp,16(sp)
  403408:	00000000 	nop
  40340c:	8f9980c8 	lw	t9,-32568(gp)
  403410:	00000000 	nop
  403414:	0411ff36 	bal	4030f0 <__init_tp>
  403418:	00402025 	move	a0,v0
  40341c:	0441002c 	bgez	v0,4034d0 <__init_tls+0x238>
  403420:	00000000 	nop
  403424:	a0000000 	sb	zero,0(zero)
  403428:	0000000d 	break
  40342c:	8c680000 	lw	t0,0(v1)
  403430:	00000000 	nop
  403434:	15180008 	bne	t0,t8,403458 <__init_tls+0x1c0>
  403438:	00000000 	nop
  40343c:	8c650008 	lw	a1,8(v1)
  403440:	00000000 	nop
  403444:	01c52823 	subu	a1,t6,a1
  403448:	8c880010 	lw	t0,16(a0)
  40344c:	2529ffff 	addiu	t1,t1,-1
  403450:	1000ffa8 	b	4032f4 <__init_tls+0x5c>
  403454:	00681821 	addu	v1,v1,t0
  403458:	11190011 	beq	t0,t9,4034a0 <__init_tls+0x208>
  40345c:	00000000 	nop
  403460:	111f0014 	beq	t0,ra,4034b4 <__init_tls+0x21c>
  403464:	00000000 	nop
  403468:	150afff7 	bne	t0,t2,403448 <__init_tls+0x1b0>
  40346c:	00000000 	nop
  403470:	8c680014 	lw	t0,20(v1)
  403474:	00000000 	nop
  403478:	00e8802b 	sltu	s0,a3,t0
  40347c:	1200fff2 	beqz	s0,403448 <__init_tls+0x1b0>
  403480:	00000000 	nop
  403484:	01003825 	move	a3,t0
  403488:	010b402b 	sltu	t0,t0,t3
  40348c:	15000002 	bnez	t0,403498 <__init_tls+0x200>
  403490:	00000000 	nop
  403494:	3c070080 	lui	a3,0x80
  403498:	1000ffeb 	b	403448 <__init_tls+0x1b0>
  40349c:	240d0001 	li	t5,1
  4034a0:	11e0ffe9 	beqz	t7,403448 <__init_tls+0x1b0>
  4034a4:	00000000 	nop
  4034a8:	8c650008 	lw	a1,8(v1)
  4034ac:	1000ffe6 	b	403448 <__init_tls+0x1b0>
  4034b0:	01e52823 	subu	a1,t7,a1
  4034b4:	1000ffe4 	b	403448 <__init_tls+0x1b0>
  4034b8:	00603025 	move	a2,v1
  4034bc:	1000ffcd 	b	4033f4 <__init_tls+0x15c>
  4034c0:	00402025 	move	a0,v0
  4034c4:	8f8480c0 	lw	a0,-32576(gp)
  4034c8:	1000ffca 	b	4033f4 <__init_tls+0x15c>
  4034cc:	248477a8 	addiu	a0,a0,30632
  4034d0:	8fbf001c 	lw	ra,28(sp)
  4034d4:	8fb00018 	lw	s0,24(sp)
  4034d8:	03e00008 	jr	ra
  4034dc:	27bd0020 	addiu	sp,sp,32

004034e0 <__errno_location>:
  4034e0:	7c03e83b 	0x7c03e83b
  4034e4:	03e00008 	jr	ra
  4034e8:	24628fa4 	addiu	v0,v1,-28764
  4034ec:	00000000 	nop

004034f0 <__strerror_l>:
  4034f0:	3c1c0002 	lui	gp,0x2
  4034f4:	279cbcc0 	addiu	gp,gp,-17216
  4034f8:	0399e021 	addu	gp,gp,t9
  4034fc:	2402006d 	li	v0,109
  403500:	10820012 	beq	a0,v0,40354c <__strerror_l+0x5c>
  403504:	2402046d 	li	v0,1133
  403508:	1482000e 	bne	a0,v0,403544 <__strerror_l+0x54>
  40350c:	2c8200a7 	sltiu	v0,a0,167
  403510:	2404006d 	li	a0,109
  403514:	8f828018 	lw	v0,-32744(gp)
  403518:	00042040 	sll	a0,a0,0x1
  40351c:	24426718 	addiu	v0,v0,26392
  403520:	00822021 	addu	a0,a0,v0
  403524:	8f828018 	lw	v0,-32744(gp)
  403528:	94840000 	lhu	a0,0(a0)
  40352c:	24426868 	addiu	v0,v0,26728
  403530:	8ca50014 	lw	a1,20(a1)
  403534:	8f9980cc 	lw	t9,-32564(gp)
  403538:	00000000 	nop
  40353c:	1000002a 	b	4035e8 <__lctrans>
  403540:	00442021 	addu	a0,v0,a0
  403544:	1440fff3 	bnez	v0,403514 <__strerror_l+0x24>
  403548:	00000000 	nop
  40354c:	1000fff1 	b	403514 <__strerror_l+0x24>
  403550:	00002025 	move	a0,zero

00403554 <strerror>:
  403554:	3c1c0002 	lui	gp,0x2
  403558:	279cbc5c 	addiu	gp,gp,-17316
  40355c:	0399e021 	addu	gp,gp,t9
  403560:	7c03e83b 	0x7c03e83b
  403564:	8f9980d0 	lw	t9,-32560(gp)
  403568:	8c658fe8 	lw	a1,-28696(v1)
  40356c:	1000ffe0 	b	4034f0 <__strerror_l>
  403570:	00000000 	nop
	...

00403580 <__syscall1.isra.0>:
  403580:	00803825 	move	a3,a0
  403584:	00a02025 	move	a0,a1
  403588:	00071021 	addu	v0,zero,a3
  40358c:	0000000c 	syscall
  403590:	03e00008 	jr	ra
  403594:	00000000 	nop

00403598 <_Exit>:
  403598:	3c1c0002 	lui	gp,0x2
  40359c:	279cbc18 	addiu	gp,gp,-17384
  4035a0:	0399e021 	addu	gp,gp,t9
  4035a4:	8f868018 	lw	a2,-32744(gp)
  4035a8:	27bdffe0 	addiu	sp,sp,-32
  4035ac:	00802825 	move	a1,a0
  4035b0:	24041096 	li	a0,4246
  4035b4:	afbc0010 	sw	gp,16(sp)
  4035b8:	afbf001c 	sw	ra,28(sp)
  4035bc:	24c63580 	addiu	a2,a2,13696
  4035c0:	00c0c825 	move	t9,a2
  4035c4:	0411ffee 	bal	403580 <__syscall1.isra.0>
  4035c8:	00000000 	nop
  4035cc:	1000fffc 	b	4035c0 <_Exit+0x28>
  4035d0:	24040fa1 	li	a0,4001
	...

004035e0 <__lctrans_impl>:
  4035e0:	03e00008 	jr	ra
  4035e4:	00801025 	move	v0,a0

004035e8 <__lctrans>:
  4035e8:	3c1c0002 	lui	gp,0x2
  4035ec:	279cbbc8 	addiu	gp,gp,-17464
  4035f0:	0399e021 	addu	gp,gp,t9
  4035f4:	8f9980d4 	lw	t9,-32556(gp)
  4035f8:	00000000 	nop
  4035fc:	1000fff8 	b	4035e0 <__lctrans_impl>
  403600:	00000000 	nop

00403604 <__lctrans_cur>:
  403604:	3c1c0002 	lui	gp,0x2
  403608:	279cbbac 	addiu	gp,gp,-17492
  40360c:	0399e021 	addu	gp,gp,t9
  403610:	7c03e83b 	0x7c03e83b
  403614:	8c628fe8 	lw	v0,-28696(v1)
  403618:	8f9980d4 	lw	t9,-32556(gp)
  40361c:	8c450014 	lw	a1,20(v0)
  403620:	1000ffef 	b	4035e0 <__lctrans_impl>
  403624:	00000000 	nop
	...

00403630 <frexpl>:
  403630:	3c1c0002 	lui	gp,0x2
  403634:	279cbb80 	addiu	gp,gp,-17536
  403638:	0399e021 	addu	gp,gp,t9
  40363c:	8f9980d8 	lw	t9,-32552(gp)
  403640:	00000000 	nop
  403644:	1000033a 	b	404330 <frexp>
  403648:	00000000 	nop
  40364c:	00000000 	nop

00403650 <wctomb>:
  403650:	3c1c0002 	lui	gp,0x2
  403654:	279cbb60 	addiu	gp,gp,-17568
  403658:	0399e021 	addu	gp,gp,t9
  40365c:	10800005 	beqz	a0,403674 <wctomb+0x24>
  403660:	00000000 	nop
  403664:	8f9980dc 	lw	t9,-32548(gp)
  403668:	00000000 	nop
  40366c:	10000368 	b	404410 <wcrtomb>
  403670:	00003025 	move	a2,zero
  403674:	03e00008 	jr	ra
  403678:	00001025 	move	v0,zero
  40367c:	00000000 	nop

00403680 <a_cas>:
  403680:	0000000f 	0xf
  403684:	c0820000 	lwc0	c0_entrylo,0(a0)
  403688:	00000000 	nop
  40368c:	14a20004 	bne	a1,v0,4036a0 <a_cas+0x20>
  403690:	00c01825 	move	v1,a2
  403694:	e0830000 	swc0	$3,0(a0)
  403698:	1060fffa 	beqz	v1,403684 <a_cas+0x4>
  40369c:	00000000 	nop
  4036a0:	0000000f 	0xf
  4036a4:	03e00008 	jr	ra
  4036a8:	00000000 	nop

004036ac <__lockfile>:
  4036ac:	3c1c0002 	lui	gp,0x2
  4036b0:	279cbb04 	addiu	gp,gp,-17660
  4036b4:	0399e021 	addu	gp,gp,t9
  4036b8:	7c03e83b 	0x7c03e83b
  4036bc:	8c82004c 	lw	v0,76(a0)
  4036c0:	8c668fa0 	lw	a2,-28768(v1)
  4036c4:	3c03bfff 	lui	v1,0xbfff
  4036c8:	3463ffff 	ori	v1,v1,0xffff
  4036cc:	00431824 	and	v1,v0,v1
  4036d0:	10660042 	beq	v1,a2,4037dc <__lockfile+0x130>
  4036d4:	00000000 	nop
  4036d8:	27bdffd0 	addiu	sp,sp,-48
  4036dc:	afb1001c 	sw	s1,28(sp)
  4036e0:	8f918018 	lw	s1,-32744(gp)
  4036e4:	afb00018 	sw	s0,24(sp)
  4036e8:	26313680 	addiu	s1,s1,13952
  4036ec:	2490004c 	addiu	s0,a0,76
  4036f0:	afbc0010 	sw	gp,16(sp)
  4036f4:	afbf002c 	sw	ra,44(sp)
  4036f8:	afb40028 	sw	s4,40(sp)
  4036fc:	afb30024 	sw	s3,36(sp)
  403700:	afb20020 	sw	s2,32(sp)
  403704:	00002825 	move	a1,zero
  403708:	0220c825 	move	t9,s1
  40370c:	0411ffdc 	bal	403680 <a_cas>
  403710:	02002025 	move	a0,s0
  403714:	1040000a 	beqz	v0,403740 <__lockfile+0x94>
  403718:	3c134000 	lui	s3,0x4000
  40371c:	00d39025 	or	s2,a2,s3
  403720:	2414ffa7 	li	s4,-89
  403724:	00002825 	move	a1,zero
  403728:	02403025 	move	a2,s2
  40372c:	0220c825 	move	t9,s1
  403730:	0411ffd3 	bal	403680 <a_cas>
  403734:	02002025 	move	a0,s0
  403738:	1440000a 	bnez	v0,403764 <__lockfile+0xb8>
  40373c:	00402825 	move	a1,v0
  403740:	8fbf002c 	lw	ra,44(sp)
  403744:	8fb40028 	lw	s4,40(sp)
  403748:	8fb30024 	lw	s3,36(sp)
  40374c:	8fb20020 	lw	s2,32(sp)
  403750:	8fb1001c 	lw	s1,28(sp)
  403754:	8fb00018 	lw	s0,24(sp)
  403758:	24020001 	li	v0,1
  40375c:	03e00008 	jr	ra
  403760:	27bd0030 	addiu	sp,sp,48
  403764:	00b31824 	and	v1,a1,s3
  403768:	1060000a 	beqz	v1,403794 <__lockfile+0xe8>
  40376c:	00b33025 	or	a2,a1,s3
  403770:	02002025 	move	a0,s0
  403774:	24050080 	li	a1,128
  403778:	00003825 	move	a3,zero
  40377c:	2402108e 	li	v0,4238
  403780:	0000000c 	syscall
  403784:	14e0000a 	bnez	a3,4037b0 <__lockfile+0x104>
  403788:	00401825 	move	v1,v0
  40378c:	1000000b 	b	4037bc <__lockfile+0x110>
  403790:	00000000 	nop
  403794:	0220c825 	move	t9,s1
  403798:	0411ffb9 	bal	403680 <a_cas>
  40379c:	00000000 	nop
  4037a0:	1445ffe1 	bne	v0,a1,403728 <__lockfile+0x7c>
  4037a4:	00002825 	move	a1,zero
  4037a8:	1000fff2 	b	403774 <__lockfile+0xc8>
  4037ac:	02002025 	move	a0,s0
  4037b0:	18400002 	blez	v0,4037bc <__lockfile+0x110>
  4037b4:	00000000 	nop
  4037b8:	00021823 	negu	v1,v0
  4037bc:	1474ffd9 	bne	v1,s4,403724 <__lockfile+0x78>
  4037c0:	00003825 	move	a3,zero
  4037c4:	02002025 	move	a0,s0
  4037c8:	00002825 	move	a1,zero
  4037cc:	2402108e 	li	v0,4238
  4037d0:	0000000c 	syscall
  4037d4:	1000ffd4 	b	403728 <__lockfile+0x7c>
  4037d8:	00002825 	move	a1,zero
  4037dc:	03e00008 	jr	ra
  4037e0:	00001025 	move	v0,zero

004037e4 <__unlockfile>:
  4037e4:	2484004c 	addiu	a0,a0,76
  4037e8:	0000000f 	0xf
  4037ec:	00003025 	move	a2,zero
  4037f0:	c0850000 	lwc0	$5,0(a0)
  4037f4:	00c01825 	move	v1,a2
  4037f8:	e0830000 	swc0	$3,0(a0)
  4037fc:	1060fffc 	beqz	v1,4037f0 <__unlockfile+0xc>
  403800:	00000000 	nop
  403804:	0000000f 	0xf
  403808:	3c034000 	lui	v1,0x4000
  40380c:	00a31824 	and	v1,a1,v1
  403810:	10600011 	beqz	v1,403858 <__unlockfile+0x74>
  403814:	00000000 	nop
  403818:	24050081 	li	a1,129
  40381c:	24060001 	li	a2,1
  403820:	2402108e 	li	v0,4238
  403824:	0000000c 	syscall
  403828:	10e00004 	beqz	a3,40383c <__unlockfile+0x58>
  40382c:	00401825 	move	v1,v0
  403830:	18400003 	blez	v0,403840 <__unlockfile+0x5c>
  403834:	2405ffa7 	li	a1,-89
  403838:	00021823 	negu	v1,v0
  40383c:	2405ffa7 	li	a1,-89
  403840:	14650005 	bne	v1,a1,403858 <__unlockfile+0x74>
  403844:	00000000 	nop
  403848:	24050001 	li	a1,1
  40384c:	24060001 	li	a2,1
  403850:	2402108e 	li	v0,4238
  403854:	0000000c 	syscall
  403858:	03e00008 	jr	ra
  40385c:	00000000 	nop

00403860 <__aio_close>:
  403860:	03e00008 	jr	ra
  403864:	00801025 	move	v0,a0

00403868 <__stdio_close>:
  403868:	3c1c0002 	lui	gp,0x2
  40386c:	279cb948 	addiu	gp,gp,-18104
  403870:	0399e021 	addu	gp,gp,t9
  403874:	27bdffe0 	addiu	sp,sp,-32
  403878:	8f9980e0 	lw	t9,-32544(gp)
  40387c:	8c84003c 	lw	a0,60(a0)
  403880:	afbc0010 	sw	gp,16(sp)
  403884:	afbf001c 	sw	ra,28(sp)
  403888:	0411fff5 	bal	403860 <__aio_close>
  40388c:	00000000 	nop
  403890:	00402025 	move	a0,v0
  403894:	8fbc0010 	lw	gp,16(sp)
  403898:	24020fa6 	li	v0,4006
  40389c:	0000000c 	syscall
  4038a0:	10e00009 	beqz	a3,4038c8 <__stdio_close+0x60>
  4038a4:	00000000 	nop
  4038a8:	18400007 	blez	v0,4038c8 <__stdio_close+0x60>
  4038ac:	00000000 	nop
  4038b0:	00022023 	negu	a0,v0
  4038b4:	8fbf001c 	lw	ra,28(sp)
  4038b8:	8f9980e4 	lw	t9,-32540(gp)
  4038bc:	00000000 	nop
  4038c0:	10000283 	b	4042d0 <__syscall_ret>
  4038c4:	27bd0020 	addiu	sp,sp,32
  4038c8:	1000fffa 	b	4038b4 <__stdio_close+0x4c>
  4038cc:	00402025 	move	a0,v0

004038d0 <__stdio_seek>:
  4038d0:	3c1c0002 	lui	gp,0x2
  4038d4:	279cb8e0 	addiu	gp,gp,-18208
  4038d8:	0399e021 	addu	gp,gp,t9
  4038dc:	8c84003c 	lw	a0,60(a0)
  4038e0:	8f9980e8 	lw	t9,-32536(gp)
  4038e4:	00000000 	nop
  4038e8:	10000255 	b	404240 <lseek>
  4038ec:	00000000 	nop

004038f0 <__stdout_write>:
  4038f0:	3c1c0002 	lui	gp,0x2
  4038f4:	279cb8c0 	addiu	gp,gp,-18240
  4038f8:	0399e021 	addu	gp,gp,t9
  4038fc:	8c830000 	lw	v1,0(a0)
  403900:	27bdffd0 	addiu	sp,sp,-48
  403904:	8f9980ec 	lw	t9,-32532(gp)
  403908:	30630040 	andi	v1,v1,0x40
  40390c:	afbc0010 	sw	gp,16(sp)
  403910:	afbf002c 	sw	ra,44(sp)
  403914:	afb20028 	sw	s2,40(sp)
  403918:	afb10024 	sw	s1,36(sp)
  40391c:	afb00020 	sw	s0,32(sp)
  403920:	0080f825 	move	ra,a0
  403924:	00a08825 	move	s1,a1
  403928:	00c09025 	move	s2,a2
  40392c:	ac990024 	sw	t9,36(a0)
  403930:	1460000f 	bnez	v1,403970 <__stdout_write+0x80>
  403934:	03208025 	move	s0,t9
  403938:	3c054008 	lui	a1,0x4008
  40393c:	8c84003c 	lw	a0,60(a0)
  403940:	24a57468 	addiu	a1,a1,29800
  403944:	27a60018 	addiu	a2,sp,24
  403948:	24020fd6 	li	v0,4054
  40394c:	0000000c 	syscall
  403950:	10e00003 	beqz	a3,403960 <__stdout_write+0x70>
  403954:	00000000 	nop
  403958:	1c400003 	bgtz	v0,403968 <__stdout_write+0x78>
  40395c:	00000000 	nop
  403960:	10400004 	beqz	v0,403974 <__stdout_write+0x84>
  403964:	02403025 	move	a2,s2
  403968:	2402ffff 	li	v0,-1
  40396c:	afe20050 	sw	v0,80(ra)
  403970:	02403025 	move	a2,s2
  403974:	03e02025 	move	a0,ra
  403978:	0200c825 	move	t9,s0
  40397c:	0411035c 	bal	4046f0 <__stdio_write>
  403980:	02202825 	move	a1,s1
  403984:	8fbf002c 	lw	ra,44(sp)
  403988:	8fb20028 	lw	s2,40(sp)
  40398c:	8fb10024 	lw	s1,36(sp)
  403990:	8fb00020 	lw	s0,32(sp)
  403994:	03e00008 	jr	ra
  403998:	27bd0030 	addiu	sp,sp,48
  40399c:	00000000 	nop

004039a0 <__towrite>:
  4039a0:	8c830048 	lw	v1,72(a0)
  4039a4:	00000000 	nop
  4039a8:	2462ffff 	addiu	v0,v1,-1
  4039ac:	00431025 	or	v0,v0,v1
  4039b0:	ac820048 	sw	v0,72(a0)
  4039b4:	8c820000 	lw	v0,0(a0)
  4039b8:	00000000 	nop
  4039bc:	30430008 	andi	v1,v0,0x8
  4039c0:	10600005 	beqz	v1,4039d8 <__towrite+0x38>
  4039c4:	00000000 	nop
  4039c8:	34420020 	ori	v0,v0,0x20
  4039cc:	ac820000 	sw	v0,0(a0)
  4039d0:	03e00008 	jr	ra
  4039d4:	2402ffff 	li	v0,-1
  4039d8:	8c82002c 	lw	v0,44(a0)
  4039dc:	8c830030 	lw	v1,48(a0)
  4039e0:	ac82001c 	sw	v0,28(a0)
  4039e4:	ac820014 	sw	v0,20(a0)
  4039e8:	00431021 	addu	v0,v0,v1
  4039ec:	ac820010 	sw	v0,16(a0)
  4039f0:	ac800008 	sw	zero,8(a0)
  4039f4:	ac800004 	sw	zero,4(a0)
  4039f8:	03e00008 	jr	ra
  4039fc:	00001025 	move	v0,zero

00403a00 <__towrite_needs_stdio_exit>:
  403a00:	3c1c0002 	lui	gp,0x2
  403a04:	279cb7b0 	addiu	gp,gp,-18512
  403a08:	0399e021 	addu	gp,gp,t9
  403a0c:	8f99802c 	lw	t9,-32724(gp)
  403a10:	00000000 	nop
  403a14:	10000308 	b	404638 <__stdio_exit>
  403a18:	00000000 	nop
  403a1c:	00000000 	nop

00403a20 <__fwritex>:
  403a20:	3c1c0002 	lui	gp,0x2
  403a24:	279cb790 	addiu	gp,gp,-18544
  403a28:	0399e021 	addu	gp,gp,t9
  403a2c:	27bdffd0 	addiu	sp,sp,-48
  403a30:	8cc20010 	lw	v0,16(a2)
  403a34:	afbc0010 	sw	gp,16(sp)
  403a38:	afb30028 	sw	s3,40(sp)
  403a3c:	afb20024 	sw	s2,36(sp)
  403a40:	afb0001c 	sw	s0,28(sp)
  403a44:	afbf002c 	sw	ra,44(sp)
  403a48:	afb10020 	sw	s1,32(sp)
  403a4c:	00809825 	move	s3,a0
  403a50:	00a09025 	move	s2,a1
  403a54:	10400013 	beqz	v0,403aa4 <__fwritex+0x84>
  403a58:	00c08025 	move	s0,a2
  403a5c:	8e020010 	lw	v0,16(s0)
  403a60:	8e030014 	lw	v1,20(s0)
  403a64:	00000000 	nop
  403a68:	00431023 	subu	v0,v0,v1
  403a6c:	0052102b 	sltu	v0,v0,s2
  403a70:	10400015 	beqz	v0,403ac8 <__fwritex+0xa8>
  403a74:	02408825 	move	s1,s2
  403a78:	8fbf002c 	lw	ra,44(sp)
  403a7c:	8fb10020 	lw	s1,32(sp)
  403a80:	8e190024 	lw	t9,36(s0)
  403a84:	02403025 	move	a2,s2
  403a88:	02602825 	move	a1,s3
  403a8c:	8fb20024 	lw	s2,36(sp)
  403a90:	8fb30028 	lw	s3,40(sp)
  403a94:	02002025 	move	a0,s0
  403a98:	8fb0001c 	lw	s0,28(sp)
  403a9c:	03200008 	jr	t9
  403aa0:	27bd0030 	addiu	sp,sp,48
  403aa4:	8f9980a4 	lw	t9,-32604(gp)
  403aa8:	00000000 	nop
  403aac:	0411ffbc 	bal	4039a0 <__towrite>
  403ab0:	00c02025 	move	a0,a2
  403ab4:	8fbc0010 	lw	gp,16(sp)
  403ab8:	1040ffe8 	beqz	v0,403a5c <__fwritex+0x3c>
  403abc:	00001025 	move	v0,zero
  403ac0:	1000000e 	b	403afc <__fwritex+0xdc>
  403ac4:	00000000 	nop
  403ac8:	8e020050 	lw	v0,80(s0)
  403acc:	00000000 	nop
  403ad0:	04410012 	bgez	v0,403b1c <__fwritex+0xfc>
  403ad4:	2403000a 	li	v1,10
  403ad8:	8f9980b8 	lw	t9,-32584(gp)
  403adc:	8e040014 	lw	a0,20(s0)
  403ae0:	02203025 	move	a2,s1
  403ae4:	0411009a 	bal	403d50 <memcpy>
  403ae8:	02602825 	move	a1,s3
  403aec:	8e060014 	lw	a2,20(s0)
  403af0:	02401025 	move	v0,s2
  403af4:	00d18821 	addu	s1,a2,s1
  403af8:	ae110014 	sw	s1,20(s0)
  403afc:	8fbf002c 	lw	ra,44(sp)
  403b00:	8fb30028 	lw	s3,40(sp)
  403b04:	8fb20024 	lw	s2,36(sp)
  403b08:	8fb10020 	lw	s1,32(sp)
  403b0c:	8fb0001c 	lw	s0,28(sp)
  403b10:	03e00008 	jr	ra
  403b14:	27bd0030 	addiu	sp,sp,48
  403b18:	00408825 	move	s1,v0
  403b1c:	12200010 	beqz	s1,403b60 <__fwritex+0x140>
  403b20:	2622ffff 	addiu	v0,s1,-1
  403b24:	02622021 	addu	a0,s3,v0
  403b28:	90840000 	lbu	a0,0(a0)
  403b2c:	00000000 	nop
  403b30:	1483fff9 	bne	a0,v1,403b18 <__fwritex+0xf8>
  403b34:	02203025 	move	a2,s1
  403b38:	8e190024 	lw	t9,36(s0)
  403b3c:	02602825 	move	a1,s3
  403b40:	0320f809 	jalr	t9
  403b44:	02002025 	move	a0,s0
  403b48:	0051182b 	sltu	v1,v0,s1
  403b4c:	8fbc0010 	lw	gp,16(sp)
  403b50:	1460ffea 	bnez	v1,403afc <__fwritex+0xdc>
  403b54:	02719821 	addu	s3,s3,s1
  403b58:	1000ffdf 	b	403ad8 <__fwritex+0xb8>
  403b5c:	02518823 	subu	s1,s2,s1
  403b60:	1000ffdd 	b	403ad8 <__fwritex+0xb8>
  403b64:	02408825 	move	s1,s2

00403b68 <fwrite>:
  403b68:	3c1c0002 	lui	gp,0x2
  403b6c:	279cb648 	addiu	gp,gp,-18872
  403b70:	0399e021 	addu	gp,gp,t9
  403b74:	00a60018 	mult	a1,a2
  403b78:	27bdffc8 	addiu	sp,sp,-56
  403b7c:	afbc0010 	sw	gp,16(sp)
  403b80:	afb50030 	sw	s5,48(sp)
  403b84:	afb30028 	sw	s3,40(sp)
  403b88:	afb20024 	sw	s2,36(sp)
  403b8c:	afb10020 	sw	s1,32(sp)
  403b90:	afb0001c 	sw	s0,28(sp)
  403b94:	afbf0034 	sw	ra,52(sp)
  403b98:	afb4002c 	sw	s4,44(sp)
  403b9c:	00809025 	move	s2,a0
  403ba0:	00a08825 	move	s1,a1
  403ba4:	00e09825 	move	s3,a3
  403ba8:	0000a812 	mflo	s5
  403bac:	10a00002 	beqz	a1,403bb8 <fwrite+0x50>
  403bb0:	00008025 	move	s0,zero
  403bb4:	00c08025 	move	s0,a2
  403bb8:	8e62004c 	lw	v0,76(s3)
  403bbc:	00000000 	nop
  403bc0:	04400007 	bltz	v0,403be0 <fwrite+0x78>
  403bc4:	0000a025 	move	s4,zero
  403bc8:	8f9980a0 	lw	t9,-32608(gp)
  403bcc:	00000000 	nop
  403bd0:	0411feb6 	bal	4036ac <__lockfile>
  403bd4:	02602025 	move	a0,s3
  403bd8:	8fbc0010 	lw	gp,16(sp)
  403bdc:	0040a025 	move	s4,v0
  403be0:	8f998084 	lw	t9,-32636(gp)
  403be4:	02402025 	move	a0,s2
  403be8:	02603025 	move	a2,s3
  403bec:	0411ff8c 	bal	403a20 <__fwritex>
  403bf0:	02a02825 	move	a1,s5
  403bf4:	8fbc0010 	lw	gp,16(sp)
  403bf8:	12800005 	beqz	s4,403c10 <fwrite+0xa8>
  403bfc:	00409025 	move	s2,v0
  403c00:	8f9980a8 	lw	t9,-32600(gp)
  403c04:	00000000 	nop
  403c08:	0411fef6 	bal	4037e4 <__unlockfile>
  403c0c:	02602025 	move	a0,s3
  403c10:	12b20005 	beq	s5,s2,403c28 <fwrite+0xc0>
  403c14:	00000000 	nop
  403c18:	16200002 	bnez	s1,403c24 <fwrite+0xbc>
  403c1c:	0251001b 	divu	zero,s2,s1
  403c20:	0007000d 	break	0x7
  403c24:	00008012 	mflo	s0
  403c28:	8fbf0034 	lw	ra,52(sp)
  403c2c:	8fb50030 	lw	s5,48(sp)
  403c30:	8fb4002c 	lw	s4,44(sp)
  403c34:	8fb30028 	lw	s3,40(sp)
  403c38:	8fb20024 	lw	s2,36(sp)
  403c3c:	8fb10020 	lw	s1,32(sp)
  403c40:	02001025 	move	v0,s0
  403c44:	8fb0001c 	lw	s0,28(sp)
  403c48:	03e00008 	jr	ra
  403c4c:	27bd0038 	addiu	sp,sp,56

00403c50 <memchr>:
  403c50:	30820003 	andi	v0,a0,0x3
  403c54:	1440000b 	bnez	v0,403c84 <memchr+0x34>
  403c58:	30a500ff 	andi	a1,a1,0xff
  403c5c:	1000000d 	b	403c94 <memchr+0x44>
  403c60:	00000000 	nop
  403c64:	90820000 	lbu	v0,0(a0)
  403c68:	00000000 	nop
  403c6c:	10450028 	beq	v0,a1,403d10 <memchr+0xc0>
  403c70:	00801025 	move	v0,a0
  403c74:	24840001 	addiu	a0,a0,1
  403c78:	30820003 	andi	v0,a0,0x3
  403c7c:	10400005 	beqz	v0,403c94 <memchr+0x44>
  403c80:	24c6ffff 	addiu	a2,a2,-1
  403c84:	14c0fff7 	bnez	a2,403c64 <memchr+0x14>
  403c88:	00000000 	nop
  403c8c:	03e00008 	jr	ra
  403c90:	00001025 	move	v0,zero
  403c94:	10c0fffd 	beqz	a2,403c8c <memchr+0x3c>
  403c98:	00000000 	nop
  403c9c:	90820000 	lbu	v0,0(a0)
  403ca0:	00000000 	nop
  403ca4:	1045001a 	beq	v0,a1,403d10 <memchr+0xc0>
  403ca8:	00801025 	move	v0,a0
  403cac:	00053a00 	sll	a3,a1,0x8
  403cb0:	00e53821 	addu	a3,a3,a1
  403cb4:	00071c00 	sll	v1,a3,0x10
  403cb8:	2cc20004 	sltiu	v0,a2,4
  403cbc:	14400013 	bnez	v0,403d0c <memchr+0xbc>
  403cc0:	00e33821 	addu	a3,a3,v1
  403cc4:	3c09fefe 	lui	t1,0xfefe
  403cc8:	3c088080 	lui	t0,0x8080
  403ccc:	3529feff 	ori	t1,t1,0xfeff
  403cd0:	10000004 	b	403ce4 <memchr+0x94>
  403cd4:	35088080 	ori	t0,t0,0x8080
  403cd8:	2cc20004 	sltiu	v0,a2,4
  403cdc:	14400018 	bnez	v0,403d40 <memchr+0xf0>
  403ce0:	24840004 	addiu	a0,a0,4
  403ce4:	8c820000 	lw	v0,0(a0)
  403ce8:	00000000 	nop
  403cec:	00e21026 	xor	v0,a3,v0
  403cf0:	00491821 	addu	v1,v0,t1
  403cf4:	00021027 	nor	v0,zero,v0
  403cf8:	00621024 	and	v0,v1,v0
  403cfc:	00481024 	and	v0,v0,t0
  403d00:	1040fff5 	beqz	v0,403cd8 <memchr+0x88>
  403d04:	24c6fffc 	addiu	a2,a2,-4
  403d08:	24c60004 	addiu	a2,a2,4
  403d0c:	00801025 	move	v0,a0
  403d10:	10000003 	b	403d20 <memchr+0xd0>
  403d14:	00862021 	addu	a0,a0,a2
  403d18:	10440007 	beq	v0,a0,403d38 <memchr+0xe8>
  403d1c:	00000000 	nop
  403d20:	90430000 	lbu	v1,0(v0)
  403d24:	00000000 	nop
  403d28:	1465fffb 	bne	v1,a1,403d18 <memchr+0xc8>
  403d2c:	24420001 	addiu	v0,v0,1
  403d30:	03e00008 	jr	ra
  403d34:	2442ffff 	addiu	v0,v0,-1
  403d38:	03e00008 	jr	ra
  403d3c:	00001025 	move	v0,zero
  403d40:	14c0fff2 	bnez	a2,403d0c <memchr+0xbc>
  403d44:	00001025 	move	v0,zero
  403d48:	03e00008 	jr	ra
  403d4c:	00000000 	nop

00403d50 <memcpy>:
  403d50:	30a30003 	andi	v1,a1,0x3
  403d54:	10600125 	beqz	v1,4041ec <memcpy+0x49c>
  403d58:	00801025 	move	v0,a0
  403d5c:	10c0009d 	beqz	a2,403fd4 <memcpy+0x284>
  403d60:	00801825 	move	v1,a0
  403d64:	10000003 	b	403d74 <memcpy+0x24>
  403d68:	24a50001 	addiu	a1,a1,1
  403d6c:	10c00099 	beqz	a2,403fd4 <memcpy+0x284>
  403d70:	24a50001 	addiu	a1,a1,1
  403d74:	90a8ffff 	lbu	t0,-1(a1)
  403d78:	30a70003 	andi	a3,a1,0x3
  403d7c:	24630001 	addiu	v1,v1,1
  403d80:	24c6ffff 	addiu	a2,a2,-1
  403d84:	14e0fff9 	bnez	a3,403d6c <memcpy+0x1c>
  403d88:	a068ffff 	sb	t0,-1(v1)
  403d8c:	30640003 	andi	a0,v1,0x3
  403d90:	10800092 	beqz	a0,403fdc <memcpy+0x28c>
  403d94:	2cc70020 	sltiu	a3,a2,32
  403d98:	27bdfff8 	addiu	sp,sp,-8
  403d9c:	afb10004 	sw	s1,4(sp)
  403da0:	14e00033 	bnez	a3,403e70 <memcpy+0x120>
  403da4:	afb00000 	sw	s0,0(sp)
  403da8:	24080002 	li	t0,2
  403dac:	90a90000 	lbu	t1,0(a1)
  403db0:	8ca70000 	lw	a3,0(a1)
  403db4:	108800e3 	beq	a0,t0,404144 <memcpy+0x3f4>
  403db8:	24d9ffec 	addiu	t9,a2,-20
  403dbc:	24080003 	li	t0,3
  403dc0:	108800b9 	beq	a0,t0,4040a8 <memcpy+0x358>
  403dc4:	0019c902 	srl	t9,t9,0x4
  403dc8:	90a80001 	lbu	t0,1(a1)
  403dcc:	90a40002 	lbu	a0,2(a1)
  403dd0:	0019c100 	sll	t8,t9,0x4
  403dd4:	24a50003 	addiu	a1,a1,3
  403dd8:	24700003 	addiu	s0,v1,3
  403ddc:	27180013 	addiu	t8,t8,19
  403de0:	a0690000 	sb	t1,0(v1)
  403de4:	a0680001 	sb	t0,1(v1)
  403de8:	a0640002 	sb	a0,2(v1)
  403dec:	0078c021 	addu	t8,v1,t8
  403df0:	00a05025 	move	t2,a1
  403df4:	02001825 	move	v1,s0
  403df8:	8d490001 	lw	t1,1(t2)
  403dfc:	8d480005 	lw	t0,5(t2)
  403e00:	8d440009 	lw	a0,9(t2)
  403e04:	00075e00 	sll	t3,a3,0x18
  403e08:	8d47000d 	lw	a3,13(t2)
  403e0c:	00097a02 	srl	t7,t1,0x8
  403e10:	00087202 	srl	t6,t0,0x8
  403e14:	00046a02 	srl	t5,a0,0x8
  403e18:	00094e00 	sll	t1,t1,0x18
  403e1c:	00084600 	sll	t0,t0,0x18
  403e20:	00042600 	sll	a0,a0,0x18
  403e24:	00076202 	srl	t4,a3,0x8
  403e28:	016f5825 	or	t3,t3,t7
  403e2c:	012e4825 	or	t1,t1,t6
  403e30:	010d4025 	or	t0,t0,t5
  403e34:	008c2025 	or	a0,a0,t4
  403e38:	ac6b0000 	sw	t3,0(v1)
  403e3c:	ac690004 	sw	t1,4(v1)
  403e40:	ac680008 	sw	t0,8(v1)
  403e44:	ac64000c 	sw	a0,12(v1)
  403e48:	24630010 	addiu	v1,v1,16
  403e4c:	1478ffea 	bne	v1,t8,403df8 <memcpy+0xa8>
  403e50:	254a0010 	addiu	t2,t2,16
  403e54:	27240001 	addiu	a0,t9,1
  403e58:	00042100 	sll	a0,a0,0x4
  403e5c:	24c6ffed 	addiu	a2,a2,-19
  403e60:	0019c900 	sll	t9,t9,0x4
  403e64:	00d93023 	subu	a2,a2,t9
  403e68:	02041821 	addu	v1,s0,a0
  403e6c:	00a42821 	addu	a1,a1,a0
  403e70:	30c40010 	andi	a0,a2,0x10
  403e74:	30c90008 	andi	t1,a2,0x8
  403e78:	30c80004 	andi	t0,a2,0x4
  403e7c:	30c70002 	andi	a3,a2,0x2
  403e80:	108000de 	beqz	a0,4041fc <memcpy+0x4ac>
  403e84:	30c60001 	andi	a2,a2,0x1
  403e88:	90b10000 	lbu	s1,0(a1)
  403e8c:	90a4000e 	lbu	a0,14(a1)
  403e90:	a0710000 	sb	s1,0(v1)
  403e94:	90b10001 	lbu	s1,1(a1)
  403e98:	90b00006 	lbu	s0,6(a1)
  403e9c:	a0710001 	sb	s1,1(v1)
  403ea0:	90b10002 	lbu	s1,2(a1)
  403ea4:	90b90007 	lbu	t9,7(a1)
  403ea8:	a0710002 	sb	s1,2(v1)
  403eac:	90b10003 	lbu	s1,3(a1)
  403eb0:	90b80008 	lbu	t8,8(a1)
  403eb4:	a0710003 	sb	s1,3(v1)
  403eb8:	90b10004 	lbu	s1,4(a1)
  403ebc:	90af0009 	lbu	t7,9(a1)
  403ec0:	90ae000a 	lbu	t6,10(a1)
  403ec4:	90ad000b 	lbu	t5,11(a1)
  403ec8:	90ac000c 	lbu	t4,12(a1)
  403ecc:	90ab000d 	lbu	t3,13(a1)
  403ed0:	90aa000f 	lbu	t2,15(a1)
  403ed4:	a0710004 	sb	s1,4(v1)
  403ed8:	90b10005 	lbu	s1,5(a1)
  403edc:	a064000e 	sb	a0,14(v1)
  403ee0:	a0710005 	sb	s1,5(v1)
  403ee4:	a0700006 	sb	s0,6(v1)
  403ee8:	a0790007 	sb	t9,7(v1)
  403eec:	a0780008 	sb	t8,8(v1)
  403ef0:	a06f0009 	sb	t7,9(v1)
  403ef4:	a06e000a 	sb	t6,10(v1)
  403ef8:	a06d000b 	sb	t5,11(v1)
  403efc:	a06c000c 	sb	t4,12(v1)
  403f00:	a06b000d 	sb	t3,13(v1)
  403f04:	24a50010 	addiu	a1,a1,16
  403f08:	24640010 	addiu	a0,v1,16
  403f0c:	a06a000f 	sb	t2,15(v1)
  403f10:	11200013 	beqz	t1,403f60 <memcpy+0x210>
  403f14:	00801825 	move	v1,a0
  403f18:	90a30006 	lbu	v1,6(a1)
  403f1c:	90af0000 	lbu	t7,0(a1)
  403f20:	90ae0001 	lbu	t6,1(a1)
  403f24:	90ad0002 	lbu	t5,2(a1)
  403f28:	90ac0003 	lbu	t4,3(a1)
  403f2c:	90ab0004 	lbu	t3,4(a1)
  403f30:	90aa0005 	lbu	t2,5(a1)
  403f34:	90a90007 	lbu	t1,7(a1)
  403f38:	a0830006 	sb	v1,6(a0)
  403f3c:	a08f0000 	sb	t7,0(a0)
  403f40:	a08e0001 	sb	t6,1(a0)
  403f44:	a08d0002 	sb	t5,2(a0)
  403f48:	a08c0003 	sb	t4,3(a0)
  403f4c:	a08b0004 	sb	t3,4(a0)
  403f50:	a08a0005 	sb	t2,5(a0)
  403f54:	24a50008 	addiu	a1,a1,8
  403f58:	24830008 	addiu	v1,a0,8
  403f5c:	a0890007 	sb	t1,7(a0)
  403f60:	1100000b 	beqz	t0,403f90 <memcpy+0x240>
  403f64:	00602025 	move	a0,v1
  403f68:	90a40002 	lbu	a0,2(a1)
  403f6c:	90aa0000 	lbu	t2,0(a1)
  403f70:	90a90001 	lbu	t1,1(a1)
  403f74:	90a80003 	lbu	t0,3(a1)
  403f78:	a0640002 	sb	a0,2(v1)
  403f7c:	a06a0000 	sb	t2,0(v1)
  403f80:	a0690001 	sb	t1,1(v1)
  403f84:	24a50004 	addiu	a1,a1,4
  403f88:	24640004 	addiu	a0,v1,4
  403f8c:	a0680003 	sb	t0,3(v1)
  403f90:	10e00007 	beqz	a3,403fb0 <memcpy+0x260>
  403f94:	00801825 	move	v1,a0
  403f98:	90a30000 	lbu	v1,0(a1)
  403f9c:	90a70001 	lbu	a3,1(a1)
  403fa0:	a0830000 	sb	v1,0(a0)
  403fa4:	24a50002 	addiu	a1,a1,2
  403fa8:	24830002 	addiu	v1,a0,2
  403fac:	a0870001 	sb	a3,1(a0)
  403fb0:	10c00004 	beqz	a2,403fc4 <memcpy+0x274>
  403fb4:	00000000 	nop
  403fb8:	90a40000 	lbu	a0,0(a1)
  403fbc:	00000000 	nop
  403fc0:	a0640000 	sb	a0,0(v1)
  403fc4:	8fb10004 	lw	s1,4(sp)
  403fc8:	8fb00000 	lw	s0,0(sp)
  403fcc:	03e00008 	jr	ra
  403fd0:	27bd0008 	addiu	sp,sp,8
  403fd4:	03e00008 	jr	ra
  403fd8:	00000000 	nop
  403fdc:	2cc40010 	sltiu	a0,a2,16
  403fe0:	14800084 	bnez	a0,4041f4 <memcpy+0x4a4>
  403fe4:	24ccfff0 	addiu	t4,a2,-16
  403fe8:	000c6102 	srl	t4,t4,0x4
  403fec:	258c0001 	addiu	t4,t4,1
  403ff0:	000c6100 	sll	t4,t4,0x4
  403ff4:	006c5821 	addu	t3,v1,t4
  403ff8:	00a03825 	move	a3,a1
  403ffc:	8cea0004 	lw	t2,4(a3)
  404000:	8ce80008 	lw	t0,8(a3)
  404004:	8ce4000c 	lw	a0,12(a3)
  404008:	8ce90000 	lw	t1,0(a3)
  40400c:	ac6a0004 	sw	t2,4(v1)
  404010:	ac690000 	sw	t1,0(v1)
  404014:	ac680008 	sw	t0,8(v1)
  404018:	ac64000c 	sw	a0,12(v1)
  40401c:	24630010 	addiu	v1,v1,16
  404020:	1563fff6 	bne	t3,v1,403ffc <memcpy+0x2ac>
  404024:	24e70010 	addiu	a3,a3,16
  404028:	30c6000f 	andi	a2,a2,0xf
  40402c:	00ac2821 	addu	a1,a1,t4
  404030:	30c70008 	andi	a3,a2,0x8
  404034:	30c40004 	andi	a0,a2,0x4
  404038:	30c30002 	andi	v1,a2,0x2
  40403c:	10e00007 	beqz	a3,40405c <memcpy+0x30c>
  404040:	30c60001 	andi	a2,a2,0x1
  404044:	8ca80004 	lw	t0,4(a1)
  404048:	8ca70000 	lw	a3,0(a1)
  40404c:	ad680004 	sw	t0,4(t3)
  404050:	ad670000 	sw	a3,0(t3)
  404054:	24a50008 	addiu	a1,a1,8
  404058:	256b0008 	addiu	t3,t3,8
  40405c:	10800005 	beqz	a0,404074 <memcpy+0x324>
  404060:	00000000 	nop
  404064:	8ca40000 	lw	a0,0(a1)
  404068:	256b0004 	addiu	t3,t3,4
  40406c:	24a50004 	addiu	a1,a1,4
  404070:	ad64fffc 	sw	a0,-4(t3)
  404074:	10600007 	beqz	v1,404094 <memcpy+0x344>
  404078:	01601825 	move	v1,t3
  40407c:	90a30000 	lbu	v1,0(a1)
  404080:	90a40001 	lbu	a0,1(a1)
  404084:	a1630000 	sb	v1,0(t3)
  404088:	24a50002 	addiu	a1,a1,2
  40408c:	25630002 	addiu	v1,t3,2
  404090:	a1640001 	sb	a0,1(t3)
  404094:	10c0ffcf 	beqz	a2,403fd4 <memcpy+0x284>
  404098:	00000000 	nop
  40409c:	90a40000 	lbu	a0,0(a1)
  4040a0:	03e00008 	jr	ra
  4040a4:	a0640000 	sb	a0,0(v1)
  4040a8:	0019c100 	sll	t8,t9,0x4
  4040ac:	24a50001 	addiu	a1,a1,1
  4040b0:	24700001 	addiu	s0,v1,1
  4040b4:	27180011 	addiu	t8,t8,17
  4040b8:	a0690000 	sb	t1,0(v1)
  4040bc:	0078c021 	addu	t8,v1,t8
  4040c0:	00a02025 	move	a0,a1
  4040c4:	02001825 	move	v1,s0
  4040c8:	8c8a0003 	lw	t2,3(a0)
  4040cc:	8c890007 	lw	t1,7(a0)
  4040d0:	8c88000b 	lw	t0,11(a0)
  4040d4:	00075a00 	sll	t3,a3,0x8
  4040d8:	8c87000f 	lw	a3,15(a0)
  4040dc:	000a7e02 	srl	t7,t2,0x18
  4040e0:	00097602 	srl	t6,t1,0x18
  4040e4:	00086e02 	srl	t5,t0,0x18
  4040e8:	000a5200 	sll	t2,t2,0x8
  4040ec:	00094a00 	sll	t1,t1,0x8
  4040f0:	00084200 	sll	t0,t0,0x8
  4040f4:	00076602 	srl	t4,a3,0x18
  4040f8:	016f5825 	or	t3,t3,t7
  4040fc:	014e5025 	or	t2,t2,t6
  404100:	012d4825 	or	t1,t1,t5
  404104:	010c4025 	or	t0,t0,t4
  404108:	ac6b0000 	sw	t3,0(v1)
  40410c:	ac6a0004 	sw	t2,4(v1)
  404110:	ac690008 	sw	t1,8(v1)
  404114:	ac68000c 	sw	t0,12(v1)
  404118:	24630010 	addiu	v1,v1,16
  40411c:	1478ffea 	bne	v1,t8,4040c8 <memcpy+0x378>
  404120:	24840010 	addiu	a0,a0,16
  404124:	27240001 	addiu	a0,t9,1
  404128:	00042100 	sll	a0,a0,0x4
  40412c:	24c6ffef 	addiu	a2,a2,-17
  404130:	0019c900 	sll	t9,t9,0x4
  404134:	00d93023 	subu	a2,a2,t9
  404138:	02041821 	addu	v1,s0,a0
  40413c:	1000ff4c 	b	403e70 <memcpy+0x120>
  404140:	00a42821 	addu	a1,a1,a0
  404144:	0019c902 	srl	t9,t9,0x4
  404148:	90a40001 	lbu	a0,1(a1)
  40414c:	0019c100 	sll	t8,t9,0x4
  404150:	24a50002 	addiu	a1,a1,2
  404154:	24700002 	addiu	s0,v1,2
  404158:	27180012 	addiu	t8,t8,18
  40415c:	a0690000 	sb	t1,0(v1)
  404160:	a0640001 	sb	a0,1(v1)
  404164:	0078c021 	addu	t8,v1,t8
  404168:	00a05025 	move	t2,a1
  40416c:	02001825 	move	v1,s0
  404170:	8d490002 	lw	t1,2(t2)
  404174:	8d440006 	lw	a0,6(t2)
  404178:	8d48000a 	lw	t0,10(t2)
  40417c:	00075c00 	sll	t3,a3,0x10
  404180:	8d47000e 	lw	a3,14(t2)
  404184:	00097c02 	srl	t7,t1,0x10
  404188:	00047402 	srl	t6,a0,0x10
  40418c:	00086c02 	srl	t5,t0,0x10
  404190:	00094c00 	sll	t1,t1,0x10
  404194:	00042400 	sll	a0,a0,0x10
  404198:	00084400 	sll	t0,t0,0x10
  40419c:	00076402 	srl	t4,a3,0x10
  4041a0:	016f5825 	or	t3,t3,t7
  4041a4:	012e4825 	or	t1,t1,t6
  4041a8:	008d2025 	or	a0,a0,t5
  4041ac:	010c4025 	or	t0,t0,t4
  4041b0:	ac6b0000 	sw	t3,0(v1)
  4041b4:	ac690004 	sw	t1,4(v1)
  4041b8:	ac640008 	sw	a0,8(v1)
  4041bc:	ac68000c 	sw	t0,12(v1)
  4041c0:	24630010 	addiu	v1,v1,16
  4041c4:	1478ffea 	bne	v1,t8,404170 <memcpy+0x420>
  4041c8:	254a0010 	addiu	t2,t2,16
  4041cc:	27240001 	addiu	a0,t9,1
  4041d0:	00042100 	sll	a0,a0,0x4
  4041d4:	24c6ffee 	addiu	a2,a2,-18
  4041d8:	0019c900 	sll	t9,t9,0x4
  4041dc:	00d93023 	subu	a2,a2,t9
  4041e0:	02041821 	addu	v1,s0,a0
  4041e4:	1000ff22 	b	403e70 <memcpy+0x120>
  4041e8:	00a42821 	addu	a1,a1,a0
  4041ec:	1000fee7 	b	403d8c <memcpy+0x3c>
  4041f0:	00801825 	move	v1,a0
  4041f4:	1000ff8e 	b	404030 <memcpy+0x2e0>
  4041f8:	00605825 	move	t3,v1
  4041fc:	1000ff44 	b	403f10 <memcpy+0x1c0>
  404200:	00602025 	move	a0,v1
	...

00404210 <__set_thread_area>:
  404210:	240210bb 	li	v0,4283
  404214:	0000000c 	syscall
  404218:	10e00004 	beqz	a3,40422c <__set_thread_area+0x1c>
  40421c:	00000000 	nop
  404220:	18400002 	blez	v0,40422c <__set_thread_area+0x1c>
  404224:	00000000 	nop
  404228:	00021023 	negu	v0,v0
  40422c:	03e00008 	jr	ra
  404230:	00000000 	nop
	...

00404240 <lseek>:
  404240:	3c1c0002 	lui	gp,0x2
  404244:	279caf70 	addiu	gp,gp,-20624
  404248:	0399e021 	addu	gp,gp,t9
  40424c:	27bdffd8 	addiu	sp,sp,-40
  404250:	afbc0010 	sw	gp,16(sp)
  404254:	00c02825 	move	a1,a2
  404258:	8fa80038 	lw	t0,56(sp)
  40425c:	00e03025 	move	a2,a3
  404260:	afbf0024 	sw	ra,36(sp)
  404264:	27a70018 	addiu	a3,sp,24
  404268:	27bdffe0 	addiu	sp,sp,-32
  40426c:	afa80010 	sw	t0,16(sp)
  404270:	2402102c 	li	v0,4140
  404274:	0000000c 	syscall
  404278:	10e00012 	beqz	a3,4042c4 <lseek+0x84>
  40427c:	27bd0020 	addiu	sp,sp,32
  404280:	18400010 	blez	v0,4042c4 <lseek+0x84>
  404284:	00000000 	nop
  404288:	00022023 	negu	a0,v0
  40428c:	8f9980e4 	lw	t9,-32540(gp)
  404290:	00000000 	nop
  404294:	0411000e 	bal	4042d0 <__syscall_ret>
  404298:	00000000 	nop
  40429c:	2405ffff 	li	a1,-1
  4042a0:	14400003 	bnez	v0,4042b0 <lseek+0x70>
  4042a4:	2404ffff 	li	a0,-1
  4042a8:	8fa5001c 	lw	a1,28(sp)
  4042ac:	8fa40018 	lw	a0,24(sp)
  4042b0:	8fbf0024 	lw	ra,36(sp)
  4042b4:	00a01825 	move	v1,a1
  4042b8:	00801025 	move	v0,a0
  4042bc:	03e00008 	jr	ra
  4042c0:	27bd0028 	addiu	sp,sp,40
  4042c4:	1000fff1 	b	40428c <lseek+0x4c>
  4042c8:	00402025 	move	a0,v0
  4042cc:	00000000 	nop

004042d0 <__syscall_ret>:
  4042d0:	3c1c0002 	lui	gp,0x2
  4042d4:	279caee0 	addiu	gp,gp,-20768
  4042d8:	0399e021 	addu	gp,gp,t9
  4042dc:	2c82f001 	sltiu	v0,a0,-4095
  4042e0:	10400003 	beqz	v0,4042f0 <__syscall_ret+0x20>
  4042e4:	00801025 	move	v0,a0
  4042e8:	03e00008 	jr	ra
  4042ec:	00000000 	nop
  4042f0:	27bdffd8 	addiu	sp,sp,-40
  4042f4:	8f998088 	lw	t9,-32632(gp)
  4042f8:	afbf0024 	sw	ra,36(sp)
  4042fc:	afbc0010 	sw	gp,16(sp)
  404300:	afa40018 	sw	a0,24(sp)
  404304:	0411fc76 	bal	4034e0 <__errno_location>
  404308:	00000000 	nop
  40430c:	8fa40018 	lw	a0,24(sp)
  404310:	8fbf0024 	lw	ra,36(sp)
  404314:	00042023 	negu	a0,a0
  404318:	ac440000 	sw	a0,0(v0)
  40431c:	2404ffff 	li	a0,-1
  404320:	00801025 	move	v0,a0
  404324:	03e00008 	jr	ra
  404328:	27bd0028 	addiu	sp,sp,40
  40432c:	00000000 	nop

00404330 <frexp>:
  404330:	3c1c0002 	lui	gp,0x2
  404334:	279cae80 	addiu	gp,gp,-20864
  404338:	0399e021 	addu	gp,gp,t9
  40433c:	27bdffe0 	addiu	sp,sp,-32
  404340:	e7ad0020 	swc1	$f13,32(sp)
  404344:	8fa30020 	lw	v1,32(sp)
  404348:	afbc0010 	sw	gp,16(sp)
  40434c:	00031502 	srl	v0,v1,0x14
  404350:	e7ac0024 	swc1	$f12,36(sp)
  404354:	304207ff 	andi	v0,v0,0x7ff
  404358:	afb00018 	sw	s0,24(sp)
  40435c:	8fa70024 	lw	a3,36(sp)
  404360:	afbf001c 	sw	ra,28(sp)
  404364:	1440001d 	bnez	v0,4043dc <frexp+0xac>
  404368:	00c08025 	move	s0,a2
  40436c:	44800000 	mtc1	zero,$f0
  404370:	00000000 	nop
  404374:	44800800 	mtc1	zero,$f1
  404378:	00000000 	nop
  40437c:	46206032 	c.eq.d	$f12,$f0
  404380:	00000000 	nop
  404384:	45010013 	bc1t	4043d4 <frexp+0xa4>
  404388:	46206086 	mov.d	$f2,$f12
  40438c:	8f828018 	lw	v0,-32744(gp)
  404390:	8f998018 	lw	t9,-32744(gp)
  404394:	c44c6f8c 	lwc1	$f12,28556(v0)
  404398:	27394330 	addiu	t9,t9,17200
  40439c:	c44d6f88 	lwc1	$f13,28552(v0)
  4043a0:	0411ffe3 	bal	404330 <frexp>
  4043a4:	462c1302 	mul.d	$f12,$f2,$f12
  4043a8:	8e020000 	lw	v0,0(s0)
  4043ac:	e7a00024 	swc1	$f0,36(sp)
  4043b0:	2442ffc0 	addiu	v0,v0,-64
  4043b4:	e7a10020 	swc1	$f1,32(sp)
  4043b8:	ae020000 	sw	v0,0(s0)
  4043bc:	c7a00024 	lwc1	$f0,36(sp)
  4043c0:	8fbf001c 	lw	ra,28(sp)
  4043c4:	c7a10020 	lwc1	$f1,32(sp)
  4043c8:	8fb00018 	lw	s0,24(sp)
  4043cc:	03e00008 	jr	ra
  4043d0:	27bd0020 	addiu	sp,sp,32
  4043d4:	1000fff9 	b	4043bc <frexp+0x8c>
  4043d8:	acc00000 	sw	zero,0(a2)
  4043dc:	240407ff 	li	a0,2047
  4043e0:	1044fff6 	beq	v0,a0,4043bc <frexp+0x8c>
  4043e4:	2442fc02 	addiu	v0,v0,-1022
  4043e8:	acc20000 	sw	v0,0(a2)
  4043ec:	3c02800f 	lui	v0,0x800f
  4043f0:	3442ffff 	ori	v0,v0,0xffff
  4043f4:	00621824 	and	v1,v1,v0
  4043f8:	3c023fe0 	lui	v0,0x3fe0
  4043fc:	00432025 	or	a0,v0,v1
  404400:	afa70024 	sw	a3,36(sp)
  404404:	1000ffed 	b	4043bc <frexp+0x8c>
  404408:	afa40020 	sw	a0,32(sp)
  40440c:	00000000 	nop

00404410 <wcrtomb>:
  404410:	3c1c0002 	lui	gp,0x2
  404414:	279cada0 	addiu	gp,gp,-21088
  404418:	0399e021 	addu	gp,gp,t9
  40441c:	10800005 	beqz	a0,404434 <wcrtomb+0x24>
  404420:	24020001 	li	v0,1
  404424:	2ca20080 	sltiu	v0,a1,128
  404428:	1040000a 	beqz	v0,404454 <wcrtomb+0x44>
  40442c:	24020001 	li	v0,1
  404430:	a0850000 	sb	a1,0(a0)
  404434:	03e00008 	jr	ra
  404438:	00000000 	nop
  40443c:	a0850000 	sb	a1,0(a0)
  404440:	24020001 	li	v0,1
  404444:	8fbf001c 	lw	ra,28(sp)
  404448:	00000000 	nop
  40444c:	03e00008 	jr	ra
  404450:	27bd0020 	addiu	sp,sp,32
  404454:	7c03e83b 	0x7c03e83b
  404458:	8c628fe8 	lw	v0,-28696(v1)
  40445c:	27bdffe0 	addiu	sp,sp,-32
  404460:	8c420000 	lw	v0,0(v0)
  404464:	afbc0010 	sw	gp,16(sp)
  404468:	afbf001c 	sw	ra,28(sp)
  40446c:	1440000f 	bnez	v0,4044ac <wcrtomb+0x9c>
  404470:	2ca20800 	sltiu	v0,a1,2048
  404474:	3c02ffff 	lui	v0,0xffff
  404478:	24422080 	addiu	v0,v0,8320
  40447c:	00a21021 	addu	v0,a1,v0
  404480:	2c420080 	sltiu	v0,v0,128
  404484:	1440ffed 	bnez	v0,40443c <wcrtomb+0x2c>
  404488:	00000000 	nop
  40448c:	8f998088 	lw	t9,-32632(gp)
  404490:	00000000 	nop
  404494:	0411fc12 	bal	4034e0 <__errno_location>
  404498:	00000000 	nop
  40449c:	24030058 	li	v1,88
  4044a0:	ac430000 	sw	v1,0(v0)
  4044a4:	1000ffe7 	b	404444 <wcrtomb+0x34>
  4044a8:	2402ffff 	li	v0,-1
  4044ac:	1040000a 	beqz	v0,4044d8 <wcrtomb+0xc8>
  4044b0:	00051183 	sra	v0,a1,0x6
  4044b4:	2403ffc0 	li	v1,-64
  4044b8:	00431025 	or	v0,v0,v1
  4044bc:	a0820000 	sb	v0,0(a0)
  4044c0:	30a5003f 	andi	a1,a1,0x3f
  4044c4:	2402ff80 	li	v0,-128
  4044c8:	00a22825 	or	a1,a1,v0
  4044cc:	a0850001 	sb	a1,1(a0)
  4044d0:	1000ffdc 	b	404444 <wcrtomb+0x34>
  4044d4:	24020002 	li	v0,2
  4044d8:	3402d800 	li	v0,0xd800
  4044dc:	00a2102b 	sltu	v0,a1,v0
  4044e0:	14400008 	bnez	v0,404504 <wcrtomb+0xf4>
  4044e4:	00051303 	sra	v0,a1,0xc
  4044e8:	3c02ffff 	lui	v0,0xffff
  4044ec:	24432000 	addiu	v1,v0,8192
  4044f0:	00a31821 	addu	v1,a1,v1
  4044f4:	2c632000 	sltiu	v1,v1,8192
  4044f8:	1060000f 	beqz	v1,404538 <wcrtomb+0x128>
  4044fc:	3c030010 	lui	v1,0x10
  404500:	00051303 	sra	v0,a1,0xc
  404504:	2403ffe0 	li	v1,-32
  404508:	00431025 	or	v0,v0,v1
  40450c:	a0820000 	sb	v0,0(a0)
  404510:	00051183 	sra	v0,a1,0x6
  404514:	2403ff80 	li	v1,-128
  404518:	3042003f 	andi	v0,v0,0x3f
  40451c:	30a5003f 	andi	a1,a1,0x3f
  404520:	00431025 	or	v0,v0,v1
  404524:	00a32825 	or	a1,a1,v1
  404528:	a0820001 	sb	v0,1(a0)
  40452c:	a0850002 	sb	a1,2(a0)
  404530:	1000ffc4 	b	404444 <wcrtomb+0x34>
  404534:	24020003 	li	v0,3
  404538:	00a21021 	addu	v0,a1,v0
  40453c:	0043102b 	sltu	v0,v0,v1
  404540:	1040ffd2 	beqz	v0,40448c <wcrtomb+0x7c>
  404544:	2403fff0 	li	v1,-16
  404548:	00051483 	sra	v0,a1,0x12
  40454c:	00431025 	or	v0,v0,v1
  404550:	a0820000 	sb	v0,0(a0)
  404554:	00051303 	sra	v0,a1,0xc
  404558:	2403ff80 	li	v1,-128
  40455c:	3042003f 	andi	v0,v0,0x3f
  404560:	00431025 	or	v0,v0,v1
  404564:	a0820001 	sb	v0,1(a0)
  404568:	00051183 	sra	v0,a1,0x6
  40456c:	3042003f 	andi	v0,v0,0x3f
  404570:	30a5003f 	andi	a1,a1,0x3f
  404574:	00431025 	or	v0,v0,v1
  404578:	00a32825 	or	a1,a1,v1
  40457c:	a0820002 	sb	v0,2(a0)
  404580:	a0850003 	sb	a1,3(a0)
  404584:	1000ffaf 	b	404444 <wcrtomb+0x34>
  404588:	24020004 	li	v0,4
  40458c:	00000000 	nop

00404590 <close_file>:
  404590:	3c1c0002 	lui	gp,0x2
  404594:	279cac20 	addiu	gp,gp,-21472
  404598:	0399e021 	addu	gp,gp,t9
  40459c:	10800024 	beqz	a0,404630 <close_file+0xa0>
  4045a0:	00000000 	nop
  4045a4:	27bdffd8 	addiu	sp,sp,-40
  4045a8:	8c82004c 	lw	v0,76(a0)
  4045ac:	afbc0018 	sw	gp,24(sp)
  4045b0:	afb00020 	sw	s0,32(sp)
  4045b4:	afbf0024 	sw	ra,36(sp)
  4045b8:	04400005 	bltz	v0,4045d0 <close_file+0x40>
  4045bc:	00808025 	move	s0,a0
  4045c0:	8f9980a0 	lw	t9,-32608(gp)
  4045c4:	00000000 	nop
  4045c8:	0411fc38 	bal	4036ac <__lockfile>
  4045cc:	00000000 	nop
  4045d0:	8e030014 	lw	v1,20(s0)
  4045d4:	8e02001c 	lw	v0,28(s0)
  4045d8:	00000000 	nop
  4045dc:	10620005 	beq	v1,v0,4045f4 <close_file+0x64>
  4045e0:	00003025 	move	a2,zero
  4045e4:	8e190024 	lw	t9,36(s0)
  4045e8:	00002825 	move	a1,zero
  4045ec:	0320f809 	jalr	t9
  4045f0:	02002025 	move	a0,s0
  4045f4:	8e070004 	lw	a3,4(s0)
  4045f8:	8e020008 	lw	v0,8(s0)
  4045fc:	00000000 	nop
  404600:	10e20007 	beq	a3,v0,404620 <close_file+0x90>
  404604:	00e23823 	subu	a3,a3,v0
  404608:	24020001 	li	v0,1
  40460c:	afa20010 	sw	v0,16(sp)
  404610:	8e190028 	lw	t9,40(s0)
  404614:	000737c3 	sra	a2,a3,0x1f
  404618:	0320f809 	jalr	t9
  40461c:	02002025 	move	a0,s0
  404620:	8fbf0024 	lw	ra,36(sp)
  404624:	8fb00020 	lw	s0,32(sp)
  404628:	03e00008 	jr	ra
  40462c:	27bd0028 	addiu	sp,sp,40
  404630:	03e00008 	jr	ra
  404634:	00000000 	nop

00404638 <__stdio_exit>:
  404638:	3c1c0002 	lui	gp,0x2
  40463c:	279cab78 	addiu	gp,gp,-21640
  404640:	0399e021 	addu	gp,gp,t9
  404644:	27bdffd8 	addiu	sp,sp,-40
  404648:	8f9980f0 	lw	t9,-32528(gp)
  40464c:	afbc0010 	sw	gp,16(sp)
  404650:	afb10020 	sw	s1,32(sp)
  404654:	afb0001c 	sw	s0,28(sp)
  404658:	afbf0024 	sw	ra,36(sp)
  40465c:	0411007c 	bal	404850 <__ofl_lock>
  404660:	00000000 	nop
  404664:	8fbc0010 	lw	gp,16(sp)
  404668:	8c510000 	lw	s1,0(v0)
  40466c:	8f908018 	lw	s0,-32744(gp)
  404670:	00000000 	nop
  404674:	26104590 	addiu	s0,s0,17808
  404678:	16200016 	bnez	s1,4046d4 <__stdio_exit+0x9c>
  40467c:	0200c825 	move	t9,s0
  404680:	8f8280f4 	lw	v0,-32524(gp)
  404684:	00000000 	nop
  404688:	8c440000 	lw	a0,0(v0)
  40468c:	0411ffc0 	bal	404590 <close_file>
  404690:	00000000 	nop
  404694:	8fbc0010 	lw	gp,16(sp)
  404698:	0200c825 	move	t9,s0
  40469c:	8f8280f8 	lw	v0,-32520(gp)
  4046a0:	00000000 	nop
  4046a4:	8c440000 	lw	a0,0(v0)
  4046a8:	0411ffb9 	bal	404590 <close_file>
  4046ac:	00000000 	nop
  4046b0:	8fbc0010 	lw	gp,16(sp)
  4046b4:	8fbf0024 	lw	ra,36(sp)
  4046b8:	8f8280f4 	lw	v0,-32524(gp)
  4046bc:	8fb10020 	lw	s1,32(sp)
  4046c0:	8c440000 	lw	a0,0(v0)
  4046c4:	0200c825 	move	t9,s0
  4046c8:	8fb0001c 	lw	s0,28(sp)
  4046cc:	1000ffb0 	b	404590 <close_file>
  4046d0:	27bd0028 	addiu	sp,sp,40
  4046d4:	0411ffae 	bal	404590 <close_file>
  4046d8:	02202025 	move	a0,s1
  4046dc:	8fbc0010 	lw	gp,16(sp)
  4046e0:	8e310038 	lw	s1,56(s1)
  4046e4:	1000ffe4 	b	404678 <__stdio_exit+0x40>
  4046e8:	00000000 	nop
  4046ec:	00000000 	nop

004046f0 <__stdio_write>:
  4046f0:	3c1c0002 	lui	gp,0x2
  4046f4:	279caac0 	addiu	gp,gp,-21824
  4046f8:	0399e021 	addu	gp,gp,t9
  4046fc:	27bdffb8 	addiu	sp,sp,-72
  404700:	8c83001c 	lw	v1,28(a0)
  404704:	afb30038 	sw	s3,56(sp)
  404708:	8c930014 	lw	s3,20(a0)
  40470c:	afb4003c 	sw	s4,60(sp)
  404710:	02639823 	subu	s3,s3,v1
  404714:	8f9480e4 	lw	s4,-32540(gp)
  404718:	afb50040 	sw	s5,64(sp)
  40471c:	afb20034 	sw	s2,52(sp)
  404720:	afb10030 	sw	s1,48(sp)
  404724:	afb0002c 	sw	s0,44(sp)
  404728:	afbc0010 	sw	gp,16(sp)
  40472c:	afb3001c 	sw	s3,28(sp)
  404730:	afbf0044 	sw	ra,68(sp)
  404734:	00808025 	move	s0,a0
  404738:	00c09025 	move	s2,a2
  40473c:	afa30018 	sw	v1,24(sp)
  404740:	afa50020 	sw	a1,32(sp)
  404744:	afa60024 	sw	a2,36(sp)
  404748:	02669821 	addu	s3,s3,a2
  40474c:	24150002 	li	s5,2
  404750:	27b10018 	addiu	s1,sp,24
  404754:	8e04003c 	lw	a0,60(s0)
  404758:	02202825 	move	a1,s1
  40475c:	02a03025 	move	a2,s5
  404760:	24021032 	li	v0,4146
  404764:	0000000c 	syscall
  404768:	10e00004 	beqz	a3,40477c <__stdio_write+0x8c>
  40476c:	00402025 	move	a0,v0
  404770:	18400002 	blez	v0,40477c <__stdio_write+0x8c>
  404774:	00000000 	nop
  404778:	00022023 	negu	a0,v0
  40477c:	0280c825 	move	t9,s4
  404780:	0411fed3 	bal	4042d0 <__syscall_ret>
  404784:	00000000 	nop
  404788:	14530011 	bne	v0,s3,4047d0 <__stdio_write+0xe0>
  40478c:	00401825 	move	v1,v0
  404790:	8e02002c 	lw	v0,44(s0)
  404794:	8e030030 	lw	v1,48(s0)
  404798:	ae02001c 	sw	v0,28(s0)
  40479c:	00431821 	addu	v1,v0,v1
  4047a0:	ae030010 	sw	v1,16(s0)
  4047a4:	ae020014 	sw	v0,20(s0)
  4047a8:	8fbf0044 	lw	ra,68(sp)
  4047ac:	8fb50040 	lw	s5,64(sp)
  4047b0:	8fb4003c 	lw	s4,60(sp)
  4047b4:	8fb30038 	lw	s3,56(sp)
  4047b8:	8fb10030 	lw	s1,48(sp)
  4047bc:	8fb0002c 	lw	s0,44(sp)
  4047c0:	02401025 	move	v0,s2
  4047c4:	8fb20034 	lw	s2,52(sp)
  4047c8:	03e00008 	jr	ra
  4047cc:	27bd0048 	addiu	sp,sp,72
  4047d0:	0441000c 	bgez	v0,404804 <__stdio_write+0x114>
  4047d4:	00000000 	nop
  4047d8:	8e020000 	lw	v0,0(s0)
  4047dc:	ae000010 	sw	zero,16(s0)
  4047e0:	34420020 	ori	v0,v0,0x20
  4047e4:	ae020000 	sw	v0,0(s0)
  4047e8:	24020002 	li	v0,2
  4047ec:	ae00001c 	sw	zero,28(s0)
  4047f0:	12a20015 	beq	s5,v0,404848 <__stdio_write+0x158>
  4047f4:	ae000014 	sw	zero,20(s0)
  4047f8:	8e220004 	lw	v0,4(s1)
  4047fc:	1000ffea 	b	4047a8 <__stdio_write+0xb8>
  404800:	02429023 	subu	s2,s2,v0
  404804:	8e240004 	lw	a0,4(s1)
  404808:	00000000 	nop
  40480c:	0082282b 	sltu	a1,a0,v0
  404810:	10a00004 	beqz	a1,404824 <__stdio_write+0x134>
  404814:	02629823 	subu	s3,s3,v0
  404818:	00441823 	subu	v1,v0,a0
  40481c:	26310008 	addiu	s1,s1,8
  404820:	26b5ffff 	addiu	s5,s5,-1
  404824:	8e240000 	lw	a0,0(s1)
  404828:	00000000 	nop
  40482c:	00832021 	addu	a0,a0,v1
  404830:	ae240000 	sw	a0,0(s1)
  404834:	8e240004 	lw	a0,4(s1)
  404838:	00000000 	nop
  40483c:	00831823 	subu	v1,a0,v1
  404840:	1000ffc4 	b	404754 <__stdio_write+0x64>
  404844:	ae230004 	sw	v1,4(s1)
  404848:	1000ffd7 	b	4047a8 <__stdio_write+0xb8>
  40484c:	00009025 	move	s2,zero

00404850 <__ofl_lock>:
  404850:	3c1c0002 	lui	gp,0x2
  404854:	279ca960 	addiu	gp,gp,-22176
  404858:	0399e021 	addu	gp,gp,t9
  40485c:	8f8480c0 	lw	a0,-32576(gp)
  404860:	27bdffe0 	addiu	sp,sp,-32
  404864:	8f9980fc 	lw	t9,-32516(gp)
  404868:	afbf001c 	sw	ra,28(sp)
  40486c:	afbc0010 	sw	gp,16(sp)
  404870:	04110024 	bal	404904 <__lock>
  404874:	24847870 	addiu	a0,a0,30832
  404878:	8fbc0010 	lw	gp,16(sp)
  40487c:	8fbf001c 	lw	ra,28(sp)
  404880:	8f8280c0 	lw	v0,-32576(gp)
  404884:	27bd0020 	addiu	sp,sp,32
  404888:	03e00008 	jr	ra
  40488c:	24427874 	addiu	v0,v0,30836

00404890 <__ofl_unlock>:
  404890:	3c1c0002 	lui	gp,0x2
  404894:	279ca920 	addiu	gp,gp,-22240
  404898:	0399e021 	addu	gp,gp,t9
  40489c:	8f8480c0 	lw	a0,-32576(gp)
  4048a0:	8f998100 	lw	t9,-32512(gp)
  4048a4:	00000000 	nop
  4048a8:	10000070 	b	404a6c <__unlock>
  4048ac:	24847870 	addiu	a0,a0,30832

004048b0 <a_cas>:
  4048b0:	0000000f 	0xf
  4048b4:	c0820000 	lwc0	c0_entrylo,0(a0)
  4048b8:	00000000 	nop
  4048bc:	14a20004 	bne	a1,v0,4048d0 <a_cas+0x20>
  4048c0:	00c01825 	move	v1,a2
  4048c4:	e0830000 	swc0	$3,0(a0)
  4048c8:	1060fffa 	beqz	v1,4048b4 <a_cas+0x4>
  4048cc:	00000000 	nop
  4048d0:	0000000f 	0xf
  4048d4:	03e00008 	jr	ra
  4048d8:	00000000 	nop

004048dc <a_fetch_add>:
  4048dc:	0000000f 	0xf
  4048e0:	c0820000 	lwc0	c0_entrylo,0(a0)
  4048e4:	00000000 	nop
  4048e8:	00451821 	addu	v1,v0,a1
  4048ec:	e0830000 	swc0	$3,0(a0)
  4048f0:	1060fffb 	beqz	v1,4048e0 <a_fetch_add+0x4>
  4048f4:	00000000 	nop
  4048f8:	0000000f 	0xf
  4048fc:	03e00008 	jr	ra
  404900:	00000000 	nop

00404904 <__lock>:
  404904:	3c1c0002 	lui	gp,0x2
  404908:	279ca8ac 	addiu	gp,gp,-22356
  40490c:	0399e021 	addu	gp,gp,t9
  404910:	27bdffd0 	addiu	sp,sp,-48
  404914:	8f88804c 	lw	t0,-32692(gp)
  404918:	afbc0010 	sw	gp,16(sp)
  40491c:	afbf002c 	sw	ra,44(sp)
  404920:	afb40028 	sw	s4,40(sp)
  404924:	afb30024 	sw	s3,36(sp)
  404928:	afb20020 	sw	s2,32(sp)
  40492c:	afb1001c 	sw	s1,28(sp)
  404930:	afb00018 	sw	s0,24(sp)
  404934:	91070003 	lbu	a3,3(t0)
  404938:	00000000 	nop
  40493c:	00073e00 	sll	a3,a3,0x18
  404940:	00073e03 	sra	a3,a3,0x18
  404944:	10e00041 	beqz	a3,404a4c <__lock+0x148>
  404948:	00000000 	nop
  40494c:	8f918018 	lw	s1,-32744(gp)
  404950:	3c068000 	lui	a2,0x8000
  404954:	263148b0 	addiu	s1,s1,18608
  404958:	24c60001 	addiu	a2,a2,1
  40495c:	0220c825 	move	t9,s1
  404960:	0411ffd3 	bal	4048b0 <a_cas>
  404964:	00002825 	move	a1,zero
  404968:	04e10002 	bgez	a3,404974 <__lock+0x70>
  40496c:	00808025 	move	s0,a0
  404970:	a1000003 	sb	zero,3(t0)
  404974:	10400035 	beqz	v0,404a4c <__lock+0x148>
  404978:	3c097fff 	lui	t1,0x7fff
  40497c:	3c088000 	lui	t0,0x8000
  404980:	2407000a 	li	a3,10
  404984:	3529ffff 	ori	t1,t1,0xffff
  404988:	25080001 	addiu	t0,t0,1
  40498c:	04410002 	bgez	v0,404998 <__lock+0x94>
  404990:	00402825 	move	a1,v0
  404994:	00492821 	addu	a1,v0,t1
  404998:	00a83021 	addu	a2,a1,t0
  40499c:	0220c825 	move	t9,s1
  4049a0:	0411ffc3 	bal	4048b0 <a_cas>
  4049a4:	02002025 	move	a0,s0
  4049a8:	8fbc0010 	lw	gp,16(sp)
  4049ac:	10a20027 	beq	a1,v0,404a4c <__lock+0x148>
  4049b0:	24e7ffff 	addiu	a3,a3,-1
  4049b4:	14e0fff5 	bnez	a3,40498c <__lock+0x88>
  4049b8:	00000000 	nop
  4049bc:	8f998018 	lw	t9,-32744(gp)
  4049c0:	00000000 	nop
  4049c4:	273948dc 	addiu	t9,t9,18652
  4049c8:	0411ffc4 	bal	4048dc <a_fetch_add>
  4049cc:	24050001 	li	a1,1
  4049d0:	3c127fff 	lui	s2,0x7fff
  4049d4:	24460001 	addiu	a2,v0,1
  4049d8:	2414ffa7 	li	s4,-89
  4049dc:	3652ffff 	ori	s2,s2,0xffff
  4049e0:	3c138000 	lui	s3,0x8000
  4049e4:	04c10013 	bgez	a2,404a34 <__lock+0x130>
  4049e8:	00c02825 	move	a1,a2
  4049ec:	02002025 	move	a0,s0
  4049f0:	24050080 	li	a1,128
  4049f4:	00003825 	move	a3,zero
  4049f8:	2402108e 	li	v0,4238
  4049fc:	0000000c 	syscall
  404a00:	10e00004 	beqz	a3,404a14 <__lock+0x110>
  404a04:	00401825 	move	v1,v0
  404a08:	18400002 	blez	v0,404a14 <__lock+0x110>
  404a0c:	00000000 	nop
  404a10:	00021823 	negu	v1,v0
  404a14:	14740007 	bne	v1,s4,404a34 <__lock+0x130>
  404a18:	00d22821 	addu	a1,a2,s2
  404a1c:	02002025 	move	a0,s0
  404a20:	00002825 	move	a1,zero
  404a24:	00003825 	move	a3,zero
  404a28:	2402108e 	li	v0,4238
  404a2c:	0000000c 	syscall
  404a30:	00d22821 	addu	a1,a2,s2
  404a34:	00b33021 	addu	a2,a1,s3
  404a38:	0220c825 	move	t9,s1
  404a3c:	0411ff9c 	bal	4048b0 <a_cas>
  404a40:	02002025 	move	a0,s0
  404a44:	14a2ffe7 	bne	a1,v0,4049e4 <__lock+0xe0>
  404a48:	00403025 	move	a2,v0
  404a4c:	8fbf002c 	lw	ra,44(sp)
  404a50:	8fb40028 	lw	s4,40(sp)
  404a54:	8fb30024 	lw	s3,36(sp)
  404a58:	8fb20020 	lw	s2,32(sp)
  404a5c:	8fb1001c 	lw	s1,28(sp)
  404a60:	8fb00018 	lw	s0,24(sp)
  404a64:	03e00008 	jr	ra
  404a68:	27bd0030 	addiu	sp,sp,48

00404a6c <__unlock>:
  404a6c:	3c1c0002 	lui	gp,0x2
  404a70:	279ca744 	addiu	gp,gp,-22716
  404a74:	0399e021 	addu	gp,gp,t9
  404a78:	8c820000 	lw	v0,0(a0)
  404a7c:	00000000 	nop
  404a80:	04410021 	bgez	v0,404b08 <__unlock+0x9c>
  404a84:	3c057fff 	lui	a1,0x7fff
  404a88:	8f998018 	lw	t9,-32744(gp)
  404a8c:	27bdffe0 	addiu	sp,sp,-32
  404a90:	afbc0010 	sw	gp,16(sp)
  404a94:	afbf001c 	sw	ra,28(sp)
  404a98:	afb00018 	sw	s0,24(sp)
  404a9c:	273948dc 	addiu	t9,t9,18652
  404aa0:	0411ff8e 	bal	4048dc <a_fetch_add>
  404aa4:	34a5ffff 	ori	a1,a1,0xffff
  404aa8:	3c038000 	lui	v1,0x8000
  404aac:	24630001 	addiu	v1,v1,1
  404ab0:	10430011 	beq	v0,v1,404af8 <__unlock+0x8c>
  404ab4:	00808025 	move	s0,a0
  404ab8:	24050081 	li	a1,129
  404abc:	24060001 	li	a2,1
  404ac0:	2402108e 	li	v0,4238
  404ac4:	0000000c 	syscall
  404ac8:	10e00004 	beqz	a3,404adc <__unlock+0x70>
  404acc:	00401825 	move	v1,v0
  404ad0:	18400003 	blez	v0,404ae0 <__unlock+0x74>
  404ad4:	2404ffa7 	li	a0,-89
  404ad8:	00021823 	negu	v1,v0
  404adc:	2404ffa7 	li	a0,-89
  404ae0:	14640005 	bne	v1,a0,404af8 <__unlock+0x8c>
  404ae4:	02002025 	move	a0,s0
  404ae8:	24050001 	li	a1,1
  404aec:	24060001 	li	a2,1
  404af0:	2402108e 	li	v0,4238
  404af4:	0000000c 	syscall
  404af8:	8fbf001c 	lw	ra,28(sp)
  404afc:	8fb00018 	lw	s0,24(sp)
  404b00:	03e00008 	jr	ra
  404b04:	27bd0020 	addiu	sp,sp,32
  404b08:	03e00008 	jr	ra
  404b0c:	00000000 	nop

00404b10 <__ashldi3>:
  404b10:	10c0000c 	beqz	a2,404b44 <__ashldi3+0x34>
  404b14:	00801025 	move	v0,a0
  404b18:	24020020 	li	v0,32
  404b1c:	00461023 	subu	v0,v0,a2
  404b20:	18400005 	blez	v0,404b38 <__ashldi3+0x28>
  404b24:	00c42004 	sllv	a0,a0,a2
  404b28:	00451006 	srlv	v0,a1,v0
  404b2c:	00c51804 	sllv	v1,a1,a2
  404b30:	03e00008 	jr	ra
  404b34:	00821025 	or	v0,a0,v0
  404b38:	00001825 	move	v1,zero
  404b3c:	03e00008 	jr	ra
  404b40:	00c51004 	sllv	v0,a1,a2
  404b44:	03e00008 	jr	ra
  404b48:	00a01825 	move	v1,a1
  404b4c:	00000000 	nop

00404b50 <__divdi3>:
  404b50:	3c1c0002 	lui	gp,0x2
  404b54:	279ca660 	addiu	gp,gp,-22944
  404b58:	0399e021 	addu	gp,gp,t9
  404b5c:	048000ca 	bltz	a0,404e88 <__divdi3+0x338>
  404b60:	0005102b 	sltu	v0,zero,a1
  404b64:	00004025 	move	t0,zero
  404b68:	04c10007 	bgez	a2,404b88 <__divdi3+0x38>
  404b6c:	00c01825 	move	v1,a2
  404b70:	0007102b 	sltu	v0,zero,a3
  404b74:	00063023 	negu	a2,a2
  404b78:	00084027 	nor	t0,zero,t0
  404b7c:	00c23023 	subu	a2,a2,v0
  404b80:	00073823 	negu	a3,a3
  404b84:	00c01825 	move	v1,a2
  404b88:	00e04825 	move	t1,a3
  404b8c:	00a05025 	move	t2,a1
  404b90:	14c0004d 	bnez	a2,404cc8 <__divdi3+0x178>
  404b94:	00801025 	move	v0,a0
  404b98:	0087302b 	sltu	a2,a0,a3
  404b9c:	10c0006f 	beqz	a2,404d5c <__divdi3+0x20c>
  404ba0:	3c060001 	lui	a2,0x1
  404ba4:	00e6302b 	sltu	a2,a3,a2
  404ba8:	14c000c1 	bnez	a2,404eb0 <__divdi3+0x360>
  404bac:	2ce60100 	sltiu	a2,a3,256
  404bb0:	3c030100 	lui	v1,0x100
  404bb4:	00e3182b 	sltu	v1,a3,v1
  404bb8:	14600158 	bnez	v1,40511c <__divdi3+0x5cc>
  404bbc:	00000000 	nop
  404bc0:	00076602 	srl	t4,a3,0x18
  404bc4:	24030018 	li	v1,24
  404bc8:	8f868104 	lw	a2,-32508(gp)
  404bcc:	240b0020 	li	t3,32
  404bd0:	00cc3021 	addu	a2,a2,t4
  404bd4:	90c60000 	lbu	a2,0(a2)
  404bd8:	00000000 	nop
  404bdc:	00c31821 	addu	v1,a2,v1
  404be0:	11630006 	beq	t3,v1,404bfc <__divdi3+0xac>
  404be4:	01636023 	subu	t4,t3,v1
  404be8:	01843004 	sllv	a2,a0,t4
  404bec:	00651806 	srlv	v1,a1,v1
  404bf0:	01874804 	sllv	t1,a3,t4
  404bf4:	00661025 	or	v0,v1,a2
  404bf8:	01855004 	sllv	t2,a1,t4
  404bfc:	00092c02 	srl	a1,t1,0x10
  404c00:	14a00002 	bnez	a1,404c0c <__divdi3+0xbc>
  404c04:	0045001b 	divu	zero,v0,a1
  404c08:	0007000d 	break	0x7
  404c0c:	312bffff 	andi	t3,t1,0xffff
  404c10:	000a1402 	srl	v0,t2,0x10
  404c14:	00001812 	mflo	v1
  404c18:	00002010 	mfhi	a0
  404c1c:	00042400 	sll	a0,a0,0x10
  404c20:	00821025 	or	v0,a0,v0
  404c24:	01630018 	mult	t3,v1
  404c28:	00003812 	mflo	a3
  404c2c:	0047202b 	sltu	a0,v0,a3
  404c30:	10800009 	beqz	a0,404c58 <__divdi3+0x108>
  404c34:	00000000 	nop
  404c38:	00491021 	addu	v0,v0,t1
  404c3c:	0049202b 	sltu	a0,v0,t1
  404c40:	14800004 	bnez	a0,404c54 <__divdi3+0x104>
  404c44:	2466ffff 	addiu	a2,v1,-1
  404c48:	0047202b 	sltu	a0,v0,a3
  404c4c:	14800140 	bnez	a0,405150 <__divdi3+0x600>
  404c50:	2463fffe 	addiu	v1,v1,-2
  404c54:	00c01825 	move	v1,a2
  404c58:	00471023 	subu	v0,v0,a3
  404c5c:	14a00002 	bnez	a1,404c68 <__divdi3+0x118>
  404c60:	0045001b 	divu	zero,v0,a1
  404c64:	0007000d 	break	0x7
  404c68:	314affff 	andi	t2,t2,0xffff
  404c6c:	00002812 	mflo	a1
  404c70:	00001010 	mfhi	v0
  404c74:	00021400 	sll	v0,v0,0x10
  404c78:	004a1025 	or	v0,v0,t2
  404c7c:	01650018 	mult	t3,a1
  404c80:	00003012 	mflo	a2
  404c84:	0046202b 	sltu	a0,v0,a2
  404c88:	10800009 	beqz	a0,404cb0 <__divdi3+0x160>
  404c8c:	00000000 	nop
  404c90:	01221021 	addu	v0,t1,v0
  404c94:	0049482b 	sltu	t1,v0,t1
  404c98:	15200004 	bnez	t1,404cac <__divdi3+0x15c>
  404c9c:	24a4ffff 	addiu	a0,a1,-1
  404ca0:	0046102b 	sltu	v0,v0,a2
  404ca4:	14400002 	bnez	v0,404cb0 <__divdi3+0x160>
  404ca8:	24a5fffe 	addiu	a1,a1,-2
  404cac:	00802825 	move	a1,a0
  404cb0:	00031c00 	sll	v1,v1,0x10
  404cb4:	00651825 	or	v1,v1,a1
  404cb8:	1500000a 	bnez	t0,404ce4 <__divdi3+0x194>
  404cbc:	00001025 	move	v0,zero
  404cc0:	03e00008 	jr	ra
  404cc4:	00000000 	nop
  404cc8:	0086102b 	sltu	v0,a0,a2
  404ccc:	1040000b 	beqz	v0,404cfc <__divdi3+0x1ac>
  404cd0:	3c020001 	lui	v0,0x1
  404cd4:	00001825 	move	v1,zero
  404cd8:	00001025 	move	v0,zero
  404cdc:	1100fff8 	beqz	t0,404cc0 <__divdi3+0x170>
  404ce0:	00000000 	nop
  404ce4:	0003202b 	sltu	a0,zero,v1
  404ce8:	00021023 	negu	v0,v0
  404cec:	00441023 	subu	v0,v0,a0
  404cf0:	00031823 	negu	v1,v1
  404cf4:	03e00008 	jr	ra
  404cf8:	00000000 	nop
  404cfc:	00c2102b 	sltu	v0,a2,v0
  404d00:	14400070 	bnez	v0,404ec4 <__divdi3+0x374>
  404d04:	2cc20100 	sltiu	v0,a2,256
  404d08:	3c020100 	lui	v0,0x100
  404d0c:	00c2102b 	sltu	v0,a2,v0
  404d10:	144000f7 	bnez	v0,4050f0 <__divdi3+0x5a0>
  404d14:	00061c02 	srl	v1,a2,0x10
  404d18:	00061e02 	srl	v1,a2,0x18
  404d1c:	240a0018 	li	t2,24
  404d20:	8f828104 	lw	v0,-32508(gp)
  404d24:	24090020 	li	t1,32
  404d28:	00431021 	addu	v0,v0,v1
  404d2c:	90430000 	lbu	v1,0(v0)
  404d30:	00000000 	nop
  404d34:	006a1821 	addu	v1,v1,t2
  404d38:	152300a3 	bne	t1,v1,404fc8 <__divdi3+0x478>
  404d3c:	01235823 	subu	t3,t1,v1
  404d40:	00c4302b 	sltu	a2,a2,a0
  404d44:	14c000ee 	bnez	a2,405100 <__divdi3+0x5b0>
  404d48:	00000000 	nop
  404d4c:	00a7182b 	sltu	v1,a1,a3
  404d50:	38630001 	xori	v1,v1,0x1
  404d54:	1000ffe1 	b	404cdc <__divdi3+0x18c>
  404d58:	00001025 	move	v0,zero
  404d5c:	14e00007 	bnez	a3,404d7c <__divdi3+0x22c>
  404d60:	3c020001 	lui	v0,0x1
  404d64:	24020001 	li	v0,1
  404d68:	14600002 	bnez	v1,404d74 <__divdi3+0x224>
  404d6c:	0043001b 	divu	zero,v0,v1
  404d70:	0007000d 	break	0x7
  404d74:	00004812 	mflo	t1
  404d78:	3c020001 	lui	v0,0x1
  404d7c:	0122102b 	sltu	v0,t1,v0
  404d80:	14400046 	bnez	v0,404e9c <__divdi3+0x34c>
  404d84:	2d220100 	sltiu	v0,t1,256
  404d88:	3c020100 	lui	v0,0x100
  404d8c:	0122102b 	sltu	v0,t1,v0
  404d90:	144000e0 	bnez	v0,405114 <__divdi3+0x5c4>
  404d94:	00093c02 	srl	a3,t1,0x10
  404d98:	00093e02 	srl	a3,t1,0x18
  404d9c:	24030018 	li	v1,24
  404da0:	8f828104 	lw	v0,-32508(gp)
  404da4:	24060020 	li	a2,32
  404da8:	00471021 	addu	v0,v0,a3
  404dac:	90420000 	lbu	v0,0(v0)
  404db0:	00000000 	nop
  404db4:	00431821 	addu	v1,v0,v1
  404db8:	14c3004b 	bne	a2,v1,404ee8 <__divdi3+0x398>
  404dbc:	00c36823 	subu	t5,a2,v1
  404dc0:	00893023 	subu	a2,a0,t1
  404dc4:	00095c02 	srl	t3,t1,0x10
  404dc8:	3127ffff 	andi	a3,t1,0xffff
  404dcc:	24020001 	li	v0,1
  404dd0:	15600002 	bnez	t3,404ddc <__divdi3+0x28c>
  404dd4:	00cb001b 	divu	zero,a2,t3
  404dd8:	0007000d 	break	0x7
  404ddc:	000a2402 	srl	a0,t2,0x10
  404de0:	00001812 	mflo	v1
  404de4:	00003010 	mfhi	a2
  404de8:	00063400 	sll	a2,a2,0x10
  404dec:	00c42025 	or	a0,a2,a0
  404df0:	00670018 	mult	v1,a3
  404df4:	00006012 	mflo	t4
  404df8:	008c282b 	sltu	a1,a0,t4
  404dfc:	10a00009 	beqz	a1,404e24 <__divdi3+0x2d4>
  404e00:	00000000 	nop
  404e04:	00892021 	addu	a0,a0,t1
  404e08:	0089282b 	sltu	a1,a0,t1
  404e0c:	14a00004 	bnez	a1,404e20 <__divdi3+0x2d0>
  404e10:	2466ffff 	addiu	a2,v1,-1
  404e14:	008c282b 	sltu	a1,a0,t4
  404e18:	14a000cf 	bnez	a1,405158 <__divdi3+0x608>
  404e1c:	2463fffe 	addiu	v1,v1,-2
  404e20:	00c01825 	move	v1,a2
  404e24:	008c2023 	subu	a0,a0,t4
  404e28:	15600002 	bnez	t3,404e34 <__divdi3+0x2e4>
  404e2c:	008b001b 	divu	zero,a0,t3
  404e30:	0007000d 	break	0x7
  404e34:	314affff 	andi	t2,t2,0xffff
  404e38:	00002812 	mflo	a1
  404e3c:	00002010 	mfhi	a0
  404e40:	00042400 	sll	a0,a0,0x10
  404e44:	008a2025 	or	a0,a0,t2
  404e48:	00a70018 	mult	a1,a3
  404e4c:	00003012 	mflo	a2
  404e50:	0086382b 	sltu	a3,a0,a2
  404e54:	10e00009 	beqz	a3,404e7c <__divdi3+0x32c>
  404e58:	00000000 	nop
  404e5c:	01242021 	addu	a0,t1,a0
  404e60:	0089482b 	sltu	t1,a0,t1
  404e64:	1520001c 	bnez	t1,404ed8 <__divdi3+0x388>
  404e68:	24a7ffff 	addiu	a3,a1,-1
  404e6c:	0086202b 	sltu	a0,a0,a2
  404e70:	10800019 	beqz	a0,404ed8 <__divdi3+0x388>
  404e74:	00000000 	nop
  404e78:	24a5fffe 	addiu	a1,a1,-2
  404e7c:	00031c00 	sll	v1,v1,0x10
  404e80:	1000ff96 	b	404cdc <__divdi3+0x18c>
  404e84:	00651825 	or	v1,v1,a1
  404e88:	00042023 	negu	a0,a0
  404e8c:	00822023 	subu	a0,a0,v0
  404e90:	00052823 	negu	a1,a1
  404e94:	1000ff34 	b	404b68 <__divdi3+0x18>
  404e98:	2408ffff 	li	t0,-1
  404e9c:	144000a2 	bnez	v0,405128 <__divdi3+0x5d8>
  404ea0:	00000000 	nop
  404ea4:	00093a02 	srl	a3,t1,0x8
  404ea8:	1000ffbd 	b	404da0 <__divdi3+0x250>
  404eac:	24030008 	li	v1,8
  404eb0:	14c00091 	bnez	a2,4050f8 <__divdi3+0x5a8>
  404eb4:	00000000 	nop
  404eb8:	00076202 	srl	t4,a3,0x8
  404ebc:	1000ff42 	b	404bc8 <__divdi3+0x78>
  404ec0:	24030008 	li	v1,8
  404ec4:	14400091 	bnez	v0,40510c <__divdi3+0x5bc>
  404ec8:	00000000 	nop
  404ecc:	00061a02 	srl	v1,a2,0x8
  404ed0:	1000ff93 	b	404d20 <__divdi3+0x1d0>
  404ed4:	240a0008 	li	t2,8
  404ed8:	00e02825 	move	a1,a3
  404edc:	00031c00 	sll	v1,v1,0x10
  404ee0:	1000ff7e 	b	404cdc <__divdi3+0x18c>
  404ee4:	00651825 	or	v1,v1,a1
  404ee8:	01a94804 	sllv	t1,t1,t5
  404eec:	00641006 	srlv	v0,a0,v1
  404ef0:	00095c02 	srl	t3,t1,0x10
  404ef4:	15600002 	bnez	t3,404f00 <__divdi3+0x3b0>
  404ef8:	004b001b 	divu	zero,v0,t3
  404efc:	0007000d 	break	0x7
  404f00:	3127ffff 	andi	a3,t1,0xffff
  404f04:	01a43004 	sllv	a2,a0,t5
  404f08:	00651806 	srlv	v1,a1,v1
  404f0c:	00663025 	or	a2,v1,a2
  404f10:	00067402 	srl	t6,a2,0x10
  404f14:	00006012 	mflo	t4
  404f18:	00001010 	mfhi	v0
  404f1c:	00021c00 	sll	v1,v0,0x10
  404f20:	006e1025 	or	v0,v1,t6
  404f24:	00ec0018 	mult	a3,t4
  404f28:	00002012 	mflo	a0
  404f2c:	0044182b 	sltu	v1,v0,a0
  404f30:	1060000a 	beqz	v1,404f5c <__divdi3+0x40c>
  404f34:	01a55004 	sllv	t2,a1,t5
  404f38:	00491021 	addu	v0,v0,t1
  404f3c:	0049182b 	sltu	v1,v0,t1
  404f40:	14600081 	bnez	v1,405148 <__divdi3+0x5f8>
  404f44:	2585ffff 	addiu	a1,t4,-1
  404f48:	0044182b 	sltu	v1,v0,a0
  404f4c:	1060007e 	beqz	v1,405148 <__divdi3+0x5f8>
  404f50:	00000000 	nop
  404f54:	258cfffe 	addiu	t4,t4,-2
  404f58:	00491021 	addu	v0,v0,t1
  404f5c:	00441023 	subu	v0,v0,a0
  404f60:	15600002 	bnez	t3,404f6c <__divdi3+0x41c>
  404f64:	004b001b 	divu	zero,v0,t3
  404f68:	0007000d 	break	0x7
  404f6c:	30c3ffff 	andi	v1,a2,0xffff
  404f70:	00002812 	mflo	a1
  404f74:	00001010 	mfhi	v0
  404f78:	00023400 	sll	a2,v0,0x10
  404f7c:	00c33025 	or	a2,a2,v1
  404f80:	00e50018 	mult	a3,a1
  404f84:	00002012 	mflo	a0
  404f88:	00c4102b 	sltu	v0,a2,a0
  404f8c:	1040000a 	beqz	v0,404fb8 <__divdi3+0x468>
  404f90:	00000000 	nop
  404f94:	00c93021 	addu	a2,a2,t1
  404f98:	00c9102b 	sltu	v0,a2,t1
  404f9c:	14400066 	bnez	v0,405138 <__divdi3+0x5e8>
  404fa0:	24a3ffff 	addiu	v1,a1,-1
  404fa4:	00c4102b 	sltu	v0,a2,a0
  404fa8:	10400063 	beqz	v0,405138 <__divdi3+0x5e8>
  404fac:	00000000 	nop
  404fb0:	24a5fffe 	addiu	a1,a1,-2
  404fb4:	00c93021 	addu	a2,a2,t1
  404fb8:	000c6400 	sll	t4,t4,0x10
  404fbc:	00c43023 	subu	a2,a2,a0
  404fc0:	1000ff83 	b	404dd0 <__divdi3+0x280>
  404fc4:	01851025 	or	v0,t4,a1
  404fc8:	00671006 	srlv	v0,a3,v1
  404fcc:	01663004 	sllv	a2,a2,t3
  404fd0:	00463025 	or	a2,v0,a2
  404fd4:	00066402 	srl	t4,a2,0x10
  404fd8:	00641006 	srlv	v0,a0,v1
  404fdc:	15800002 	bnez	t4,404fe8 <__divdi3+0x498>
  404fe0:	004c001b 	divu	zero,v0,t4
  404fe4:	0007000d 	break	0x7
  404fe8:	30ceffff 	andi	t6,a2,0xffff
  404fec:	00651806 	srlv	v1,a1,v1
  404ff0:	01642004 	sllv	a0,a0,t3
  404ff4:	00642025 	or	a0,v1,a0
  404ff8:	00044c02 	srl	t1,a0,0x10
  404ffc:	00001012 	mflo	v0
  405000:	00005010 	mfhi	t2
  405004:	000a5400 	sll	t2,t2,0x10
  405008:	01494825 	or	t1,t2,t1
  40500c:	01c20018 	mult	t6,v0
  405010:	00006812 	mflo	t5
  405014:	012d182b 	sltu	v1,t1,t5
  405018:	1060000a 	beqz	v1,405044 <__divdi3+0x4f4>
  40501c:	01673804 	sllv	a3,a3,t3
  405020:	01264821 	addu	t1,t1,a2
  405024:	0126182b 	sltu	v1,t1,a2
  405028:	14600045 	bnez	v1,405140 <__divdi3+0x5f0>
  40502c:	244affff 	addiu	t2,v0,-1
  405030:	012d182b 	sltu	v1,t1,t5
  405034:	10600042 	beqz	v1,405140 <__divdi3+0x5f0>
  405038:	00000000 	nop
  40503c:	2442fffe 	addiu	v0,v0,-2
  405040:	01264821 	addu	t1,t1,a2
  405044:	012d4823 	subu	t1,t1,t5
  405048:	15800002 	bnez	t4,405054 <__divdi3+0x504>
  40504c:	012c001b 	divu	zero,t1,t4
  405050:	0007000d 	break	0x7
  405054:	3084ffff 	andi	a0,a0,0xffff
  405058:	00001812 	mflo	v1
  40505c:	00004810 	mfhi	t1
  405060:	00094c00 	sll	t1,t1,0x10
  405064:	01242025 	or	a0,t1,a0
  405068:	01c30018 	mult	t6,v1
  40506c:	00005012 	mflo	t2
  405070:	008a482b 	sltu	t1,a0,t2
  405074:	1120000a 	beqz	t1,4050a0 <__divdi3+0x550>
  405078:	00000000 	nop
  40507c:	00862021 	addu	a0,a0,a2
  405080:	0086482b 	sltu	t1,a0,a2
  405084:	1520002a 	bnez	t1,405130 <__divdi3+0x5e0>
  405088:	246cffff 	addiu	t4,v1,-1
  40508c:	008a482b 	sltu	t1,a0,t2
  405090:	11200027 	beqz	t1,405130 <__divdi3+0x5e0>
  405094:	00000000 	nop
  405098:	2463fffe 	addiu	v1,v1,-2
  40509c:	00862021 	addu	a0,a0,a2
  4050a0:	00021400 	sll	v0,v0,0x10
  4050a4:	00431825 	or	v1,v0,v1
  4050a8:	00670019 	multu	v1,a3
  4050ac:	008a2023 	subu	a0,a0,t2
  4050b0:	00003010 	mfhi	a2
  4050b4:	0086102b 	sltu	v0,a0,a2
  4050b8:	00003812 	mflo	a3
  4050bc:	14400009 	bnez	v0,4050e4 <__divdi3+0x594>
  4050c0:	00000000 	nop
  4050c4:	10860003 	beq	a0,a2,4050d4 <__divdi3+0x584>
  4050c8:	00000000 	nop
  4050cc:	1000ff03 	b	404cdc <__divdi3+0x18c>
  4050d0:	00001025 	move	v0,zero
  4050d4:	01652804 	sllv	a1,a1,t3
  4050d8:	00a7282b 	sltu	a1,a1,a3
  4050dc:	10a0fffb 	beqz	a1,4050cc <__divdi3+0x57c>
  4050e0:	00000000 	nop
  4050e4:	2463ffff 	addiu	v1,v1,-1
  4050e8:	1000fefc 	b	404cdc <__divdi3+0x18c>
  4050ec:	00001025 	move	v0,zero
  4050f0:	1000ff0b 	b	404d20 <__divdi3+0x1d0>
  4050f4:	240a0010 	li	t2,16
  4050f8:	1000feb3 	b	404bc8 <__divdi3+0x78>
  4050fc:	00e06025 	move	t4,a3
  405100:	24030001 	li	v1,1
  405104:	1000fef5 	b	404cdc <__divdi3+0x18c>
  405108:	00001025 	move	v0,zero
  40510c:	1000ff04 	b	404d20 <__divdi3+0x1d0>
  405110:	00005025 	move	t2,zero
  405114:	1000ff22 	b	404da0 <__divdi3+0x250>
  405118:	24030010 	li	v1,16
  40511c:	00076402 	srl	t4,a3,0x10
  405120:	1000fea9 	b	404bc8 <__divdi3+0x78>
  405124:	24030010 	li	v1,16
  405128:	1000ff1d 	b	404da0 <__divdi3+0x250>
  40512c:	01203825 	move	a3,t1
  405130:	1000ffdb 	b	4050a0 <__divdi3+0x550>
  405134:	01801825 	move	v1,t4
  405138:	1000ff9f 	b	404fb8 <__divdi3+0x468>
  40513c:	00602825 	move	a1,v1
  405140:	1000ffc0 	b	405044 <__divdi3+0x4f4>
  405144:	01401025 	move	v0,t2
  405148:	1000ff84 	b	404f5c <__divdi3+0x40c>
  40514c:	00a06025 	move	t4,a1
  405150:	1000fec1 	b	404c58 <__divdi3+0x108>
  405154:	00491021 	addu	v0,v0,t1
  405158:	1000ff32 	b	404e24 <__divdi3+0x2d4>
  40515c:	00892021 	addu	a0,a0,t1

00405160 <__moddi3>:
  405160:	3c1c0002 	lui	gp,0x2
  405164:	279ca050 	addiu	gp,gp,-24496
  405168:	0399e021 	addu	gp,gp,t9
  40516c:	048000b6 	bltz	a0,405448 <__moddi3+0x2e8>
  405170:	0005402b 	sltu	t0,zero,a1
  405174:	00004025 	move	t0,zero
  405178:	04c10006 	bgez	a2,405194 <__moddi3+0x34>
  40517c:	00c06025 	move	t4,a2
  405180:	0007102b 	sltu	v0,zero,a3
  405184:	00063023 	negu	a2,a2
  405188:	00c23023 	subu	a2,a2,v0
  40518c:	00073823 	negu	a3,a3
  405190:	00c06025 	move	t4,a2
  405194:	00e04825 	move	t1,a3
  405198:	00a01025 	move	v0,a1
  40519c:	14c00049 	bnez	a2,4052c4 <__moddi3+0x164>
  4051a0:	00805025 	move	t2,a0
  4051a4:	0087182b 	sltu	v1,a0,a3
  4051a8:	10600071 	beqz	v1,405370 <__moddi3+0x210>
  4051ac:	3c030001 	lui	v1,0x1
  4051b0:	00e3182b 	sltu	v1,a3,v1
  4051b4:	146000ae 	bnez	v1,405470 <__moddi3+0x310>
  4051b8:	2ce30100 	sltiu	v1,a3,256
  4051bc:	3c030100 	lui	v1,0x100
  4051c0:	00e3182b 	sltu	v1,a3,v1
  4051c4:	1460013b 	bnez	v1,4056b4 <__moddi3+0x554>
  4051c8:	00000000 	nop
  4051cc:	00073602 	srl	a2,a3,0x18
  4051d0:	240c0018 	li	t4,24
  4051d4:	8f838104 	lw	v1,-32508(gp)
  4051d8:	240d0020 	li	t5,32
  4051dc:	00661821 	addu	v1,v1,a2
  4051e0:	906b0000 	lbu	t3,0(v1)
  4051e4:	00000000 	nop
  4051e8:	016c5821 	addu	t3,t3,t4
  4051ec:	11ab0006 	beq	t5,t3,405208 <__moddi3+0xa8>
  4051f0:	01ab3023 	subu	a2,t5,t3
  4051f4:	00c41804 	sllv	v1,a0,a2
  4051f8:	01655006 	srlv	t2,a1,t3
  4051fc:	00c74804 	sllv	t1,a3,a2
  405200:	01435025 	or	t2,t2,v1
  405204:	00c51004 	sllv	v0,a1,a2
  405208:	00092c02 	srl	a1,t1,0x10
  40520c:	14a00002 	bnez	a1,405218 <__moddi3+0xb8>
  405210:	0145001b 	divu	zero,t2,a1
  405214:	0007000d 	break	0x7
  405218:	312bffff 	andi	t3,t1,0xffff
  40521c:	00022402 	srl	a0,v0,0x10
  405220:	00001812 	mflo	v1
  405224:	00005010 	mfhi	t2
  405228:	000a5400 	sll	t2,t2,0x10
  40522c:	00000000 	nop
  405230:	006b0018 	mult	v1,t3
  405234:	01441825 	or	v1,t2,a0
  405238:	00003812 	mflo	a3
  40523c:	0067202b 	sltu	a0,v1,a3
  405240:	10800007 	beqz	a0,405260 <__moddi3+0x100>
  405244:	00000000 	nop
  405248:	00691821 	addu	v1,v1,t1
  40524c:	0069202b 	sltu	a0,v1,t1
  405250:	14800003 	bnez	a0,405260 <__moddi3+0x100>
  405254:	0067202b 	sltu	a0,v1,a3
  405258:	14800129 	bnez	a0,405700 <__moddi3+0x5a0>
  40525c:	00000000 	nop
  405260:	00671823 	subu	v1,v1,a3
  405264:	14a00002 	bnez	a1,405270 <__moddi3+0x110>
  405268:	0065001b 	divu	zero,v1,a1
  40526c:	0007000d 	break	0x7
  405270:	3042ffff 	andi	v0,v0,0xffff
  405274:	00002012 	mflo	a0
  405278:	00001810 	mfhi	v1
  40527c:	00031c00 	sll	v1,v1,0x10
  405280:	00621025 	or	v0,v1,v0
  405284:	008b0018 	mult	a0,t3
  405288:	00002812 	mflo	a1
  40528c:	0045182b 	sltu	v1,v0,a1
  405290:	10600008 	beqz	v1,4052b4 <__moddi3+0x154>
  405294:	00000000 	nop
  405298:	00491021 	addu	v0,v0,t1
  40529c:	0049182b 	sltu	v1,v0,t1
  4052a0:	14600004 	bnez	v1,4052b4 <__moddi3+0x154>
  4052a4:	0045182b 	sltu	v1,v0,a1
  4052a8:	10600002 	beqz	v1,4052b4 <__moddi3+0x154>
  4052ac:	00000000 	nop
  4052b0:	00491021 	addu	v0,v0,t1
  4052b4:	00452823 	subu	a1,v0,a1
  4052b8:	00c52806 	srlv	a1,a1,a2
  4052bc:	10000005 	b	4052d4 <__moddi3+0x174>
  4052c0:	00001025 	move	v0,zero
  4052c4:	0086102b 	sltu	v0,a0,a2
  4052c8:	1040000a 	beqz	v0,4052f4 <__moddi3+0x194>
  4052cc:	00a04825 	move	t1,a1
  4052d0:	00801025 	move	v0,a0
  4052d4:	11000004 	beqz	t0,4052e8 <__moddi3+0x188>
  4052d8:	00022023 	negu	a0,v0
  4052dc:	0005182b 	sltu	v1,zero,a1
  4052e0:	00831023 	subu	v0,a0,v1
  4052e4:	00052823 	negu	a1,a1
  4052e8:	00a01825 	move	v1,a1
  4052ec:	03e00008 	jr	ra
  4052f0:	00000000 	nop
  4052f4:	3c020001 	lui	v0,0x1
  4052f8:	00c2102b 	sltu	v0,a2,v0
  4052fc:	14400061 	bnez	v0,405484 <__moddi3+0x324>
  405300:	2cc20100 	sltiu	v0,a2,256
  405304:	3c020100 	lui	v0,0x100
  405308:	00c2102b 	sltu	v0,a2,v0
  40530c:	144000ef 	bnez	v0,4056cc <__moddi3+0x56c>
  405310:	00065402 	srl	t2,a2,0x10
  405314:	00065602 	srl	t2,a2,0x18
  405318:	240b0018 	li	t3,24
  40531c:	8f828104 	lw	v0,-32508(gp)
  405320:	24030020 	li	v1,32
  405324:	004a1021 	addu	v0,v0,t2
  405328:	904a0000 	lbu	t2,0(v0)
  40532c:	00000000 	nop
  405330:	014b5021 	addu	t2,t2,t3
  405334:	146a0058 	bne	v1,t2,405498 <__moddi3+0x338>
  405338:	006a5823 	subu	t3,v1,t2
  40533c:	00c4102b 	sltu	v0,a2,a0
  405340:	14400004 	bnez	v0,405354 <__moddi3+0x1f4>
  405344:	00000000 	nop
  405348:	00a7102b 	sltu	v0,a1,a3
  40534c:	14400005 	bnez	v0,405364 <__moddi3+0x204>
  405350:	00000000 	nop
  405354:	00a74823 	subu	t1,a1,a3
  405358:	00862023 	subu	a0,a0,a2
  40535c:	00a9282b 	sltu	a1,a1,t1
  405360:	00852023 	subu	a0,a0,a1
  405364:	00801025 	move	v0,a0
  405368:	1000ffda 	b	4052d4 <__moddi3+0x174>
  40536c:	01202825 	move	a1,t1
  405370:	14e00008 	bnez	a3,405394 <__moddi3+0x234>
  405374:	0123182b 	sltu	v1,t1,v1
  405378:	24030001 	li	v1,1
  40537c:	14c00002 	bnez	a2,405388 <__moddi3+0x228>
  405380:	0066001b 	divu	zero,v1,a2
  405384:	0007000d 	break	0x7
  405388:	00004812 	mflo	t1
  40538c:	3c030001 	lui	v1,0x1
  405390:	0123182b 	sltu	v1,t1,v1
  405394:	14600031 	bnez	v1,40545c <__moddi3+0x2fc>
  405398:	2d230100 	sltiu	v1,t1,256
  40539c:	3c030100 	lui	v1,0x100
  4053a0:	0123182b 	sltu	v1,t1,v1
  4053a4:	146000cb 	bnez	v1,4056d4 <__moddi3+0x574>
  4053a8:	00000000 	nop
  4053ac:	00093602 	srl	a2,t1,0x18
  4053b0:	240c0018 	li	t4,24
  4053b4:	8f838104 	lw	v1,-32508(gp)
  4053b8:	240a0020 	li	t2,32
  4053bc:	00661821 	addu	v1,v1,a2
  4053c0:	90670000 	lbu	a3,0(v1)
  4053c4:	00000000 	nop
  4053c8:	00ec3821 	addu	a3,a3,t4
  4053cc:	1547007e 	bne	t2,a3,4055c8 <__moddi3+0x468>
  4053d0:	01473023 	subu	a2,t2,a3
  4053d4:	00891823 	subu	v1,a0,t1
  4053d8:	00095402 	srl	t2,t1,0x10
  4053dc:	312bffff 	andi	t3,t1,0xffff
  4053e0:	15400002 	bnez	t2,4053ec <__moddi3+0x28c>
  4053e4:	006a001b 	divu	zero,v1,t2
  4053e8:	0007000d 	break	0x7
  4053ec:	00021c02 	srl	v1,v0,0x10
  4053f0:	00002812 	mflo	a1
  4053f4:	00002010 	mfhi	a0
  4053f8:	00042400 	sll	a0,a0,0x10
  4053fc:	00831825 	or	v1,a0,v1
  405400:	00ab0018 	mult	a1,t3
  405404:	00003812 	mflo	a3
  405408:	0067202b 	sltu	a0,v1,a3
  40540c:	10800008 	beqz	a0,405430 <__moddi3+0x2d0>
  405410:	00000000 	nop
  405414:	00691821 	addu	v1,v1,t1
  405418:	0069202b 	sltu	a0,v1,t1
  40541c:	14800004 	bnez	a0,405430 <__moddi3+0x2d0>
  405420:	0067202b 	sltu	a0,v1,a3
  405424:	10800002 	beqz	a0,405430 <__moddi3+0x2d0>
  405428:	00000000 	nop
  40542c:	00691821 	addu	v1,v1,t1
  405430:	00671823 	subu	v1,v1,a3
  405434:	15400002 	bnez	t2,405440 <__moddi3+0x2e0>
  405438:	006a001b 	divu	zero,v1,t2
  40543c:	0007000d 	break	0x7
  405440:	1000ff8c 	b	405274 <__moddi3+0x114>
  405444:	3042ffff 	andi	v0,v0,0xffff
  405448:	00042023 	negu	a0,a0
  40544c:	00882023 	subu	a0,a0,t0
  405450:	00052823 	negu	a1,a1
  405454:	1000ff48 	b	405178 <__moddi3+0x18>
  405458:	2408ffff 	li	t0,-1
  40545c:	146000a2 	bnez	v1,4056e8 <__moddi3+0x588>
  405460:	00000000 	nop
  405464:	00093202 	srl	a2,t1,0x8
  405468:	1000ffd2 	b	4053b4 <__moddi3+0x254>
  40546c:	240c0008 	li	t4,8
  405470:	1460009b 	bnez	v1,4056e0 <__moddi3+0x580>
  405474:	00000000 	nop
  405478:	00073202 	srl	a2,a3,0x8
  40547c:	1000ff55 	b	4051d4 <__moddi3+0x74>
  405480:	240c0008 	li	t4,8
  405484:	1440008e 	bnez	v0,4056c0 <__moddi3+0x560>
  405488:	00000000 	nop
  40548c:	00065202 	srl	t2,a2,0x8
  405490:	1000ffa2 	b	40531c <__moddi3+0x1bc>
  405494:	240b0008 	li	t3,8
  405498:	01471806 	srlv	v1,a3,t2
  40549c:	01663004 	sllv	a2,a2,t3
  4054a0:	00666825 	or	t5,v1,a2
  4054a4:	000d3402 	srl	a2,t5,0x10
  4054a8:	01441806 	srlv	v1,a0,t2
  4054ac:	14c00002 	bnez	a2,4054b8 <__moddi3+0x358>
  4054b0:	0066001b 	divu	zero,v1,a2
  4054b4:	0007000d 	break	0x7
  4054b8:	31afffff 	andi	t7,t5,0xffff
  4054bc:	01641804 	sllv	v1,a0,t3
  4054c0:	01452006 	srlv	a0,a1,t2
  4054c4:	00831825 	or	v1,a0,v1
  4054c8:	00034c02 	srl	t1,v1,0x10
  4054cc:	0167c004 	sllv	t8,a3,t3
  4054d0:	00007012 	mflo	t6
  4054d4:	00006010 	mfhi	t4
  4054d8:	000c6400 	sll	t4,t4,0x10
  4054dc:	01893825 	or	a3,t4,t1
  4054e0:	01ee0018 	mult	t7,t6
  4054e4:	00001012 	mflo	v0
  4054e8:	00e2202b 	sltu	a0,a3,v0
  4054ec:	1080000a 	beqz	a0,405518 <__moddi3+0x3b8>
  4054f0:	01652804 	sllv	a1,a1,t3
  4054f4:	00ed3821 	addu	a3,a3,t5
  4054f8:	00ed202b 	sltu	a0,a3,t5
  4054fc:	1480007e 	bnez	a0,4056f8 <__moddi3+0x598>
  405500:	25c9ffff 	addiu	t1,t6,-1
  405504:	00e2202b 	sltu	a0,a3,v0
  405508:	1080007b 	beqz	a0,4056f8 <__moddi3+0x598>
  40550c:	00000000 	nop
  405510:	25cefffe 	addiu	t6,t6,-2
  405514:	00ed3821 	addu	a3,a3,t5
  405518:	00e23823 	subu	a3,a3,v0
  40551c:	14c00002 	bnez	a2,405528 <__moddi3+0x3c8>
  405520:	00e6001b 	divu	zero,a3,a2
  405524:	0007000d 	break	0x7
  405528:	3063ffff 	andi	v1,v1,0xffff
  40552c:	00002012 	mflo	a0
  405530:	00003810 	mfhi	a3
  405534:	00073c00 	sll	a3,a3,0x10
  405538:	00e33025 	or	a2,a3,v1
  40553c:	01e40018 	mult	t7,a0
  405540:	00001012 	mflo	v0
  405544:	00c2182b 	sltu	v1,a2,v0
  405548:	1060000a 	beqz	v1,405574 <__moddi3+0x414>
  40554c:	00000000 	nop
  405550:	00cd3021 	addu	a2,a2,t5
  405554:	00cd182b 	sltu	v1,a2,t5
  405558:	14600065 	bnez	v1,4056f0 <__moddi3+0x590>
  40555c:	2487ffff 	addiu	a3,a0,-1
  405560:	00c2182b 	sltu	v1,a2,v0
  405564:	10600062 	beqz	v1,4056f0 <__moddi3+0x590>
  405568:	00000000 	nop
  40556c:	2484fffe 	addiu	a0,a0,-2
  405570:	00cd3021 	addu	a2,a2,t5
  405574:	000e4c00 	sll	t1,t6,0x10
  405578:	01244825 	or	t1,t1,a0
  40557c:	01380019 	multu	t1,t8
  405580:	00c23023 	subu	a2,a2,v0
  405584:	00007010 	mfhi	t6
  405588:	00ce182b 	sltu	v1,a2,t6
  40558c:	00007812 	mflo	t7
  405590:	00002012 	mflo	a0
  405594:	14600042 	bnez	v1,4056a0 <__moddi3+0x540>
  405598:	01c01025 	move	v0,t6
  40559c:	10ce003e 	beq	a2,t6,405698 <__moddi3+0x538>
  4055a0:	00af182b 	sltu	v1,a1,t7
  4055a4:	00a42023 	subu	a0,a1,a0
  4055a8:	00c23023 	subu	a2,a2,v0
  4055ac:	00a4102b 	sltu	v0,a1,a0
  4055b0:	00c21023 	subu	v0,a2,v0
  4055b4:	01425004 	sllv	t2,v0,t2
  4055b8:	01642806 	srlv	a1,a0,t3
  4055bc:	01621006 	srlv	v0,v0,t3
  4055c0:	1000ff44 	b	4052d4 <__moddi3+0x174>
  4055c4:	01452825 	or	a1,t2,a1
  4055c8:	00c94804 	sllv	t1,t1,a2
  4055cc:	00e41006 	srlv	v0,a0,a3
  4055d0:	00095402 	srl	t2,t1,0x10
  4055d4:	15400002 	bnez	t2,4055e0 <__moddi3+0x480>
  4055d8:	004a001b 	divu	zero,v0,t2
  4055dc:	0007000d 	break	0x7
  4055e0:	00c41804 	sllv	v1,a0,a2
  4055e4:	00e53806 	srlv	a3,a1,a3
  4055e8:	00e33825 	or	a3,a3,v1
  4055ec:	312bffff 	andi	t3,t1,0xffff
  4055f0:	00072402 	srl	a0,a3,0x10
  4055f4:	00c51004 	sllv	v0,a1,a2
  4055f8:	00001812 	mflo	v1
  4055fc:	00006010 	mfhi	t4
  405600:	000c2c00 	sll	a1,t4,0x10
  405604:	00a42025 	or	a0,a1,a0
  405608:	006b0018 	mult	v1,t3
  40560c:	00001812 	mflo	v1
  405610:	0083282b 	sltu	a1,a0,v1
  405614:	10a00008 	beqz	a1,405638 <__moddi3+0x4d8>
  405618:	00000000 	nop
  40561c:	00892021 	addu	a0,a0,t1
  405620:	0089282b 	sltu	a1,a0,t1
  405624:	14a00004 	bnez	a1,405638 <__moddi3+0x4d8>
  405628:	0083282b 	sltu	a1,a0,v1
  40562c:	10a00002 	beqz	a1,405638 <__moddi3+0x4d8>
  405630:	00000000 	nop
  405634:	00892021 	addu	a0,a0,t1
  405638:	00832023 	subu	a0,a0,v1
  40563c:	15400002 	bnez	t2,405648 <__moddi3+0x4e8>
  405640:	008a001b 	divu	zero,a0,t2
  405644:	0007000d 	break	0x7
  405648:	30e7ffff 	andi	a3,a3,0xffff
  40564c:	00001812 	mflo	v1
  405650:	00002010 	mfhi	a0
  405654:	00042400 	sll	a0,a0,0x10
  405658:	00000000 	nop
  40565c:	006b0018 	mult	v1,t3
  405660:	00871825 	or	v1,a0,a3
  405664:	00002812 	mflo	a1
  405668:	0065202b 	sltu	a0,v1,a1
  40566c:	10800008 	beqz	a0,405690 <__moddi3+0x530>
  405670:	00000000 	nop
  405674:	00691821 	addu	v1,v1,t1
  405678:	0069202b 	sltu	a0,v1,t1
  40567c:	14800004 	bnez	a0,405690 <__moddi3+0x530>
  405680:	0065202b 	sltu	a0,v1,a1
  405684:	10800002 	beqz	a0,405690 <__moddi3+0x530>
  405688:	00000000 	nop
  40568c:	00691821 	addu	v1,v1,t1
  405690:	1000ff53 	b	4053e0 <__moddi3+0x280>
  405694:	00651823 	subu	v1,v1,a1
  405698:	1060ffc2 	beqz	v1,4055a4 <__moddi3+0x444>
  40569c:	00000000 	nop
  4056a0:	01f82023 	subu	a0,t7,t8
  4056a4:	01cd1823 	subu	v1,t6,t5
  4056a8:	01e4102b 	sltu	v0,t7,a0
  4056ac:	1000ffbd 	b	4055a4 <__moddi3+0x444>
  4056b0:	00621023 	subu	v0,v1,v0
  4056b4:	00073402 	srl	a2,a3,0x10
  4056b8:	1000fec6 	b	4051d4 <__moddi3+0x74>
  4056bc:	240c0010 	li	t4,16
  4056c0:	00c05025 	move	t2,a2
  4056c4:	1000ff15 	b	40531c <__moddi3+0x1bc>
  4056c8:	00005825 	move	t3,zero
  4056cc:	1000ff13 	b	40531c <__moddi3+0x1bc>
  4056d0:	240b0010 	li	t3,16
  4056d4:	00093402 	srl	a2,t1,0x10
  4056d8:	1000ff36 	b	4053b4 <__moddi3+0x254>
  4056dc:	240c0010 	li	t4,16
  4056e0:	1000febc 	b	4051d4 <__moddi3+0x74>
  4056e4:	00e03025 	move	a2,a3
  4056e8:	1000ff32 	b	4053b4 <__moddi3+0x254>
  4056ec:	01203025 	move	a2,t1
  4056f0:	1000ffa0 	b	405574 <__moddi3+0x414>
  4056f4:	00e02025 	move	a0,a3
  4056f8:	1000ff87 	b	405518 <__moddi3+0x3b8>
  4056fc:	01207025 	move	t6,t1
  405700:	1000fed7 	b	405260 <__moddi3+0x100>
  405704:	00691821 	addu	v1,v1,t1
	...

00405710 <__udivdi3>:
  405710:	3c1c0002 	lui	gp,0x2
  405714:	279c9aa0 	addiu	gp,gp,-25952
  405718:	0399e021 	addu	gp,gp,t9
  40571c:	00c01825 	move	v1,a2
  405720:	00a04025 	move	t0,a1
  405724:	14c0004d 	bnez	a2,40585c <__udivdi3+0x14c>
  405728:	00801025 	move	v0,a0
  40572c:	0087302b 	sltu	a2,a0,a3
  405730:	10c0006a 	beqz	a2,4058dc <__udivdi3+0x1cc>
  405734:	3c060001 	lui	a2,0x1
  405738:	00e6302b 	sltu	a2,a3,a2
  40573c:	14c000b8 	bnez	a2,405a20 <__udivdi3+0x310>
  405740:	00000000 	nop
  405744:	3c030100 	lui	v1,0x100
  405748:	00e3182b 	sltu	v1,a3,v1
  40574c:	14600154 	bnez	v1,405ca0 <__udivdi3+0x590>
  405750:	00075402 	srl	t2,a3,0x10
  405754:	00075602 	srl	t2,a3,0x18
  405758:	24030018 	li	v1,24
  40575c:	8f868104 	lw	a2,-32508(gp)
  405760:	24090020 	li	t1,32
  405764:	00ca3021 	addu	a2,a2,t2
  405768:	90c60000 	lbu	a2,0(a2)
  40576c:	00000000 	nop
  405770:	00c31821 	addu	v1,a2,v1
  405774:	11230006 	beq	t1,v1,405790 <__udivdi3+0x80>
  405778:	01233023 	subu	a2,t1,v1
  40577c:	00c41004 	sllv	v0,a0,a2
  405780:	00651806 	srlv	v1,a1,v1
  405784:	00c73804 	sllv	a3,a3,a2
  405788:	00621025 	or	v0,v1,v0
  40578c:	00c54004 	sllv	t0,a1,a2
  405790:	00071c02 	srl	v1,a3,0x10
  405794:	14600002 	bnez	v1,4057a0 <__udivdi3+0x90>
  405798:	0043001b 	divu	zero,v0,v1
  40579c:	0007000d 	break	0x7
  4057a0:	30eaffff 	andi	t2,a3,0xffff
  4057a4:	00081402 	srl	v0,t0,0x10
  4057a8:	00002812 	mflo	a1
  4057ac:	00002010 	mfhi	a0
  4057b0:	00042400 	sll	a0,a0,0x10
  4057b4:	00821025 	or	v0,a0,v0
  4057b8:	01450018 	mult	t2,a1
  4057bc:	00004812 	mflo	t1
  4057c0:	0049202b 	sltu	a0,v0,t1
  4057c4:	10800009 	beqz	a0,4057ec <__udivdi3+0xdc>
  4057c8:	00000000 	nop
  4057cc:	00471021 	addu	v0,v0,a3
  4057d0:	0047202b 	sltu	a0,v0,a3
  4057d4:	14800004 	bnez	a0,4057e8 <__udivdi3+0xd8>
  4057d8:	24a6ffff 	addiu	a2,a1,-1
  4057dc:	0049202b 	sltu	a0,v0,t1
  4057e0:	1480013b 	bnez	a0,405cd0 <__udivdi3+0x5c0>
  4057e4:	24a5fffe 	addiu	a1,a1,-2
  4057e8:	00c02825 	move	a1,a2
  4057ec:	00491023 	subu	v0,v0,t1
  4057f0:	14600002 	bnez	v1,4057fc <__udivdi3+0xec>
  4057f4:	0043001b 	divu	zero,v0,v1
  4057f8:	0007000d 	break	0x7
  4057fc:	3108ffff 	andi	t0,t0,0xffff
  405800:	00002012 	mflo	a0
  405804:	00001010 	mfhi	v0
  405808:	00021400 	sll	v0,v0,0x10
  40580c:	00481025 	or	v0,v0,t0
  405810:	01440018 	mult	t2,a0
  405814:	00003012 	mflo	a2
  405818:	0046182b 	sltu	v1,v0,a2
  40581c:	10600009 	beqz	v1,405844 <__udivdi3+0x134>
  405820:	00000000 	nop
  405824:	00e21021 	addu	v0,a3,v0
  405828:	0047382b 	sltu	a3,v0,a3
  40582c:	14e00004 	bnez	a3,405840 <__udivdi3+0x130>
  405830:	2483ffff 	addiu	v1,a0,-1
  405834:	0046102b 	sltu	v0,v0,a2
  405838:	14400002 	bnez	v0,405844 <__udivdi3+0x134>
  40583c:	2484fffe 	addiu	a0,a0,-2
  405840:	00602025 	move	a0,v1
  405844:	00052c00 	sll	a1,a1,0x10
  405848:	00a43825 	or	a3,a1,a0
  40584c:	00001025 	move	v0,zero
  405850:	00e01825 	move	v1,a3
  405854:	03e00008 	jr	ra
  405858:	00000000 	nop
  40585c:	0086102b 	sltu	v0,a0,a2
  405860:	10400005 	beqz	v0,405878 <__udivdi3+0x168>
  405864:	00001025 	move	v0,zero
  405868:	00003825 	move	a3,zero
  40586c:	00e01825 	move	v1,a3
  405870:	03e00008 	jr	ra
  405874:	00000000 	nop
  405878:	3c020001 	lui	v0,0x1
  40587c:	00c2102b 	sltu	v0,a2,v0
  405880:	1440006d 	bnez	v0,405a38 <__udivdi3+0x328>
  405884:	2cc20100 	sltiu	v0,a2,256
  405888:	3c020100 	lui	v0,0x100
  40588c:	00c2102b 	sltu	v0,a2,v0
  405890:	144000f8 	bnez	v0,405c74 <__udivdi3+0x564>
  405894:	00061c02 	srl	v1,a2,0x10
  405898:	00061e02 	srl	v1,a2,0x18
  40589c:	24090018 	li	t1,24
  4058a0:	8f828104 	lw	v0,-32508(gp)
  4058a4:	24080020 	li	t0,32
  4058a8:	00431021 	addu	v0,v0,v1
  4058ac:	90430000 	lbu	v1,0(v0)
  4058b0:	00000000 	nop
  4058b4:	00691821 	addu	v1,v1,t1
  4058b8:	150300a1 	bne	t0,v1,405b40 <__udivdi3+0x430>
  4058bc:	01035823 	subu	t3,t0,v1
  4058c0:	00c4102b 	sltu	v0,a2,a0
  4058c4:	144000ef 	bnez	v0,405c84 <__udivdi3+0x574>
  4058c8:	00000000 	nop
  4058cc:	00a7382b 	sltu	a3,a1,a3
  4058d0:	38e70001 	xori	a3,a3,0x1
  4058d4:	1000ffe5 	b	40586c <__udivdi3+0x15c>
  4058d8:	00001025 	move	v0,zero
  4058dc:	14e00007 	bnez	a3,4058fc <__udivdi3+0x1ec>
  4058e0:	3c020001 	lui	v0,0x1
  4058e4:	24020001 	li	v0,1
  4058e8:	14e00002 	bnez	a3,4058f4 <__udivdi3+0x1e4>
  4058ec:	0047001b 	divu	zero,v0,a3
  4058f0:	0007000d 	break	0x7
  4058f4:	00003812 	mflo	a3
  4058f8:	3c020001 	lui	v0,0x1
  4058fc:	00e2102b 	sltu	v0,a3,v0
  405900:	14400042 	bnez	v0,405a0c <__udivdi3+0x2fc>
  405904:	2ce20100 	sltiu	v0,a3,256
  405908:	3c020100 	lui	v0,0x100
  40590c:	00e2102b 	sltu	v0,a3,v0
  405910:	144000e1 	bnez	v0,405c98 <__udivdi3+0x588>
  405914:	00073402 	srl	a2,a3,0x10
  405918:	00073602 	srl	a2,a3,0x18
  40591c:	24030018 	li	v1,24
  405920:	8f828104 	lw	v0,-32508(gp)
  405924:	24090020 	li	t1,32
  405928:	00461021 	addu	v0,v0,a2
  40592c:	90460000 	lbu	a2,0(v0)
  405930:	00000000 	nop
  405934:	00c33021 	addu	a2,a2,v1
  405938:	15260048 	bne	t1,a2,405a5c <__udivdi3+0x34c>
  40593c:	01266023 	subu	t4,t1,a2
  405940:	00871823 	subu	v1,a0,a3
  405944:	00075402 	srl	t2,a3,0x10
  405948:	30e9ffff 	andi	t1,a3,0xffff
  40594c:	24020001 	li	v0,1
  405950:	15400002 	bnez	t2,40595c <__udivdi3+0x24c>
  405954:	006a001b 	divu	zero,v1,t2
  405958:	0007000d 	break	0x7
  40595c:	00081c02 	srl	v1,t0,0x10
  405960:	00002812 	mflo	a1
  405964:	00002010 	mfhi	a0
  405968:	00042400 	sll	a0,a0,0x10
  40596c:	00831825 	or	v1,a0,v1
  405970:	00a90018 	mult	a1,t1
  405974:	00005812 	mflo	t3
  405978:	006b202b 	sltu	a0,v1,t3
  40597c:	10800009 	beqz	a0,4059a4 <__udivdi3+0x294>
  405980:	00000000 	nop
  405984:	00671821 	addu	v1,v1,a3
  405988:	0067202b 	sltu	a0,v1,a3
  40598c:	14800004 	bnez	a0,4059a0 <__udivdi3+0x290>
  405990:	24a6ffff 	addiu	a2,a1,-1
  405994:	006b202b 	sltu	a0,v1,t3
  405998:	148000cf 	bnez	a0,405cd8 <__udivdi3+0x5c8>
  40599c:	24a5fffe 	addiu	a1,a1,-2
  4059a0:	00c02825 	move	a1,a2
  4059a4:	006b1823 	subu	v1,v1,t3
  4059a8:	15400002 	bnez	t2,4059b4 <__udivdi3+0x2a4>
  4059ac:	006a001b 	divu	zero,v1,t2
  4059b0:	0007000d 	break	0x7
  4059b4:	3108ffff 	andi	t0,t0,0xffff
  4059b8:	00002012 	mflo	a0
  4059bc:	00001810 	mfhi	v1
  4059c0:	00031c00 	sll	v1,v1,0x10
  4059c4:	00681825 	or	v1,v1,t0
  4059c8:	00890018 	mult	a0,t1
  4059cc:	00003012 	mflo	a2
  4059d0:	0066402b 	sltu	t0,v1,a2
  4059d4:	11000008 	beqz	t0,4059f8 <__udivdi3+0x2e8>
  4059d8:	00000000 	nop
  4059dc:	00e31821 	addu	v1,a3,v1
  4059e0:	0067382b 	sltu	a3,v1,a3
  4059e4:	14e00019 	bnez	a3,405a4c <__udivdi3+0x33c>
  4059e8:	2488ffff 	addiu	t0,a0,-1
  4059ec:	0066182b 	sltu	v1,v1,a2
  4059f0:	10600016 	beqz	v1,405a4c <__udivdi3+0x33c>
  4059f4:	2484fffe 	addiu	a0,a0,-2
  4059f8:	00052c00 	sll	a1,a1,0x10
  4059fc:	00a43825 	or	a3,a1,a0
  405a00:	00e01825 	move	v1,a3
  405a04:	03e00008 	jr	ra
  405a08:	00000000 	nop
  405a0c:	144000a6 	bnez	v0,405ca8 <__udivdi3+0x598>
  405a10:	00000000 	nop
  405a14:	00073202 	srl	a2,a3,0x8
  405a18:	1000ffc1 	b	405920 <__udivdi3+0x210>
  405a1c:	24030008 	li	v1,8
  405a20:	2ce60100 	sltiu	a2,a3,256
  405a24:	14c00095 	bnez	a2,405c7c <__udivdi3+0x56c>
  405a28:	00000000 	nop
  405a2c:	00075202 	srl	t2,a3,0x8
  405a30:	1000ff4a 	b	40575c <__udivdi3+0x4c>
  405a34:	24030008 	li	v1,8
  405a38:	14400095 	bnez	v0,405c90 <__udivdi3+0x580>
  405a3c:	00000000 	nop
  405a40:	00061a02 	srl	v1,a2,0x8
  405a44:	1000ff96 	b	4058a0 <__udivdi3+0x190>
  405a48:	24090008 	li	t1,8
  405a4c:	01002025 	move	a0,t0
  405a50:	00052c00 	sll	a1,a1,0x10
  405a54:	1000ffea 	b	405a00 <__udivdi3+0x2f0>
  405a58:	00a43825 	or	a3,a1,a0
  405a5c:	01873804 	sllv	a3,a3,t4
  405a60:	00c41006 	srlv	v0,a0,a2
  405a64:	00075402 	srl	t2,a3,0x10
  405a68:	15400002 	bnez	t2,405a74 <__udivdi3+0x364>
  405a6c:	004a001b 	divu	zero,v0,t2
  405a70:	0007000d 	break	0x7
  405a74:	30e9ffff 	andi	t1,a3,0xffff
  405a78:	00c53006 	srlv	a2,a1,a2
  405a7c:	01842004 	sllv	a0,a0,t4
  405a80:	00c42025 	or	a0,a2,a0
  405a84:	00043402 	srl	a2,a0,0x10
  405a88:	01854004 	sllv	t0,a1,t4
  405a8c:	00005812 	mflo	t3
  405a90:	00001010 	mfhi	v0
  405a94:	00022c00 	sll	a1,v0,0x10
  405a98:	00a61025 	or	v0,a1,a2
  405a9c:	012b0018 	mult	t1,t3
  405aa0:	00001812 	mflo	v1
  405aa4:	0043282b 	sltu	a1,v0,v1
  405aa8:	10a0000a 	beqz	a1,405ad4 <__udivdi3+0x3c4>
  405aac:	00000000 	nop
  405ab0:	00471021 	addu	v0,v0,a3
  405ab4:	0047282b 	sltu	a1,v0,a3
  405ab8:	14a00083 	bnez	a1,405cc8 <__udivdi3+0x5b8>
  405abc:	2566ffff 	addiu	a2,t3,-1
  405ac0:	0043282b 	sltu	a1,v0,v1
  405ac4:	10a00080 	beqz	a1,405cc8 <__udivdi3+0x5b8>
  405ac8:	00000000 	nop
  405acc:	256bfffe 	addiu	t3,t3,-2
  405ad0:	00471021 	addu	v0,v0,a3
  405ad4:	00431023 	subu	v0,v0,v1
  405ad8:	15400002 	bnez	t2,405ae4 <__udivdi3+0x3d4>
  405adc:	004a001b 	divu	zero,v0,t2
  405ae0:	0007000d 	break	0x7
  405ae4:	3086ffff 	andi	a2,a0,0xffff
  405ae8:	00002812 	mflo	a1
  405aec:	00001010 	mfhi	v0
  405af0:	00022400 	sll	a0,v0,0x10
  405af4:	00862025 	or	a0,a0,a2
  405af8:	01250018 	mult	t1,a1
  405afc:	00001812 	mflo	v1
  405b00:	0083102b 	sltu	v0,a0,v1
  405b04:	1040000a 	beqz	v0,405b30 <__udivdi3+0x420>
  405b08:	00000000 	nop
  405b0c:	00872021 	addu	a0,a0,a3
  405b10:	0087102b 	sltu	v0,a0,a3
  405b14:	14400068 	bnez	v0,405cb8 <__udivdi3+0x5a8>
  405b18:	24a6ffff 	addiu	a2,a1,-1
  405b1c:	0083102b 	sltu	v0,a0,v1
  405b20:	10400065 	beqz	v0,405cb8 <__udivdi3+0x5a8>
  405b24:	00000000 	nop
  405b28:	24a5fffe 	addiu	a1,a1,-2
  405b2c:	00872021 	addu	a0,a0,a3
  405b30:	000b5c00 	sll	t3,t3,0x10
  405b34:	00831823 	subu	v1,a0,v1
  405b38:	1000ff85 	b	405950 <__udivdi3+0x240>
  405b3c:	01651025 	or	v0,t3,a1
  405b40:	00675006 	srlv	t2,a3,v1
  405b44:	01663004 	sllv	a2,a2,t3
  405b48:	01465025 	or	t2,t2,a2
  405b4c:	00641006 	srlv	v0,a0,v1
  405b50:	000a6402 	srl	t4,t2,0x10
  405b54:	15800002 	bnez	t4,405b60 <__udivdi3+0x450>
  405b58:	004c001b 	divu	zero,v0,t4
  405b5c:	0007000d 	break	0x7
  405b60:	314dffff 	andi	t5,t2,0xffff
  405b64:	01641004 	sllv	v0,a0,t3
  405b68:	00651806 	srlv	v1,a1,v1
  405b6c:	00621025 	or	v0,v1,v0
  405b70:	00024402 	srl	t0,v0,0x10
  405b74:	01672004 	sllv	a0,a3,t3
  405b78:	00003012 	mflo	a2
  405b7c:	00004810 	mfhi	t1
  405b80:	00094c00 	sll	t1,t1,0x10
  405b84:	01284025 	or	t0,t1,t0
  405b88:	01a60018 	mult	t5,a2
  405b8c:	00001812 	mflo	v1
  405b90:	0103382b 	sltu	a3,t0,v1
  405b94:	10e0000a 	beqz	a3,405bc0 <__udivdi3+0x4b0>
  405b98:	00000000 	nop
  405b9c:	010a4021 	addu	t0,t0,t2
  405ba0:	010a382b 	sltu	a3,t0,t2
  405ba4:	14e00046 	bnez	a3,405cc0 <__udivdi3+0x5b0>
  405ba8:	24c9ffff 	addiu	t1,a2,-1
  405bac:	0103382b 	sltu	a3,t0,v1
  405bb0:	10e00043 	beqz	a3,405cc0 <__udivdi3+0x5b0>
  405bb4:	00000000 	nop
  405bb8:	24c6fffe 	addiu	a2,a2,-2
  405bbc:	010a4021 	addu	t0,t0,t2
  405bc0:	01034023 	subu	t0,t0,v1
  405bc4:	15800002 	bnez	t4,405bd0 <__udivdi3+0x4c0>
  405bc8:	010c001b 	divu	zero,t0,t4
  405bcc:	0007000d 	break	0x7
  405bd0:	3042ffff 	andi	v0,v0,0xffff
  405bd4:	00003812 	mflo	a3
  405bd8:	00004010 	mfhi	t0
  405bdc:	00084400 	sll	t0,t0,0x10
  405be0:	01021025 	or	v0,t0,v0
  405be4:	01a70018 	mult	t5,a3
  405be8:	00001812 	mflo	v1
  405bec:	0043402b 	sltu	t0,v0,v1
  405bf0:	1100000a 	beqz	t0,405c1c <__udivdi3+0x50c>
  405bf4:	00000000 	nop
  405bf8:	004a1021 	addu	v0,v0,t2
  405bfc:	004a402b 	sltu	t0,v0,t2
  405c00:	1500002b 	bnez	t0,405cb0 <__udivdi3+0x5a0>
  405c04:	24e9ffff 	addiu	t1,a3,-1
  405c08:	0043402b 	sltu	t0,v0,v1
  405c0c:	11000028 	beqz	t0,405cb0 <__udivdi3+0x5a0>
  405c10:	00000000 	nop
  405c14:	24e7fffe 	addiu	a3,a3,-2
  405c18:	004a1021 	addu	v0,v0,t2
  405c1c:	00063400 	sll	a2,a2,0x10
  405c20:	00c73825 	or	a3,a2,a3
  405c24:	00e40019 	multu	a3,a0
  405c28:	00431023 	subu	v0,v0,v1
  405c2c:	00004010 	mfhi	t0
  405c30:	0048182b 	sltu	v1,v0,t0
  405c34:	00004812 	mflo	t1
  405c38:	1460000b 	bnez	v1,405c68 <__udivdi3+0x558>
  405c3c:	00000000 	nop
  405c40:	10480005 	beq	v0,t0,405c58 <__udivdi3+0x548>
  405c44:	00000000 	nop
  405c48:	00001025 	move	v0,zero
  405c4c:	00e01825 	move	v1,a3
  405c50:	03e00008 	jr	ra
  405c54:	00000000 	nop
  405c58:	01652804 	sllv	a1,a1,t3
  405c5c:	00a9282b 	sltu	a1,a1,t1
  405c60:	10a0fff9 	beqz	a1,405c48 <__udivdi3+0x538>
  405c64:	00000000 	nop
  405c68:	24e7ffff 	addiu	a3,a3,-1
  405c6c:	1000feff 	b	40586c <__udivdi3+0x15c>
  405c70:	00001025 	move	v0,zero
  405c74:	1000ff0a 	b	4058a0 <__udivdi3+0x190>
  405c78:	24090010 	li	t1,16
  405c7c:	1000feb7 	b	40575c <__udivdi3+0x4c>
  405c80:	00e05025 	move	t2,a3
  405c84:	24070001 	li	a3,1
  405c88:	1000fff0 	b	405c4c <__udivdi3+0x53c>
  405c8c:	00001025 	move	v0,zero
  405c90:	1000ff03 	b	4058a0 <__udivdi3+0x190>
  405c94:	00004825 	move	t1,zero
  405c98:	1000ff21 	b	405920 <__udivdi3+0x210>
  405c9c:	24030010 	li	v1,16
  405ca0:	1000feae 	b	40575c <__udivdi3+0x4c>
  405ca4:	24030010 	li	v1,16
  405ca8:	1000ff1d 	b	405920 <__udivdi3+0x210>
  405cac:	00e03025 	move	a2,a3
  405cb0:	1000ffda 	b	405c1c <__udivdi3+0x50c>
  405cb4:	01203825 	move	a3,t1
  405cb8:	1000ff9d 	b	405b30 <__udivdi3+0x420>
  405cbc:	00c02825 	move	a1,a2
  405cc0:	1000ffbf 	b	405bc0 <__udivdi3+0x4b0>
  405cc4:	01203025 	move	a2,t1
  405cc8:	1000ff82 	b	405ad4 <__udivdi3+0x3c4>
  405ccc:	00c05825 	move	t3,a2
  405cd0:	1000fec6 	b	4057ec <__udivdi3+0xdc>
  405cd4:	00471021 	addu	v0,v0,a3
  405cd8:	1000ff32 	b	4059a4 <__udivdi3+0x294>
  405cdc:	00671821 	addu	v1,v1,a3

00405ce0 <__umoddi3>:
  405ce0:	3c1c0002 	lui	gp,0x2
  405ce4:	279c94d0 	addiu	gp,gp,-27440
  405ce8:	0399e021 	addu	gp,gp,t9
  405cec:	00c05025 	move	t2,a2
  405cf0:	00a04025 	move	t0,a1
  405cf4:	00801025 	move	v0,a0
  405cf8:	14c0004c 	bnez	a2,405e2c <__umoddi3+0x14c>
  405cfc:	00804825 	move	t1,a0
  405d00:	0087102b 	sltu	v0,a0,a3
  405d04:	1040006c 	beqz	v0,405eb8 <__umoddi3+0x1d8>
  405d08:	3c020001 	lui	v0,0x1
  405d0c:	00e2102b 	sltu	v0,a3,v0
  405d10:	144000af 	bnez	v0,405fd0 <__umoddi3+0x2f0>
  405d14:	2ce20100 	sltiu	v0,a3,256
  405d18:	3c020100 	lui	v0,0x100
  405d1c:	00e2102b 	sltu	v0,a3,v0
  405d20:	1440013f 	bnez	v0,406220 <__umoddi3+0x540>
  405d24:	00000000 	nop
  405d28:	00073602 	srl	a2,a3,0x18
  405d2c:	240a0018 	li	t2,24
  405d30:	8f828104 	lw	v0,-32508(gp)
  405d34:	24030020 	li	v1,32
  405d38:	00461021 	addu	v0,v0,a2
  405d3c:	90420000 	lbu	v0,0(v0)
  405d40:	00000000 	nop
  405d44:	004a5021 	addu	t2,v0,t2
  405d48:	106a0006 	beq	v1,t2,405d64 <__umoddi3+0x84>
  405d4c:	006a3023 	subu	a2,v1,t2
  405d50:	00c41804 	sllv	v1,a0,a2
  405d54:	01455006 	srlv	t2,a1,t2
  405d58:	00c73804 	sllv	a3,a3,a2
  405d5c:	01434825 	or	t1,t2,v1
  405d60:	00c54004 	sllv	t0,a1,a2
  405d64:	00071402 	srl	v0,a3,0x10
  405d68:	14400002 	bnez	v0,405d74 <__umoddi3+0x94>
  405d6c:	0122001b 	divu	zero,t1,v0
  405d70:	0007000d 	break	0x7
  405d74:	30eaffff 	andi	t2,a3,0xffff
  405d78:	00082402 	srl	a0,t0,0x10
  405d7c:	00001812 	mflo	v1
  405d80:	00004810 	mfhi	t1
  405d84:	00094c00 	sll	t1,t1,0x10
  405d88:	00000000 	nop
  405d8c:	006a0018 	mult	v1,t2
  405d90:	01241825 	or	v1,t1,a0
  405d94:	00002812 	mflo	a1
  405d98:	0065202b 	sltu	a0,v1,a1
  405d9c:	10800007 	beqz	a0,405dbc <__umoddi3+0xdc>
  405da0:	00000000 	nop
  405da4:	00671821 	addu	v1,v1,a3
  405da8:	0067202b 	sltu	a0,v1,a3
  405dac:	14800003 	bnez	a0,405dbc <__umoddi3+0xdc>
  405db0:	0065202b 	sltu	a0,v1,a1
  405db4:	1480012d 	bnez	a0,40626c <__umoddi3+0x58c>
  405db8:	00000000 	nop
  405dbc:	00651823 	subu	v1,v1,a1
  405dc0:	14400002 	bnez	v0,405dcc <__umoddi3+0xec>
  405dc4:	0062001b 	divu	zero,v1,v0
  405dc8:	0007000d 	break	0x7
  405dcc:	3102ffff 	andi	v0,t0,0xffff
  405dd0:	00002012 	mflo	a0
  405dd4:	00001810 	mfhi	v1
  405dd8:	00031c00 	sll	v1,v1,0x10
  405ddc:	00621025 	or	v0,v1,v0
  405de0:	008a0018 	mult	a0,t2
  405de4:	00002812 	mflo	a1
  405de8:	0045182b 	sltu	v1,v0,a1
  405dec:	10600009 	beqz	v1,405e14 <__umoddi3+0x134>
  405df0:	00000000 	nop
  405df4:	00471021 	addu	v0,v0,a3
  405df8:	0047182b 	sltu	v1,v0,a3
  405dfc:	14600005 	bnez	v1,405e14 <__umoddi3+0x134>
  405e00:	00000000 	nop
  405e04:	0045182b 	sltu	v1,v0,a1
  405e08:	10600002 	beqz	v1,405e14 <__umoddi3+0x134>
  405e0c:	00000000 	nop
  405e10:	00471021 	addu	v0,v0,a3
  405e14:	00452823 	subu	a1,v0,a1
  405e18:	00c52806 	srlv	a1,a1,a2
  405e1c:	00001025 	move	v0,zero
  405e20:	00a01825 	move	v1,a1
  405e24:	03e00008 	jr	ra
  405e28:	00000000 	nop
  405e2c:	0086402b 	sltu	t0,a0,a2
  405e30:	1500fffb 	bnez	t0,405e20 <__umoddi3+0x140>
  405e34:	00a05025 	move	t2,a1
  405e38:	3c030001 	lui	v1,0x1
  405e3c:	00c3182b 	sltu	v1,a2,v1
  405e40:	14600068 	bnez	v1,405fe4 <__umoddi3+0x304>
  405e44:	2cc30100 	sltiu	v1,a2,256
  405e48:	3c030100 	lui	v1,0x100
  405e4c:	00c3182b 	sltu	v1,a2,v1
  405e50:	146000f9 	bnez	v1,406238 <__umoddi3+0x558>
  405e54:	00064c02 	srl	t1,a2,0x10
  405e58:	00064e02 	srl	t1,a2,0x18
  405e5c:	240b0018 	li	t3,24
  405e60:	8f838104 	lw	v1,-32508(gp)
  405e64:	24080020 	li	t0,32
  405e68:	00691821 	addu	v1,v1,t1
  405e6c:	90690000 	lbu	t1,0(v1)
  405e70:	00000000 	nop
  405e74:	012b4821 	addu	t1,t1,t3
  405e78:	1509005f 	bne	t0,t1,405ff8 <__umoddi3+0x318>
  405e7c:	01096023 	subu	t4,t0,t1
  405e80:	00c4182b 	sltu	v1,a2,a0
  405e84:	14600004 	bnez	v1,405e98 <__umoddi3+0x1b8>
  405e88:	00000000 	nop
  405e8c:	00a7182b 	sltu	v1,a1,a3
  405e90:	14600005 	bnez	v1,405ea8 <__umoddi3+0x1c8>
  405e94:	00000000 	nop
  405e98:	00a75023 	subu	t2,a1,a3
  405e9c:	00861023 	subu	v0,a0,a2
  405ea0:	00aa282b 	sltu	a1,a1,t2
  405ea4:	00451023 	subu	v0,v0,a1
  405ea8:	01402825 	move	a1,t2
  405eac:	01401825 	move	v1,t2
  405eb0:	03e00008 	jr	ra
  405eb4:	00000000 	nop
  405eb8:	14e00008 	bnez	a3,405edc <__umoddi3+0x1fc>
  405ebc:	00e2102b 	sltu	v0,a3,v0
  405ec0:	24020001 	li	v0,1
  405ec4:	14e00002 	bnez	a3,405ed0 <__umoddi3+0x1f0>
  405ec8:	0047001b 	divu	zero,v0,a3
  405ecc:	0007000d 	break	0x7
  405ed0:	00003812 	mflo	a3
  405ed4:	3c020001 	lui	v0,0x1
  405ed8:	00e2102b 	sltu	v0,a3,v0
  405edc:	14400037 	bnez	v0,405fbc <__umoddi3+0x2dc>
  405ee0:	2ce20100 	sltiu	v0,a3,256
  405ee4:	3c020100 	lui	v0,0x100
  405ee8:	00e2102b 	sltu	v0,a3,v0
  405eec:	144000d4 	bnez	v0,406240 <__umoddi3+0x560>
  405ef0:	00000000 	nop
  405ef4:	00073602 	srl	a2,a3,0x18
  405ef8:	240a0018 	li	t2,24
  405efc:	8f828104 	lw	v0,-32508(gp)
  405f00:	24030020 	li	v1,32
  405f04:	00461021 	addu	v0,v0,a2
  405f08:	90420000 	lbu	v0,0(v0)
  405f0c:	00000000 	nop
  405f10:	004a5021 	addu	t2,v0,t2
  405f14:	146a0086 	bne	v1,t2,406130 <__umoddi3+0x450>
  405f18:	006a3023 	subu	a2,v1,t2
  405f1c:	00871823 	subu	v1,a0,a3
  405f20:	00071402 	srl	v0,a3,0x10
  405f24:	30e9ffff 	andi	t1,a3,0xffff
  405f28:	14400002 	bnez	v0,405f34 <__umoddi3+0x254>
  405f2c:	0062001b 	divu	zero,v1,v0
  405f30:	0007000d 	break	0x7
  405f34:	00081c02 	srl	v1,t0,0x10
  405f38:	00002812 	mflo	a1
  405f3c:	00002010 	mfhi	a0
  405f40:	00042400 	sll	a0,a0,0x10
  405f44:	00831825 	or	v1,a0,v1
  405f48:	00a90018 	mult	a1,t1
  405f4c:	00005012 	mflo	t2
  405f50:	006a202b 	sltu	a0,v1,t2
  405f54:	10800008 	beqz	a0,405f78 <__umoddi3+0x298>
  405f58:	00000000 	nop
  405f5c:	00671821 	addu	v1,v1,a3
  405f60:	0067202b 	sltu	a0,v1,a3
  405f64:	14800004 	bnez	a0,405f78 <__umoddi3+0x298>
  405f68:	006a202b 	sltu	a0,v1,t2
  405f6c:	10800002 	beqz	a0,405f78 <__umoddi3+0x298>
  405f70:	00000000 	nop
  405f74:	00671821 	addu	v1,v1,a3
  405f78:	006a1823 	subu	v1,v1,t2
  405f7c:	14400002 	bnez	v0,405f88 <__umoddi3+0x2a8>
  405f80:	0062001b 	divu	zero,v1,v0
  405f84:	0007000d 	break	0x7
  405f88:	3108ffff 	andi	t0,t0,0xffff
  405f8c:	00001012 	mflo	v0
  405f90:	00001810 	mfhi	v1
  405f94:	00031c00 	sll	v1,v1,0x10
  405f98:	00000000 	nop
  405f9c:	00490018 	mult	v0,t1
  405fa0:	00681025 	or	v0,v1,t0
  405fa4:	00002812 	mflo	a1
  405fa8:	0045182b 	sltu	v1,v0,a1
  405fac:	1060ff99 	beqz	v1,405e14 <__umoddi3+0x134>
  405fb0:	00000000 	nop
  405fb4:	1000ff90 	b	405df8 <__umoddi3+0x118>
  405fb8:	00471021 	addu	v0,v0,a3
  405fbc:	144000a5 	bnez	v0,406254 <__umoddi3+0x574>
  405fc0:	00000000 	nop
  405fc4:	00073202 	srl	a2,a3,0x8
  405fc8:	1000ffcc 	b	405efc <__umoddi3+0x21c>
  405fcc:	240a0008 	li	t2,8
  405fd0:	1440009e 	bnez	v0,40624c <__umoddi3+0x56c>
  405fd4:	00000000 	nop
  405fd8:	00073202 	srl	a2,a3,0x8
  405fdc:	1000ff54 	b	405d30 <__umoddi3+0x50>
  405fe0:	240a0008 	li	t2,8
  405fe4:	14600091 	bnez	v1,40622c <__umoddi3+0x54c>
  405fe8:	00000000 	nop
  405fec:	00064a02 	srl	t1,a2,0x8
  405ff0:	1000ff9b 	b	405e60 <__umoddi3+0x180>
  405ff4:	240b0008 	li	t3,8
  405ff8:	01863004 	sllv	a2,a2,t4
  405ffc:	01275006 	srlv	t2,a3,t1
  406000:	01465025 	or	t2,t2,a2
  406004:	01241006 	srlv	v0,a0,t1
  406008:	000a3402 	srl	a2,t2,0x10
  40600c:	14c00002 	bnez	a2,406018 <__umoddi3+0x338>
  406010:	0046001b 	divu	zero,v0,a2
  406014:	0007000d 	break	0x7
  406018:	314effff 	andi	t6,t2,0xffff
  40601c:	01841804 	sllv	v1,a0,t4
  406020:	01252006 	srlv	a0,a1,t1
  406024:	00831825 	or	v1,a0,v1
  406028:	00034402 	srl	t0,v1,0x10
  40602c:	0187c004 	sllv	t8,a3,t4
  406030:	00005812 	mflo	t3
  406034:	00006810 	mfhi	t5
  406038:	000d6c00 	sll	t5,t5,0x10
  40603c:	01a83825 	or	a3,t5,t0
  406040:	01cb0018 	mult	t6,t3
  406044:	00001012 	mflo	v0
  406048:	00e2202b 	sltu	a0,a3,v0
  40604c:	1080000a 	beqz	a0,406078 <__umoddi3+0x398>
  406050:	01852804 	sllv	a1,a1,t4
  406054:	00ea3821 	addu	a3,a3,t2
  406058:	00ea202b 	sltu	a0,a3,t2
  40605c:	14800081 	bnez	a0,406264 <__umoddi3+0x584>
  406060:	2568ffff 	addiu	t0,t3,-1
  406064:	00e2202b 	sltu	a0,a3,v0
  406068:	1080007e 	beqz	a0,406264 <__umoddi3+0x584>
  40606c:	00000000 	nop
  406070:	256bfffe 	addiu	t3,t3,-2
  406074:	00ea3821 	addu	a3,a3,t2
  406078:	00e23823 	subu	a3,a3,v0
  40607c:	14c00002 	bnez	a2,406088 <__umoddi3+0x3a8>
  406080:	00e6001b 	divu	zero,a3,a2
  406084:	0007000d 	break	0x7
  406088:	3063ffff 	andi	v1,v1,0xffff
  40608c:	00002012 	mflo	a0
  406090:	00003810 	mfhi	a3
  406094:	00073c00 	sll	a3,a3,0x10
  406098:	00e33025 	or	a2,a3,v1
  40609c:	01c40018 	mult	t6,a0
  4060a0:	00001012 	mflo	v0
  4060a4:	00c2182b 	sltu	v1,a2,v0
  4060a8:	1060000a 	beqz	v1,4060d4 <__umoddi3+0x3f4>
  4060ac:	00000000 	nop
  4060b0:	00ca3021 	addu	a2,a2,t2
  4060b4:	00ca182b 	sltu	v1,a2,t2
  4060b8:	14600068 	bnez	v1,40625c <__umoddi3+0x57c>
  4060bc:	2487ffff 	addiu	a3,a0,-1
  4060c0:	00c2182b 	sltu	v1,a2,v0
  4060c4:	10600065 	beqz	v1,40625c <__umoddi3+0x57c>
  4060c8:	00000000 	nop
  4060cc:	2484fffe 	addiu	a0,a0,-2
  4060d0:	00ca3021 	addu	a2,a2,t2
  4060d4:	000b5c00 	sll	t3,t3,0x10
  4060d8:	01645825 	or	t3,t3,a0
  4060dc:	01780019 	multu	t3,t8
  4060e0:	00c23023 	subu	a2,a2,v0
  4060e4:	00007010 	mfhi	t6
  4060e8:	00ce182b 	sltu	v1,a2,t6
  4060ec:	00007812 	mflo	t7
  4060f0:	00002012 	mflo	a0
  4060f4:	14600045 	bnez	v1,40620c <__umoddi3+0x52c>
  4060f8:	01c01025 	move	v0,t6
  4060fc:	10ce0040 	beq	a2,t6,406200 <__umoddi3+0x520>
  406100:	00000000 	nop
  406104:	00a42023 	subu	a0,a1,a0
  406108:	00c23023 	subu	a2,a2,v0
  40610c:	00a4102b 	sltu	v0,a1,a0
  406110:	00c21023 	subu	v0,a2,v0
  406114:	01224804 	sllv	t1,v0,t1
  406118:	01842806 	srlv	a1,a0,t4
  40611c:	01252825 	or	a1,t1,a1
  406120:	01821006 	srlv	v0,v0,t4
  406124:	00a01825 	move	v1,a1
  406128:	03e00008 	jr	ra
  40612c:	00000000 	nop
  406130:	00c73804 	sllv	a3,a3,a2
  406134:	01441806 	srlv	v1,a0,t2
  406138:	00071402 	srl	v0,a3,0x10
  40613c:	14400002 	bnez	v0,406148 <__umoddi3+0x468>
  406140:	0062001b 	divu	zero,v1,v0
  406144:	0007000d 	break	0x7
  406148:	01455006 	srlv	t2,a1,t2
  40614c:	30e9ffff 	andi	t1,a3,0xffff
  406150:	00c54004 	sllv	t0,a1,a2
  406154:	00c42004 	sllv	a0,a0,a2
  406158:	01445025 	or	t2,t2,a0
  40615c:	000a2402 	srl	a0,t2,0x10
  406160:	00002812 	mflo	a1
  406164:	00001810 	mfhi	v1
  406168:	00031c00 	sll	v1,v1,0x10
  40616c:	00642025 	or	a0,v1,a0
  406170:	00a90018 	mult	a1,t1
  406174:	00002812 	mflo	a1
  406178:	0085182b 	sltu	v1,a0,a1
  40617c:	10600008 	beqz	v1,4061a0 <__umoddi3+0x4c0>
  406180:	00000000 	nop
  406184:	00872021 	addu	a0,a0,a3
  406188:	0087182b 	sltu	v1,a0,a3
  40618c:	14600004 	bnez	v1,4061a0 <__umoddi3+0x4c0>
  406190:	0085182b 	sltu	v1,a0,a1
  406194:	10600002 	beqz	v1,4061a0 <__umoddi3+0x4c0>
  406198:	00000000 	nop
  40619c:	00872021 	addu	a0,a0,a3
  4061a0:	00852023 	subu	a0,a0,a1
  4061a4:	14400002 	bnez	v0,4061b0 <__umoddi3+0x4d0>
  4061a8:	0082001b 	divu	zero,a0,v0
  4061ac:	0007000d 	break	0x7
  4061b0:	314affff 	andi	t2,t2,0xffff
  4061b4:	00001812 	mflo	v1
  4061b8:	00002010 	mfhi	a0
  4061bc:	00042400 	sll	a0,a0,0x10
  4061c0:	00000000 	nop
  4061c4:	00690018 	mult	v1,t1
  4061c8:	008a1825 	or	v1,a0,t2
  4061cc:	00002812 	mflo	a1
  4061d0:	0065202b 	sltu	a0,v1,a1
  4061d4:	10800008 	beqz	a0,4061f8 <__umoddi3+0x518>
  4061d8:	00000000 	nop
  4061dc:	00671821 	addu	v1,v1,a3
  4061e0:	0067202b 	sltu	a0,v1,a3
  4061e4:	14800004 	bnez	a0,4061f8 <__umoddi3+0x518>
  4061e8:	0065202b 	sltu	a0,v1,a1
  4061ec:	10800002 	beqz	a0,4061f8 <__umoddi3+0x518>
  4061f0:	00000000 	nop
  4061f4:	00671821 	addu	v1,v1,a3
  4061f8:	1000ff4b 	b	405f28 <__umoddi3+0x248>
  4061fc:	00651823 	subu	v1,v1,a1
  406200:	00af182b 	sltu	v1,a1,t7
  406204:	1060ffbf 	beqz	v1,406104 <__umoddi3+0x424>
  406208:	00000000 	nop
  40620c:	01f82023 	subu	a0,t7,t8
  406210:	01ca5023 	subu	t2,t6,t2
  406214:	01e4102b 	sltu	v0,t7,a0
  406218:	1000ffba 	b	406104 <__umoddi3+0x424>
  40621c:	01421023 	subu	v0,t2,v0
  406220:	00073402 	srl	a2,a3,0x10
  406224:	1000fec2 	b	405d30 <__umoddi3+0x50>
  406228:	240a0010 	li	t2,16
  40622c:	00c04825 	move	t1,a2
  406230:	1000ff0b 	b	405e60 <__umoddi3+0x180>
  406234:	00005825 	move	t3,zero
  406238:	1000ff09 	b	405e60 <__umoddi3+0x180>
  40623c:	240b0010 	li	t3,16
  406240:	00073402 	srl	a2,a3,0x10
  406244:	1000ff2d 	b	405efc <__umoddi3+0x21c>
  406248:	240a0010 	li	t2,16
  40624c:	1000feb8 	b	405d30 <__umoddi3+0x50>
  406250:	00e03025 	move	a2,a3
  406254:	1000ff29 	b	405efc <__umoddi3+0x21c>
  406258:	00e03025 	move	a2,a3
  40625c:	1000ff9d 	b	4060d4 <__umoddi3+0x3f4>
  406260:	00e02025 	move	a0,a3
  406264:	1000ff84 	b	406078 <__umoddi3+0x398>
  406268:	01005825 	move	t3,t0
  40626c:	1000fed3 	b	405dbc <__umoddi3+0xdc>
  406270:	00671821 	addu	v1,v1,a3
	...

00406280 <__do_global_ctors_aux>:
  406280:	3c020041 	lui	v0,0x41
  406284:	8c5970f8 	lw	t9,28920(v0)
  406288:	2402ffff 	li	v0,-1
  40628c:	13220013 	beq	t9,v0,4062dc <__do_global_ctors_aux+0x5c>
  406290:	00000000 	nop
  406294:	27bdffd8 	addiu	sp,sp,-40
  406298:	afb0001c 	sw	s0,28(sp)
  40629c:	3c100041 	lui	s0,0x41
  4062a0:	afb10020 	sw	s1,32(sp)
  4062a4:	afbf0024 	sw	ra,36(sp)
  4062a8:	261070f8 	addiu	s0,s0,28920
  4062ac:	2411ffff 	li	s1,-1
  4062b0:	0320f809 	jalr	t9
  4062b4:	2610fffc 	addiu	s0,s0,-4
  4062b8:	8e190000 	lw	t9,0(s0)
  4062bc:	00000000 	nop
  4062c0:	1731fffb 	bne	t9,s1,4062b0 <__do_global_ctors_aux+0x30>
  4062c4:	00000000 	nop
  4062c8:	8fbf0024 	lw	ra,36(sp)
  4062cc:	8fb10020 	lw	s1,32(sp)
  4062d0:	8fb0001c 	lw	s0,28(sp)
  4062d4:	03e00008 	jr	ra
  4062d8:	27bd0028 	addiu	sp,sp,40
  4062dc:	03e00008 	jr	ra
  4062e0:	00000000 	nop
	...

Disassembly of section .fini:

004062f0 <_fini>:
  4062f0:	27bdffe0 	addiu	sp,sp,-32
  4062f4:	afbc0018 	sw	gp,24(sp)
  4062f8:	afbf001c 	sw	ra,28(sp)
  4062fc:	04110001 	bal	406304 <_fini+0x14>
  406300:	00000000 	nop
  406304:	3c1c0042 	lui	gp,0x42
  406308:	279cf1b0 	addiu	gp,gp,-3664
  40630c:	8f998018 	lw	t9,-32744(gp)
  406310:	00000000 	nop
  406314:	2739030c 	addiu	t9,t9,780
  406318:	00000000 	nop
  40631c:	0320f809 	jalr	t9
  406320:	00000000 	nop
  406324:	8fbc0018 	lw	gp,24(sp)
  406328:	8fbf001c 	lw	ra,28(sp)
  40632c:	03e00008 	jr	ra
  406330:	27bd0020 	addiu	sp,sp,32
