
../../out/mips64el/1-fn-ptr.elf:     file format elf64-tradlittlemips


Disassembly of section .init:

0000000120000980 <_init>:
   120000980:	67bdffe0 	daddiu	sp,sp,-32
   120000984:	ffbc0010 	sd	gp,16(sp)
   120000988:	ffbf0018 	sd	ra,24(sp)
   12000098c:	00000000 	nop
   120000990:	04110001 	bal	120000998 <_init+0x18>
   120000994:	00000000 	nop
   120000998:	03801025 	move	v0,gp
   12000099c:	3c1c0002 	lui	gp,0x2
   1200009a0:	279cfb78 	addiu	gp,gp,-1160
   1200009a4:	039fe02d 	daddu	gp,gp,ra
   1200009a8:	df998070 	ld	t9,-32656(gp)
   1200009ac:	0320f809 	jalr	t9
   1200009b0:	00000000 	nop
   1200009b4:	04110001 	bal	1200009bc <_init+0x3c>
   1200009b8:	00000000 	nop
   1200009bc:	03801025 	move	v0,gp
   1200009c0:	3c1c0002 	lui	gp,0x2
   1200009c4:	279cfb54 	addiu	gp,gp,-1196
   1200009c8:	039fe02d 	daddu	gp,gp,ra
   1200009cc:	df998280 	ld	t9,-32128(gp)
   1200009d0:	0320f809 	jalr	t9
   1200009d4:	00000000 	nop
   1200009d8:	dfbc0010 	ld	gp,16(sp)
   1200009dc:	dfbf0018 	ld	ra,24(sp)
   1200009e0:	03e00008 	jr	ra
   1200009e4:	67bd0020 	daddiu	sp,sp,32

Disassembly of section .text:

0000000120000a00 <exit>:
   120000a00:	67bdffe0 	daddiu	sp,sp,-32
   120000a04:	ffbc0010 	sd	gp,16(sp)
   120000a08:	3c1c0002 	lui	gp,0x2
   120000a0c:	0399e02d 	daddu	gp,gp,t9
   120000a10:	679cfb10 	daddiu	gp,gp,-1264
   120000a14:	df998100 	ld	t9,-32512(gp)
   120000a18:	ffbf0018 	sd	ra,24(sp)
   120000a1c:	04110248 	bal	120001340 <__funcs_on_exit>
   120000a20:	ffa40000 	sd	a0,0(sp)
   120000a24:	df998108 	ld	t9,-32504(gp)
   120000a28:	04110247 	bal	120001348 <__libc_exit_fini>
   120000a2c:	00000000 	nop
   120000a30:	df998110 	ld	t9,-32496(gp)
   120000a34:	041110b3 	bal	120004d04 <__stdio_exit>
   120000a38:	00000000 	nop
   120000a3c:	df998118 	ld	t9,-32488(gp)
   120000a40:	04110c6d 	bal	120003bf8 <_Exit>
   120000a44:	dfa40000 	ld	a0,0(sp)
	...

0000000120000b00 <__start>:
   120000b00:	04110007 	bal	120000b20 <_start_data+0x18>
   120000b04:	0000f025 	move	s8,zero

0000000120000b08 <_start_data>:
   120000b08:	fffe05f8 	sd	s8,1528(ra)
   120000b0c:	ffffffff 	sd	ra,-1(ra)
   120000b10:	fffe06f0 	sd	s8,1776(ra)
   120000b14:	ffffffff 	sd	ra,-1(ra)
   120000b18:	dffdfaf0 	ld	sp,-1296(ra)
   120000b1c:	fffffffe 	sd	ra,-2(ra)
   120000b20:	dffc0000 	ld	gp,0(ra)
   120000b24:	03fce02f 	dsubu	gp,ra,gp
   120000b28:	03a02025 	move	a0,sp
   120000b2c:	dfe50010 	ld	a1,16(ra)
   120000b30:	00bc282d 	daddu	a1,a1,gp
   120000b34:	dff90008 	ld	t9,8(ra)
   120000b38:	033cc82d 	daddu	t9,t9,gp
   120000b3c:	2401fff0 	li	at,-16
   120000b40:	03a1e824 	and	sp,sp,at
   120000b44:	0320f809 	jalr	t9
   120000b48:	00000000 	nop
	...

0000000120000c00 <_start_c>:
   120000c00:	67bdfff0 	daddiu	sp,sp,-16
   120000c04:	ffbc0000 	sd	gp,0(sp)
   120000c08:	3c1c0002 	lui	gp,0x2
   120000c0c:	0399e02d 	daddu	gp,gp,t9
   120000c10:	679cf910 	daddiu	gp,gp,-1776
   120000c14:	df998020 	ld	t9,-32736(gp)
   120000c18:	df888028 	ld	a4,-32728(gp)
   120000c1c:	df878030 	ld	a3,-32720(gp)
   120000c20:	8c850000 	lw	a1,0(a0)
   120000c24:	64860008 	daddiu	a2,a0,8
   120000c28:	df848038 	ld	a0,-32712(gp)
   120000c2c:	ffbf0008 	sd	ra,8(sp)
   120000c30:	041101a4 	bal	1200012c4 <__libc_start_main>
   120000c34:	00004825 	move	a5,zero
   120000c38:	dfbf0008 	ld	ra,8(sp)
   120000c3c:	dfbc0000 	ld	gp,0(sp)
   120000c40:	03e00008 	jr	ra
   120000c44:	67bd0010 	daddiu	sp,sp,16
	...

0000000120000c50 <deregister_tm_clones>:
   120000c50:	3c030002 	lui	v1,0x2
   120000c54:	0079182d 	daddu	v1,v1,t9
   120000c58:	6463f8c0 	daddiu	v1,v1,-1856
   120000c5c:	dc648040 	ld	a0,-32704(v1)
   120000c60:	dc628048 	ld	v0,-32696(v1)
   120000c64:	64848520 	daddiu	a0,a0,-31456
   120000c68:	10440005 	beq	v0,a0,120000c80 <deregister_tm_clones+0x30>
   120000c6c:	dc7982d0 	ld	t9,-32048(v1)
   120000c70:	13200003 	beqz	t9,120000c80 <deregister_tm_clones+0x30>
   120000c74:	00000000 	nop
   120000c78:	03200008 	jr	t9
   120000c7c:	00000000 	nop
   120000c80:	03e00008 	jr	ra
   120000c84:	00000000 	nop

0000000120000c88 <register_tm_clones>:
   120000c88:	3c030002 	lui	v1,0x2
   120000c8c:	0079182d 	daddu	v1,v1,t9
   120000c90:	6463f888 	daddiu	v1,v1,-1912
   120000c94:	dc648040 	ld	a0,-32704(v1)
   120000c98:	dc658048 	ld	a1,-32696(v1)
   120000c9c:	64848520 	daddiu	a0,a0,-31456
   120000ca0:	00a4282f 	dsubu	a1,a1,a0
   120000ca4:	000510fb 	dsra	v0,a1,0x3
   120000ca8:	00052ffe 	dsrl32	a1,a1,0x1f
   120000cac:	00a2282d 	daddu	a1,a1,v0
   120000cb0:	0005287b 	dsra	a1,a1,0x1
   120000cb4:	10a00005 	beqz	a1,120000ccc <register_tm_clones+0x44>
   120000cb8:	dc7982d8 	ld	t9,-32040(v1)
   120000cbc:	13200003 	beqz	t9,120000ccc <register_tm_clones+0x44>
   120000cc0:	00000000 	nop
   120000cc4:	03200008 	jr	t9
   120000cc8:	00000000 	nop
   120000ccc:	03e00008 	jr	ra
   120000cd0:	00000000 	nop
   120000cd4:	00000000 	nop

0000000120000cd8 <__do_global_dtors_aux>:
   120000cd8:	67bdffd0 	daddiu	sp,sp,-48
   120000cdc:	ffbc0020 	sd	gp,32(sp)
   120000ce0:	3c1c0002 	lui	gp,0x2
   120000ce4:	0399e02d 	daddu	gp,gp,t9
   120000ce8:	679cf838 	daddiu	gp,gp,-1992
   120000cec:	ffb30018 	sd	s3,24(sp)
   120000cf0:	df938040 	ld	s3,-32704(gp)
   120000cf4:	ffbf0028 	sd	ra,40(sp)
   120000cf8:	ffb20010 	sd	s2,16(sp)
   120000cfc:	92628800 	lbu	v0,-30720(s3)
   120000d00:	ffb10008 	sd	s1,8(sp)
   120000d04:	14400025 	bnez	v0,120000d9c <__do_global_dtors_aux+0xc4>
   120000d08:	ffb00000 	sd	s0,0(sp)
   120000d0c:	df838040 	ld	v1,-32704(gp)
   120000d10:	df908040 	ld	s0,-32704(gp)
   120000d14:	df918050 	ld	s1,-32688(gp)
   120000d18:	646383f8 	daddiu	v1,v1,-31752
   120000d1c:	de028808 	ld	v0,-30712(s0)
   120000d20:	0223882f 	dsubu	s1,s1,v1
   120000d24:	df848040 	ld	a0,-32704(gp)
   120000d28:	001188fb 	dsra	s1,s1,0x3
   120000d2c:	6631ffff 	daddiu	s1,s1,-1
   120000d30:	0051182b 	sltu	v1,v0,s1
   120000d34:	649283f8 	daddiu	s2,a0,-31752
   120000d38:	1060000d 	beqz	v1,120000d70 <__do_global_dtors_aux+0x98>
   120000d3c:	df998058 	ld	t9,-32680(gp)
   120000d40:	64420001 	daddiu	v0,v0,1
   120000d44:	00000000 	nop
   120000d48:	000218f8 	dsll	v1,v0,0x3
   120000d4c:	0243182d 	daddu	v1,s2,v1
   120000d50:	dc790000 	ld	t9,0(v1)
   120000d54:	0320f809 	jalr	t9
   120000d58:	fe028808 	sd	v0,-30712(s0)
   120000d5c:	de028808 	ld	v0,-30712(s0)
   120000d60:	0051182b 	sltu	v1,v0,s1
   120000d64:	1460fff8 	bnez	v1,120000d48 <__do_global_dtors_aux+0x70>
   120000d68:	64420001 	daddiu	v0,v0,1
   120000d6c:	df998058 	ld	t9,-32680(gp)
   120000d70:	67390c50 	daddiu	t9,t9,3152
   120000d74:	0411ffb6 	bal	120000c50 <deregister_tm_clones>
   120000d78:	00000000 	nop
   120000d7c:	df8282e0 	ld	v0,-32032(gp)
   120000d80:	10400004 	beqz	v0,120000d94 <__do_global_dtors_aux+0xbc>
   120000d84:	df9982e0 	ld	t9,-32032(gp)
   120000d88:	df848060 	ld	a0,-32672(gp)
   120000d8c:	0320f809 	jalr	t9
   120000d90:	648483e0 	daddiu	a0,a0,-31776
   120000d94:	24020001 	li	v0,1
   120000d98:	a2628800 	sb	v0,-30720(s3)
   120000d9c:	dfbf0028 	ld	ra,40(sp)
   120000da0:	dfbc0020 	ld	gp,32(sp)
   120000da4:	dfb30018 	ld	s3,24(sp)
   120000da8:	dfb20010 	ld	s2,16(sp)
   120000dac:	dfb10008 	ld	s1,8(sp)
   120000db0:	dfb00000 	ld	s0,0(sp)
   120000db4:	03e00008 	jr	ra
   120000db8:	67bd0030 	daddiu	sp,sp,48
   120000dbc:	00000000 	nop

0000000120000dc0 <frame_dummy>:
   120000dc0:	67bdfff0 	daddiu	sp,sp,-16
   120000dc4:	ffbc0000 	sd	gp,0(sp)
   120000dc8:	3c1c0002 	lui	gp,0x2
   120000dcc:	0399e02d 	daddu	gp,gp,t9
   120000dd0:	679cf750 	daddiu	gp,gp,-2224
   120000dd4:	df8282c8 	ld	v0,-32056(gp)
   120000dd8:	10400007 	beqz	v0,120000df8 <frame_dummy+0x38>
   120000ddc:	ffbf0008 	sd	ra,8(sp)
   120000de0:	df858040 	ld	a1,-32704(gp)
   120000de4:	df848060 	ld	a0,-32672(gp)
   120000de8:	df9982c8 	ld	t9,-32056(gp)
   120000dec:	64a58810 	daddiu	a1,a1,-30704
   120000df0:	0320f809 	jalr	t9
   120000df4:	648483e0 	daddiu	a0,a0,-31776
   120000df8:	df998058 	ld	t9,-32680(gp)
   120000dfc:	dfbf0008 	ld	ra,8(sp)
   120000e00:	dfbc0000 	ld	gp,0(sp)
   120000e04:	67390c88 	daddiu	t9,t9,3208
   120000e08:	1000ff9f 	b	120000c88 <register_tm_clones>
   120000e0c:	67bd0010 	daddiu	sp,sp,16

0000000120000e10 <add>:
   120000e10:	67bdffe0 	daddiu	sp,sp,-32
   120000e14:	ffbe0018 	sd	s8,24(sp)
   120000e18:	03a0f025 	move	s8,sp
   120000e1c:	00801825 	move	v1,a0
   120000e20:	00a01025 	move	v0,a1
   120000e24:	00031800 	sll	v1,v1,0x0
   120000e28:	afc30000 	sw	v1,0(s8)
   120000e2c:	00021000 	sll	v0,v0,0x0
   120000e30:	afc20004 	sw	v0,4(s8)
   120000e34:	8fc30000 	lw	v1,0(s8)
   120000e38:	8fc20004 	lw	v0,4(s8)
   120000e3c:	00621021 	addu	v0,v1,v0
   120000e40:	03c0e825 	move	sp,s8
   120000e44:	dfbe0018 	ld	s8,24(sp)
   120000e48:	67bd0020 	daddiu	sp,sp,32
   120000e4c:	03e00008 	jr	ra
   120000e50:	00000000 	nop

0000000120000e54 <sub>:
   120000e54:	67bdffe0 	daddiu	sp,sp,-32
   120000e58:	ffbe0018 	sd	s8,24(sp)
   120000e5c:	03a0f025 	move	s8,sp
   120000e60:	00801825 	move	v1,a0
   120000e64:	00a01025 	move	v0,a1
   120000e68:	00031800 	sll	v1,v1,0x0
   120000e6c:	afc30000 	sw	v1,0(s8)
   120000e70:	00021000 	sll	v0,v0,0x0
   120000e74:	afc20004 	sw	v0,4(s8)
   120000e78:	8fc30000 	lw	v1,0(s8)
   120000e7c:	8fc20004 	lw	v0,4(s8)
   120000e80:	00621023 	subu	v0,v1,v0
   120000e84:	03c0e825 	move	sp,s8
   120000e88:	dfbe0018 	ld	s8,24(sp)
   120000e8c:	67bd0020 	daddiu	sp,sp,32
   120000e90:	03e00008 	jr	ra
   120000e94:	00000000 	nop

0000000120000e98 <call_with_args>:
   120000e98:	67bdffd0 	daddiu	sp,sp,-48
   120000e9c:	ffbf0028 	sd	ra,40(sp)
   120000ea0:	ffbe0020 	sd	s8,32(sp)
   120000ea4:	ffbc0018 	sd	gp,24(sp)
   120000ea8:	03a0f025 	move	s8,sp
   120000eac:	3c1c0002 	lui	gp,0x2
   120000eb0:	0399e02d 	daddu	gp,gp,t9
   120000eb4:	679cf678 	daddiu	gp,gp,-2440
   120000eb8:	ffc40000 	sd	a0,0(s8)
   120000ebc:	00a01825 	move	v1,a1
   120000ec0:	00c01025 	move	v0,a2
   120000ec4:	00031800 	sll	v1,v1,0x0
   120000ec8:	afc30008 	sw	v1,8(s8)
   120000ecc:	00021000 	sll	v0,v0,0x0
   120000ed0:	afc2000c 	sw	v0,12(s8)
   120000ed4:	8fc3000c 	lw	v1,12(s8)
   120000ed8:	8fc20008 	lw	v0,8(s8)
   120000edc:	dfc40000 	ld	a0,0(s8)
   120000ee0:	00800013 	mtlo	a0
   120000ee4:	00602825 	move	a1,v1
   120000ee8:	00402025 	move	a0,v0
   120000eec:	0000c812 	mflo	t9
   120000ef0:	0320f809 	jalr	t9
   120000ef4:	00000000 	nop
   120000ef8:	00402825 	move	a1,v0
   120000efc:	df828058 	ld	v0,-32680(gp)
   120000f00:	64447470 	daddiu	a0,v0,29808
   120000f04:	df828078 	ld	v0,-32648(gp)
   120000f08:	00400013 	mtlo	v0
   120000f0c:	0000c812 	mflo	t9
   120000f10:	0320f809 	jalr	t9
   120000f14:	00000000 	nop
   120000f18:	00000000 	nop
   120000f1c:	03c0e825 	move	sp,s8
   120000f20:	dfbf0028 	ld	ra,40(sp)
   120000f24:	dfbe0020 	ld	s8,32(sp)
   120000f28:	dfbc0018 	ld	gp,24(sp)
   120000f2c:	67bd0030 	daddiu	sp,sp,48
   120000f30:	03e00008 	jr	ra
   120000f34:	00000000 	nop

0000000120000f38 <main>:
   120000f38:	67bdffe0 	daddiu	sp,sp,-32
   120000f3c:	ffbf0018 	sd	ra,24(sp)
   120000f40:	ffbe0010 	sd	s8,16(sp)
   120000f44:	ffbc0008 	sd	gp,8(sp)
   120000f48:	03a0f025 	move	s8,sp
   120000f4c:	3c1c0002 	lui	gp,0x2
   120000f50:	0399e02d 	daddu	gp,gp,t9
   120000f54:	679cf5d8 	daddiu	gp,gp,-2600
   120000f58:	24060008 	li	a2,8
   120000f5c:	24050005 	li	a1,5
   120000f60:	df848080 	ld	a0,-32640(gp)
   120000f64:	df828088 	ld	v0,-32632(gp)
   120000f68:	00400013 	mtlo	v0
   120000f6c:	0000c812 	mflo	t9
   120000f70:	0320f809 	jalr	t9
   120000f74:	00000000 	nop
   120000f78:	24060003 	li	a2,3
   120000f7c:	24050005 	li	a1,5
   120000f80:	df848080 	ld	a0,-32640(gp)
   120000f84:	df828088 	ld	v0,-32632(gp)
   120000f88:	00400013 	mtlo	v0
   120000f8c:	0000c812 	mflo	t9
   120000f90:	0320f809 	jalr	t9
   120000f94:	00000000 	nop
   120000f98:	2406002a 	li	a2,42
   120000f9c:	2405007b 	li	a1,123
   120000fa0:	df848090 	ld	a0,-32624(gp)
   120000fa4:	df828088 	ld	v0,-32632(gp)
   120000fa8:	00400013 	mtlo	v0
   120000fac:	0000c812 	mflo	t9
   120000fb0:	0320f809 	jalr	t9
   120000fb4:	00000000 	nop
   120000fb8:	00001025 	move	v0,zero
   120000fbc:	03c0e825 	move	sp,s8
   120000fc0:	dfbf0018 	ld	ra,24(sp)
   120000fc4:	dfbe0010 	ld	s8,16(sp)
   120000fc8:	dfbc0008 	ld	gp,8(sp)
   120000fcc:	67bd0020 	daddiu	sp,sp,32
   120000fd0:	03e00008 	jr	ra
   120000fd4:	00000000 	nop
	...

0000000120000fe0 <dummy>:
   120000fe0:	03e00008 	jr	ra
   120000fe4:	00000000 	nop

0000000120000fe8 <__init_ssp>:
   120000fe8:	03e00008 	jr	ra
   120000fec:	00000000 	nop

0000000120000ff0 <__init_libc>:
   120000ff0:	67bdfe90 	daddiu	sp,sp,-368
   120000ff4:	ffbc0160 	sd	gp,352(sp)
   120000ff8:	3c1c0002 	lui	gp,0x2
   120000ffc:	0399e02d 	daddu	gp,gp,t9
   120001000:	679cf520 	daddiu	gp,gp,-2784
   120001004:	df998098 	ld	t9,-32616(gp)
   120001008:	ffb10158 	sd	s1,344(sp)
   12000100c:	ffb00150 	sd	s0,336(sp)
   120001010:	00808825 	move	s1,a0
   120001014:	ffbf0168 	sd	ra,360(sp)
   120001018:	03a02025 	move	a0,sp
   12000101c:	00a08025 	move	s0,a1
   120001020:	24060130 	li	a2,304
   120001024:	0411096e 	bal	1200035e0 <memset>
   120001028:	00002825 	move	a1,zero
   12000102c:	df8280a0 	ld	v0,-32608(gp)
   120001030:	00002025 	move	a0,zero
   120001034:	fc510000 	sd	s1,0(v0)
   120001038:	000410f8 	dsll	v0,a0,0x3
   12000103c:	0222102d 	daddu	v0,s1,v0
   120001040:	dc420000 	ld	v0,0(v0)
   120001044:	1440fffc 	bnez	v0,120001038 <__init_libc+0x48>
   120001048:	64840001 	daddiu	a0,a0,1
   12000104c:	000420f8 	dsll	a0,a0,0x3
   120001050:	0224202d 	daddu	a0,s1,a0
   120001054:	df9180a8 	ld	s1,-32600(gp)
   120001058:	fe240008 	sd	a0,8(s1)
   12000105c:	dc820000 	ld	v0,0(a0)
   120001060:	1440003e 	bnez	v0,12000115c <__init_libc+0x16c>
   120001064:	2c430026 	sltiu	v1,v0,38
   120001068:	df8280b0 	ld	v0,-32592(gp)
   12000106c:	dfa30080 	ld	v1,128(sp)
   120001070:	fc430000 	sd	v1,0(v0)
   120001074:	dfa20100 	ld	v0,256(sp)
   120001078:	10400002 	beqz	v0,120001084 <__init_libc+0x94>
   12000107c:	df8380b8 	ld	v1,-32584(gp)
   120001080:	fc620000 	sd	v0,0(v1)
   120001084:	dfa20030 	ld	v0,48(sp)
   120001088:	16000006 	bnez	s0,1200010a4 <__init_libc+0xb4>
   12000108c:	fe220030 	sd	v0,48(s1)
   120001090:	dfb000f8 	ld	s0,248(sp)
   120001094:	16000004 	bnez	s0,1200010a8 <__init_libc+0xb8>
   120001098:	df8280c0 	ld	v0,-32576(gp)
   12000109c:	df908058 	ld	s0,-32680(gp)
   1200010a0:	66107480 	daddiu	s0,s0,29824
   1200010a4:	df8280c0 	ld	v0,-32576(gp)
   1200010a8:	df8380c8 	ld	v1,-32568(gp)
   1200010ac:	2404002f 	li	a0,47
   1200010b0:	fc500000 	sd	s0,0(v0)
   1200010b4:	fc700000 	sd	s0,0(v1)
   1200010b8:	66100001 	daddiu	s0,s0,1
   1200010bc:	8202ffff 	lb	v0,-1(s0)
   1200010c0:	1440002d 	bnez	v0,120001178 <__init_libc+0x188>
   1200010c4:	df9980d0 	ld	t9,-32560(gp)
   1200010c8:	04110a11 	bal	120003910 <__init_tls>
   1200010cc:	03a02025 	move	a0,sp
   1200010d0:	df9980d8 	ld	t9,-32552(gp)
   1200010d4:	0411ffc4 	bal	120000fe8 <__init_ssp>
   1200010d8:	dfa400c8 	ld	a0,200(sp)
   1200010dc:	dfa40058 	ld	a0,88(sp)
   1200010e0:	dfa30060 	ld	v1,96(sp)
   1200010e4:	14830007 	bne	a0,v1,120001104 <__init_libc+0x114>
   1200010e8:	dfa40068 	ld	a0,104(sp)
   1200010ec:	dfa30070 	ld	v1,112(sp)
   1200010f0:	14830005 	bne	a0,v1,120001108 <__init_libc+0x118>
   1200010f4:	24030001 	li	v1,1
   1200010f8:	dfa300b8 	ld	v1,184(sp)
   1200010fc:	10600039 	beqz	v1,1200011e4 <__init_libc+0x1f4>
   120001100:	dfbf0168 	ld	ra,360(sp)
   120001104:	24030001 	li	v1,1
   120001108:	ffa00138 	sd	zero,312(sp)
   12000110c:	afa30138 	sw	v1,312(sp)
   120001110:	24030002 	li	v1,2
   120001114:	ffa00140 	sd	zero,320(sp)
   120001118:	ffa00130 	sd	zero,304(sp)
   12000111c:	afa30140 	sw	v1,320(sp)
   120001120:	67a40130 	daddiu	a0,sp,304
   120001124:	24050003 	li	a1,3
   120001128:	00003025 	move	a2,zero
   12000112c:	6402138f 	daddiu	v0,zero,5007
   120001130:	0000000c 	syscall
   120001134:	10e00004 	beqz	a3,120001148 <__init_libc+0x158>
   120001138:	00401825 	move	v1,v0
   12000113c:	18400003 	blez	v0,12000114c <__init_libc+0x15c>
   120001140:	00031800 	sll	v1,v1,0x0
   120001144:	0002182f 	dnegu	v1,v0
   120001148:	00031800 	sll	v1,v1,0x0
   12000114c:	0461000f 	bgez	v1,12000118c <__init_libc+0x19c>
   120001150:	df848058 	ld	a0,-32680(gp)
   120001154:	a0000000 	sb	zero,0(zero)
   120001158:	00000034 	teq	zero,zero
   12000115c:	10600004 	beqz	v1,120001170 <__init_libc+0x180>
   120001160:	000210f8 	dsll	v0,v0,0x3
   120001164:	dc830008 	ld	v1,8(a0)
   120001168:	03a2102d 	daddu	v0,sp,v0
   12000116c:	fc430000 	sd	v1,0(v0)
   120001170:	1000ffba 	b	12000105c <__init_libc+0x6c>
   120001174:	64840010 	daddiu	a0,a0,16
   120001178:	14440002 	bne	v0,a0,120001184 <__init_libc+0x194>
   12000117c:	00000000 	nop
   120001180:	fc700000 	sd	s0,0(v1)
   120001184:	1000ffcd 	b	1200010bc <__init_libc+0xcc>
   120001188:	66100001 	daddiu	s0,s0,1
   12000118c:	67a60130 	daddiu	a2,sp,304
   120001190:	67a80148 	daddiu	a4,sp,328
   120001194:	64847488 	daddiu	a0,a0,29832
   120001198:	94c30006 	lhu	v1,6(a2)
   12000119c:	30630020 	andi	v1,v1,0x20
   1200011a0:	1060000a 	beqz	v1,1200011cc <__init_libc+0x1dc>
   1200011a4:	00000000 	nop
   1200011a8:	24052002 	li	a1,8194
   1200011ac:	6402138a 	daddiu	v0,zero,5002
   1200011b0:	0000000c 	syscall
   1200011b4:	10e00003 	beqz	a3,1200011c4 <__init_libc+0x1d4>
   1200011b8:	00000000 	nop
   1200011bc:	1c40ffe5 	bgtz	v0,120001154 <__init_libc+0x164>
   1200011c0:	00000000 	nop
   1200011c4:	0440ffe3 	bltz	v0,120001154 <__init_libc+0x164>
   1200011c8:	00000000 	nop
   1200011cc:	64c60008 	daddiu	a2,a2,8
   1200011d0:	1506fff1 	bne	a4,a2,120001198 <__init_libc+0x1a8>
   1200011d4:	00000000 	nop
   1200011d8:	24020001 	li	v0,1
   1200011dc:	a2220002 	sb	v0,2(s1)
   1200011e0:	dfbf0168 	ld	ra,360(sp)
   1200011e4:	dfbc0160 	ld	gp,352(sp)
   1200011e8:	dfb10158 	ld	s1,344(sp)
   1200011ec:	dfb00150 	ld	s0,336(sp)
   1200011f0:	03e00008 	jr	ra
   1200011f4:	67bd0170 	daddiu	sp,sp,368

00000001200011f8 <__libc_start_init>:
   1200011f8:	67bdffe0 	daddiu	sp,sp,-32
   1200011fc:	ffbc0010 	sd	gp,16(sp)
   120001200:	3c1c0002 	lui	gp,0x2
   120001204:	0399e02d 	daddu	gp,gp,t9
   120001208:	679cf318 	daddiu	gp,gp,-3304
   12000120c:	df998030 	ld	t9,-32720(gp)
   120001210:	ffb10008 	sd	s1,8(sp)
   120001214:	ffb00000 	sd	s0,0(sp)
   120001218:	df9180e0 	ld	s1,-32544(gp)
   12000121c:	ffbf0018 	sd	ra,24(sp)
   120001220:	0411fdd7 	bal	120000980 <_init>
   120001224:	df9080e0 	ld	s0,-32544(gp)
   120001228:	0211102b 	sltu	v0,s0,s1
   12000122c:	14400006 	bnez	v0,120001248 <__libc_start_init+0x50>
   120001230:	dfbf0018 	ld	ra,24(sp)
   120001234:	dfbc0010 	ld	gp,16(sp)
   120001238:	dfb10008 	ld	s1,8(sp)
   12000123c:	dfb00000 	ld	s0,0(sp)
   120001240:	03e00008 	jr	ra
   120001244:	67bd0020 	daddiu	sp,sp,32
   120001248:	de190000 	ld	t9,0(s0)
   12000124c:	0320f809 	jalr	t9
   120001250:	66100008 	daddiu	s0,s0,8
   120001254:	1000fff5 	b	12000122c <__libc_start_init+0x34>
   120001258:	0211102b 	sltu	v0,s0,s1

000000012000125c <libc_start_main_stage2>:
   12000125c:	67bdffc0 	daddiu	sp,sp,-64
   120001260:	ffbc0030 	sd	gp,48(sp)
   120001264:	3c1c0002 	lui	gp,0x2
   120001268:	0399e02d 	daddu	gp,gp,t9
   12000126c:	679cf2b4 	daddiu	gp,gp,-3404
   120001270:	64a20001 	daddiu	v0,a1,1
   120001274:	df9980e8 	ld	t9,-32536(gp)
   120001278:	000210f8 	dsll	v0,v0,0x3
   12000127c:	ffbf0038 	sd	ra,56(sp)
   120001280:	ffb20028 	sd	s2,40(sp)
   120001284:	ffb10020 	sd	s1,32(sp)
   120001288:	ffb00018 	sd	s0,24(sp)
   12000128c:	00c08825 	move	s1,a2
   120001290:	00c2302d 	daddu	a2,a2,v0
   120001294:	00809025 	move	s2,a0
   120001298:	00a08025 	move	s0,a1
   12000129c:	0411ffd6 	bal	1200011f8 <__libc_start_init>
   1200012a0:	ffa60000 	sd	a2,0(sp)
   1200012a4:	dfa60000 	ld	a2,0(sp)
   1200012a8:	02002025 	move	a0,s0
   1200012ac:	0240c825 	move	t9,s2
   1200012b0:	0320f809 	jalr	t9
   1200012b4:	02202825 	move	a1,s1
   1200012b8:	df9980f0 	ld	t9,-32528(gp)
   1200012bc:	0411fdd0 	bal	120000a00 <exit>
   1200012c0:	00402025 	move	a0,v0

00000001200012c4 <__libc_start_main>:
   1200012c4:	67bdffd0 	daddiu	sp,sp,-48
   1200012c8:	ffbc0020 	sd	gp,32(sp)
   1200012cc:	3c1c0002 	lui	gp,0x2
   1200012d0:	0399e02d 	daddu	gp,gp,t9
   1200012d4:	679cf24c 	daddiu	gp,gp,-3508
   1200012d8:	ffb20018 	sd	s2,24(sp)
   1200012dc:	ffb10010 	sd	s1,16(sp)
   1200012e0:	df9980f8 	ld	t9,-32520(gp)
   1200012e4:	00809025 	move	s2,a0
   1200012e8:	00a08825 	move	s1,a1
   1200012ec:	64a40001 	daddiu	a0,a1,1
   1200012f0:	dcc50000 	ld	a1,0(a2)
   1200012f4:	000420f8 	dsll	a0,a0,0x3
   1200012f8:	ffb00008 	sd	s0,8(sp)
   1200012fc:	ffbf0028 	sd	ra,40(sp)
   120001300:	00c4202d 	daddu	a0,a2,a0
   120001304:	0411ff3a 	bal	120000ff0 <__init_libc>
   120001308:	00c08025 	move	s0,a2
   12000130c:	df998058 	ld	t9,-32680(gp)
   120001310:	02003025 	move	a2,s0
   120001314:	02202825 	move	a1,s1
   120001318:	6739125c 	daddiu	t9,t9,4700
   12000131c:	02402025 	move	a0,s2
   120001320:	dfbf0028 	ld	ra,40(sp)
   120001324:	dfbc0020 	ld	gp,32(sp)
   120001328:	dfb20018 	ld	s2,24(sp)
   12000132c:	dfb10010 	ld	s1,16(sp)
   120001330:	dfb00008 	ld	s0,8(sp)
   120001334:	03200008 	jr	t9
   120001338:	67bd0030 	daddiu	sp,sp,48
   12000133c:	00000000 	nop

0000000120001340 <__funcs_on_exit>:
   120001340:	03e00008 	jr	ra
   120001344:	00000000 	nop

0000000120001348 <__libc_exit_fini>:
   120001348:	67bdffe0 	daddiu	sp,sp,-32
   12000134c:	ffbc0010 	sd	gp,16(sp)
   120001350:	3c1c0002 	lui	gp,0x2
   120001354:	0399e02d 	daddu	gp,gp,t9
   120001358:	679cf1c8 	daddiu	gp,gp,-3640
   12000135c:	ffb10008 	sd	s1,8(sp)
   120001360:	ffb00000 	sd	s0,0(sp)
   120001364:	df9180e0 	ld	s1,-32544(gp)
   120001368:	df9080e0 	ld	s0,-32544(gp)
   12000136c:	ffbf0018 	sd	ra,24(sp)
   120001370:	0230102b 	sltu	v0,s1,s0
   120001374:	14400009 	bnez	v0,12000139c <__libc_exit_fini+0x54>
   120001378:	df998028 	ld	t9,-32728(gp)
   12000137c:	04111828 	bal	120007420 <_fini>
   120001380:	00000000 	nop
   120001384:	dfbf0018 	ld	ra,24(sp)
   120001388:	dfbc0010 	ld	gp,16(sp)
   12000138c:	dfb10008 	ld	s1,8(sp)
   120001390:	dfb00000 	ld	s0,0(sp)
   120001394:	03e00008 	jr	ra
   120001398:	67bd0020 	daddiu	sp,sp,32
   12000139c:	de19fff8 	ld	t9,-8(s0)
   1200013a0:	0320f809 	jalr	t9
   1200013a4:	6610fff8 	daddiu	s0,s0,-8
   1200013a8:	1000fff2 	b	120001374 <__libc_exit_fini+0x2c>
   1200013ac:	0230102b 	sltu	v0,s1,s0

00000001200013b0 <printf>:
   1200013b0:	67bdffa0 	daddiu	sp,sp,-96
   1200013b4:	ffbc0010 	sd	gp,16(sp)
   1200013b8:	3c1c0002 	lui	gp,0x2
   1200013bc:	0399e02d 	daddu	gp,gp,t9
   1200013c0:	679cf160 	daddiu	gp,gp,-3744
   1200013c4:	df998120 	ld	t9,-32480(gp)
   1200013c8:	ffa50028 	sd	a1,40(sp)
   1200013cc:	00802825 	move	a1,a0
   1200013d0:	df848128 	ld	a0,-32472(gp)
   1200013d4:	ffa60030 	sd	a2,48(sp)
   1200013d8:	67a60028 	daddiu	a2,sp,40
   1200013dc:	ffbf0018 	sd	ra,24(sp)
   1200013e0:	ffa70038 	sd	a3,56(sp)
   1200013e4:	ffa80040 	sd	a4,64(sp)
   1200013e8:	ffa90048 	sd	a5,72(sp)
   1200013ec:	ffaa0050 	sd	a6,80(sp)
   1200013f0:	ffab0058 	sd	a7,88(sp)
   1200013f4:	04110803 	bal	120003404 <vfprintf>
   1200013f8:	ffa60000 	sd	a2,0(sp)
   1200013fc:	dfbf0018 	ld	ra,24(sp)
   120001400:	dfbc0010 	ld	gp,16(sp)
   120001404:	03e00008 	jr	ra
   120001408:	67bd0060 	daddiu	sp,sp,96
   12000140c:	00000000 	nop

0000000120001410 <pop_arg>:
   120001410:	24a5fff7 	addiu	a1,a1,-9
   120001414:	2ca20012 	sltiu	v0,a1,18
   120001418:	10400045 	beqz	v0,120001530 <pop_arg+0x120>
   12000141c:	00000000 	nop
   120001420:	67bdffe0 	daddiu	sp,sp,-32
   120001424:	ffbc0010 	sd	gp,16(sp)
   120001428:	3c1c0002 	lui	gp,0x2
   12000142c:	0399e02d 	daddu	gp,gp,t9
   120001430:	679cf100 	daddiu	gp,gp,-3840
   120001434:	df828058 	ld	v0,-32680(gp)
   120001438:	0005283c 	dsll32	a1,a1,0x0
   12000143c:	0005283e 	dsrl32	a1,a1,0x0
   120001440:	64427498 	daddiu	v0,v0,29848
   120001444:	000528f8 	dsll	a1,a1,0x3
   120001448:	0045282d 	daddu	a1,v0,a1
   12000144c:	dca30000 	ld	v1,0(a1)
   120001450:	ffb00008 	sd	s0,8(sp)
   120001454:	dcc20000 	ld	v0,0(a2)
   120001458:	007c182d 	daddu	v1,v1,gp
   12000145c:	ffbf0018 	sd	ra,24(sp)
   120001460:	00600008 	jr	v1
   120001464:	00808025 	move	s0,a0
   120001468:	64430008 	daddiu	v1,v0,8
   12000146c:	8c420000 	lw	v0,0(v0)
   120001470:	fcc30000 	sd	v1,0(a2)
   120001474:	fe020000 	sd	v0,0(s0)
   120001478:	dfbf0018 	ld	ra,24(sp)
   12000147c:	dfbc0010 	ld	gp,16(sp)
   120001480:	dfb00008 	ld	s0,8(sp)
   120001484:	03e00008 	jr	ra
   120001488:	67bd0020 	daddiu	sp,sp,32
   12000148c:	64430008 	daddiu	v1,v0,8
   120001490:	fcc30000 	sd	v1,0(a2)
   120001494:	1000fff7 	b	120001474 <pop_arg+0x64>
   120001498:	9c420000 	lwu	v0,0(v0)
   12000149c:	64430008 	daddiu	v1,v0,8
   1200014a0:	fcc30000 	sd	v1,0(a2)
   1200014a4:	1000fff3 	b	120001474 <pop_arg+0x64>
   1200014a8:	84420000 	lh	v0,0(v0)
   1200014ac:	64430008 	daddiu	v1,v0,8
   1200014b0:	fcc30000 	sd	v1,0(a2)
   1200014b4:	1000ffef 	b	120001474 <pop_arg+0x64>
   1200014b8:	94420000 	lhu	v0,0(v0)
   1200014bc:	64430008 	daddiu	v1,v0,8
   1200014c0:	fcc30000 	sd	v1,0(a2)
   1200014c4:	1000ffeb 	b	120001474 <pop_arg+0x64>
   1200014c8:	80420000 	lb	v0,0(v0)
   1200014cc:	64430008 	daddiu	v1,v0,8
   1200014d0:	fcc30000 	sd	v1,0(a2)
   1200014d4:	1000ffe7 	b	120001474 <pop_arg+0x64>
   1200014d8:	90420000 	lbu	v0,0(v0)
   1200014dc:	64430008 	daddiu	v1,v0,8
   1200014e0:	fcc30000 	sd	v1,0(a2)
   1200014e4:	1000ffe3 	b	120001474 <pop_arg+0x64>
   1200014e8:	dc420000 	ld	v0,0(v0)
   1200014ec:	df998130 	ld	t9,-32464(gp)
   1200014f0:	dc440000 	ld	a0,0(v0)
   1200014f4:	64430008 	daddiu	v1,v0,8
   1200014f8:	0411170d 	bal	120007130 <__extenddftf2>
   1200014fc:	fcc30000 	sd	v1,0(a2)
   120001500:	00801825 	move	v1,a0
   120001504:	fe020000 	sd	v0,0(s0)
   120001508:	1000ffdb 	b	120001478 <pop_arg+0x68>
   12000150c:	fe030008 	sd	v1,8(s0)
   120001510:	2403fff0 	li	v1,-16
   120001514:	6442000f 	daddiu	v0,v0,15
   120001518:	00431024 	and	v0,v0,v1
   12000151c:	64430010 	daddiu	v1,v0,16
   120001520:	fcc30000 	sd	v1,0(a2)
   120001524:	dc430008 	ld	v1,8(v0)
   120001528:	1000fff6 	b	120001504 <pop_arg+0xf4>
   12000152c:	dc420000 	ld	v0,0(v0)
   120001530:	03e00008 	jr	ra
   120001534:	00000000 	nop

0000000120001538 <fmt_u>:
   120001538:	00a01025 	move	v0,a1
   12000153c:	2405000a 	li	a1,10
   120001540:	14800003 	bnez	a0,120001550 <fmt_u+0x18>
   120001544:	00000000 	nop
   120001548:	03e00008 	jr	ra
   12000154c:	00000000 	nop
   120001550:	0085001f 	ddivu	zero,a0,a1
   120001554:	00a001f4 	teq	a1,zero,0x7
   120001558:	6442ffff 	daddiu	v0,v0,-1
   12000155c:	00001810 	mfhi	v1
   120001560:	24630030 	addiu	v1,v1,48
   120001564:	00002012 	mflo	a0
   120001568:	1000fff5 	b	120001540 <fmt_u+0x8>
   12000156c:	a0430000 	sb	v1,0(v0)

0000000120001570 <getint>:
   120001570:	3c060ccc 	lui	a2,0xccc
   120001574:	3c077fff 	lui	a3,0x7fff
   120001578:	00001025 	move	v0,zero
   12000157c:	34c6cccd 	ori	a2,a2,0xcccd
   120001580:	2409fff6 	li	a5,-10
   120001584:	34e7ffff 	ori	a3,a3,0xffff
   120001588:	dc850000 	ld	a1,0(a0)
   12000158c:	80a30000 	lb	v1,0(a1)
   120001590:	2463ffd0 	addiu	v1,v1,-48
   120001594:	2c68000a 	sltiu	a4,v1,10
   120001598:	15000003 	bnez	a4,1200015a8 <getint+0x38>
   12000159c:	0046402b 	sltu	a4,v0,a2
   1200015a0:	03e00008 	jr	ra
   1200015a4:	00000000 	nop
   1200015a8:	1100000d 	beqz	a4,1200015e0 <getint+0x70>
   1200015ac:	01220018 	mult	a5,v0
   1200015b0:	00605025 	move	a6,v1
   1200015b4:	00004012 	mflo	a4
   1200015b8:	01074021 	addu	a4,a4,a3
   1200015bc:	0103182a 	slt	v1,a4,v1
   1200015c0:	14600007 	bnez	v1,1200015e0 <getint+0x70>
   1200015c4:	00021880 	sll	v1,v0,0x2
   1200015c8:	00621021 	addu	v0,v1,v0
   1200015cc:	00021040 	sll	v0,v0,0x1
   1200015d0:	01421021 	addu	v0,a6,v0
   1200015d4:	64a50001 	daddiu	a1,a1,1
   1200015d8:	1000ffeb 	b	120001588 <getint+0x18>
   1200015dc:	fc850000 	sd	a1,0(a0)
   1200015e0:	1000fffc 	b	1200015d4 <getint+0x64>
   1200015e4:	2402ffff 	li	v0,-1

00000001200015e8 <out>:
   1200015e8:	8c830000 	lw	v1,0(a0)
   1200015ec:	30630020 	andi	v1,v1,0x20
   1200015f0:	14600009 	bnez	v1,120001618 <out+0x30>
   1200015f4:	00801025 	move	v0,a0
   1200015f8:	3c070002 	lui	a3,0x2
   1200015fc:	00f9382d 	daddu	a3,a3,t9
   120001600:	64e7ef28 	daddiu	a3,a3,-4312
   120001604:	dcf98138 	ld	t9,-32456(a3)
   120001608:	00a02025 	move	a0,a1
   12000160c:	00c02825 	move	a1,a2
   120001610:	10000adf 	b	120004190 <__fwritex>
   120001614:	00403025 	move	a2,v0
   120001618:	03e00008 	jr	ra
   12000161c:	00000000 	nop

0000000120001620 <pad>:
   120001620:	3c020001 	lui	v0,0x1
   120001624:	24422000 	addiu	v0,v0,8192
   120001628:	00481024 	and	v0,v0,a4
   12000162c:	14400030 	bnez	v0,1200016f0 <pad+0xd0>
   120001630:	00000000 	nop
   120001634:	00e6102a 	slt	v0,a3,a2
   120001638:	1040002d 	beqz	v0,1200016f0 <pad+0xd0>
   12000163c:	00000000 	nop
   120001640:	67bdfed0 	daddiu	sp,sp,-304
   120001644:	ffbc0120 	sd	gp,288(sp)
   120001648:	ffb00100 	sd	s0,256(sp)
   12000164c:	3c1c0002 	lui	gp,0x2
   120001650:	00c78023 	subu	s0,a2,a3
   120001654:	0399e02d 	daddu	gp,gp,t9
   120001658:	2a020101 	slti	v0,s0,257
   12000165c:	ffb20110 	sd	s2,272(sp)
   120001660:	ffbf0128 	sd	ra,296(sp)
   120001664:	ffb30118 	sd	s3,280(sp)
   120001668:	ffb10108 	sd	s1,264(sp)
   12000166c:	679ceef0 	daddiu	gp,gp,-4368
   120001670:	00809025 	move	s2,a0
   120001674:	14400002 	bnez	v0,120001680 <pad+0x60>
   120001678:	02003025 	move	a2,s0
   12000167c:	24060100 	li	a2,256
   120001680:	df918058 	ld	s1,-32680(gp)
   120001684:	df998098 	ld	t9,-32616(gp)
   120001688:	03a02025 	move	a0,sp
   12000168c:	02009825 	move	s3,s0
   120001690:	041107d3 	bal	1200035e0 <memset>
   120001694:	663115e8 	daddiu	s1,s1,5608
   120001698:	2a620100 	slti	v0,s3,256
   12000169c:	1040000e 	beqz	v0,1200016d8 <pad+0xb8>
   1200016a0:	24060100 	li	a2,256
   1200016a4:	320600ff 	andi	a2,s0,0xff
   1200016a8:	03a02825 	move	a1,sp
   1200016ac:	0220c825 	move	t9,s1
   1200016b0:	0411ffcd 	bal	1200015e8 <out>
   1200016b4:	02402025 	move	a0,s2
   1200016b8:	dfbf0128 	ld	ra,296(sp)
   1200016bc:	dfbc0120 	ld	gp,288(sp)
   1200016c0:	dfb30118 	ld	s3,280(sp)
   1200016c4:	dfb20110 	ld	s2,272(sp)
   1200016c8:	dfb10108 	ld	s1,264(sp)
   1200016cc:	dfb00100 	ld	s0,256(sp)
   1200016d0:	03e00008 	jr	ra
   1200016d4:	67bd0130 	daddiu	sp,sp,304
   1200016d8:	03a02825 	move	a1,sp
   1200016dc:	0220c825 	move	t9,s1
   1200016e0:	0411ffc1 	bal	1200015e8 <out>
   1200016e4:	02402025 	move	a0,s2
   1200016e8:	1000ffeb 	b	120001698 <pad+0x78>
   1200016ec:	2673ff00 	addiu	s3,s3,-256
   1200016f0:	03e00008 	jr	ra
   1200016f4:	00000000 	nop

00000001200016f8 <fmt_fp>:
   1200016f8:	67bde230 	daddiu	sp,sp,-7632
   1200016fc:	ffbc1db8 	sd	gp,7608(sp)
   120001700:	3c1c0002 	lui	gp,0x2
   120001704:	0399e02d 	daddu	gp,gp,t9
   120001708:	679cee18 	daddiu	gp,gp,-4584
   12000170c:	df998140 	ld	t9,-32448(gp)
   120001710:	ffbe1dc0 	sd	s8,7616(sp)
   120001714:	ffb71db0 	sd	s7,7600(sp)
   120001718:	ffb61da8 	sd	s6,7592(sp)
   12000171c:	ffb51da0 	sd	s5,7584(sp)
   120001720:	ffb41d98 	sd	s4,7576(sp)
   120001724:	ffb11d80 	sd	s1,7552(sp)
   120001728:	ffb01d78 	sd	s0,7544(sp)
   12000172c:	ffbf1dc8 	sd	ra,7624(sp)
   120001730:	ffb31d90 	sd	s3,7568(sp)
   120001734:	ffb21d88 	sd	s2,7560(sp)
   120001738:	00808825 	move	s1,a0
   12000173c:	00e02825 	move	a1,a3
   120001740:	00c02025 	move	a0,a2
   120001744:	00c0f025 	move	s8,a2
   120001748:	00e0b825 	move	s7,a3
   12000174c:	0100a825 	move	s5,a4
   120001750:	01208025 	move	s0,a5
   120001754:	0140b025 	move	s6,a6
   120001758:	0160a025 	move	s4,a7
   12000175c:	0411095c 	bal	120003cd0 <__signbitl>
   120001760:	afa01cfc 	sw	zero,7420(sp)
   120001764:	10400046 	beqz	v0,120001880 <fmt_fp+0x188>
   120001768:	32c40800 	andi	a0,s6,0x800
   12000176c:	df938058 	ld	s3,-32680(gp)
   120001770:	2402ffff 	li	v0,-1
   120001774:	000217fc 	dsll32	v0,v0,0x1f
   120001778:	02e2b826 	xor	s7,s7,v0
   12000177c:	24120001 	li	s2,1
   120001780:	66627528 	daddiu	v0,s3,29992
   120001784:	df998148 	ld	t9,-32440(gp)
   120001788:	03c02025 	move	a0,s8
   12000178c:	02e02825 	move	a1,s7
   120001790:	0411093b 	bal	120003c80 <__fpclassifyl>
   120001794:	ffa21d08 	sd	v0,7432(sp)
   120001798:	28420002 	slti	v0,v0,2
   12000179c:	1040004c 	beqz	v0,1200018d0 <fmt_fp+0x1d8>
   1200017a0:	df998150 	ld	t9,-32432(gp)
   1200017a4:	32940020 	andi	s4,s4,0x20
   1200017a8:	16800044 	bnez	s4,1200018bc <fmt_fp+0x1c4>
   1200017ac:	02809825 	move	s3,s4
   1200017b0:	df908058 	ld	s0,-32680(gp)
   1200017b4:	66107548 	daddiu	s0,s0,30024
   1200017b8:	df998158 	ld	t9,-32424(gp)
   1200017bc:	03c02025 	move	a0,s8
   1200017c0:	03c03025 	move	a2,s8
   1200017c4:	02e03825 	move	a3,s7
   1200017c8:	041110e9 	bal	120005b70 <__eqtf2>
   1200017cc:	02e02825 	move	a1,s7
   1200017d0:	10400006 	beqz	v0,1200017ec <fmt_fp+0xf4>
   1200017d4:	df9e8058 	ld	s8,-32680(gp)
   1200017d8:	1660003b 	bnez	s3,1200018c8 <fmt_fp+0x1d0>
   1200017dc:	df908058 	ld	s0,-32680(gp)
   1200017e0:	df908058 	ld	s0,-32680(gp)
   1200017e4:	66107558 	daddiu	s0,s0,30040
   1200017e8:	df9e8058 	ld	s8,-32680(gp)
   1200017ec:	3c08fffe 	lui	a4,0xfffe
   1200017f0:	26570003 	addiu	s7,s2,3
   1200017f4:	67de1620 	daddiu	s8,s8,5664
   1200017f8:	3508ffff 	ori	a4,a4,0xffff
   1200017fc:	02e03825 	move	a3,s7
   120001800:	02c84024 	and	a4,s6,a4
   120001804:	02a03025 	move	a2,s5
   120001808:	24050020 	li	a1,32
   12000180c:	03c0c825 	move	t9,s8
   120001810:	0411ff83 	bal	120001620 <pad>
   120001814:	02202025 	move	a0,s1
   120001818:	26540003 	addiu	s4,s2,3
   12000181c:	02403025 	move	a2,s2
   120001820:	df928058 	ld	s2,-32680(gp)
   120001824:	dfa51d08 	ld	a1,7432(sp)
   120001828:	665215e8 	daddiu	s2,s2,5608
   12000182c:	0240c825 	move	t9,s2
   120001830:	0411ff6d 	bal	1200015e8 <out>
   120001834:	02202025 	move	a0,s1
   120001838:	24060003 	li	a2,3
   12000183c:	02002825 	move	a1,s0
   120001840:	0240c825 	move	t9,s2
   120001844:	0411ff68 	bal	1200015e8 <out>
   120001848:	02202025 	move	a0,s1
   12000184c:	3ac82000 	xori	a4,s6,0x2000
   120001850:	02803825 	move	a3,s4
   120001854:	02a03025 	move	a2,s5
   120001858:	24050020 	li	a1,32
   12000185c:	03c0c825 	move	t9,s8
   120001860:	0411ff6f 	bal	120001620 <pad>
   120001864:	02202025 	move	a0,s1
   120001868:	02e01025 	move	v0,s7
   12000186c:	02f5b82a 	slt	s7,s7,s5
   120001870:	12e000d5 	beqz	s7,120001bc8 <fmt_fp+0x4d0>
   120001874:	dfbf1dc8 	ld	ra,7624(sp)
   120001878:	100000d3 	b	120001bc8 <fmt_fp+0x4d0>
   12000187c:	02a01025 	move	v0,s5
   120001880:	14800007 	bnez	a0,1200018a0 <fmt_fp+0x1a8>
   120001884:	00409025 	move	s2,v0
   120001888:	32c20001 	andi	v0,s6,0x1
   12000188c:	14400008 	bnez	v0,1200018b0 <fmt_fp+0x1b8>
   120001890:	df938058 	ld	s3,-32680(gp)
   120001894:	df938058 	ld	s3,-32680(gp)
   120001898:	1000ffba 	b	120001784 <fmt_fp+0x8c>
   12000189c:	66627529 	daddiu	v0,s3,29993
   1200018a0:	df938058 	ld	s3,-32680(gp)
   1200018a4:	24120001 	li	s2,1
   1200018a8:	1000ffb6 	b	120001784 <fmt_fp+0x8c>
   1200018ac:	6662752b 	daddiu	v0,s3,29995
   1200018b0:	24120001 	li	s2,1
   1200018b4:	1000ffb3 	b	120001784 <fmt_fp+0x8c>
   1200018b8:	6662752e 	daddiu	v0,s3,29998
   1200018bc:	df908058 	ld	s0,-32680(gp)
   1200018c0:	1000ffbd 	b	1200017b8 <fmt_fp+0xc0>
   1200018c4:	66107540 	daddiu	s0,s0,30016
   1200018c8:	1000ffc7 	b	1200017e8 <fmt_fp+0xf0>
   1200018cc:	66107550 	daddiu	s0,s0,30032
   1200018d0:	67a21cfc 	daddiu	v0,sp,7420
   1200018d4:	00403025 	move	a2,v0
   1200018d8:	03c02025 	move	a0,s8
   1200018dc:	02e02825 	move	a1,s7
   1200018e0:	041108ff 	bal	120003ce0 <frexpl>
   1200018e4:	ffa21d10 	sd	v0,7440(sp)
   1200018e8:	df998160 	ld	t9,-32416(gp)
   1200018ec:	00801825 	move	v1,a0
   1200018f0:	00803825 	move	a3,a0
   1200018f4:	00602825 	move	a1,v1
   1200018f8:	00403025 	move	a2,v0
   1200018fc:	04110e20 	bal	120005180 <__addtf3>
   120001900:	00402025 	move	a0,v0
   120001904:	df998158 	ld	t9,-32424(gp)
   120001908:	00804025 	move	a4,a0
   12000190c:	0080f025 	move	s8,a0
   120001910:	ffa41d00 	sd	a0,7424(sp)
   120001914:	01002825 	move	a1,a4
   120001918:	00003025 	move	a2,zero
   12000191c:	00003825 	move	a3,zero
   120001920:	00402025 	move	a0,v0
   120001924:	04111092 	bal	120005b70 <__eqtf2>
   120001928:	00409825 	move	s3,v0
   12000192c:	10400004 	beqz	v0,120001940 <fmt_fp+0x248>
   120001930:	03c04025 	move	a4,s8
   120001934:	8fa21cfc 	lw	v0,7420(sp)
   120001938:	2442ffff 	addiu	v0,v0,-1
   12000193c:	afa21cfc 	sw	v0,7420(sp)
   120001940:	36820020 	ori	v0,s4,0x20
   120001944:	00401825 	move	v1,v0
   120001948:	ffa31d18 	sd	v1,7448(sp)
   12000194c:	24030061 	li	v1,97
   120001950:	14430113 	bne	v0,v1,120001da0 <fmt_fp+0x6a8>
   120001954:	32820020 	andi	v0,s4,0x20
   120001958:	10400004 	beqz	v0,12000196c <fmt_fp+0x274>
   12000195c:	afa21d40 	sw	v0,7488(sp)
   120001960:	dfa21d08 	ld	v0,7432(sp)
   120001964:	64420009 	daddiu	v0,v0,9
   120001968:	ffa21d08 	sd	v0,7432(sp)
   12000196c:	02001025 	move	v0,s0
   120001970:	ffa21d30 	sd	v0,7472(sp)
   120001974:	2e02001b 	sltiu	v0,s0,27
   120001978:	26570002 	addiu	s7,s2,2
   12000197c:	10400025 	beqz	v0,120001a14 <fmt_fp+0x31c>
   120001980:	df928058 	ld	s2,-32680(gp)
   120001984:	de437960 	ld	v1,31072(s2)
   120001988:	de5e7968 	ld	s8,31080(s2)
   12000198c:	2409001b 	li	a5,27
   120001990:	01304823 	subu	a5,a5,s0
   120001994:	240affff 	li	a6,-1
   120001998:	00605825 	move	a7,v1
   12000199c:	03c06025 	move	t0,s8
   1200019a0:	2529ffff 	addiu	a5,a5,-1
   1200019a4:	152a0094 	bne	a5,a6,120001bf8 <fmt_fp+0x500>
   1200019a8:	df998168 	ld	t9,-32408(gp)
   1200019ac:	dfa21d08 	ld	v0,7432(sp)
   1200019b0:	80440000 	lb	a0,0(v0)
   1200019b4:	2402002d 	li	v0,45
   1200019b8:	148200a0 	bne	a0,v0,120001c3c <fmt_fp+0x544>
   1200019bc:	df998160 	ld	t9,-32416(gp)
   1200019c0:	2409ffff 	li	a5,-1
   1200019c4:	00094ffc 	dsll32	a5,a5,0x1f
   1200019c8:	df998170 	ld	t9,-32400(gp)
   1200019cc:	01091026 	xor	v0,a4,a5
   1200019d0:	00603025 	move	a2,v1
   1200019d4:	03c03825 	move	a3,s8
   1200019d8:	ffa31d00 	sd	v1,7424(sp)
   1200019dc:	02602025 	move	a0,s3
   1200019e0:	0411128f 	bal	120006420 <__subtf3>
   1200019e4:	00402825 	move	a1,v0
   1200019e8:	dfa31d00 	ld	v1,7424(sp)
   1200019ec:	df998160 	ld	t9,-32416(gp)
   1200019f0:	00803825 	move	a3,a0
   1200019f4:	03c02825 	move	a1,s8
   1200019f8:	00403025 	move	a2,v0
   1200019fc:	04110de0 	bal	120005180 <__addtf3>
   120001a00:	00602025 	move	a0,v1
   120001a04:	00409825 	move	s3,v0
   120001a08:	2402ffff 	li	v0,-1
   120001a0c:	00024ffc 	dsll32	a5,v0,0x1f
   120001a10:	0124f026 	xor	s8,a5,a0
   120001a14:	8fa21cfc 	lw	v0,7420(sp)
   120001a18:	df998058 	ld	t9,-32680(gp)
   120001a1c:	dfa51d10 	ld	a1,7440(sp)
   120001a20:	000227c3 	sra	a0,v0,0x1f
   120001a24:	00821026 	xor	v0,a0,v0
   120001a28:	67391538 	daddiu	t9,t9,5432
   120001a2c:	0411fec2 	bal	120001538 <fmt_u>
   120001a30:	00442023 	subu	a0,v0,a0
   120001a34:	dfa31d10 	ld	v1,7440(sp)
   120001a38:	14430005 	bne	v0,v1,120001a50 <fmt_fp+0x358>
   120001a3c:	8fa41cfc 	lw	a0,7420(sp)
   120001a40:	24020030 	li	v0,48
   120001a44:	a3a21cfb 	sb	v0,7419(sp)
   120001a48:	67a21cfb 	daddiu	v0,sp,7419
   120001a4c:	8fa41cfc 	lw	a0,7420(sp)
   120001a50:	04800002 	bltz	a0,120001a5c <fmt_fp+0x364>
   120001a54:	2403002d 	li	v1,45
   120001a58:	2403002b 	li	v1,43
   120001a5c:	2694000f 	addiu	s4,s4,15
   120001a60:	a043ffff 	sb	v1,-1(v0)
   120001a64:	a054fffe 	sb	s4,-2(v0)
   120001a68:	6443fffe 	daddiu	v1,v0,-2
   120001a6c:	df828058 	ld	v0,-32680(gp)
   120001a70:	ffa31d18 	sd	v1,7448(sp)
   120001a74:	de437968 	ld	v1,31080(s2)
   120001a78:	64427780 	daddiu	v0,v0,30592
   120001a7c:	ffa21d28 	sd	v0,7464(sp)
   120001a80:	de427960 	ld	v0,31072(s2)
   120001a84:	67b41cc8 	daddiu	s4,sp,7368
   120001a88:	ffb41d00 	sd	s4,7424(sp)
   120001a8c:	ffa21d50 	sd	v0,7504(sp)
   120001a90:	32c20008 	andi	v0,s6,0x8
   120001a94:	ffa31d58 	sd	v1,7512(sp)
   120001a98:	afa21d48 	sw	v0,7496(sp)
   120001a9c:	df998178 	ld	t9,-32392(gp)
   120001aa0:	03c02825 	move	a1,s8
   120001aa4:	02602025 	move	a0,s3
   120001aa8:	ffb31d68 	sd	s3,7528(sp)
   120001aac:	041114f8 	bal	120006e90 <__fixtfsi>
   120001ab0:	ffbe1d60 	sd	s8,7520(sp)
   120001ab4:	afa21d20 	sw	v0,7456(sp)
   120001ab8:	dfa31d28 	ld	v1,7464(sp)
   120001abc:	8fa21d20 	lw	v0,7456(sp)
   120001ac0:	8fa41d20 	lw	a0,7456(sp)
   120001ac4:	df998180 	ld	t9,-32384(gp)
   120001ac8:	0043102d 	daddu	v0,v0,v1
   120001acc:	90420000 	lbu	v0,0(v0)
   120001ad0:	8fa31d40 	lw	v1,7488(sp)
   120001ad4:	66920001 	daddiu	s2,s4,1
   120001ad8:	00621025 	or	v0,v1,v0
   120001adc:	04111524 	bal	120006f70 <__floatsitf>
   120001ae0:	a2820000 	sb	v0,0(s4)
   120001ae4:	df998170 	ld	t9,-32400(gp)
   120001ae8:	00803825 	move	a3,a0
   120001aec:	03c02825 	move	a1,s8
   120001af0:	00403025 	move	a2,v0
   120001af4:	0411124a 	bal	120006420 <__subtf3>
   120001af8:	02602025 	move	a0,s3
   120001afc:	dfa61d50 	ld	a2,7504(sp)
   120001b00:	df998168 	ld	t9,-32408(gp)
   120001b04:	dfa71d58 	ld	a3,7512(sp)
   120001b08:	00804025 	move	a4,a0
   120001b0c:	01002825 	move	a1,a4
   120001b10:	04111043 	bal	120005c20 <__multf3>
   120001b14:	00402025 	move	a0,v0
   120001b18:	00804025 	move	a4,a0
   120001b1c:	00409825 	move	s3,v0
   120001b20:	00402025 	move	a0,v0
   120001b24:	dfa21d00 	ld	v0,7424(sp)
   120001b28:	24030001 	li	v1,1
   120001b2c:	0242102f 	dsubu	v0,s2,v0
   120001b30:	14430011 	bne	v0,v1,120001b78 <fmt_fp+0x480>
   120001b34:	0100f025 	move	s8,a4
   120001b38:	df998158 	ld	t9,-32424(gp)
   120001b3c:	ffa81d20 	sd	a4,7456(sp)
   120001b40:	01002825 	move	a1,a4
   120001b44:	00003025 	move	a2,zero
   120001b48:	04111009 	bal	120005b70 <__eqtf2>
   120001b4c:	00003825 	move	a3,zero
   120001b50:	14400006 	bnez	v0,120001b6c <fmt_fp+0x474>
   120001b54:	03c04025 	move	a4,s8
   120001b58:	1e000005 	bgtz	s0,120001b70 <fmt_fp+0x478>
   120001b5c:	2402002e 	li	v0,46
   120001b60:	8fa21d48 	lw	v0,7496(sp)
   120001b64:	1040000d 	beqz	v0,120001b9c <fmt_fp+0x4a4>
   120001b68:	dfa21d10 	ld	v0,7440(sp)
   120001b6c:	2402002e 	li	v0,46
   120001b70:	66920002 	daddiu	s2,s4,2
   120001b74:	a2820001 	sb	v0,1(s4)
   120001b78:	df998158 	ld	t9,-32424(gp)
   120001b7c:	00003025 	move	a2,zero
   120001b80:	00003825 	move	a3,zero
   120001b84:	02602025 	move	a0,s3
   120001b88:	04110ff9 	bal	120005b70 <__eqtf2>
   120001b8c:	01002825 	move	a1,a4
   120001b90:	1440ffc2 	bnez	v0,120001a9c <fmt_fp+0x3a4>
   120001b94:	0240a025 	move	s4,s2
   120001b98:	dfa21d10 	ld	v0,7440(sp)
   120001b9c:	dfa31d18 	ld	v1,7448(sp)
   120001ba0:	0043f02f 	dsubu	s8,v0,v1
   120001ba4:	3c027fff 	lui	v0,0x7fff
   120001ba8:	3442fffd 	ori	v0,v0,0xfffd
   120001bac:	005e102f 	dsubu	v0,v0,s8
   120001bb0:	0057102f 	dsubu	v0,v0,s7
   120001bb4:	0050102a 	slt	v0,v0,s0
   120001bb8:	10400031 	beqz	v0,120001c80 <fmt_fp+0x588>
   120001bbc:	dfa21d00 	ld	v0,7424(sp)
   120001bc0:	2402ffff 	li	v0,-1
   120001bc4:	dfbf1dc8 	ld	ra,7624(sp)
   120001bc8:	dfbe1dc0 	ld	s8,7616(sp)
   120001bcc:	dfbc1db8 	ld	gp,7608(sp)
   120001bd0:	dfb71db0 	ld	s7,7600(sp)
   120001bd4:	dfb61da8 	ld	s6,7592(sp)
   120001bd8:	dfb51da0 	ld	s5,7584(sp)
   120001bdc:	dfb41d98 	ld	s4,7576(sp)
   120001be0:	dfb31d90 	ld	s3,7568(sp)
   120001be4:	dfb21d88 	ld	s2,7560(sp)
   120001be8:	dfb11d80 	ld	s1,7552(sp)
   120001bec:	dfb01d78 	ld	s0,7544(sp)
   120001bf0:	03e00008 	jr	ra
   120001bf4:	67bd1dd0 	daddiu	sp,sp,7632
   120001bf8:	ffa81d28 	sd	a4,7464(sp)
   120001bfc:	ffa91d20 	sd	a5,7456(sp)
   120001c00:	01603025 	move	a2,a7
   120001c04:	ffab1d18 	sd	a7,7448(sp)
   120001c08:	01803825 	move	a3,t0
   120001c0c:	ffac1d00 	sd	t0,7424(sp)
   120001c10:	00602025 	move	a0,v1
   120001c14:	04111002 	bal	120005c20 <__multf3>
   120001c18:	03c02825 	move	a1,s8
   120001c1c:	00401825 	move	v1,v0
   120001c20:	dfa81d28 	ld	a4,7464(sp)
   120001c24:	dfa91d20 	ld	a5,7456(sp)
   120001c28:	dfab1d18 	ld	a7,7448(sp)
   120001c2c:	dfac1d00 	ld	t0,7424(sp)
   120001c30:	0080f025 	move	s8,a0
   120001c34:	1000ff5a 	b	1200019a0 <fmt_fp+0x2a8>
   120001c38:	240affff 	li	a6,-1
   120001c3c:	02603025 	move	a2,s3
   120001c40:	01003825 	move	a3,a4
   120001c44:	03c02825 	move	a1,s8
   120001c48:	00602025 	move	a0,v1
   120001c4c:	04110d4c 	bal	120005180 <__addtf3>
   120001c50:	ffa31d00 	sd	v1,7424(sp)
   120001c54:	dfa31d00 	ld	v1,7424(sp)
   120001c58:	df998170 	ld	t9,-32400(gp)
   120001c5c:	00804025 	move	a4,a0
   120001c60:	03c03825 	move	a3,s8
   120001c64:	00603025 	move	a2,v1
   120001c68:	00402025 	move	a0,v0
   120001c6c:	041111ec 	bal	120006420 <__subtf3>
   120001c70:	01002825 	move	a1,a4
   120001c74:	00409825 	move	s3,v0
   120001c78:	1000ff66 	b	120001a14 <fmt_fp+0x31c>
   120001c7c:	0080f025 	move	s8,a0
   120001c80:	12000044 	beqz	s0,120001d94 <fmt_fp+0x69c>
   120001c84:	0242902f 	dsubu	s2,s2,v0
   120001c88:	6646ffff 	daddiu	a2,s2,-1
   120001c8c:	0206802a 	slt	s0,s0,a2
   120001c90:	16000040 	bnez	s0,120001d94 <fmt_fp+0x69c>
   120001c94:	001e3000 	sll	a2,s8,0x0
   120001c98:	dfa21d30 	ld	v0,7472(sp)
   120001c9c:	24420002 	addiu	v0,v0,2
   120001ca0:	00461021 	addu	v0,v0,a2
   120001ca4:	df908058 	ld	s0,-32680(gp)
   120001ca8:	0057a021 	addu	s4,v0,s7
   120001cac:	df938058 	ld	s3,-32680(gp)
   120001cb0:	66101620 	daddiu	s0,s0,5664
   120001cb4:	00571821 	addu	v1,v0,s7
   120001cb8:	02c04025 	move	a4,s6
   120001cbc:	02803825 	move	a3,s4
   120001cc0:	02a03025 	move	a2,s5
   120001cc4:	24050020 	li	a1,32
   120001cc8:	02202025 	move	a0,s1
   120001ccc:	0200c825 	move	t9,s0
   120001cd0:	afa31d10 	sw	v1,7440(sp)
   120001cd4:	0411fe52 	bal	120001620 <pad>
   120001cd8:	ffa21d20 	sd	v0,7456(sp)
   120001cdc:	dfa51d08 	ld	a1,7432(sp)
   120001ce0:	667315e8 	daddiu	s3,s3,5608
   120001ce4:	02e03025 	move	a2,s7
   120001ce8:	0260c825 	move	t9,s3
   120001cec:	0411fe3e 	bal	1200015e8 <out>
   120001cf0:	02202025 	move	a0,s1
   120001cf4:	8fa71d10 	lw	a3,7440(sp)
   120001cf8:	3c080001 	lui	a4,0x1
   120001cfc:	01164026 	xor	a4,a4,s6
   120001d00:	02a03025 	move	a2,s5
   120001d04:	24050030 	li	a1,48
   120001d08:	0200c825 	move	t9,s0
   120001d0c:	0411fe44 	bal	120001620 <pad>
   120001d10:	02202025 	move	a0,s1
   120001d14:	dfa51d00 	ld	a1,7424(sp)
   120001d18:	02403025 	move	a2,s2
   120001d1c:	0260c825 	move	t9,s3
   120001d20:	0411fe31 	bal	1200015e8 <out>
   120001d24:	02202025 	move	a0,s1
   120001d28:	dfa21d20 	ld	v0,7456(sp)
   120001d2c:	00004025 	move	a4,zero
   120001d30:	00003825 	move	a3,zero
   120001d34:	005e302f 	dsubu	a2,v0,s8
   120001d38:	00d2302f 	dsubu	a2,a2,s2
   120001d3c:	00063000 	sll	a2,a2,0x0
   120001d40:	24050030 	li	a1,48
   120001d44:	0200c825 	move	t9,s0
   120001d48:	0411fe35 	bal	120001620 <pad>
   120001d4c:	02202025 	move	a0,s1
   120001d50:	dfa51d18 	ld	a1,7448(sp)
   120001d54:	03c03025 	move	a2,s8
   120001d58:	0260c825 	move	t9,s3
   120001d5c:	0411fe22 	bal	1200015e8 <out>
   120001d60:	02202025 	move	a0,s1
   120001d64:	8fa71d10 	lw	a3,7440(sp)
   120001d68:	3ac82000 	xori	a4,s6,0x2000
   120001d6c:	02a03025 	move	a2,s5
   120001d70:	24050020 	li	a1,32
   120001d74:	0200c825 	move	t9,s0
   120001d78:	0411fe29 	bal	120001620 <pad>
   120001d7c:	02202025 	move	a0,s1
   120001d80:	0295482a 	slt	a5,s4,s5
   120001d84:	1120ff8f 	beqz	a5,120001bc4 <fmt_fp+0x4cc>
   120001d88:	02801025 	move	v0,s4
   120001d8c:	1000ff8d 	b	120001bc4 <fmt_fp+0x4cc>
   120001d90:	02a01025 	move	v0,s5
   120001d94:	03d2102d 	daddu	v0,s8,s2
   120001d98:	1000ffc2 	b	120001ca4 <fmt_fp+0x5ac>
   120001d9c:	00021000 	sll	v0,v0,0x0
   120001da0:	06010002 	bgez	s0,120001dac <fmt_fp+0x6b4>
   120001da4:	df998158 	ld	t9,-32424(gp)
   120001da8:	24100006 	li	s0,6
   120001dac:	00003025 	move	a2,zero
   120001db0:	00003825 	move	a3,zero
   120001db4:	ffa81d00 	sd	a4,7424(sp)
   120001db8:	02602025 	move	a0,s3
   120001dbc:	04110f6c 	bal	120005b70 <__eqtf2>
   120001dc0:	01002825 	move	a1,a4
   120001dc4:	1040000f 	beqz	v0,120001e04 <fmt_fp+0x70c>
   120001dc8:	8fa81cfc 	lw	a4,7420(sp)
   120001dcc:	df828058 	ld	v0,-32680(gp)
   120001dd0:	dfa81d00 	ld	a4,7424(sp)
   120001dd4:	df998168 	ld	t9,-32408(gp)
   120001dd8:	dc4679c0 	ld	a2,31168(v0)
   120001ddc:	dc4779c8 	ld	a3,31176(v0)
   120001de0:	02602025 	move	a0,s3
   120001de4:	04110f8e 	bal	120005c20 <__multf3>
   120001de8:	01002825 	move	a1,a4
   120001dec:	00409825 	move	s3,v0
   120001df0:	8fa21cfc 	lw	v0,7420(sp)
   120001df4:	0080f025 	move	s8,a0
   120001df8:	2442ffe4 	addiu	v0,v0,-28
   120001dfc:	afa21cfc 	sw	v0,7420(sp)
   120001e00:	8fa81cfc 	lw	a4,7420(sp)
   120001e04:	67a21b00 	daddiu	v0,sp,6912
   120001e08:	05010002 	bgez	a4,120001e14 <fmt_fp+0x71c>
   120001e0c:	ffa21d00 	sd	v0,7424(sp)
   120001e10:	ffbd1d00 	sd	sp,7424(sp)
   120001e14:	df828058 	ld	v0,-32680(gp)
   120001e18:	dfb71d00 	ld	s7,7424(sp)
   120001e1c:	dc4379d8 	ld	v1,31192(v0)
   120001e20:	dc4279d0 	ld	v0,31184(v0)
   120001e24:	ffa31d38 	sd	v1,7480(sp)
   120001e28:	ffa21d30 	sd	v0,7472(sp)
   120001e2c:	df998188 	ld	t9,-32376(gp)
   120001e30:	ffa81d50 	sd	a4,7504(sp)
   120001e34:	03c02825 	move	a1,s8
   120001e38:	02602025 	move	a0,s3
   120001e3c:	ffb31d40 	sd	s3,7488(sp)
   120001e40:	0411142f 	bal	120006f00 <__fixunstfsi>
   120001e44:	ffbe1d28 	sd	s8,7464(sp)
   120001e48:	df998190 	ld	t9,-32368(gp)
   120001e4c:	aee20000 	sw	v0,0(s7)
   120001e50:	04111487 	bal	120007070 <__floatunsitf>
   120001e54:	00402025 	move	a0,v0
   120001e58:	df998170 	ld	t9,-32400(gp)
   120001e5c:	00803825 	move	a3,a0
   120001e60:	03c02825 	move	a1,s8
   120001e64:	00403025 	move	a2,v0
   120001e68:	0411116d 	bal	120006420 <__subtf3>
   120001e6c:	02602025 	move	a0,s3
   120001e70:	dfa61d30 	ld	a2,7472(sp)
   120001e74:	df998168 	ld	t9,-32408(gp)
   120001e78:	dfa71d38 	ld	a3,7480(sp)
   120001e7c:	00804825 	move	a5,a0
   120001e80:	01202825 	move	a1,a5
   120001e84:	04110f66 	bal	120005c20 <__multf3>
   120001e88:	00402025 	move	a0,v0
   120001e8c:	df998158 	ld	t9,-32424(gp)
   120001e90:	0080f025 	move	s8,a0
   120001e94:	00003025 	move	a2,zero
   120001e98:	00003825 	move	a3,zero
   120001e9c:	00402025 	move	a0,v0
   120001ea0:	03c02825 	move	a1,s8
   120001ea4:	04110f32 	bal	120005b70 <__eqtf2>
   120001ea8:	00409825 	move	s3,v0
   120001eac:	66f70004 	daddiu	s7,s7,4
   120001eb0:	1440ffde 	bnez	v0,120001e2c <fmt_fp+0x734>
   120001eb4:	dfa81d50 	ld	a4,7504(sp)
   120001eb8:	dfbe1d00 	ld	s8,7424(sp)
   120001ebc:	3c073b9a 	lui	a3,0x3b9a
   120001ec0:	34e7ca00 	ori	a3,a3,0xca00
   120001ec4:	1d000072 	bgtz	a4,120002090 <fmt_fp+0x998>
   120001ec8:	00000000 	nop
   120001ecc:	10400002 	beqz	v0,120001ed8 <fmt_fp+0x7e0>
   120001ed0:	2602002d 	addiu	v0,s0,45
   120001ed4:	afa81cfc 	sw	a4,7420(sp)
   120001ed8:	24040009 	li	a0,9
   120001edc:	0044001b 	divu	zero,v0,a0
   120001ee0:	008001f4 	teq	a0,zero,0x7
   120001ee4:	8fa51cfc 	lw	a1,7420(sp)
   120001ee8:	3c093b9a 	lui	a5,0x3b9a
   120001eec:	00001025 	move	v0,zero
   120001ef0:	240c0001 	li	t0,1
   120001ef4:	3529ca00 	ori	a5,a5,0xca00
   120001ef8:	240d0066 	li	t1,102
   120001efc:	00003012 	mflo	a2
   120001f00:	24c60001 	addiu	a2,a2,1
   120001f04:	0006303c 	dsll32	a2,a2,0x0
   120001f08:	0006303e 	dsrl32	a2,a2,0x0
   120001f0c:	000658b8 	dsll	a7,a2,0x2
   120001f10:	04a00086 	bltz	a1,12000212c <fmt_fp+0xa34>
   120001f14:	00000000 	nop
   120001f18:	10400002 	beqz	v0,120001f24 <fmt_fp+0x82c>
   120001f1c:	03d7102b 	sltu	v0,s8,s7
   120001f20:	afa51cfc 	sw	a1,7420(sp)
   120001f24:	1040000c 	beqz	v0,120001f58 <fmt_fp+0x860>
   120001f28:	00004025 	move	a4,zero
   120001f2c:	dfa21d00 	ld	v0,7424(sp)
   120001f30:	8fc50000 	lw	a1,0(s8)
   120001f34:	005e402f 	dsubu	a4,v0,s8
   120001f38:	000840bb 	dsra	a4,a4,0x2
   120001f3c:	00081000 	sll	v0,a4,0x0
   120001f40:	000240c0 	sll	a4,v0,0x3
   120001f44:	01024021 	addu	a4,a4,v0
   120001f48:	2402000a 	li	v0,10
   120001f4c:	00a2202b 	sltu	a0,a1,v0
   120001f50:	108000a2 	beqz	a0,1200021dc <fmt_fp+0xae4>
   120001f54:	00022080 	sll	a0,v0,0x2
   120001f58:	dfa21d18 	ld	v0,7448(sp)
   120001f5c:	dfa31d18 	ld	v1,7448(sp)
   120001f60:	24050067 	li	a1,103
   120001f64:	38420066 	xori	v0,v0,0x66
   120001f68:	0002102b 	sltu	v0,zero,v0
   120001f6c:	00480018 	mult	v0,a4
   120001f70:	00002025 	move	a0,zero
   120001f74:	00001012 	mflo	v0
   120001f78:	14650002 	bne	v1,a1,120001f84 <fmt_fp+0x88c>
   120001f7c:	02021023 	subu	v0,s0,v0
   120001f80:	0010202b 	sltu	a0,zero,s0
   120001f84:	00442023 	subu	a0,v0,a0
   120001f88:	dfa21d00 	ld	v0,7424(sp)
   120001f8c:	02e2102f 	dsubu	v0,s7,v0
   120001f90:	000210bb 	dsra	v0,v0,0x2
   120001f94:	6442ffff 	daddiu	v0,v0,-1
   120001f98:	000228f8 	dsll	a1,v0,0x3
   120001f9c:	00a2102d 	daddu	v0,a1,v0
   120001fa0:	0082102a 	slt	v0,a0,v0
   120001fa4:	104000c6 	beqz	v0,1200022c0 <fmt_fp+0xbc8>
   120001fa8:	3c020002 	lui	v0,0x2
   120001fac:	24424000 	addiu	v0,v0,16384
   120001fb0:	00441021 	addu	v0,v0,a0
   120001fb4:	24040009 	li	a0,9
   120001fb8:	0044001a 	div	zero,v0,a0
   120001fbc:	008001f4 	teq	a0,zero,0x7
   120001fc0:	3c04ffff 	lui	a0,0xffff
   120001fc4:	64840004 	daddiu	a0,a0,4
   120001fc8:	24060009 	li	a2,9
   120001fcc:	00001812 	mflo	v1
   120001fd0:	000348b8 	dsll	a5,v1,0x2
   120001fd4:	dfa31d00 	ld	v1,7424(sp)
   120001fd8:	0124482d 	daddu	a5,a5,a0
   120001fdc:	00001010 	mfhi	v0
   120001fe0:	0069482d 	daddu	a5,v1,a5
   120001fe4:	24420001 	addiu	v0,v0,1
   120001fe8:	2404000a 	li	a0,10
   120001fec:	1446007f 	bne	v0,a2,1200021ec <fmt_fp+0xaf4>
   120001ff0:	00042880 	sll	a1,a0,0x2
   120001ff4:	8d270000 	lw	a3,0(a5)
   120001ff8:	00e4001b 	divu	zero,a3,a0
   120001ffc:	008001f4 	teq	a0,zero,0x7
   120002000:	00005810 	mfhi	a7
   120002004:	00001012 	mflo	v0
   120002008:	15600004 	bnez	a7,12000201c <fmt_fp+0x924>
   12000200c:	00806025 	move	t0,a0
   120002010:	65250004 	daddiu	a1,a5,4
   120002014:	12e500a5 	beq	s7,a1,1200022ac <fmt_fp+0xbb4>
   120002018:	00000000 	nop
   12000201c:	30420001 	andi	v0,v0,0x1
   120002020:	1440000d 	bnez	v0,120002058 <fmt_fp+0x960>
   120002024:	df828058 	ld	v0,-32680(gp)
   120002028:	3c023b9a 	lui	v0,0x3b9a
   12000202c:	3442ca00 	ori	v0,v0,0xca00
   120002030:	14820072 	bne	a0,v0,1200021fc <fmt_fp+0xb04>
   120002034:	df828058 	ld	v0,-32680(gp)
   120002038:	03c9102b 	sltu	v0,s8,a5
   12000203c:	1040006f 	beqz	v0,1200021fc <fmt_fp+0xb04>
   120002040:	df828058 	ld	v0,-32680(gp)
   120002044:	8d22fffc 	lw	v0,-4(a5)
   120002048:	30420001 	andi	v0,v0,0x1
   12000204c:	1040006b 	beqz	v0,1200021fc <fmt_fp+0xb04>
   120002050:	df828058 	ld	v0,-32680(gp)
   120002054:	df828058 	ld	v0,-32680(gp)
   120002058:	24050001 	li	a1,1
   12000205c:	dc427988 	ld	v0,31112(v0)
   120002060:	0004207b 	dsra	a0,a0,0x1
   120002064:	0164302b 	sltu	a2,a7,a0
   120002068:	14c00067 	bnez	a2,120002208 <fmt_fp+0xb10>
   12000206c:	00000000 	nop
   120002070:	148b0005 	bne	a0,a7,120002088 <fmt_fp+0x990>
   120002074:	df848058 	ld	a0,-32680(gp)
   120002078:	65240004 	daddiu	a0,a5,4
   12000207c:	12e4012b 	beq	s7,a0,12000252c <fmt_fp+0xe34>
   120002080:	00000000 	nop
   120002084:	df848058 	ld	a0,-32680(gp)
   120002088:	10000061 	b	120002210 <fmt_fp+0xb18>
   12000208c:	dc847998 	ld	a0,31128(a0)
   120002090:	2902001e 	slti	v0,a4,30
   120002094:	14400002 	bnez	v0,1200020a0 <fmt_fp+0x9a8>
   120002098:	01002025 	move	a0,a4
   12000209c:	2404001d 	li	a0,29
   1200020a0:	00804825 	move	a5,a0
   1200020a4:	66e5fffc 	daddiu	a1,s7,-4
   1200020a8:	00001025 	move	v0,zero
   1200020ac:	00803025 	move	a2,a0
   1200020b0:	00be202b 	sltu	a0,a1,s8
   1200020b4:	1080000e 	beqz	a0,1200020f0 <fmt_fp+0x9f8>
   1200020b8:	00000000 	nop
   1200020bc:	10400003 	beqz	v0,1200020cc <fmt_fp+0x9d4>
   1200020c0:	00000000 	nop
   1200020c4:	afc2fffc 	sw	v0,-4(s8)
   1200020c8:	67defffc 	daddiu	s8,s8,-4
   1200020cc:	03d7102b 	sltu	v0,s8,s7
   1200020d0:	10400004 	beqz	v0,1200020e4 <fmt_fp+0x9ec>
   1200020d4:	00000000 	nop
   1200020d8:	8ee2fffc 	lw	v0,-4(s7)
   1200020dc:	10400011 	beqz	v0,120002124 <fmt_fp+0xa2c>
   1200020e0:	00000000 	nop
   1200020e4:	01094023 	subu	a4,a4,a5
   1200020e8:	1000ff76 	b	120001ec4 <fmt_fp+0x7cc>
   1200020ec:	24020001 	li	v0,1
   1200020f0:	9ca40000 	lwu	a0,0(a1)
   1200020f4:	0002103c 	dsll32	v0,v0,0x0
   1200020f8:	0002103e 	dsrl32	v0,v0,0x0
   1200020fc:	00c42014 	dsllv	a0,a0,a2
   120002100:	0082102d 	daddu	v0,a0,v0
   120002104:	0047001f 	ddivu	zero,v0,a3
   120002108:	00e001f4 	teq	a3,zero,0x7
   12000210c:	64a5fffc 	daddiu	a1,a1,-4
   120002110:	00002010 	mfhi	a0
   120002114:	aca40004 	sw	a0,4(a1)
   120002118:	00001012 	mflo	v0
   12000211c:	1000ffe4 	b	1200020b0 <fmt_fp+0x9b8>
   120002120:	00021000 	sll	v0,v0,0x0
   120002124:	1000ffe9 	b	1200020cc <fmt_fp+0x9d4>
   120002128:	66f7fffc 	daddiu	s7,s7,-4
   12000212c:	28a2fff7 	slti	v0,a1,-9
   120002130:	14400002 	bnez	v0,12000213c <fmt_fp+0xa44>
   120002134:	24040009 	li	a0,9
   120002138:	00052023 	negu	a0,a1
   12000213c:	008c7004 	sllv	t2,t0,a0
   120002140:	25ceffff 	addiu	t2,t2,-1
   120002144:	00897807 	srav	t3,a5,a0
   120002148:	03c03825 	move	a3,s8
   12000214c:	00001025 	move	v0,zero
   120002150:	0004c000 	sll	t8,a0,0x0
   120002154:	00f7402b 	sltu	a4,a3,s7
   120002158:	15000016 	bnez	a4,1200021b4 <fmt_fp+0xabc>
   12000215c:	00000000 	nop
   120002160:	8fc70000 	lw	a3,0(s8)
   120002164:	14e00002 	bnez	a3,120002170 <fmt_fp+0xa78>
   120002168:	00000000 	nop
   12000216c:	67de0004 	daddiu	s8,s8,4
   120002170:	10400003 	beqz	v0,120002180 <fmt_fp+0xa88>
   120002174:	00000000 	nop
   120002178:	aee20000 	sw	v0,0(s7)
   12000217c:	66f70004 	daddiu	s7,s7,4
   120002180:	dfa21d18 	ld	v0,7448(sp)
   120002184:	104d0002 	beq	v0,t1,120002190 <fmt_fp+0xa98>
   120002188:	dfa71d00 	ld	a3,7424(sp)
   12000218c:	03c03825 	move	a3,s8
   120002190:	02e7102f 	dsubu	v0,s7,a3
   120002194:	000210bb 	dsra	v0,v0,0x2
   120002198:	00c2102a 	slt	v0,a2,v0
   12000219c:	10400002 	beqz	v0,1200021a8 <fmt_fp+0xab0>
   1200021a0:	00000000 	nop
   1200021a4:	00ebb82d 	daddu	s7,a3,a7
   1200021a8:	00a42821 	addu	a1,a1,a0
   1200021ac:	1000ff58 	b	120001f10 <fmt_fp+0x818>
   1200021b0:	24020001 	li	v0,1
   1200021b4:	8ce80000 	lw	a4,0(a3)
   1200021b8:	64e70004 	daddiu	a3,a3,4
   1200021bc:	0308c806 	srlv	t9,a4,t8
   1200021c0:	010e4024 	and	a4,a4,t2
   1200021c4:	010f0018 	mult	a4,t3
   1200021c8:	03221021 	addu	v0,t9,v0
   1200021cc:	ace2fffc 	sw	v0,-4(a3)
   1200021d0:	00001012 	mflo	v0
   1200021d4:	1000ffe0 	b	120002158 <fmt_fp+0xa60>
   1200021d8:	00f7402b 	sltu	a4,a3,s7
   1200021dc:	00821021 	addu	v0,a0,v0
   1200021e0:	00021040 	sll	v0,v0,0x1
   1200021e4:	1000ff59 	b	120001f4c <fmt_fp+0x854>
   1200021e8:	25080001 	addiu	a4,a4,1
   1200021ec:	00a42021 	addu	a0,a1,a0
   1200021f0:	00042040 	sll	a0,a0,0x1
   1200021f4:	1000ff7d 	b	120001fec <fmt_fp+0x8f4>
   1200021f8:	24420001 	addiu	v0,v0,1
   1200021fc:	00002825 	move	a1,zero
   120002200:	1000ff97 	b	120002060 <fmt_fp+0x968>
   120002204:	dc427978 	ld	v0,31096(v0)
   120002208:	df848058 	ld	a0,-32680(gp)
   12000220c:	dc8479b8 	ld	a0,31160(a0)
   120002210:	1240000a 	beqz	s2,12000223c <fmt_fp+0xb44>
   120002214:	df998160 	ld	t9,-32416(gp)
   120002218:	dfa31d08 	ld	v1,7432(sp)
   12000221c:	2406002d 	li	a2,45
   120002220:	806d0000 	lb	t1,0(v1)
   120002224:	15a60005 	bne	t1,a2,12000223c <fmt_fp+0xb44>
   120002228:	2406ffff 	li	a2,-1
   12000222c:	000637fc 	dsll32	a2,a2,0x1f
   120002230:	00461026 	xor	v0,v0,a2
   120002234:	00862026 	xor	a0,a0,a2
   120002238:	df998160 	ld	t9,-32416(gp)
   12000223c:	00eb5823 	subu	a7,a3,a7
   120002240:	00007025 	move	t2,zero
   120002244:	ffa91d48 	sd	a5,7496(sp)
   120002248:	ffac1d50 	sd	t0,7504(sp)
   12000224c:	ffab1d40 	sd	a7,7488(sp)
   120002250:	01c03025 	move	a2,t2
   120002254:	00803825 	move	a3,a0
   120002258:	ffa81d60 	sd	a4,7520(sp)
   12000225c:	00a02025 	move	a0,a1
   120002260:	ffa51d28 	sd	a1,7464(sp)
   120002264:	ffa21d30 	sd	v0,7472(sp)
   120002268:	04110bc5 	bal	120005180 <__addtf3>
   12000226c:	00402825 	move	a1,v0
   120002270:	dfae1d28 	ld	t2,7464(sp)
   120002274:	dfad1d30 	ld	t1,7472(sp)
   120002278:	df998158 	ld	t9,-32424(gp)
   12000227c:	00807825 	move	t3,a0
   120002280:	01c03025 	move	a2,t2
   120002284:	01a03825 	move	a3,t1
   120002288:	00402025 	move	a0,v0
   12000228c:	04110e38 	bal	120005b70 <__eqtf2>
   120002290:	01e02825 	move	a1,t3
   120002294:	dfab1d40 	ld	a7,7488(sp)
   120002298:	dfac1d50 	ld	t0,7504(sp)
   12000229c:	144000a6 	bnez	v0,120002538 <fmt_fp+0xe40>
   1200022a0:	dfa91d48 	ld	a5,7496(sp)
   1200022a4:	dfa81d60 	ld	a4,7520(sp)
   1200022a8:	ad2b0000 	sw	a7,0(a5)
   1200022ac:	65290004 	daddiu	a5,a5,4
   1200022b0:	0137102b 	sltu	v0,a5,s7
   1200022b4:	10400003 	beqz	v0,1200022c4 <fmt_fp+0xbcc>
   1200022b8:	03d7582b 	sltu	a7,s8,s7
   1200022bc:	0120b825 	move	s7,a5
   1200022c0:	03d7582b 	sltu	a7,s8,s7
   1200022c4:	11600004 	beqz	a7,1200022d8 <fmt_fp+0xbe0>
   1200022c8:	dfa31d18 	ld	v1,7448(sp)
   1200022cc:	8ee2fffc 	lw	v0,-4(s7)
   1200022d0:	104000b9 	beqz	v0,1200025b8 <fmt_fp+0xec0>
   1200022d4:	00000000 	nop
   1200022d8:	24020067 	li	v0,103
   1200022dc:	14620027 	bne	v1,v0,12000237c <fmt_fp+0xc84>
   1200022e0:	3c097fff 	lui	a5,0x7fff
   1200022e4:	16000003 	bnez	s0,1200022f4 <fmt_fp+0xbfc>
   1200022e8:	0110102a 	slt	v0,a4,s0
   1200022ec:	24100001 	li	s0,1
   1200022f0:	0110102a 	slt	v0,a4,s0
   1200022f4:	104000b2 	beqz	v0,1200025c0 <fmt_fp+0xec8>
   1200022f8:	2902fffc 	slti	v0,a4,-4
   1200022fc:	144000b0 	bnez	v0,1200025c0 <fmt_fp+0xec8>
   120002300:	25020001 	addiu	v0,a4,1
   120002304:	2694ffff 	addiu	s4,s4,-1
   120002308:	02028023 	subu	s0,s0,v0
   12000230c:	32c20008 	andi	v0,s6,0x8
   120002310:	1440001a 	bnez	v0,12000237c <fmt_fp+0xc84>
   120002314:	3c097fff 	lui	a5,0x7fff
   120002318:	11600004 	beqz	a7,12000232c <fmt_fp+0xc34>
   12000231c:	24040009 	li	a0,9
   120002320:	8ee5fffc 	lw	a1,-4(s7)
   120002324:	14a000b3 	bnez	a1,1200025f4 <fmt_fp+0xefc>
   120002328:	00000000 	nop
   12000232c:	dfa21d00 	ld	v0,7424(sp)
   120002330:	24050066 	li	a1,102
   120002334:	02e2102f 	dsubu	v0,s7,v0
   120002338:	000210bb 	dsra	v0,v0,0x2
   12000233c:	6442ffff 	daddiu	v0,v0,-1
   120002340:	000230f8 	dsll	a2,v0,0x3
   120002344:	00c2302d 	daddu	a2,a2,v0
   120002348:	36820020 	ori	v0,s4,0x20
   12000234c:	144500ac 	bne	v0,a1,120002600 <fmt_fp+0xf08>
   120002350:	00000000 	nop
   120002354:	00c4302f 	dsubu	a2,a2,a0
   120002358:	04c10003 	bgez	a2,120002368 <fmt_fp+0xc70>
   12000235c:	0206102a 	slt	v0,s0,a2
   120002360:	00003025 	move	a2,zero
   120002364:	0206102a 	slt	v0,s0,a2
   120002368:	10400002 	beqz	v0,120002374 <fmt_fp+0xc7c>
   12000236c:	00000000 	nop
   120002370:	02003025 	move	a2,s0
   120002374:	00068000 	sll	s0,a2,0x0
   120002378:	3c097fff 	lui	a5,0x7fff
   12000237c:	3529fffe 	ori	a5,a5,0xfffe
   120002380:	0209102a 	slt	v0,s0,a5
   120002384:	1040fe0e 	beqz	v0,120001bc0 <fmt_fp+0x4c8>
   120002388:	02c01025 	move	v0,s6
   12000238c:	ffa21d30 	sd	v0,7472(sp)
   120002390:	32c20008 	andi	v0,s6,0x8
   120002394:	00401825 	move	v1,v0
   120002398:	00501025 	or	v0,v0,s0
   12000239c:	ffa31d28 	sd	v1,7464(sp)
   1200023a0:	26070001 	addiu	a3,s0,1
   1200023a4:	00401825 	move	v1,v0
   1200023a8:	0002102b 	sltu	v0,zero,v0
   1200023ac:	00e23821 	addu	a3,a3,v0
   1200023b0:	36820020 	ori	v0,s4,0x20
   1200023b4:	ffa31d50 	sd	v1,7504(sp)
   1200023b8:	25290001 	addiu	a5,a5,1
   1200023bc:	00401825 	move	v1,v0
   1200023c0:	24040066 	li	a0,102
   1200023c4:	ffa31d40 	sd	v1,7488(sp)
   1200023c8:	1444008f 	bne	v0,a0,120002608 <fmt_fp+0xf10>
   1200023cc:	01274823 	subu	a5,a5,a3
   1200023d0:	0128482a 	slt	a5,a5,a4
   1200023d4:	1520fdfa 	bnez	a5,120001bc0 <fmt_fp+0x4c8>
   1200023d8:	00000000 	nop
   1200023dc:	19000002 	blez	a4,1200023e8 <fmt_fp+0xcf0>
   1200023e0:	00000000 	nop
   1200023e4:	00e83821 	addu	a3,a3,a4
   1200023e8:	12400006 	beqz	s2,120002404 <fmt_fp+0xd0c>
   1200023ec:	02c04025 	move	a4,s6
   1200023f0:	3c027fff 	lui	v0,0x7fff
   1200023f4:	3442fffe 	ori	v0,v0,0xfffe
   1200023f8:	0047102a 	slt	v0,v0,a3
   1200023fc:	1440fdf1 	bnez	v0,120001bc4 <fmt_fp+0x4cc>
   120002400:	2402ffff 	li	v0,-1
   120002404:	df968058 	ld	s6,-32680(gp)
   120002408:	00f2a021 	addu	s4,a3,s2
   12000240c:	00f29821 	addu	s3,a3,s2
   120002410:	66c21620 	daddiu	v0,s6,5664
   120002414:	0040c825 	move	t9,v0
   120002418:	02803825 	move	a3,s4
   12000241c:	02a03025 	move	a2,s5
   120002420:	24050020 	li	a1,32
   120002424:	02202025 	move	a0,s1
   120002428:	ffab1d48 	sd	a7,7496(sp)
   12000242c:	0411fc7c 	bal	120001620 <pad>
   120002430:	ffa21d18 	sd	v0,7448(sp)
   120002434:	02403025 	move	a2,s2
   120002438:	df928058 	ld	s2,-32680(gp)
   12000243c:	dfa51d08 	ld	a1,7432(sp)
   120002440:	665215e8 	daddiu	s2,s2,5608
   120002444:	0240c825 	move	t9,s2
   120002448:	0411fc67 	bal	1200015e8 <out>
   12000244c:	02202025 	move	a0,s1
   120002450:	dfa21d30 	ld	v0,7472(sp)
   120002454:	dfb91d18 	ld	t9,7448(sp)
   120002458:	3c080001 	lui	a4,0x1
   12000245c:	01024026 	xor	a4,a4,v0
   120002460:	02603825 	move	a3,s3
   120002464:	02a03025 	move	a2,s5
   120002468:	24050030 	li	a1,48
   12000246c:	0320f809 	jalr	t9
   120002470:	02202025 	move	a0,s1
   120002474:	dfa31d40 	ld	v1,7488(sp)
   120002478:	24020066 	li	v0,102
   12000247c:	146200cf 	bne	v1,v0,1200027bc <fmt_fp+0x10c4>
   120002480:	dfab1d48 	ld	a7,7496(sp)
   120002484:	dfb61d00 	ld	s6,7424(sp)
   120002488:	03d6102b 	sltu	v0,s8,s6
   12000248c:	10400002 	beqz	v0,120002498 <fmt_fp+0xda0>
   120002490:	df828058 	ld	v0,-32680(gp)
   120002494:	03c0b025 	move	s6,s8
   120002498:	02c0f025 	move	s8,s6
   12000249c:	67b31cd1 	daddiu	s3,sp,7377
   1200024a0:	64421538 	daddiu	v0,v0,5432
   1200024a4:	ffa21d10 	sd	v0,7440(sp)
   1200024a8:	67a21cc8 	daddiu	v0,sp,7368
   1200024ac:	ffa21d08 	sd	v0,7432(sp)
   1200024b0:	dfa21d00 	ld	v0,7424(sp)
   1200024b4:	005e102b 	sltu	v0,v0,s8
   1200024b8:	10400071 	beqz	v0,120002680 <fmt_fp+0xf88>
   1200024bc:	dfb91d10 	ld	t9,7440(sp)
   1200024c0:	dfa31d00 	ld	v1,7424(sp)
   1200024c4:	66c2fffd 	daddiu	v0,s6,-3
   1200024c8:	64640001 	daddiu	a0,v1,1
   1200024cc:	0082202b 	sltu	a0,a0,v0
   1200024d0:	14800005 	bnez	a0,1200024e8 <fmt_fp+0xdf0>
   1200024d4:	00009825 	move	s3,zero
   1200024d8:	64620004 	daddiu	v0,v1,4
   1200024dc:	0056102f 	dsubu	v0,v0,s6
   1200024e0:	000210ba 	dsrl	v0,v0,0x2
   1200024e4:	000298b8 	dsll	s3,v0,0x2
   1200024e8:	dfa21d50 	ld	v0,7504(sp)
   1200024ec:	104000b1 	beqz	v0,1200027b4 <fmt_fp+0x10bc>
   1200024f0:	02d3982d 	daddu	s3,s6,s3
   1200024f4:	df858058 	ld	a1,-32680(gp)
   1200024f8:	24060001 	li	a2,1
   1200024fc:	02202025 	move	a0,s1
   120002500:	0240c825 	move	t9,s2
   120002504:	0411fc38 	bal	1200015e8 <out>
   120002508:	64a57560 	daddiu	a1,a1,30048
   12000250c:	67a21cd1 	daddiu	v0,sp,7377
   120002510:	ffa21d00 	sd	v0,7424(sp)
   120002514:	df828058 	ld	v0,-32680(gp)
   120002518:	67b61cc8 	daddiu	s6,sp,7368
   12000251c:	241e0030 	li	s8,48
   120002520:	64421538 	daddiu	v0,v0,5432
   120002524:	10000087 	b	120002744 <fmt_fp+0x104c>
   120002528:	ffa21d08 	sd	v0,7432(sp)
   12000252c:	df848058 	ld	a0,-32680(gp)
   120002530:	1000ff37 	b	120002210 <fmt_fp+0xb18>
   120002534:	dc8479a8 	ld	a0,31144(a0)
   120002538:	018b5821 	addu	a7,t0,a7
   12000253c:	3c043b9a 	lui	a0,0x3b9a
   120002540:	ad2b0000 	sw	a7,0(a5)
   120002544:	3484ca00 	ori	a0,a0,0xca00
   120002548:	8d220000 	lw	v0,0(a5)
   12000254c:	0044102b 	sltu	v0,v0,a0
   120002550:	1040000f 	beqz	v0,120002590 <fmt_fp+0xe98>
   120002554:	dfa21d00 	ld	v0,7424(sp)
   120002558:	8fc50000 	lw	a1,0(s8)
   12000255c:	005e402f 	dsubu	a4,v0,s8
   120002560:	000840bb 	dsra	a4,a4,0x2
   120002564:	00081000 	sll	v0,a4,0x0
   120002568:	000240c0 	sll	a4,v0,0x3
   12000256c:	01024021 	addu	a4,a4,v0
   120002570:	2402000a 	li	v0,10
   120002574:	00a2202b 	sltu	a0,a1,v0
   120002578:	1480ff4c 	bnez	a0,1200022ac <fmt_fp+0xbb4>
   12000257c:	00022080 	sll	a0,v0,0x2
   120002580:	00821021 	addu	v0,a0,v0
   120002584:	00021040 	sll	v0,v0,0x1
   120002588:	1000fffa 	b	120002574 <fmt_fp+0xe7c>
   12000258c:	25080001 	addiu	a4,a4,1
   120002590:	6529fffc 	daddiu	a5,a5,-4
   120002594:	013e102b 	sltu	v0,a5,s8
   120002598:	10400003 	beqz	v0,1200025a8 <fmt_fp+0xeb0>
   12000259c:	ad200004 	sw	zero,4(a5)
   1200025a0:	afc0fffc 	sw	zero,-4(s8)
   1200025a4:	67defffc 	daddiu	s8,s8,-4
   1200025a8:	8d220000 	lw	v0,0(a5)
   1200025ac:	24420001 	addiu	v0,v0,1
   1200025b0:	1000ffe5 	b	120002548 <fmt_fp+0xe50>
   1200025b4:	ad220000 	sw	v0,0(a5)
   1200025b8:	1000ff41 	b	1200022c0 <fmt_fp+0xbc8>
   1200025bc:	66f7fffc 	daddiu	s7,s7,-4
   1200025c0:	2694fffe 	addiu	s4,s4,-2
   1200025c4:	1000ff51 	b	12000230c <fmt_fp+0xc14>
   1200025c8:	2610ffff 	addiu	s0,s0,-1
   1200025cc:	00c21021 	addu	v0,a2,v0
   1200025d0:	00021040 	sll	v0,v0,0x1
   1200025d4:	24840001 	addiu	a0,a0,1
   1200025d8:	00a2001b 	divu	zero,a1,v0
   1200025dc:	004001f4 	teq	v0,zero,0x7
   1200025e0:	00003010 	mfhi	a2
   1200025e4:	10c0fff9 	beqz	a2,1200025cc <fmt_fp+0xed4>
   1200025e8:	00023080 	sll	a2,v0,0x2
   1200025ec:	1000ff50 	b	120002330 <fmt_fp+0xc38>
   1200025f0:	dfa21d00 	ld	v0,7424(sp)
   1200025f4:	00002025 	move	a0,zero
   1200025f8:	1000fff7 	b	1200025d8 <fmt_fp+0xee0>
   1200025fc:	2402000a 	li	v0,10
   120002600:	1000ff54 	b	120002354 <fmt_fp+0xc5c>
   120002604:	0106302d 	daddu	a2,a4,a2
   120002608:	df998058 	ld	t9,-32680(gp)
   12000260c:	000817c3 	sra	v0,a4,0x1f
   120002610:	dfa51d10 	ld	a1,7440(sp)
   120002614:	00482026 	xor	a0,v0,a4
   120002618:	67391538 	daddiu	t9,t9,5432
   12000261c:	0411fbc6 	bal	120001538 <fmt_u>
   120002620:	00822023 	subu	a0,a0,v0
   120002624:	24050030 	li	a1,48
   120002628:	dfa31d10 	ld	v1,7440(sp)
   12000262c:	0062202f 	dsubu	a0,v1,v0
   120002630:	28840002 	slti	a0,a0,2
   120002634:	1480000f 	bnez	a0,120002674 <fmt_fp+0xf7c>
   120002638:	00000000 	nop
   12000263c:	05000002 	bltz	a4,120002648 <fmt_fp+0xf50>
   120002640:	2404002d 	li	a0,45
   120002644:	2404002b 	li	a0,43
   120002648:	6443fffe 	daddiu	v1,v0,-2
   12000264c:	a044ffff 	sb	a0,-1(v0)
   120002650:	a054fffe 	sb	s4,-2(v0)
   120002654:	dfa21d10 	ld	v0,7440(sp)
   120002658:	0043102f 	dsubu	v0,v0,v1
   12000265c:	0122482a 	slt	a5,a5,v0
   120002660:	1520fd57 	bnez	a5,120001bc0 <fmt_fp+0x4c8>
   120002664:	ffa31d20 	sd	v1,7456(sp)
   120002668:	00021000 	sll	v0,v0,0x0
   12000266c:	1000ff5e 	b	1200023e8 <fmt_fp+0xcf0>
   120002670:	00473821 	addu	a3,v0,a3
   120002674:	6442ffff 	daddiu	v0,v0,-1
   120002678:	1000ffeb 	b	120002628 <fmt_fp+0xf30>
   12000267c:	a0450000 	sb	a1,0(v0)
   120002680:	9fc40000 	lwu	a0,0(s8)
   120002684:	0320f809 	jalr	t9
   120002688:	02602825 	move	a1,s3
   12000268c:	17d60009 	bne	s8,s6,1200026b4 <fmt_fp+0xfbc>
   120002690:	00402825 	move	a1,v0
   120002694:	14530011 	bne	v0,s3,1200026dc <fmt_fp+0xfe4>
   120002698:	0265302f 	dsubu	a2,s3,a1
   12000269c:	24020030 	li	v0,48
   1200026a0:	a3a21cd0 	sb	v0,7376(sp)
   1200026a4:	1000000c 	b	1200026d8 <fmt_fp+0xfe0>
   1200026a8:	67a51cd0 	daddiu	a1,sp,7376
   1200026ac:	24030030 	li	v1,48
   1200026b0:	a0430000 	sb	v1,0(v0)
   1200026b4:	dfa31d08 	ld	v1,7432(sp)
   1200026b8:	0062202b 	sltu	a0,v1,v0
   1200026bc:	1480fffb 	bnez	a0,1200026ac <fmt_fp+0xfb4>
   1200026c0:	6442ffff 	daddiu	v0,v0,-1
   1200026c4:	00a3102b 	sltu	v0,a1,v1
   1200026c8:	14400002 	bnez	v0,1200026d4 <fmt_fp+0xfdc>
   1200026cc:	00002025 	move	a0,zero
   1200026d0:	0065202f 	dsubu	a0,v1,a1
   1200026d4:	00a4282d 	daddu	a1,a1,a0
   1200026d8:	0265302f 	dsubu	a2,s3,a1
   1200026dc:	0240c825 	move	t9,s2
   1200026e0:	0411fbc1 	bal	1200015e8 <out>
   1200026e4:	02202025 	move	a0,s1
   1200026e8:	1000ff71 	b	1200024b0 <fmt_fp+0xdb8>
   1200026ec:	67de0004 	daddiu	s8,s8,4
   1200026f0:	9e640000 	lwu	a0,0(s3)
   1200026f4:	0320f809 	jalr	t9
   1200026f8:	dfa51d00 	ld	a1,7424(sp)
   1200026fc:	00402025 	move	a0,v0
   120002700:	02c4282b 	sltu	a1,s6,a0
   120002704:	14a00029 	bnez	a1,1200027ac <fmt_fp+0x10b4>
   120002708:	6484ffff 	daddiu	a0,a0,-1
   12000270c:	0056202b 	sltu	a0,v0,s6
   120002710:	14800002 	bnez	a0,12000271c <fmt_fp+0x1024>
   120002714:	00002825 	move	a1,zero
   120002718:	02c2282f 	dsubu	a1,s6,v0
   12000271c:	2a04000a 	slti	a0,s0,10
   120002720:	14800002 	bnez	a0,12000272c <fmt_fp+0x1034>
   120002724:	02003025 	move	a2,s0
   120002728:	24060009 	li	a2,9
   12000272c:	0045282d 	daddu	a1,v0,a1
   120002730:	02202025 	move	a0,s1
   120002734:	0240c825 	move	t9,s2
   120002738:	66730004 	daddiu	s3,s3,4
   12000273c:	0411fbaa 	bal	1200015e8 <out>
   120002740:	2610fff7 	addiu	s0,s0,-9
   120002744:	0277102b 	sltu	v0,s3,s7
   120002748:	10400004 	beqz	v0,12000275c <fmt_fp+0x1064>
   12000274c:	dfb91d18 	ld	t9,7448(sp)
   120002750:	1e00ffe7 	bgtz	s0,1200026f0 <fmt_fp+0xff8>
   120002754:	dfb91d08 	ld	t9,7432(sp)
   120002758:	dfb91d18 	ld	t9,7448(sp)
   12000275c:	00004025 	move	a4,zero
   120002760:	24070009 	li	a3,9
   120002764:	26060009 	addiu	a2,s0,9
   120002768:	24050030 	li	a1,48
   12000276c:	0320f809 	jalr	t9
   120002770:	02202025 	move	a0,s1
   120002774:	dfa21d30 	ld	v0,7472(sp)
   120002778:	dfb91d18 	ld	t9,7448(sp)
   12000277c:	02803825 	move	a3,s4
   120002780:	38482000 	xori	a4,v0,0x2000
   120002784:	02a03025 	move	a2,s5
   120002788:	24050020 	li	a1,32
   12000278c:	0320f809 	jalr	t9
   120002790:	02202025 	move	a0,s1
   120002794:	02801025 	move	v0,s4
   120002798:	0295a02a 	slt	s4,s4,s5
   12000279c:	1280fd0a 	beqz	s4,120001bc8 <fmt_fp+0x4d0>
   1200027a0:	dfbf1dc8 	ld	ra,7624(sp)
   1200027a4:	1000fd08 	b	120001bc8 <fmt_fp+0x4d0>
   1200027a8:	02a01025 	move	v0,s5
   1200027ac:	1000ffd4 	b	120002700 <fmt_fp+0x1008>
   1200027b0:	a09e0000 	sb	s8,0(a0)
   1200027b4:	1000ff55 	b	12000250c <fmt_fp+0xe14>
   1200027b8:	00008025 	move	s0,zero
   1200027bc:	15600002 	bnez	a7,1200027c8 <fmt_fp+0x10d0>
   1200027c0:	67a21cd1 	daddiu	v0,sp,7377
   1200027c4:	67d70004 	daddiu	s7,s8,4
   1200027c8:	ffa21d00 	sd	v0,7424(sp)
   1200027cc:	df828058 	ld	v0,-32680(gp)
   1200027d0:	03c09825 	move	s3,s8
   1200027d4:	64421538 	daddiu	v0,v0,5432
   1200027d8:	ffa21d40 	sd	v0,7488(sp)
   1200027dc:	df828058 	ld	v0,-32680(gp)
   1200027e0:	64427560 	daddiu	v0,v0,30048
   1200027e4:	ffa21d50 	sd	v0,7504(sp)
   1200027e8:	0277102b 	sltu	v0,s3,s7
   1200027ec:	10400004 	beqz	v0,120002800 <fmt_fp+0x1108>
   1200027f0:	dfb91d18 	ld	t9,7448(sp)
   1200027f4:	06010011 	bgez	s0,12000283c <fmt_fp+0x1144>
   1200027f8:	dfa51d00 	ld	a1,7424(sp)
   1200027fc:	dfb91d18 	ld	t9,7448(sp)
   120002800:	26060012 	addiu	a2,s0,18
   120002804:	02202025 	move	a0,s1
   120002808:	00004025 	move	a4,zero
   12000280c:	24070012 	li	a3,18
   120002810:	0320f809 	jalr	t9
   120002814:	24050030 	li	a1,48
   120002818:	dfa31d20 	ld	v1,7456(sp)
   12000281c:	dfa21d10 	ld	v0,7440(sp)
   120002820:	02202025 	move	a0,s1
   120002824:	00602825 	move	a1,v1
   120002828:	0240c825 	move	t9,s2
   12000282c:	0411fb6e 	bal	1200015e8 <out>
   120002830:	0043302f 	dsubu	a2,v0,v1
   120002834:	1000ffd0 	b	120002778 <fmt_fp+0x1080>
   120002838:	dfa21d30 	ld	v0,7472(sp)
   12000283c:	dfb91d40 	ld	t9,7488(sp)
   120002840:	0320f809 	jalr	t9
   120002844:	9e640000 	lwu	a0,0(s3)
   120002848:	00402825 	move	a1,v0
   12000284c:	dfa21d00 	ld	v0,7424(sp)
   120002850:	14a20004 	bne	a1,v0,120002864 <fmt_fp+0x116c>
   120002854:	00000000 	nop
   120002858:	24020030 	li	v0,48
   12000285c:	a3a21cd0 	sb	v0,7376(sp)
   120002860:	67a51cd0 	daddiu	a1,sp,7376
   120002864:	02001025 	move	v0,s0
   120002868:	ffa21d08 	sd	v0,7432(sp)
   12000286c:	127e001e 	beq	s3,s8,1200028e8 <fmt_fp+0x11f0>
   120002870:	00a01025 	move	v0,a1
   120002874:	67a41cc8 	daddiu	a0,sp,7368
   120002878:	24070030 	li	a3,48
   12000287c:	0082302b 	sltu	a2,a0,v0
   120002880:	14c00016 	bnez	a2,1200028dc <fmt_fp+0x11e4>
   120002884:	00a4302b 	sltu	a2,a1,a0
   120002888:	14c00002 	bnez	a2,120002894 <fmt_fp+0x119c>
   12000288c:	00001025 	move	v0,zero
   120002890:	0085102f 	dsubu	v0,a0,a1
   120002894:	00a2b02d 	daddu	s6,a1,v0
   120002898:	dfa21d00 	ld	v0,7424(sp)
   12000289c:	0056382f 	dsubu	a3,v0,s6
   1200028a0:	00f0202a 	slt	a0,a3,s0
   1200028a4:	10800002 	beqz	a0,1200028b0 <fmt_fp+0x11b8>
   1200028a8:	02003025 	move	a2,s0
   1200028ac:	00e03025 	move	a2,a3
   1200028b0:	02c02825 	move	a1,s6
   1200028b4:	02202025 	move	a0,s1
   1200028b8:	0240c825 	move	t9,s2
   1200028bc:	0411fb4a 	bal	1200015e8 <out>
   1200028c0:	ffa71d48 	sd	a3,7496(sp)
   1200028c4:	dfa71d48 	ld	a3,7496(sp)
   1200028c8:	dfa21d08 	ld	v0,7432(sp)
   1200028cc:	66730004 	daddiu	s3,s3,4
   1200028d0:	00073800 	sll	a3,a3,0x0
   1200028d4:	1000ffc4 	b	1200027e8 <fmt_fp+0x10f0>
   1200028d8:	00478023 	subu	s0,v0,a3
   1200028dc:	6442ffff 	daddiu	v0,v0,-1
   1200028e0:	1000ffe6 	b	12000287c <fmt_fp+0x1184>
   1200028e4:	a0470000 	sb	a3,0(v0)
   1200028e8:	02202025 	move	a0,s1
   1200028ec:	24060001 	li	a2,1
   1200028f0:	0240c825 	move	t9,s2
   1200028f4:	0411fb3c 	bal	1200015e8 <out>
   1200028f8:	64b60001 	daddiu	s6,a1,1
   1200028fc:	dfa21d28 	ld	v0,7464(sp)
   120002900:	dfa31d08 	ld	v1,7432(sp)
   120002904:	00432025 	or	a0,v0,v1
   120002908:	1080ffe3 	beqz	a0,120002898 <fmt_fp+0x11a0>
   12000290c:	dfa51d50 	ld	a1,7504(sp)
   120002910:	24060001 	li	a2,1
   120002914:	0240c825 	move	t9,s2
   120002918:	0411fb33 	bal	1200015e8 <out>
   12000291c:	02202025 	move	a0,s1
   120002920:	1000ffde 	b	12000289c <fmt_fp+0x11a4>
   120002924:	dfa21d00 	ld	v0,7424(sp)

0000000120002928 <printf_core>:
   120002928:	67bdfef0 	daddiu	sp,sp,-272
   12000292c:	ffbc00f8 	sd	gp,248(sp)
   120002930:	3c1c0002 	lui	gp,0x2
   120002934:	0399e02d 	daddu	gp,gp,t9
   120002938:	679cdbe8 	daddiu	gp,gp,-9240
   12000293c:	df828058 	ld	v0,-32680(gp)
   120002940:	ffb700f0 	sd	s7,240(sp)
   120002944:	ffb400d8 	sd	s4,216(sp)
   120002948:	644215e8 	daddiu	v0,v0,5608
   12000294c:	ffa20080 	sd	v0,128(sp)
   120002950:	df828058 	ld	v0,-32680(gp)
   120002954:	ffb300d0 	sd	s3,208(sp)
   120002958:	ffb200c8 	sd	s2,200(sp)
   12000295c:	64427790 	daddiu	v0,v0,30608
   120002960:	ffb100c0 	sd	s1,192(sp)
   120002964:	ffbf0108 	sd	ra,264(sp)
   120002968:	ffbe0100 	sd	s8,256(sp)
   12000296c:	ffb600e8 	sd	s6,232(sp)
   120002970:	ffb500e0 	sd	s5,224(sp)
   120002974:	ffb000b8 	sd	s0,184(sp)
   120002978:	00808825 	move	s1,a0
   12000297c:	00c0a025 	move	s4,a2
   120002980:	ffa70078 	sd	a3,120(sp)
   120002984:	ffa80070 	sd	a4,112(sp)
   120002988:	ffa50058 	sd	a1,88(sp)
   12000298c:	00009825 	move	s3,zero
   120002990:	00009025 	move	s2,zero
   120002994:	0000b825 	move	s7,zero
   120002998:	ffa200a0 	sd	v0,160(sp)
   12000299c:	dfb50058 	ld	s5,88(sp)
   1200029a0:	82a20000 	lb	v0,0(s5)
   1200029a4:	10400275 	beqz	v0,12000337c <printf_core+0xa54>
   1200029a8:	02729021 	addu	s2,s3,s2
   1200029ac:	24050025 	li	a1,37
   1200029b0:	dfa20058 	ld	v0,88(sp)
   1200029b4:	80440000 	lb	a0,0(v0)
   1200029b8:	10800004 	beqz	a0,1200029cc <printf_core+0xa4>
   1200029bc:	00000000 	nop
   1200029c0:	14850004 	bne	a0,a1,1200029d4 <printf_core+0xac>
   1200029c4:	64420001 	daddiu	v0,v0,1
   1200029c8:	6442ffff 	daddiu	v0,v0,-1
   1200029cc:	10000005 	b	1200029e4 <printf_core+0xbc>
   1200029d0:	24050025 	li	a1,37
   1200029d4:	1000fff6 	b	1200029b0 <printf_core+0x88>
   1200029d8:	ffa20058 	sd	v0,88(sp)
   1200029dc:	64420001 	daddiu	v0,v0,1
   1200029e0:	ffa40058 	sd	a0,88(sp)
   1200029e4:	dfa40058 	ld	a0,88(sp)
   1200029e8:	80860000 	lb	a2,0(a0)
   1200029ec:	14c50005 	bne	a2,a1,120002a04 <printf_core+0xdc>
   1200029f0:	3c137fff 	lui	s3,0x7fff
   1200029f4:	80860001 	lb	a2,1(a0)
   1200029f8:	10c5fff8 	beq	a2,a1,1200029dc <printf_core+0xb4>
   1200029fc:	64840002 	daddiu	a0,a0,2
   120002a00:	3c137fff 	lui	s3,0x7fff
   120002a04:	3673ffff 	ori	s3,s3,0xffff
   120002a08:	02721823 	subu	v1,s3,s2
   120002a0c:	0055102f 	dsubu	v0,v0,s5
   120002a10:	0062202a 	slt	a0,v1,v0
   120002a14:	14800229 	bnez	a0,1200032bc <printf_core+0x994>
   120002a18:	ffa30088 	sd	v1,136(sp)
   120002a1c:	afa20090 	sw	v0,144(sp)
   120002a20:	12200006 	beqz	s1,120002a3c <printf_core+0x114>
   120002a24:	8fb30090 	lw	s3,144(sp)
   120002a28:	dfb90080 	ld	t9,128(sp)
   120002a2c:	02603025 	move	a2,s3
   120002a30:	02a02825 	move	a1,s5
   120002a34:	0320f809 	jalr	t9
   120002a38:	02202025 	move	a0,s1
   120002a3c:	1660021c 	bnez	s3,1200032b0 <printf_core+0x988>
   120002a40:	dfa20088 	ld	v0,136(sp)
   120002a44:	dfa20058 	ld	v0,88(sp)
   120002a48:	804d0001 	lb	t1,1(v0)
   120002a4c:	25adffd0 	addiu	t1,t1,-48
   120002a50:	2da4000a 	sltiu	a0,t1,10
   120002a54:	1080006e 	beqz	a0,120002c10 <printf_core+0x2e8>
   120002a58:	24040024 	li	a0,36
   120002a5c:	80450002 	lb	a1,2(v0)
   120002a60:	14a4006b 	bne	a1,a0,120002c10 <printf_core+0x2e8>
   120002a64:	00000000 	nop
   120002a68:	64420003 	daddiu	v0,v0,3
   120002a6c:	24170001 	li	s7,1
   120002a70:	3c060001 	lui	a2,0x1
   120002a74:	ffa20058 	sd	v0,88(sp)
   120002a78:	0000b025 	move	s6,zero
   120002a7c:	24c62889 	addiu	a2,a2,10377
   120002a80:	24080001 	li	a4,1
   120002a84:	dfa20058 	ld	v0,88(sp)
   120002a88:	80470000 	lb	a3,0(v0)
   120002a8c:	24e4ffe0 	addiu	a0,a3,-32
   120002a90:	2c850020 	sltiu	a1,a0,32
   120002a94:	10a00004 	beqz	a1,120002aa8 <printf_core+0x180>
   120002a98:	00862806 	srlv	a1,a2,a0
   120002a9c:	30a50001 	andi	a1,a1,0x1
   120002aa0:	14a0005e 	bnez	a1,120002c1c <printf_core+0x2f4>
   120002aa4:	00882004 	sllv	a0,a4,a0
   120002aa8:	2404002a 	li	a0,42
   120002aac:	14e40072 	bne	a3,a0,120002c78 <printf_core+0x350>
   120002ab0:	df998058 	ld	t9,-32680(gp)
   120002ab4:	80440001 	lb	a0,1(v0)
   120002ab8:	2485ffd0 	addiu	a1,a0,-48
   120002abc:	2ca5000a 	sltiu	a1,a1,10
   120002ac0:	10a0005b 	beqz	a1,120002c30 <printf_core+0x308>
   120002ac4:	24050024 	li	a1,36
   120002ac8:	80460002 	lb	a2,2(v0)
   120002acc:	14c50058 	bne	a2,a1,120002c30 <printf_core+0x308>
   120002ad0:	dfa30070 	ld	v1,112(sp)
   120002ad4:	000420b8 	dsll	a0,a0,0x2
   120002ad8:	2405000a 	li	a1,10
   120002adc:	0064202d 	daddu	a0,v1,a0
   120002ae0:	ac85ff40 	sw	a1,-192(a0)
   120002ae4:	80440001 	lb	a0,1(v0)
   120002ae8:	dfa30078 	ld	v1,120(sp)
   120002aec:	64420003 	daddiu	v0,v0,3
   120002af0:	00042138 	dsll	a0,a0,0x4
   120002af4:	0064202d 	daddu	a0,v1,a0
   120002af8:	8c90fd00 	lw	s0,-768(a0)
   120002afc:	ffa20058 	sd	v0,88(sp)
   120002b00:	24170001 	li	s7,1
   120002b04:	06010005 	bgez	s0,120002b1c <printf_core+0x1f4>
   120002b08:	dfa20058 	ld	v0,88(sp)
   120002b0c:	36ca2000 	ori	a6,s6,0x2000
   120002b10:	0140b025 	move	s6,a6
   120002b14:	00108023 	negu	s0,s0
   120002b18:	dfa20058 	ld	v0,88(sp)
   120002b1c:	2404002e 	li	a0,46
   120002b20:	80450000 	lb	a1,0(v0)
   120002b24:	14a4006d 	bne	a1,a0,120002cdc <printf_core+0x3b4>
   120002b28:	2404002a 	li	a0,42
   120002b2c:	80450001 	lb	a1,1(v0)
   120002b30:	14a40062 	bne	a1,a0,120002cbc <printf_core+0x394>
   120002b34:	df998058 	ld	t9,-32680(gp)
   120002b38:	80440002 	lb	a0,2(v0)
   120002b3c:	2485ffd0 	addiu	a1,a0,-48
   120002b40:	2ca5000a 	sltiu	a1,a1,10
   120002b44:	10a00053 	beqz	a1,120002c94 <printf_core+0x36c>
   120002b48:	24050024 	li	a1,36
   120002b4c:	80460003 	lb	a2,3(v0)
   120002b50:	14c50050 	bne	a2,a1,120002c94 <printf_core+0x36c>
   120002b54:	dfa30070 	ld	v1,112(sp)
   120002b58:	000420b8 	dsll	a0,a0,0x2
   120002b5c:	2405000a 	li	a1,10
   120002b60:	0064202d 	daddu	a0,v1,a0
   120002b64:	ac85ff40 	sw	a1,-192(a0)
   120002b68:	80440002 	lb	a0,2(v0)
   120002b6c:	dfa30078 	ld	v1,120(sp)
   120002b70:	64420004 	daddiu	v0,v0,4
   120002b74:	00042138 	dsll	a0,a0,0x4
   120002b78:	0064202d 	daddu	a0,v1,a0
   120002b7c:	8c9efd00 	lw	s8,-768(a0)
   120002b80:	001e3827 	nor	a3,zero,s8
   120002b84:	ffa20058 	sd	v0,88(sp)
   120002b88:	28e70000 	slti	a3,a3,0
   120002b8c:	00001025 	move	v0,zero
   120002b90:	2406003a 	li	a2,58
   120002b94:	dfa50058 	ld	a1,88(sp)
   120002b98:	80a40000 	lb	a0,0(a1)
   120002b9c:	2484ffbf 	addiu	a0,a0,-65
   120002ba0:	2c84003a 	sltiu	a0,a0,58
   120002ba4:	10800024 	beqz	a0,120002c38 <printf_core+0x310>
   120002ba8:	64a40001 	daddiu	a0,a1,1
   120002bac:	ffa40058 	sd	a0,88(sp)
   120002bb0:	80a40000 	lb	a0,0(a1)
   120002bb4:	dfa300a0 	ld	v1,160(sp)
   120002bb8:	2485ffbf 	addiu	a1,a0,-65
   120002bbc:	0002203c 	dsll32	a0,v0,0x0
   120002bc0:	0004203e 	dsrl32	a0,a0,0x0
   120002bc4:	0086001c 	dmult	a0,a2
   120002bc8:	00002012 	mflo	a0
   120002bcc:	0083202d 	daddu	a0,a0,v1
   120002bd0:	0085202d 	daddu	a0,a0,a1
   120002bd4:	90850000 	lbu	a1,0(a0)
   120002bd8:	24a4ffff 	addiu	a0,a1,-1
   120002bdc:	2c840008 	sltiu	a0,a0,8
   120002be0:	14800041 	bnez	a0,120002ce8 <printf_core+0x3c0>
   120002be4:	00a04025 	move	a4,a1
   120002be8:	11000013 	beqz	a4,120002c38 <printf_core+0x310>
   120002bec:	2404001b 	li	a0,27
   120002bf0:	14a4003f 	bne	a1,a0,120002cf0 <printf_core+0x3c8>
   120002bf4:	00000000 	nop
   120002bf8:	05a10010 	bgez	t1,120002c3c <printf_core+0x314>
   120002bfc:	df998198 	ld	t9,-32360(gp)
   120002c00:	16200062 	bnez	s1,120002d8c <printf_core+0x464>
   120002c04:	dfa40058 	ld	a0,88(sp)
   120002c08:	1000ff65 	b	1200029a0 <printf_core+0x78>
   120002c0c:	dfb50058 	ld	s5,88(sp)
   120002c10:	64420001 	daddiu	v0,v0,1
   120002c14:	1000ff96 	b	120002a70 <printf_core+0x148>
   120002c18:	240dffff 	li	t1,-1
   120002c1c:	00965025 	or	a6,a0,s6
   120002c20:	64420001 	daddiu	v0,v0,1
   120002c24:	0140b025 	move	s6,a6
   120002c28:	1000ff96 	b	120002a84 <printf_core+0x15c>
   120002c2c:	ffa20058 	sd	v0,88(sp)
   120002c30:	12e00008 	beqz	s7,120002c54 <printf_core+0x32c>
   120002c34:	00000000 	nop
   120002c38:	df998198 	ld	t9,-32360(gp)
   120002c3c:	041103bc 	bal	120003b30 <__errno_location>
   120002c40:	00000000 	nop
   120002c44:	24030016 	li	v1,22
   120002c48:	ac430000 	sw	v1,0(v0)
   120002c4c:	10000038 	b	120002d30 <printf_core+0x408>
   120002c50:	2412ffff 	li	s2,-1
   120002c54:	12200005 	beqz	s1,120002c6c <printf_core+0x344>
   120002c58:	00008025 	move	s0,zero
   120002c5c:	de840000 	ld	a0,0(s4)
   120002c60:	8c900000 	lw	s0,0(a0)
   120002c64:	64850008 	daddiu	a1,a0,8
   120002c68:	fe850000 	sd	a1,0(s4)
   120002c6c:	64420001 	daddiu	v0,v0,1
   120002c70:	1000ffa4 	b	120002b04 <printf_core+0x1dc>
   120002c74:	ffa20058 	sd	v0,88(sp)
   120002c78:	67391570 	daddiu	t9,t9,5488
   120002c7c:	0411fa3c 	bal	120001570 <getint>
   120002c80:	67a40058 	daddiu	a0,sp,88
   120002c84:	0441ffa4 	bgez	v0,120002b18 <printf_core+0x1f0>
   120002c88:	00408025 	move	s0,v0
   120002c8c:	1000018c 	b	1200032c0 <printf_core+0x998>
   120002c90:	df998198 	ld	t9,-32360(gp)
   120002c94:	16e0ffe9 	bnez	s7,120002c3c <printf_core+0x314>
   120002c98:	df998198 	ld	t9,-32360(gp)
   120002c9c:	12200005 	beqz	s1,120002cb4 <printf_core+0x38c>
   120002ca0:	0000f025 	move	s8,zero
   120002ca4:	de840000 	ld	a0,0(s4)
   120002ca8:	8c9e0000 	lw	s8,0(a0)
   120002cac:	64850008 	daddiu	a1,a0,8
   120002cb0:	fe850000 	sd	a1,0(s4)
   120002cb4:	1000ffb2 	b	120002b80 <printf_core+0x258>
   120002cb8:	64420002 	daddiu	v0,v0,2
   120002cbc:	64420001 	daddiu	v0,v0,1
   120002cc0:	67a40058 	daddiu	a0,sp,88
   120002cc4:	67391570 	daddiu	t9,t9,5488
   120002cc8:	0411fa29 	bal	120001570 <getint>
   120002ccc:	ffa20058 	sd	v0,88(sp)
   120002cd0:	0040f025 	move	s8,v0
   120002cd4:	1000ffad 	b	120002b8c <printf_core+0x264>
   120002cd8:	24070001 	li	a3,1
   120002cdc:	00003825 	move	a3,zero
   120002ce0:	1000ffaa 	b	120002b8c <printf_core+0x264>
   120002ce4:	241effff 	li	s8,-1
   120002ce8:	1000ffaa 	b	120002b94 <printf_core+0x26c>
   120002cec:	00a01025 	move	v0,a1
   120002cf0:	05a0000c 	bltz	t1,120002d24 <printf_core+0x3fc>
   120002cf4:	dfa30070 	ld	v1,112(sp)
   120002cf8:	000d20b8 	dsll	a0,t1,0x2
   120002cfc:	000d6938 	dsll	t1,t1,0x4
   120002d00:	0064202d 	daddu	a0,v1,a0
   120002d04:	dfa30078 	ld	v1,120(sp)
   120002d08:	ac850000 	sw	a1,0(a0)
   120002d0c:	006d682d 	daddu	t1,v1,t1
   120002d10:	dda40000 	ld	a0,0(t1)
   120002d14:	dda50008 	ld	a1,8(t1)
   120002d18:	ffa40040 	sd	a0,64(sp)
   120002d1c:	1000ffb8 	b	120002c00 <printf_core+0x2d8>
   120002d20:	ffa50048 	sd	a1,72(sp)
   120002d24:	16200010 	bnez	s1,120002d68 <printf_core+0x440>
   120002d28:	df998058 	ld	t9,-32680(gp)
   120002d2c:	00009025 	move	s2,zero
   120002d30:	dfbf0108 	ld	ra,264(sp)
   120002d34:	dfbe0100 	ld	s8,256(sp)
   120002d38:	dfbc00f8 	ld	gp,248(sp)
   120002d3c:	dfb700f0 	ld	s7,240(sp)
   120002d40:	dfb600e8 	ld	s6,232(sp)
   120002d44:	dfb500e0 	ld	s5,224(sp)
   120002d48:	dfb400d8 	ld	s4,216(sp)
   120002d4c:	dfb300d0 	ld	s3,208(sp)
   120002d50:	dfb100c0 	ld	s1,192(sp)
   120002d54:	dfb000b8 	ld	s0,184(sp)
   120002d58:	02401025 	move	v0,s2
   120002d5c:	dfb200c8 	ld	s2,200(sp)
   120002d60:	03e00008 	jr	ra
   120002d64:	67bd0110 	daddiu	sp,sp,272
   120002d68:	02803025 	move	a2,s4
   120002d6c:	67a40040 	daddiu	a0,sp,64
   120002d70:	67391410 	daddiu	t9,t9,5136
   120002d74:	ffa20098 	sd	v0,152(sp)
   120002d78:	0411f9a5 	bal	120001410 <pop_arg>
   120002d7c:	ffa70090 	sd	a3,144(sp)
   120002d80:	dfa70090 	ld	a3,144(sp)
   120002d84:	dfa20098 	ld	v0,152(sp)
   120002d88:	dfa40058 	ld	a0,88(sp)
   120002d8c:	8084ffff 	lb	a0,-1(a0)
   120002d90:	10400007 	beqz	v0,120002db0 <printf_core+0x488>
   120002d94:	00805825 	move	a7,a0
   120002d98:	3085000f 	andi	a1,a0,0xf
   120002d9c:	24060003 	li	a2,3
   120002da0:	14a60003 	bne	a1,a2,120002db0 <printf_core+0x488>
   120002da4:	00000000 	nop
   120002da8:	240bffdf 	li	a7,-33
   120002dac:	008b5824 	and	a7,a0,a7
   120002db0:	32c42000 	andi	a0,s6,0x2000
   120002db4:	10800005 	beqz	a0,120002dcc <printf_core+0x4a4>
   120002db8:	2564ffbf 	addiu	a0,a7,-65
   120002dbc:	3c08fffe 	lui	a4,0xfffe
   120002dc0:	3508ffff 	ori	a4,a4,0xffff
   120002dc4:	02c85024 	and	a6,s6,a4
   120002dc8:	0140b025 	move	s6,a6
   120002dcc:	2c850038 	sltiu	a1,a0,56
   120002dd0:	10a00164 	beqz	a1,120003364 <printf_core+0xa3c>
   120002dd4:	0004203c 	dsll32	a0,a0,0x0
   120002dd8:	df858058 	ld	a1,-32680(gp)
   120002ddc:	0004203e 	dsrl32	a0,a0,0x0
   120002de0:	000420f8 	dsll	a0,a0,0x3
   120002de4:	64a57580 	daddiu	a1,a1,30080
   120002de8:	00a4202d 	daddu	a0,a1,a0
   120002dec:	dc840000 	ld	a0,0(a0)
   120002df0:	009c202d 	daddu	a0,a0,gp
   120002df4:	00800008 	jr	a0
   120002df8:	00000000 	nop
   120002dfc:	2c430008 	sltiu	v1,v0,8
   120002e00:	1060012a 	beqz	v1,1200032ac <printf_core+0x984>
   120002e04:	df838058 	ld	v1,-32680(gp)
   120002e08:	000210f8 	dsll	v0,v0,0x3
   120002e0c:	64637740 	daddiu	v1,v1,30528
   120002e10:	0062102d 	daddu	v0,v1,v0
   120002e14:	dc420000 	ld	v0,0(v0)
   120002e18:	005c102d 	daddu	v0,v0,gp
   120002e1c:	00400008 	jr	v0
   120002e20:	00000000 	nop
   120002e24:	dfa20040 	ld	v0,64(sp)
   120002e28:	1000fedc 	b	12000299c <printf_core+0x74>
   120002e2c:	ac520000 	sw	s2,0(v0)
   120002e30:	dfa20040 	ld	v0,64(sp)
   120002e34:	1000fed9 	b	12000299c <printf_core+0x74>
   120002e38:	a4520000 	sh	s2,0(v0)
   120002e3c:	dfa20040 	ld	v0,64(sp)
   120002e40:	1000fed6 	b	12000299c <printf_core+0x74>
   120002e44:	a0520000 	sb	s2,0(v0)
   120002e48:	dfa20040 	ld	v0,64(sp)
   120002e4c:	1000fed3 	b	12000299c <printf_core+0x74>
   120002e50:	fc520000 	sd	s2,0(v0)
   120002e54:	03c01825 	move	v1,s8
   120002e58:	2fde0010 	sltiu	s8,s8,16
   120002e5c:	13c00002 	beqz	s8,120002e68 <printf_core+0x540>
   120002e60:	36ca0008 	ori	a6,s6,0x8
   120002e64:	24030010 	li	v1,16
   120002e68:	0060f025 	move	s8,v1
   120002e6c:	0140b025 	move	s6,a6
   120002e70:	240b0078 	li	a7,120
   120002e74:	dfa80040 	ld	a4,64(sp)
   120002e78:	df858058 	ld	a1,-32680(gp)
   120002e7c:	31640020 	andi	a0,a7,0x20
   120002e80:	01001025 	move	v0,a4
   120002e84:	67b50037 	daddiu	s5,sp,55
   120002e88:	64a57780 	daddiu	a1,a1,30592
   120002e8c:	14400069 	bnez	v0,120003034 <printf_core+0x70c>
   120002e90:	3046000f 	andi	a2,v0,0xf
   120002e94:	df898058 	ld	a5,-32680(gp)
   120002e98:	11000006 	beqz	a4,120002eb4 <printf_core+0x58c>
   120002e9c:	65297568 	daddiu	a5,a5,30056
   120002ea0:	32c20008 	andi	v0,s6,0x8
   120002ea4:	10400003 	beqz	v0,120002eb4 <printf_core+0x58c>
   120002ea8:	000b593b 	dsra	a7,a7,0x4
   120002eac:	012b482d 	daddu	a5,a5,a7
   120002eb0:	24130002 	li	s3,2
   120002eb4:	10e00007 	beqz	a3,120002ed4 <printf_core+0x5ac>
   120002eb8:	dfa40040 	ld	a0,64(sp)
   120002ebc:	07c000ff 	bltz	s8,1200032bc <printf_core+0x994>
   120002ec0:	3c08fffe 	lui	a4,0xfffe
   120002ec4:	3508ffff 	ori	a4,a4,0xffff
   120002ec8:	02c85024 	and	a6,s6,a4
   120002ecc:	0140b025 	move	s6,a6
   120002ed0:	dfa40040 	ld	a0,64(sp)
   120002ed4:	14800003 	bnez	a0,120002ee4 <printf_core+0x5bc>
   120002ed8:	67a60037 	daddiu	a2,sp,55
   120002edc:	13c00125 	beqz	s8,120003374 <printf_core+0xa4c>
   120002ee0:	00000000 	nop
   120002ee4:	2c840001 	sltiu	a0,a0,1
   120002ee8:	00d5102f 	dsubu	v0,a2,s5
   120002eec:	0044102d 	daddu	v0,v0,a0
   120002ef0:	005e202a 	slt	a0,v0,s8
   120002ef4:	10800002 	beqz	a0,120002f00 <printf_core+0x5d8>
   120002ef8:	00000000 	nop
   120002efc:	03c01025 	move	v0,s8
   120002f00:	0002f000 	sll	s8,v0,0x0
   120002f04:	00d5582f 	dsubu	a7,a2,s5
   120002f08:	03cb102a 	slt	v0,s8,a7
   120002f0c:	10400002 	beqz	v0,120002f18 <printf_core+0x5f0>
   120002f10:	3c027fff 	lui	v0,0x7fff
   120002f14:	000bf000 	sll	s8,a7,0x0
   120002f18:	3442ffff 	ori	v0,v0,0xffff
   120002f1c:	00531023 	subu	v0,v0,s3
   120002f20:	005e102a 	slt	v0,v0,s8
   120002f24:	144000e5 	bnez	v0,1200032bc <printf_core+0x994>
   120002f28:	03d36821 	addu	t1,s8,s3
   120002f2c:	01b0202a 	slt	a0,t1,s0
   120002f30:	10800002 	beqz	a0,120002f3c <printf_core+0x614>
   120002f34:	01a01025 	move	v0,t1
   120002f38:	02001025 	move	v0,s0
   120002f3c:	dfa30088 	ld	v1,136(sp)
   120002f40:	ffa90098 	sd	a5,152(sp)
   120002f44:	0062182a 	slt	v1,v1,v0
   120002f48:	146000dc 	bnez	v1,1200032bc <printf_core+0x994>
   120002f4c:	ffab00a8 	sd	a7,168(sp)
   120002f50:	df908058 	ld	s0,-32680(gp)
   120002f54:	01a03825 	move	a3,t1
   120002f58:	00403025 	move	a2,v0
   120002f5c:	66101620 	daddiu	s0,s0,5664
   120002f60:	02c04025 	move	a4,s6
   120002f64:	24050020 	li	a1,32
   120002f68:	02202025 	move	a0,s1
   120002f6c:	0200c825 	move	t9,s0
   120002f70:	ffad0090 	sd	t1,144(sp)
   120002f74:	0411f9aa 	bal	120001620 <pad>
   120002f78:	afa20088 	sw	v0,136(sp)
   120002f7c:	dfa90098 	ld	a5,152(sp)
   120002f80:	dfb90080 	ld	t9,128(sp)
   120002f84:	02603025 	move	a2,s3
   120002f88:	01202825 	move	a1,a5
   120002f8c:	0320f809 	jalr	t9
   120002f90:	02202025 	move	a0,s1
   120002f94:	dfad0090 	ld	t1,144(sp)
   120002f98:	8fa20088 	lw	v0,136(sp)
   120002f9c:	3c080001 	lui	a4,0x1
   120002fa0:	01a03825 	move	a3,t1
   120002fa4:	00403025 	move	a2,v0
   120002fa8:	01164026 	xor	a4,a4,s6
   120002fac:	24050030 	li	a1,48
   120002fb0:	02202025 	move	a0,s1
   120002fb4:	0200c825 	move	t9,s0
   120002fb8:	ffad0098 	sd	t1,152(sp)
   120002fbc:	0411f998 	bal	120001620 <pad>
   120002fc0:	afa20090 	sw	v0,144(sp)
   120002fc4:	dfab00a8 	ld	a7,168(sp)
   120002fc8:	00004025 	move	a4,zero
   120002fcc:	03c03025 	move	a2,s8
   120002fd0:	000b3800 	sll	a3,a7,0x0
   120002fd4:	24050030 	li	a1,48
   120002fd8:	02202025 	move	a0,s1
   120002fdc:	0200c825 	move	t9,s0
   120002fe0:	0411f98f 	bal	120001620 <pad>
   120002fe4:	ffab0088 	sd	a7,136(sp)
   120002fe8:	dfab0088 	ld	a7,136(sp)
   120002fec:	dfb90080 	ld	t9,128(sp)
   120002ff0:	02a02825 	move	a1,s5
   120002ff4:	01603025 	move	a2,a7
   120002ff8:	0320f809 	jalr	t9
   120002ffc:	02202025 	move	a0,s1
   120003000:	8fa20090 	lw	v0,144(sp)
   120003004:	dfad0098 	ld	t1,152(sp)
   120003008:	3ac82000 	xori	a4,s6,0x2000
   12000300c:	00403025 	move	a2,v0
   120003010:	01a03825 	move	a3,t1
   120003014:	24050020 	li	a1,32
   120003018:	02202025 	move	a0,s1
   12000301c:	0200c825 	move	t9,s0
   120003020:	0411f97f 	bal	120001620 <pad>
   120003024:	afa20088 	sw	v0,136(sp)
   120003028:	8fa20088 	lw	v0,136(sp)
   12000302c:	1000fe5b 	b	12000299c <printf_core+0x74>
   120003030:	00409825 	move	s3,v0
   120003034:	00c5302d 	daddu	a2,a2,a1
   120003038:	90c60000 	lbu	a2,0(a2)
   12000303c:	66b5ffff 	daddiu	s5,s5,-1
   120003040:	0002113a 	dsrl	v0,v0,0x4
   120003044:	00c43025 	or	a2,a2,a0
   120003048:	1000ff90 	b	120002e8c <printf_core+0x564>
   12000304c:	a2a60000 	sb	a2,0(s5)
   120003050:	dfa40040 	ld	a0,64(sp)
   120003054:	67b50037 	daddiu	s5,sp,55
   120003058:	02a01025 	move	v0,s5
   12000305c:	1480000b 	bnez	a0,12000308c <printf_core+0x764>
   120003060:	30850007 	andi	a1,a0,0x7
   120003064:	df898058 	ld	a5,-32680(gp)
   120003068:	32c40008 	andi	a0,s6,0x8
   12000306c:	1080ff91 	beqz	a0,120002eb4 <printf_core+0x58c>
   120003070:	65297568 	daddiu	a5,a5,30056
   120003074:	0055102f 	dsubu	v0,v0,s5
   120003078:	005e202a 	slt	a0,v0,s8
   12000307c:	1480ff8d 	bnez	a0,120002eb4 <printf_core+0x58c>
   120003080:	00021000 	sll	v0,v0,0x0
   120003084:	1000ff8b 	b	120002eb4 <printf_core+0x58c>
   120003088:	245e0001 	addiu	s8,v0,1
   12000308c:	66b5ffff 	daddiu	s5,s5,-1
   120003090:	24a50030 	addiu	a1,a1,48
   120003094:	a2a50000 	sb	a1,0(s5)
   120003098:	1000fff0 	b	12000305c <printf_core+0x734>
   12000309c:	000420fa 	dsrl	a0,a0,0x3
   1200030a0:	dfa20040 	ld	v0,64(sp)
   1200030a4:	0441000c 	bgez	v0,1200030d8 <printf_core+0x7b0>
   1200030a8:	0002102f 	dnegu	v0,v0
   1200030ac:	ffa20040 	sd	v0,64(sp)
   1200030b0:	24130001 	li	s3,1
   1200030b4:	df898058 	ld	a5,-32680(gp)
   1200030b8:	65297568 	daddiu	a5,a5,30056
   1200030bc:	df998058 	ld	t9,-32680(gp)
   1200030c0:	dfa40040 	ld	a0,64(sp)
   1200030c4:	67391538 	daddiu	t9,t9,5432
   1200030c8:	0411f91b 	bal	120001538 <fmt_u>
   1200030cc:	67a50037 	daddiu	a1,sp,55
   1200030d0:	1000ff78 	b	120002eb4 <printf_core+0x58c>
   1200030d4:	0040a825 	move	s5,v0
   1200030d8:	32c20800 	andi	v0,s6,0x800
   1200030dc:	14400008 	bnez	v0,120003100 <printf_core+0x7d8>
   1200030e0:	df898058 	ld	a5,-32680(gp)
   1200030e4:	32c20001 	andi	v0,s6,0x1
   1200030e8:	1040fff2 	beqz	v0,1200030b4 <printf_core+0x78c>
   1200030ec:	00000000 	nop
   1200030f0:	df898058 	ld	a5,-32680(gp)
   1200030f4:	24130001 	li	s3,1
   1200030f8:	1000fff0 	b	1200030bc <printf_core+0x794>
   1200030fc:	6529756a 	daddiu	a5,a5,30058
   120003100:	24130001 	li	s3,1
   120003104:	1000ffed 	b	1200030bc <printf_core+0x794>
   120003108:	65297569 	daddiu	a5,a5,30057
   12000310c:	dfa20040 	ld	v0,64(sp)
   120003110:	df898058 	ld	a5,-32680(gp)
   120003114:	3c08fffe 	lui	a4,0xfffe
   120003118:	3508ffff 	ori	a4,a4,0xffff
   12000311c:	02c85024 	and	a6,s6,a4
   120003120:	a3a20036 	sb	v0,54(sp)
   120003124:	0140b025 	move	s6,a6
   120003128:	65297568 	daddiu	a5,a5,30056
   12000312c:	241e0001 	li	s8,1
   120003130:	67a60037 	daddiu	a2,sp,55
   120003134:	1000ff73 	b	120002f04 <printf_core+0x5dc>
   120003138:	67b50036 	daddiu	s5,sp,54
   12000313c:	df998198 	ld	t9,-32360(gp)
   120003140:	0411027b 	bal	120003b30 <__errno_location>
   120003144:	00000000 	nop
   120003148:	df9981a0 	ld	t9,-32352(gp)
   12000314c:	04110294 	bal	120003ba0 <strerror>
   120003150:	8c440000 	lw	a0,0(v0)
   120003154:	0040a825 	move	s5,v0
   120003158:	07c10003 	bgez	s8,120003168 <printf_core+0x840>
   12000315c:	03c02825 	move	a1,s8
   120003160:	3c057fff 	lui	a1,0x7fff
   120003164:	34a5ffff 	ori	a1,a1,0xffff
   120003168:	df9981a8 	ld	t9,-32344(gp)
   12000316c:	04110164 	bal	120003700 <strnlen>
   120003170:	02a02025 	move	a0,s5
   120003174:	07c10004 	bgez	s8,120003188 <printf_core+0x860>
   120003178:	02a2302d 	daddu	a2,s5,v0
   12000317c:	80c40000 	lb	a0,0(a2)
   120003180:	1480004f 	bnez	a0,1200032c0 <printf_core+0x998>
   120003184:	df998198 	ld	t9,-32360(gp)
   120003188:	df898058 	ld	a5,-32680(gp)
   12000318c:	3c08fffe 	lui	a4,0xfffe
   120003190:	3508ffff 	ori	a4,a4,0xffff
   120003194:	02c85024 	and	a6,s6,a4
   120003198:	0002f000 	sll	s8,v0,0x0
   12000319c:	0140b025 	move	s6,a6
   1200031a0:	1000ff58 	b	120002f04 <printf_core+0x5dc>
   1200031a4:	65297568 	daddiu	a5,a5,30056
   1200031a8:	dfb50040 	ld	s5,64(sp)
   1200031ac:	16a0ffea 	bnez	s5,120003158 <printf_core+0x830>
   1200031b0:	df838058 	ld	v1,-32680(gp)
   1200031b4:	1000ffe8 	b	120003158 <printf_core+0x830>
   1200031b8:	64757578 	daddiu	s5,v1,30072
   1200031bc:	dfa20040 	ld	v0,64(sp)
   1200031c0:	afa00054 	sw	zero,84(sp)
   1200031c4:	241effff 	li	s8,-1
   1200031c8:	afa20050 	sw	v0,80(sp)
   1200031cc:	67a20050 	daddiu	v0,sp,80
   1200031d0:	ffa20040 	sd	v0,64(sp)
   1200031d4:	dfb50040 	ld	s5,64(sp)
   1200031d8:	00009825 	move	s3,zero
   1200031dc:	67a40060 	daddiu	a0,sp,96
   1200031e0:	027e102b 	sltu	v0,s3,s8
   1200031e4:	1040000e 	beqz	v0,120003220 <printf_core+0x8f8>
   1200031e8:	24020001 	li	v0,1
   1200031ec:	8ea50000 	lw	a1,0(s5)
   1200031f0:	10a0000b 	beqz	a1,120003220 <printf_core+0x8f8>
   1200031f4:	df9981b0 	ld	t9,-32336(gp)
   1200031f8:	ffa40090 	sd	a0,144(sp)
   1200031fc:	041102f8 	bal	120003de0 <wctomb>
   120003200:	66b50004 	daddiu	s5,s5,4
   120003204:	0440fe91 	bltz	v0,120002c4c <printf_core+0x324>
   120003208:	00000000 	nop
   12000320c:	03d3282f 	dsubu	a1,s8,s3
   120003210:	00a2282b 	sltu	a1,a1,v0
   120003214:	10a0002e 	beqz	a1,1200032d0 <printf_core+0x9a8>
   120003218:	dfa40090 	ld	a0,144(sp)
   12000321c:	24020001 	li	v0,1
   120003220:	000217f8 	dsll	v0,v0,0x1f
   120003224:	0262102b 	sltu	v0,s3,v0
   120003228:	10400024 	beqz	v0,1200032bc <printf_core+0x994>
   12000322c:	02c04025 	move	a4,s6
   120003230:	afb30090 	sw	s3,144(sp)
   120003234:	df828058 	ld	v0,-32680(gp)
   120003238:	8fbe0090 	lw	s8,144(sp)
   12000323c:	64421620 	daddiu	v0,v0,5664
   120003240:	0040c825 	move	t9,v0
   120003244:	03c03825 	move	a3,s8
   120003248:	02003025 	move	a2,s0
   12000324c:	24050020 	li	a1,32
   120003250:	02202025 	move	a0,s1
   120003254:	0411f8f2 	bal	120001620 <pad>
   120003258:	ffa20090 	sd	v0,144(sp)
   12000325c:	dfa80040 	ld	a4,64(sp)
   120003260:	67a20060 	daddiu	v0,sp,96
   120003264:	0000a825 	move	s5,zero
   120003268:	ffa20098 	sd	v0,152(sp)
   12000326c:	02b3102b 	sltu	v0,s5,s3
   120003270:	14400019 	bnez	v0,1200032d8 <printf_core+0x9b0>
   120003274:	00000000 	nop
   120003278:	dfb90090 	ld	t9,144(sp)
   12000327c:	02003025 	move	a2,s0
   120003280:	3ac82000 	xori	a4,s6,0x2000
   120003284:	03c03825 	move	a3,s8
   120003288:	24050020 	li	a1,32
   12000328c:	0320f809 	jalr	t9
   120003290:	02202025 	move	a0,s1
   120003294:	02006025 	move	t0,s0
   120003298:	021e802a 	slt	s0,s0,s8
   12000329c:	12000003 	beqz	s0,1200032ac <printf_core+0x984>
   1200032a0:	01809825 	move	s3,t0
   1200032a4:	03c06025 	move	t0,s8
   1200032a8:	01809825 	move	s3,t0
   1200032ac:	dfa20088 	ld	v0,136(sp)
   1200032b0:	0053102a 	slt	v0,v0,s3
   1200032b4:	1040fdba 	beqz	v0,1200029a0 <printf_core+0x78>
   1200032b8:	dfb50058 	ld	s5,88(sp)
   1200032bc:	df998198 	ld	t9,-32360(gp)
   1200032c0:	0411021b 	bal	120003b30 <__errno_location>
   1200032c4:	00000000 	nop
   1200032c8:	1000fe5f 	b	120002c48 <printf_core+0x320>
   1200032cc:	2403004f 	li	v1,79
   1200032d0:	1000ffc3 	b	1200031e0 <printf_core+0x8b8>
   1200032d4:	0262982d 	daddu	s3,s3,v0
   1200032d8:	8d050000 	lw	a1,0(a4)
   1200032dc:	10a0ffe6 	beqz	a1,120003278 <printf_core+0x950>
   1200032e0:	df9981b0 	ld	t9,-32336(gp)
   1200032e4:	dfa40098 	ld	a0,152(sp)
   1200032e8:	65080004 	daddiu	a4,a4,4
   1200032ec:	041102bc 	bal	120003de0 <wctomb>
   1200032f0:	ffa800a8 	sd	a4,168(sp)
   1200032f4:	02a2a82d 	daddu	s5,s5,v0
   1200032f8:	00403025 	move	a2,v0
   1200032fc:	0275102b 	sltu	v0,s3,s5
   120003300:	1440ffdd 	bnez	v0,120003278 <printf_core+0x950>
   120003304:	dfa800a8 	ld	a4,168(sp)
   120003308:	dfa50098 	ld	a1,152(sp)
   12000330c:	dfb90080 	ld	t9,128(sp)
   120003310:	02202025 	move	a0,s1
   120003314:	0320f809 	jalr	t9
   120003318:	ffa800a8 	sd	a4,168(sp)
   12000331c:	1000ffd3 	b	12000326c <printf_core+0x944>
   120003320:	dfa800a8 	ld	a4,168(sp)
   120003324:	10e00003 	beqz	a3,120003334 <printf_core+0xa0c>
   120003328:	df998058 	ld	t9,-32680(gp)
   12000332c:	07c0ffe3 	bltz	s8,1200032bc <printf_core+0x994>
   120003330:	00000000 	nop
   120003334:	dfa60040 	ld	a2,64(sp)
   120003338:	dfa70048 	ld	a3,72(sp)
   12000333c:	02c05025 	move	a6,s6
   120003340:	03c04825 	move	a5,s8
   120003344:	02004025 	move	a4,s0
   120003348:	673916f8 	daddiu	t9,t9,5880
   12000334c:	0411f8ea 	bal	1200016f8 <fmt_fp>
   120003350:	02202025 	move	a0,s1
   120003354:	0441ffd5 	bgez	v0,1200032ac <printf_core+0x984>
   120003358:	00409825 	move	s3,v0
   12000335c:	1000ffd8 	b	1200032c0 <printf_core+0x998>
   120003360:	df998198 	ld	t9,-32360(gp)
   120003364:	df898058 	ld	a5,-32680(gp)
   120003368:	67a60037 	daddiu	a2,sp,55
   12000336c:	1000fee5 	b	120002f04 <printf_core+0x5dc>
   120003370:	65297568 	daddiu	a5,a5,30056
   120003374:	1000fee3 	b	120002f04 <printf_core+0x5dc>
   120003378:	00c0a825 	move	s5,a2
   12000337c:	1620fe6d 	bnez	s1,120002d34 <printf_core+0x40c>
   120003380:	dfbf0108 	ld	ra,264(sp)
   120003384:	12e0fe69 	beqz	s7,120002d2c <printf_core+0x404>
   120003388:	df918058 	ld	s1,-32680(gp)
   12000338c:	24100001 	li	s0,1
   120003390:	2412000a 	li	s2,10
   120003394:	66311410 	daddiu	s1,s1,5136
   120003398:	dfa30070 	ld	v1,112(sp)
   12000339c:	001010b8 	dsll	v0,s0,0x2
   1200033a0:	0062102d 	daddu	v0,v1,v0
   1200033a4:	8c450000 	lw	a1,0(v0)
   1200033a8:	14a0000c 	bnez	a1,1200033dc <printf_core+0xab4>
   1200033ac:	dfa20078 	ld	v0,120(sp)
   1200033b0:	2403000a 	li	v1,10
   1200033b4:	dfa40070 	ld	a0,112(sp)
   1200033b8:	001010b8 	dsll	v0,s0,0x2
   1200033bc:	0082102d 	daddu	v0,a0,v0
   1200033c0:	8c420000 	lw	v0,0(v0)
   1200033c4:	1440fe1c 	bnez	v0,120002c38 <printf_core+0x310>
   1200033c8:	66100001 	daddiu	s0,s0,1
   1200033cc:	1603fffb 	bne	s0,v1,1200033bc <printf_core+0xa94>
   1200033d0:	001010b8 	dsll	v0,s0,0x2
   1200033d4:	1000fe56 	b	120002d30 <printf_core+0x408>
   1200033d8:	24120001 	li	s2,1
   1200033dc:	00102138 	dsll	a0,s0,0x4
   1200033e0:	02803025 	move	a2,s4
   1200033e4:	0044202d 	daddu	a0,v0,a0
   1200033e8:	0220c825 	move	t9,s1
   1200033ec:	0411f808 	bal	120001410 <pop_arg>
   1200033f0:	66100001 	daddiu	s0,s0,1
   1200033f4:	1612ffe9 	bne	s0,s2,12000339c <printf_core+0xa74>
   1200033f8:	dfa30070 	ld	v1,112(sp)
   1200033fc:	1000fe4c 	b	120002d30 <printf_core+0x408>
   120003400:	24120001 	li	s2,1

0000000120003404 <vfprintf>:
   120003404:	67bdfe80 	daddiu	sp,sp,-384
   120003408:	ffbc0168 	sd	gp,360(sp)
   12000340c:	3c1c0002 	lui	gp,0x2
   120003410:	0399e02d 	daddu	gp,gp,t9
   120003414:	679cd10c 	daddiu	gp,gp,-12020
   120003418:	ffb40148 	sd	s4,328(sp)
   12000341c:	df948058 	ld	s4,-32680(gp)
   120003420:	ffbe0170 	sd	s8,368(sp)
   120003424:	ffb70160 	sd	s7,352(sp)
   120003428:	67be00f0 	daddiu	s8,sp,240
   12000342c:	67b70118 	daddiu	s7,sp,280
   120003430:	66942928 	daddiu	s4,s4,10536
   120003434:	ffb60158 	sd	s6,344(sp)
   120003438:	ffb10130 	sd	s1,304(sp)
   12000343c:	ffb00128 	sd	s0,296(sp)
   120003440:	ffa60118 	sd	a2,280(sp)
   120003444:	ffbf0178 	sd	ra,376(sp)
   120003448:	ffb50150 	sd	s5,336(sp)
   12000344c:	ffb30140 	sd	s3,320(sp)
   120003450:	ffb20138 	sd	s2,312(sp)
   120003454:	00808025 	move	s0,a0
   120003458:	03c04025 	move	a4,s8
   12000345c:	03a03825 	move	a3,sp
   120003460:	02e03025 	move	a2,s7
   120003464:	00002025 	move	a0,zero
   120003468:	0280c825 	move	t9,s4
   12000346c:	00a0b025 	move	s6,a1
   120003470:	ffa000f0 	sd	zero,240(sp)
   120003474:	ffa000f8 	sd	zero,248(sp)
   120003478:	ffa00100 	sd	zero,256(sp)
   12000347c:	ffa00108 	sd	zero,264(sp)
   120003480:	0411fd29 	bal	120002928 <printf_core>
   120003484:	ffa00110 	sd	zero,272(sp)
   120003488:	04400041 	bltz	v0,120003590 <vfprintf+0x18c>
   12000348c:	2411ffff 	li	s1,-1
   120003490:	8e02008c 	lw	v0,140(s0)
   120003494:	04400005 	bltz	v0,1200034ac <vfprintf+0xa8>
   120003498:	0000a825 	move	s5,zero
   12000349c:	df9981b8 	ld	t9,-32328(gp)
   1200034a0:	04110263 	bal	120003e30 <__lockfile>
   1200034a4:	02002025 	move	a0,s0
   1200034a8:	0040a825 	move	s5,v0
   1200034ac:	8e030000 	lw	v1,0(s0)
   1200034b0:	8e020088 	lw	v0,136(s0)
   1200034b4:	1c400004 	bgtz	v0,1200034c8 <vfprintf+0xc4>
   1200034b8:	30720020 	andi	s2,v1,0x20
   1200034bc:	2402ffdf 	li	v0,-33
   1200034c0:	00431024 	and	v0,v0,v1
   1200034c4:	ae020000 	sw	v0,0(s0)
   1200034c8:	de020060 	ld	v0,96(s0)
   1200034cc:	1440003e 	bnez	v0,1200035c8 <vfprintf+0x1c4>
   1200034d0:	67a200a0 	daddiu	v0,sp,160
   1200034d4:	de130058 	ld	s3,88(s0)
   1200034d8:	fe020058 	sd	v0,88(s0)
   1200034dc:	24020050 	li	v0,80
   1200034e0:	fe020060 	sd	v0,96(s0)
   1200034e4:	fe000020 	sd	zero,32(s0)
   1200034e8:	fe000038 	sd	zero,56(s0)
   1200034ec:	fe000028 	sd	zero,40(s0)
   1200034f0:	df9981c0 	ld	t9,-32320(gp)
   1200034f4:	02002025 	move	a0,s0
   1200034f8:	04110309 	bal	120004120 <__towrite>
   1200034fc:	2411ffff 	li	s1,-1
   120003500:	14400009 	bnez	v0,120003528 <vfprintf+0x124>
   120003504:	00000000 	nop
   120003508:	03c04025 	move	a4,s8
   12000350c:	03a03825 	move	a3,sp
   120003510:	02e03025 	move	a2,s7
   120003514:	02c02825 	move	a1,s6
   120003518:	0280c825 	move	t9,s4
   12000351c:	0411fd02 	bal	120002928 <printf_core>
   120003520:	02002025 	move	a0,s0
   120003524:	00408825 	move	s1,v0
   120003528:	1260000e 	beqz	s3,120003564 <vfprintf+0x160>
   12000352c:	00003025 	move	a2,zero
   120003530:	de190048 	ld	t9,72(s0)
   120003534:	00002825 	move	a1,zero
   120003538:	0320f809 	jalr	t9
   12000353c:	02002025 	move	a0,s0
   120003540:	de020028 	ld	v0,40(s0)
   120003544:	14400002 	bnez	v0,120003550 <vfprintf+0x14c>
   120003548:	00000000 	nop
   12000354c:	2411ffff 	li	s1,-1
   120003550:	fe130058 	sd	s3,88(s0)
   120003554:	fe000060 	sd	zero,96(s0)
   120003558:	fe000020 	sd	zero,32(s0)
   12000355c:	fe000038 	sd	zero,56(s0)
   120003560:	fe000028 	sd	zero,40(s0)
   120003564:	8e020000 	lw	v0,0(s0)
   120003568:	30430020 	andi	v1,v0,0x20
   12000356c:	10600002 	beqz	v1,120003578 <vfprintf+0x174>
   120003570:	00000000 	nop
   120003574:	2411ffff 	li	s1,-1
   120003578:	02429025 	or	s2,s2,v0
   12000357c:	12a00004 	beqz	s5,120003590 <vfprintf+0x18c>
   120003580:	ae120000 	sw	s2,0(s0)
   120003584:	df9981c8 	ld	t9,-32312(gp)
   120003588:	04110276 	bal	120003f64 <__unlockfile>
   12000358c:	02002025 	move	a0,s0
   120003590:	dfbf0178 	ld	ra,376(sp)
   120003594:	dfbe0170 	ld	s8,368(sp)
   120003598:	dfbc0168 	ld	gp,360(sp)
   12000359c:	dfb70160 	ld	s7,352(sp)
   1200035a0:	dfb60158 	ld	s6,344(sp)
   1200035a4:	dfb50150 	ld	s5,336(sp)
   1200035a8:	dfb40148 	ld	s4,328(sp)
   1200035ac:	dfb30140 	ld	s3,320(sp)
   1200035b0:	dfb20138 	ld	s2,312(sp)
   1200035b4:	dfb00128 	ld	s0,296(sp)
   1200035b8:	02201025 	move	v0,s1
   1200035bc:	dfb10130 	ld	s1,304(sp)
   1200035c0:	03e00008 	jr	ra
   1200035c4:	67bd0180 	daddiu	sp,sp,384
   1200035c8:	de130020 	ld	s3,32(s0)
   1200035cc:	1260ffc9 	beqz	s3,1200034f4 <vfprintf+0xf0>
   1200035d0:	df9981c0 	ld	t9,-32320(gp)
   1200035d4:	1000ffcc 	b	120003508 <vfprintf+0x104>
   1200035d8:	00009825 	move	s3,zero
   1200035dc:	00000000 	nop

00000001200035e0 <memset>:
   1200035e0:	10c00045 	beqz	a2,1200036f8 <memset+0x118>
   1200035e4:	00801025 	move	v0,a0
   1200035e8:	30a300ff 	andi	v1,a1,0xff
   1200035ec:	0086382d 	daddu	a3,a0,a2
   1200035f0:	2cc40003 	sltiu	a0,a2,3
   1200035f4:	a0430000 	sb	v1,0(v0)
   1200035f8:	1480003f 	bnez	a0,1200036f8 <memset+0x118>
   1200035fc:	a0e3ffff 	sb	v1,-1(a3)
   120003600:	2cc40007 	sltiu	a0,a2,7
   120003604:	a0430001 	sb	v1,1(v0)
   120003608:	a0430002 	sb	v1,2(v0)
   12000360c:	a0e3fffe 	sb	v1,-2(a3)
   120003610:	14800039 	bnez	a0,1200036f8 <memset+0x118>
   120003614:	a0e3fffd 	sb	v1,-3(a3)
   120003618:	2cc40009 	sltiu	a0,a2,9
   12000361c:	a0430003 	sb	v1,3(v0)
   120003620:	14800035 	bnez	a0,1200036f8 <memset+0x118>
   120003624:	a0e3fffc 	sb	v1,-4(a3)
   120003628:	30a300ff 	andi	v1,a1,0xff
   12000362c:	0002282f 	dnegu	a1,v0
   120003630:	30a50003 	andi	a1,a1,0x3
   120003634:	00032200 	sll	a0,v1,0x8
   120003638:	00831821 	addu	v1,a0,v1
   12000363c:	00c5302f 	dsubu	a2,a2,a1
   120003640:	2404fffc 	li	a0,-4
   120003644:	00c43024 	and	a2,a2,a0
   120003648:	0045282d 	daddu	a1,v0,a1
   12000364c:	00032400 	sll	a0,v1,0x10
   120003650:	00641821 	addu	v1,v1,a0
   120003654:	00a6382d 	daddu	a3,a1,a2
   120003658:	2cc40009 	sltiu	a0,a2,9
   12000365c:	aca30000 	sw	v1,0(a1)
   120003660:	14800025 	bnez	a0,1200036f8 <memset+0x118>
   120003664:	ace3fffc 	sw	v1,-4(a3)
   120003668:	2cc40019 	sltiu	a0,a2,25
   12000366c:	aca30004 	sw	v1,4(a1)
   120003670:	aca30008 	sw	v1,8(a1)
   120003674:	ace3fff4 	sw	v1,-12(a3)
   120003678:	1480001f 	bnez	a0,1200036f8 <memset+0x118>
   12000367c:	ace3fff8 	sw	v1,-8(a3)
   120003680:	30a80004 	andi	a4,a1,0x4
   120003684:	65080018 	daddiu	a4,a4,24
   120003688:	00c8302f 	dsubu	a2,a2,a4
   12000368c:	0003503c 	dsll32	a6,v1,0x0
   120003690:	000a503e 	dsrl32	a6,a6,0x0
   120003694:	0003203c 	dsll32	a0,v1,0x0
   120003698:	2cc90020 	sltiu	a5,a2,32
   12000369c:	aca3000c 	sw	v1,12(a1)
   1200036a0:	aca30010 	sw	v1,16(a1)
   1200036a4:	aca30014 	sw	v1,20(a1)
   1200036a8:	aca30018 	sw	v1,24(a1)
   1200036ac:	008a2025 	or	a0,a0,a6
   1200036b0:	00a8282d 	daddu	a1,a1,a4
   1200036b4:	ace3ffe4 	sw	v1,-28(a3)
   1200036b8:	ace3ffe8 	sw	v1,-24(a3)
   1200036bc:	ace3ffec 	sw	v1,-20(a3)
   1200036c0:	1520000d 	bnez	a5,1200036f8 <memset+0x118>
   1200036c4:	ace3fff0 	sw	v1,-16(a3)
   1200036c8:	64c3ffe0 	daddiu	v1,a2,-32
   1200036cc:	0003197a 	dsrl	v1,v1,0x5
   1200036d0:	64630001 	daddiu	v1,v1,1
   1200036d4:	00031978 	dsll	v1,v1,0x5
   1200036d8:	00a3182d 	daddu	v1,a1,v1
   1200036dc:	fca40000 	sd	a0,0(a1)
   1200036e0:	fca40008 	sd	a0,8(a1)
   1200036e4:	fca40010 	sd	a0,16(a1)
   1200036e8:	fca40018 	sd	a0,24(a1)
   1200036ec:	64a50020 	daddiu	a1,a1,32
   1200036f0:	54a3fffb 	bnel	a1,v1,1200036e0 <memset+0x100>
   1200036f4:	fca40000 	sd	a0,0(a1)
   1200036f8:	03e00008 	jr	ra
   1200036fc:	00000000 	nop

0000000120003700 <strnlen>:
   120003700:	67bdffe0 	daddiu	sp,sp,-32
   120003704:	ffbc0010 	sd	gp,16(sp)
   120003708:	3c1c0002 	lui	gp,0x2
   12000370c:	0399e02d 	daddu	gp,gp,t9
   120003710:	679cce10 	daddiu	gp,gp,-12784
   120003714:	df9981d0 	ld	t9,-32304(gp)
   120003718:	ffb10008 	sd	s1,8(sp)
   12000371c:	ffb00000 	sd	s0,0(sp)
   120003720:	00a03025 	move	a2,a1
   120003724:	ffbf0018 	sd	ra,24(sp)
   120003728:	00a08025 	move	s0,a1
   12000372c:	00002825 	move	a1,zero
   120003730:	0411031b 	bal	1200043a0 <memchr>
   120003734:	00808825 	move	s1,a0
   120003738:	10400007 	beqz	v0,120003758 <strnlen+0x58>
   12000373c:	dfbf0018 	ld	ra,24(sp)
   120003740:	dfbc0010 	ld	gp,16(sp)
   120003744:	dfb00000 	ld	s0,0(sp)
   120003748:	0051102f 	dsubu	v0,v0,s1
   12000374c:	dfb10008 	ld	s1,8(sp)
   120003750:	03e00008 	jr	ra
   120003754:	67bd0020 	daddiu	sp,sp,32
   120003758:	dfbc0010 	ld	gp,16(sp)
   12000375c:	dfb10008 	ld	s1,8(sp)
   120003760:	02001025 	move	v0,s0
   120003764:	dfb00000 	ld	s0,0(sp)
   120003768:	03e00008 	jr	ra
   12000376c:	67bd0020 	daddiu	sp,sp,32

0000000120003770 <__init_tp>:
   120003770:	67bdffe0 	daddiu	sp,sp,-32
   120003774:	ffbc0010 	sd	gp,16(sp)
   120003778:	3c1c0002 	lui	gp,0x2
   12000377c:	0399e02d 	daddu	gp,gp,t9
   120003780:	679ccda0 	daddiu	gp,gp,-12896
   120003784:	df9981d8 	ld	t9,-32296(gp)
   120003788:	ffb00008 	sd	s0,8(sp)
   12000378c:	ffbf0018 	sd	ra,24(sp)
   120003790:	00808025 	move	s0,a0
   120003794:	fc840000 	sd	a0,0(a0)
   120003798:	04110499 	bal	120004a00 <__set_thread_area>
   12000379c:	648470c8 	daddiu	a0,a0,28872
   1200037a0:	0440001a 	bltz	v0,12000380c <__init_tp+0x9c>
   1200037a4:	2404ffff 	li	a0,-1
   1200037a8:	14400003 	bnez	v0,1200037b8 <__init_tp+0x48>
   1200037ac:	df8580a8 	ld	a1,-32600(gp)
   1200037b0:	24030001 	li	v1,1
   1200037b4:	a0a30000 	sb	v1,0(a1)
   1200037b8:	24030002 	li	v1,2
   1200037bc:	df8481e0 	ld	a0,-32288(gp)
   1200037c0:	ae030028 	sw	v1,40(s0)
   1200037c4:	6402145c 	daddiu	v0,zero,5212
   1200037c8:	0000000c 	syscall
   1200037cc:	10e00004 	beqz	a3,1200037e0 <__init_tp+0x70>
   1200037d0:	00000000 	nop
   1200037d4:	18400002 	blez	v0,1200037e0 <__init_tp+0x70>
   1200037d8:	00000000 	nop
   1200037dc:	0002102f 	dnegu	v0,v0
   1200037e0:	ae020020 	sw	v0,32(s0)
   1200037e4:	66020078 	daddiu	v0,s0,120
   1200037e8:	fe020078 	sd	v0,120(s0)
   1200037ec:	df8280b8 	ld	v0,-32584(gp)
   1200037f0:	64a50038 	daddiu	a1,a1,56
   1200037f4:	fe050098 	sd	a1,152(s0)
   1200037f8:	dc420000 	ld	v0,0(v0)
   1200037fc:	fe100008 	sd	s0,8(s0)
   120003800:	fe100010 	sd	s0,16(s0)
   120003804:	fe020018 	sd	v0,24(s0)
   120003808:	00002025 	move	a0,zero
   12000380c:	dfbf0018 	ld	ra,24(sp)
   120003810:	dfbc0010 	ld	gp,16(sp)
   120003814:	dfb00008 	ld	s0,8(sp)
   120003818:	00801025 	move	v0,a0
   12000381c:	03e00008 	jr	ra
   120003820:	67bd0020 	daddiu	sp,sp,32

0000000120003824 <__copy_tls>:
   120003824:	67bdffb0 	daddiu	sp,sp,-80
   120003828:	ffbc0040 	sd	gp,64(sp)
   12000382c:	3c1c0002 	lui	gp,0x2
   120003830:	0399e02d 	daddu	gp,gp,t9
   120003834:	679cccec 	daddiu	gp,gp,-13076
   120003838:	ffb30020 	sd	s3,32(sp)
   12000383c:	df9380a8 	ld	s3,-32600(gp)
   120003840:	ffb10010 	sd	s1,16(sp)
   120003844:	ffb00008 	sd	s0,8(sp)
   120003848:	de710018 	ld	s1,24(s3)
   12000384c:	de620028 	ld	v0,40(s3)
   120003850:	de700020 	ld	s0,32(s3)
   120003854:	6631fff8 	daddiu	s1,s1,-8
   120003858:	000210f8 	dsll	v0,v0,0x3
   12000385c:	0222882f 	dsubu	s1,s1,v0
   120003860:	2402ff38 	li	v0,-200
   120003864:	6610ffff 	daddiu	s0,s0,-1
   120003868:	0044102f 	dsubu	v0,v0,a0
   12000386c:	ffb20018 	sd	s2,24(sp)
   120003870:	02028024 	and	s0,s0,v0
   120003874:	de720010 	ld	s2,16(s3)
   120003878:	0091882d 	daddu	s1,a0,s1
   12000387c:	0090802d 	daddu	s0,a0,s0
   120003880:	ffb60038 	sd	s6,56(sp)
   120003884:	ffb50030 	sd	s5,48(sp)
   120003888:	ffb40028 	sd	s4,40(sp)
   12000388c:	ffbf0048 	sd	ra,72(sp)
   120003890:	661500c8 	daddiu	s5,s0,200
   120003894:	66340008 	daddiu	s4,s1,8
   120003898:	34168000 	li	s6,0x8000
   12000389c:	16400010 	bnez	s2,1200038e0 <__copy_tls+0xbc>
   1200038a0:	df9981e8 	ld	t9,-32280(gp)
   1200038a4:	de620028 	ld	v0,40(s3)
   1200038a8:	dfbf0048 	ld	ra,72(sp)
   1200038ac:	dfbc0040 	ld	gp,64(sp)
   1200038b0:	fe220000 	sd	v0,0(s1)
   1200038b4:	dfb60038 	ld	s6,56(sp)
   1200038b8:	fe1100c0 	sd	s1,192(s0)
   1200038bc:	dfb50030 	ld	s5,48(sp)
   1200038c0:	dfb40028 	ld	s4,40(sp)
   1200038c4:	dfb30020 	ld	s3,32(sp)
   1200038c8:	dfb20018 	ld	s2,24(sp)
   1200038cc:	dfb10010 	ld	s1,16(sp)
   1200038d0:	02001025 	move	v0,s0
   1200038d4:	dfb00008 	ld	s0,8(sp)
   1200038d8:	03e00008 	jr	ra
   1200038dc:	67bd0050 	daddiu	sp,sp,80
   1200038e0:	de420028 	ld	v0,40(s2)
   1200038e4:	de450008 	ld	a1,8(s2)
   1200038e8:	02a2102d 	daddu	v0,s5,v0
   1200038ec:	0056102d 	daddu	v0,v0,s6
   1200038f0:	fe820000 	sd	v0,0(s4)
   1200038f4:	de440028 	ld	a0,40(s2)
   1200038f8:	de460010 	ld	a2,16(s2)
   1200038fc:	66940008 	daddiu	s4,s4,8
   120003900:	041102f3 	bal	1200044d0 <memcpy>
   120003904:	02a4202d 	daddu	a0,s5,a0
   120003908:	1000ffe4 	b	12000389c <__copy_tls+0x78>
   12000390c:	de520000 	ld	s2,0(s2)

0000000120003910 <__init_tls>:
   120003910:	67bdffe0 	daddiu	sp,sp,-32
   120003914:	ffbc0010 	sd	gp,16(sp)
   120003918:	3c1c0002 	lui	gp,0x2
   12000391c:	0399e02d 	daddu	gp,gp,t9
   120003920:	679ccc00 	daddiu	gp,gp,-13312
   120003924:	df8d81f0 	ld	t1,-32272(gp)
   120003928:	dc8f0018 	ld	t3,24(a0)
   12000392c:	dc890028 	ld	a5,40(a0)
   120003930:	8da80000 	lw	a4,0(t1)
   120003934:	24180000 	li	t8,0
   120003938:	3c0a6474 	lui	a6,0x6474
   12000393c:	3c0b0080 	lui	a7,0x80
   120003940:	ffbf0018 	sd	ra,24(sp)
   120003944:	ffb00008 	sd	s0,8(sp)
   120003948:	01e01825 	move	v1,t3
   12000394c:	00007025 	move	t2,zero
   120003950:	00002825 	move	a1,zero
   120003954:	00003025 	move	a2,zero
   120003958:	24190006 	li	t9,6
   12000395c:	241f0002 	li	ra,2
   120003960:	24100007 	li	s0,7
   120003964:	354ae551 	ori	a6,a6,0xe551
   120003968:	656b0001 	daddiu	a7,a7,1
   12000396c:	15200043 	bnez	a5,120003a7c <__init_tls+0x16c>
   120003970:	00000000 	nop
   120003974:	11c00002 	beqz	t2,120003980 <__init_tls+0x70>
   120003978:	00000000 	nop
   12000397c:	ada80000 	sw	a4,0(t1)
   120003980:	df838040 	ld	v1,-32704(gp)
   120003984:	df8780a8 	ld	a3,-32600(gp)
   120003988:	10c0000d 	beqz	a2,1200039c0 <__init_tls+0xb0>
   12000398c:	64638cf0 	daddiu	v1,v1,-29456
   120003990:	dcc40010 	ld	a0,16(a2)
   120003994:	fce30010 	sd	v1,16(a3)
   120003998:	0085282d 	daddu	a1,a0,a1
   12000399c:	dcc40020 	ld	a0,32(a2)
   1200039a0:	fc650008 	sd	a1,8(v1)
   1200039a4:	fc640010 	sd	a0,16(v1)
   1200039a8:	dcc40028 	ld	a0,40(a2)
   1200039ac:	fc640018 	sd	a0,24(v1)
   1200039b0:	dcc40030 	ld	a0,48(a2)
   1200039b4:	fc640020 	sd	a0,32(v1)
   1200039b8:	24040001 	li	a0,1
   1200039bc:	fce40028 	sd	a0,40(a3)
   1200039c0:	dc690018 	ld	a5,24(v1)
   1200039c4:	dc650008 	ld	a1,8(v1)
   1200039c8:	dc680020 	ld	a4,32(v1)
   1200039cc:	0125202d 	daddu	a0,a5,a1
   1200039d0:	6506ffff 	daddiu	a2,a4,-1
   1200039d4:	0004202f 	dnegu	a0,a0
   1200039d8:	00862024 	and	a0,a0,a2
   1200039dc:	0089202d 	daddu	a0,a0,a5
   1200039e0:	00a63024 	and	a2,a1,a2
   1200039e4:	2d080008 	sltiu	a4,a4,8
   1200039e8:	fc640018 	sd	a0,24(v1)
   1200039ec:	11000003 	beqz	a4,1200039fc <__init_tls+0xec>
   1200039f0:	fc660028 	sd	a2,40(v1)
   1200039f4:	24050008 	li	a1,8
   1200039f8:	fc650020 	sd	a1,32(v1)
   1200039fc:	dc630020 	ld	v1,32(v1)
   120003a00:	646500df 	daddiu	a1,v1,223
   120003a04:	00a6282d 	daddu	a1,a1,a2
   120003a08:	fce30020 	sd	v1,32(a3)
   120003a0c:	00a4282d 	daddu	a1,a1,a0
   120003a10:	2403fff8 	li	v1,-8
   120003a14:	00a32824 	and	a1,a1,v1
   120003a18:	2ca30151 	sltiu	v1,a1,337
   120003a1c:	1460003b 	bnez	v1,120003b0c <__init_tls+0x1fc>
   120003a20:	fce50018 	sd	a1,24(a3)
   120003a24:	00002025 	move	a0,zero
   120003a28:	24060003 	li	a2,3
   120003a2c:	24070802 	li	a3,2050
   120003a30:	2408ffff 	li	a4,-1
   120003a34:	00004825 	move	a5,zero
   120003a38:	64021391 	daddiu	v0,zero,5009
   120003a3c:	0000000c 	syscall
   120003a40:	10e00030 	beqz	a3,120003b04 <__init_tls+0x1f4>
   120003a44:	00000000 	nop
   120003a48:	1840002e 	blez	v0,120003b04 <__init_tls+0x1f4>
   120003a4c:	00000000 	nop
   120003a50:	0002202f 	dnegu	a0,v0
   120003a54:	df9981f8 	ld	t9,-32264(gp)
   120003a58:	0411ff72 	bal	120003824 <__copy_tls>
   120003a5c:	00000000 	nop
   120003a60:	df998200 	ld	t9,-32256(gp)
   120003a64:	0411ff42 	bal	120003770 <__init_tp>
   120003a68:	00402025 	move	a0,v0
   120003a6c:	0441002a 	bgez	v0,120003b18 <__init_tls+0x208>
   120003a70:	dfbf0018 	ld	ra,24(sp)
   120003a74:	a0000000 	sb	zero,0(zero)
   120003a78:	00000034 	teq	zero,zero
   120003a7c:	8c670000 	lw	a3,0(v1)
   120003a80:	14f90007 	bne	a3,t9,120003aa0 <__init_tls+0x190>
   120003a84:	00000000 	nop
   120003a88:	dc650010 	ld	a1,16(v1)
   120003a8c:	01e5282f 	dsubu	a1,t3,a1
   120003a90:	dc870020 	ld	a3,32(a0)
   120003a94:	6529ffff 	daddiu	a5,a5,-1
   120003a98:	1000ffb4 	b	12000396c <__init_tls+0x5c>
   120003a9c:	0067182d 	daddu	v1,v1,a3
   120003aa0:	10ff0011 	beq	a3,ra,120003ae8 <__init_tls+0x1d8>
   120003aa4:	00000000 	nop
   120003aa8:	10f00014 	beq	a3,s0,120003afc <__init_tls+0x1ec>
   120003aac:	00000000 	nop
   120003ab0:	14eafff7 	bne	a3,a6,120003a90 <__init_tls+0x180>
   120003ab4:	0008603c 	dsll32	t0,a4,0x0
   120003ab8:	dc670028 	ld	a3,40(v1)
   120003abc:	000c603e 	dsrl32	t0,t0,0x0
   120003ac0:	0187602b 	sltu	t0,t0,a3
   120003ac4:	1180fff2 	beqz	t0,120003a90 <__init_tls+0x180>
   120003ac8:	00000000 	nop
   120003acc:	00eb402b 	sltu	a4,a3,a7
   120003ad0:	15000002 	bnez	a4,120003adc <__init_tls+0x1cc>
   120003ad4:	00000000 	nop
   120003ad8:	3c070080 	lui	a3,0x80
   120003adc:	00074000 	sll	a4,a3,0x0
   120003ae0:	1000ffeb 	b	120003a90 <__init_tls+0x180>
   120003ae4:	240e0001 	li	t2,1
   120003ae8:	1300ffe9 	beqz	t8,120003a90 <__init_tls+0x180>
   120003aec:	00000000 	nop
   120003af0:	dc650010 	ld	a1,16(v1)
   120003af4:	1000ffe6 	b	120003a90 <__init_tls+0x180>
   120003af8:	0305282f 	dsubu	a1,t8,a1
   120003afc:	1000ffe4 	b	120003a90 <__init_tls+0x180>
   120003b00:	00603025 	move	a2,v1
   120003b04:	1000ffd3 	b	120003a54 <__init_tls+0x144>
   120003b08:	00402025 	move	a0,v0
   120003b0c:	df848040 	ld	a0,-32704(gp)
   120003b10:	1000ffd0 	b	120003a54 <__init_tls+0x144>
   120003b14:	64848d20 	daddiu	a0,a0,-29408
   120003b18:	dfbc0010 	ld	gp,16(sp)
   120003b1c:	dfb00008 	ld	s0,8(sp)
   120003b20:	03e00008 	jr	ra
   120003b24:	67bd0020 	daddiu	sp,sp,32
	...

0000000120003b30 <__errno_location>:
   120003b30:	7c03e83b 	0x7c03e83b
   120003b34:	03e00008 	jr	ra
   120003b38:	64628f5c 	daddiu	v0,v1,-28836
   120003b3c:	00000000 	nop

0000000120003b40 <__strerror_l>:
   120003b40:	3c030002 	lui	v1,0x2
   120003b44:	0079182d 	daddu	v1,v1,t9
   120003b48:	2402006d 	li	v0,109
   120003b4c:	10820012 	beq	a0,v0,120003b98 <__strerror_l+0x58>
   120003b50:	6463c9d0 	daddiu	v1,v1,-13872
   120003b54:	2402046d 	li	v0,1133
   120003b58:	1482000d 	bne	a0,v0,120003b90 <__strerror_l+0x50>
   120003b5c:	2c8200a7 	sltiu	v0,a0,167
   120003b60:	2404006d 	li	a0,109
   120003b64:	dc628058 	ld	v0,-32680(v1)
   120003b68:	00042078 	dsll	a0,a0,0x1
   120003b6c:	dca50028 	ld	a1,40(a1)
   120003b70:	644279e0 	daddiu	v0,v0,31200
   120003b74:	0082202d 	daddu	a0,a0,v0
   120003b78:	dc628058 	ld	v0,-32680(v1)
   120003b7c:	94840000 	lhu	a0,0(a0)
   120003b80:	dc798208 	ld	t9,-32248(v1)
   120003b84:	64427b30 	daddiu	v0,v0,31536
   120003b88:	1000002f 	b	120003c48 <__lctrans>
   120003b8c:	0044202d 	daddu	a0,v0,a0
   120003b90:	1440fff4 	bnez	v0,120003b64 <__strerror_l+0x24>
   120003b94:	00000000 	nop
   120003b98:	1000fff2 	b	120003b64 <__strerror_l+0x24>
   120003b9c:	00002025 	move	a0,zero

0000000120003ba0 <strerror>:
   120003ba0:	67bdfff0 	daddiu	sp,sp,-16
   120003ba4:	ffbc0000 	sd	gp,0(sp)
   120003ba8:	3c1c0002 	lui	gp,0x2
   120003bac:	0399e02d 	daddu	gp,gp,t9
   120003bb0:	679cc970 	daddiu	gp,gp,-13968
   120003bb4:	df998210 	ld	t9,-32240(gp)
   120003bb8:	7c03e83b 	0x7c03e83b
   120003bbc:	dc658fd0 	ld	a1,-28720(v1)
   120003bc0:	ffbf0008 	sd	ra,8(sp)
   120003bc4:	0411ffde 	bal	120003b40 <__strerror_l>
   120003bc8:	00000000 	nop
   120003bcc:	dfbf0008 	ld	ra,8(sp)
   120003bd0:	dfbc0000 	ld	gp,0(sp)
   120003bd4:	03e00008 	jr	ra
   120003bd8:	67bd0010 	daddiu	sp,sp,16
   120003bdc:	00000000 	nop

0000000120003be0 <__syscall1.isra.0>:
   120003be0:	00803825 	move	a3,a0
   120003be4:	00a02025 	move	a0,a1
   120003be8:	0007102d 	daddu	v0,zero,a3
   120003bec:	0000000c 	syscall
   120003bf0:	03e00008 	jr	ra
   120003bf4:	00000000 	nop

0000000120003bf8 <_Exit>:
   120003bf8:	67bdfff0 	daddiu	sp,sp,-16
   120003bfc:	ffbc0000 	sd	gp,0(sp)
   120003c00:	3c1c0002 	lui	gp,0x2
   120003c04:	0399e02d 	daddu	gp,gp,t9
   120003c08:	679cc918 	daddiu	gp,gp,-14056
   120003c0c:	df888058 	ld	a4,-32680(gp)
   120003c10:	00802825 	move	a1,a0
   120003c14:	ffbf0008 	sd	ra,8(sp)
   120003c18:	24041455 	li	a0,5205
   120003c1c:	65083be0 	daddiu	a4,a4,15328
   120003c20:	0100c825 	move	t9,a4
   120003c24:	0411ffee 	bal	120003be0 <__syscall1.isra.0>
   120003c28:	00000000 	nop
   120003c2c:	1000fffc 	b	120003c20 <_Exit+0x28>
   120003c30:	240413c2 	li	a0,5058
	...

0000000120003c40 <__lctrans_impl>:
   120003c40:	03e00008 	jr	ra
   120003c44:	00801025 	move	v0,a0

0000000120003c48 <__lctrans>:
   120003c48:	3c030002 	lui	v1,0x2
   120003c4c:	0079182d 	daddu	v1,v1,t9
   120003c50:	6463c8c8 	daddiu	v1,v1,-14136
   120003c54:	dc798218 	ld	t9,-32232(v1)
   120003c58:	1000fff9 	b	120003c40 <__lctrans_impl>
   120003c5c:	00000000 	nop

0000000120003c60 <__lctrans_cur>:
   120003c60:	3c060002 	lui	a2,0x2
   120003c64:	7c03e83b 	0x7c03e83b
   120003c68:	dc628fd0 	ld	v0,-28720(v1)
   120003c6c:	00d9302d 	daddu	a2,a2,t9
   120003c70:	64c6c8b0 	daddiu	a2,a2,-14160
   120003c74:	dcd98218 	ld	t9,-32232(a2)
   120003c78:	1000fff1 	b	120003c40 <__lctrans_impl>
   120003c7c:	dc450028 	ld	a1,40(v0)

0000000120003c80 <__fpclassifyl>:
   120003c80:	24030001 	li	v1,1
   120003c84:	0005343e 	dsrl32	a2,a1,0x10
   120003c88:	00031c3c 	dsll32	v1,v1,0x10
   120003c8c:	6463ffff 	daddiu	v1,v1,-1
   120003c90:	30c67fff 	andi	a2,a2,0x7fff
   120003c94:	14c00005 	bnez	a2,120003cac <__fpclassifyl+0x2c>
   120003c98:	00652824 	and	a1,v1,a1
   120003c9c:	00a42825 	or	a1,a1,a0
   120003ca0:	0005102b 	sltu	v0,zero,a1
   120003ca4:	03e00008 	jr	ra
   120003ca8:	64420002 	daddiu	v0,v0,2
   120003cac:	24037fff 	li	v1,32767
   120003cb0:	14c30003 	bne	a2,v1,120003cc0 <__fpclassifyl+0x40>
   120003cb4:	24020004 	li	v0,4
   120003cb8:	00a42825 	or	a1,a1,a0
   120003cbc:	2ca20001 	sltiu	v0,a1,1
   120003cc0:	03e00008 	jr	ra
   120003cc4:	00000000 	nop
	...

0000000120003cd0 <__signbitl>:
   120003cd0:	03e00008 	jr	ra
   120003cd4:	000517fe 	dsrl32	v0,a1,0x1f
	...

0000000120003ce0 <frexpl>:
   120003ce0:	67bdffd0 	daddiu	sp,sp,-48
   120003ce4:	0005143e 	dsrl32	v0,a1,0x10
   120003ce8:	ffbc0020 	sd	gp,32(sp)
   120003cec:	3c1c0002 	lui	gp,0x2
   120003cf0:	0399e02d 	daddu	gp,gp,t9
   120003cf4:	30477fff 	andi	a3,v0,0x7fff
   120003cf8:	ffb20018 	sd	s2,24(sp)
   120003cfc:	ffb10010 	sd	s1,16(sp)
   120003d00:	ffb00008 	sd	s0,8(sp)
   120003d04:	ffbf0028 	sd	ra,40(sp)
   120003d08:	679cc830 	daddiu	gp,gp,-14288
   120003d0c:	00808825 	move	s1,a0
   120003d10:	00a08025 	move	s0,a1
   120003d14:	14e00024 	bnez	a3,120003da8 <frexpl+0xc8>
   120003d18:	00c09025 	move	s2,a2
   120003d1c:	df998158 	ld	t9,-32424(gp)
   120003d20:	00003025 	move	a2,zero
   120003d24:	04110792 	bal	120005b70 <__eqtf2>
   120003d28:	00003825 	move	a3,zero
   120003d2c:	1040001c 	beqz	v0,120003da0 <frexpl+0xc0>
   120003d30:	df828060 	ld	v0,-32672(gp)
   120003d34:	df998168 	ld	t9,-32408(gp)
   120003d38:	02002825 	move	a1,s0
   120003d3c:	dc468250 	ld	a2,-32176(v0)
   120003d40:	dc478258 	ld	a3,-32168(v0)
   120003d44:	041107b6 	bal	120005c20 <__multf3>
   120003d48:	02202025 	move	a0,s1
   120003d4c:	df998058 	ld	t9,-32680(gp)
   120003d50:	00801825 	move	v1,a0
   120003d54:	02403025 	move	a2,s2
   120003d58:	00402025 	move	a0,v0
   120003d5c:	67393ce0 	daddiu	t9,t9,15584
   120003d60:	0411ffdf 	bal	120003ce0 <frexpl>
   120003d64:	00602825 	move	a1,v1
   120003d68:	00408825 	move	s1,v0
   120003d6c:	8e420000 	lw	v0,0(s2)
   120003d70:	00808025 	move	s0,a0
   120003d74:	2442ff88 	addiu	v0,v0,-120
   120003d78:	ae420000 	sw	v0,0(s2)
   120003d7c:	dfbf0028 	ld	ra,40(sp)
   120003d80:	dfbc0020 	ld	gp,32(sp)
   120003d84:	dfb20018 	ld	s2,24(sp)
   120003d88:	02201025 	move	v0,s1
   120003d8c:	02002025 	move	a0,s0
   120003d90:	dfb10010 	ld	s1,16(sp)
   120003d94:	dfb00008 	ld	s0,8(sp)
   120003d98:	03e00008 	jr	ra
   120003d9c:	67bd0030 	daddiu	sp,sp,48
   120003da0:	1000fff6 	b	120003d7c <frexpl+0x9c>
   120003da4:	ae400000 	sw	zero,0(s2)
   120003da8:	24047fff 	li	a0,32767
   120003dac:	10e4fff3 	beq	a3,a0,120003d7c <frexpl+0x9c>
   120003db0:	24e3c002 	addiu	v1,a3,-16382
   120003db4:	ae430000 	sw	v1,0(s2)
   120003db8:	24030001 	li	v1,1
   120003dbc:	30428000 	andi	v0,v0,0x8000
   120003dc0:	00031c3c 	dsll32	v1,v1,0x10
   120003dc4:	34423ffe 	ori	v0,v0,0x3ffe
   120003dc8:	6463ffff 	daddiu	v1,v1,-1
   120003dcc:	0002143c 	dsll32	v0,v0,0x10
   120003dd0:	00a31824 	and	v1,a1,v1
   120003dd4:	1000ffe9 	b	120003d7c <frexpl+0x9c>
   120003dd8:	00628025 	or	s0,v1,v0
   120003ddc:	00000000 	nop

0000000120003de0 <wctomb>:
   120003de0:	1080000f 	beqz	a0,120003e20 <wctomb+0x40>
   120003de4:	00000000 	nop
   120003de8:	67bdfff0 	daddiu	sp,sp,-16
   120003dec:	ffbc0000 	sd	gp,0(sp)
   120003df0:	3c1c0002 	lui	gp,0x2
   120003df4:	0399e02d 	daddu	gp,gp,t9
   120003df8:	679cc730 	daddiu	gp,gp,-14544
   120003dfc:	df998220 	ld	t9,-32224(gp)
   120003e00:	ffbf0008 	sd	ra,8(sp)
   120003e04:	04110336 	bal	120004ae0 <wcrtomb>
   120003e08:	00003025 	move	a2,zero
   120003e0c:	dfbf0008 	ld	ra,8(sp)
   120003e10:	dfbc0000 	ld	gp,0(sp)
   120003e14:	00021000 	sll	v0,v0,0x0
   120003e18:	03e00008 	jr	ra
   120003e1c:	67bd0010 	daddiu	sp,sp,16
   120003e20:	03e00008 	jr	ra
   120003e24:	00001025 	move	v0,zero
	...

0000000120003e30 <__lockfile>:
   120003e30:	8c85008c 	lw	a1,140(a0)
   120003e34:	7c03e83b 	0x7c03e83b
   120003e38:	8c688f58 	lw	a4,-28840(v1)
   120003e3c:	3c03bfff 	lui	v1,0xbfff
   120003e40:	3463ffff 	ori	v1,v1,0xffff
   120003e44:	00a32824 	and	a1,a1,v1
   120003e48:	10a80041 	beq	a1,a4,120003f50 <__lockfile+0x120>
   120003e4c:	6484008c 	daddiu	a0,a0,140
   120003e50:	0000000f 	sync
   120003e54:	c0850000 	ll	a1,0(a0)
   120003e58:	14a00004 	bnez	a1,120003e6c <__lockfile+0x3c>
   120003e5c:	01001825 	move	v1,a4
   120003e60:	e0830000 	sc	v1,0(a0)
   120003e64:	1060fffb 	beqz	v1,120003e54 <__lockfile+0x24>
   120003e68:	00000000 	nop
   120003e6c:	0000000f 	sync
   120003e70:	10a0003a 	beqz	a1,120003f5c <__lockfile+0x12c>
   120003e74:	3c094000 	lui	a5,0x4000
   120003e78:	67bdfff0 	daddiu	sp,sp,-16
   120003e7c:	01284025 	or	a4,a5,a4
   120003e80:	ffb00000 	sd	s0,0(sp)
   120003e84:	2410ffa7 	li	s0,-89
   120003e88:	0000000f 	sync
   120003e8c:	c0830000 	ll	v1,0(a0)
   120003e90:	14600004 	bnez	v1,120003ea4 <__lockfile+0x74>
   120003e94:	01002825 	move	a1,a4
   120003e98:	e0850000 	sc	a1,0(a0)
   120003e9c:	10a0fffb 	beqz	a1,120003e8c <__lockfile+0x5c>
   120003ea0:	00000000 	nop
   120003ea4:	0000000f 	sync
   120003ea8:	14600006 	bnez	v1,120003ec4 <__lockfile+0x94>
   120003eac:	01232824 	and	a1,a5,v1
   120003eb0:	24030001 	li	v1,1
   120003eb4:	dfb00000 	ld	s0,0(sp)
   120003eb8:	00601025 	move	v0,v1
   120003ebc:	03e00008 	jr	ra
   120003ec0:	67bd0010 	daddiu	sp,sp,16
   120003ec4:	10a00009 	beqz	a1,120003eec <__lockfile+0xbc>
   120003ec8:	01233025 	or	a2,a5,v1
   120003ecc:	24050080 	li	a1,128
   120003ed0:	00003825 	move	a3,zero
   120003ed4:	6402144a 	daddiu	v0,zero,5194
   120003ed8:	0000000c 	syscall
   120003edc:	14e00012 	bnez	a3,120003f28 <__lockfile+0xf8>
   120003ee0:	00401825 	move	v1,v0
   120003ee4:	10000013 	b	120003f34 <__lockfile+0x104>
   120003ee8:	00000000 	nop
   120003eec:	0000000f 	sync
   120003ef0:	c0850000 	ll	a1,0(a0)
   120003ef4:	10a30006 	beq	a1,v1,120003f10 <__lockfile+0xe0>
   120003ef8:	00a03825 	move	a3,a1
   120003efc:	0000000f 	sync
   120003f00:	1467ffe1 	bne	v1,a3,120003e88 <__lockfile+0x58>
   120003f04:	24050080 	li	a1,128
   120003f08:	1000fff2 	b	120003ed4 <__lockfile+0xa4>
   120003f0c:	00003825 	move	a3,zero
   120003f10:	00c02825 	move	a1,a2
   120003f14:	e0850000 	sc	a1,0(a0)
   120003f18:	10a0fff5 	beqz	a1,120003ef0 <__lockfile+0xc0>
   120003f1c:	00000000 	nop
   120003f20:	1000fff6 	b	120003efc <__lockfile+0xcc>
   120003f24:	00000000 	nop
   120003f28:	18400002 	blez	v0,120003f34 <__lockfile+0x104>
   120003f2c:	00000000 	nop
   120003f30:	0002182f 	dnegu	v1,v0
   120003f34:	1470ffd4 	bne	v1,s0,120003e88 <__lockfile+0x58>
   120003f38:	00002825 	move	a1,zero
   120003f3c:	00003825 	move	a3,zero
   120003f40:	6402144a 	daddiu	v0,zero,5194
   120003f44:	0000000c 	syscall
   120003f48:	1000ffcf 	b	120003e88 <__lockfile+0x58>
   120003f4c:	00000000 	nop
   120003f50:	00001825 	move	v1,zero
   120003f54:	03e00008 	jr	ra
   120003f58:	00601025 	move	v0,v1
   120003f5c:	1000fffd 	b	120003f54 <__lockfile+0x124>
   120003f60:	24030001 	li	v1,1

0000000120003f64 <__unlockfile>:
   120003f64:	6484008c 	daddiu	a0,a0,140
   120003f68:	0000000f 	sync
   120003f6c:	00003025 	move	a2,zero
   120003f70:	c0830000 	ll	v1,0(a0)
   120003f74:	00602825 	move	a1,v1
   120003f78:	00c01825 	move	v1,a2
   120003f7c:	e0830000 	sc	v1,0(a0)
   120003f80:	1060fffb 	beqz	v1,120003f70 <__unlockfile+0xc>
   120003f84:	00000000 	nop
   120003f88:	0000000f 	sync
   120003f8c:	3c034000 	lui	v1,0x4000
   120003f90:	00651824 	and	v1,v1,a1
   120003f94:	10600011 	beqz	v1,120003fdc <__unlockfile+0x78>
   120003f98:	00000000 	nop
   120003f9c:	24050081 	li	a1,129
   120003fa0:	24060001 	li	a2,1
   120003fa4:	6402144a 	daddiu	v0,zero,5194
   120003fa8:	0000000c 	syscall
   120003fac:	10e00004 	beqz	a3,120003fc0 <__unlockfile+0x5c>
   120003fb0:	00401825 	move	v1,v0
   120003fb4:	18400003 	blez	v0,120003fc4 <__unlockfile+0x60>
   120003fb8:	2405ffa7 	li	a1,-89
   120003fbc:	0002182f 	dnegu	v1,v0
   120003fc0:	2405ffa7 	li	a1,-89
   120003fc4:	14650005 	bne	v1,a1,120003fdc <__unlockfile+0x78>
   120003fc8:	00000000 	nop
   120003fcc:	24050001 	li	a1,1
   120003fd0:	24060001 	li	a2,1
   120003fd4:	6402144a 	daddiu	v0,zero,5194
   120003fd8:	0000000c 	syscall
   120003fdc:	03e00008 	jr	ra
   120003fe0:	00000000 	nop
	...

0000000120003ff0 <__aio_close>:
   120003ff0:	03e00008 	jr	ra
   120003ff4:	00801025 	move	v0,a0

0000000120003ff8 <__stdio_close>:
   120003ff8:	67bdfff0 	daddiu	sp,sp,-16
   120003ffc:	ffbc0000 	sd	gp,0(sp)
   120004000:	3c1c0002 	lui	gp,0x2
   120004004:	0399e02d 	daddu	gp,gp,t9
   120004008:	679cc518 	daddiu	gp,gp,-15080
   12000400c:	8c840078 	lw	a0,120(a0)
   120004010:	df998228 	ld	t9,-32216(gp)
   120004014:	ffbf0008 	sd	ra,8(sp)
   120004018:	0411fff5 	bal	120003ff0 <__aio_close>
   12000401c:	00000000 	nop
   120004020:	00402025 	move	a0,v0
   120004024:	6402138b 	daddiu	v0,zero,5003
   120004028:	0000000c 	syscall
   12000402c:	10e00004 	beqz	a3,120004040 <__stdio_close+0x48>
   120004030:	00402025 	move	a0,v0
   120004034:	18400002 	blez	v0,120004040 <__stdio_close+0x48>
   120004038:	00000000 	nop
   12000403c:	0002202f 	dnegu	a0,v0
   120004040:	df998230 	ld	t9,-32208(gp)
   120004044:	0411028a 	bal	120004a70 <__syscall_ret>
   120004048:	00000000 	nop
   12000404c:	dfbf0008 	ld	ra,8(sp)
   120004050:	dfbc0000 	ld	gp,0(sp)
   120004054:	00021000 	sll	v0,v0,0x0
   120004058:	03e00008 	jr	ra
   12000405c:	67bd0010 	daddiu	sp,sp,16

0000000120004060 <__stdio_seek>:
   120004060:	3c030002 	lui	v1,0x2
   120004064:	0079182d 	daddu	v1,v1,t9
   120004068:	6463c4b0 	daddiu	v1,v1,-15184
   12000406c:	dc798238 	ld	t9,-32200(v1)
   120004070:	1000026f 	b	120004a30 <lseek>
   120004074:	8c840078 	lw	a0,120(a0)
	...

0000000120004080 <__stdout_write>:
   120004080:	67bdffd0 	daddiu	sp,sp,-48
   120004084:	ffbc0020 	sd	gp,32(sp)
   120004088:	3c1c0002 	lui	gp,0x2
   12000408c:	0399e02d 	daddu	gp,gp,t9
   120004090:	8c830000 	lw	v1,0(a0)
   120004094:	679cc490 	daddiu	gp,gp,-15216
   120004098:	df998240 	ld	t9,-32192(gp)
   12000409c:	30630040 	andi	v1,v1,0x40
   1200040a0:	ffbf0028 	sd	ra,40(sp)
   1200040a4:	ffb00018 	sd	s0,24(sp)
   1200040a8:	00804025 	move	a4,a0
   1200040ac:	00a0f825 	move	ra,a1
   1200040b0:	00c08025 	move	s0,a2
   1200040b4:	fc990048 	sd	t9,72(a0)
   1200040b8:	1460000f 	bnez	v1,1200040f8 <__stdout_write+0x78>
   1200040bc:	03204825 	move	a5,t9
   1200040c0:	3c054008 	lui	a1,0x4008
   1200040c4:	8c840078 	lw	a0,120(a0)
   1200040c8:	64a57468 	daddiu	a1,a1,29800
   1200040cc:	03a03025 	move	a2,sp
   1200040d0:	64021397 	daddiu	v0,zero,5015
   1200040d4:	0000000c 	syscall
   1200040d8:	10e00003 	beqz	a3,1200040e8 <__stdout_write+0x68>
   1200040dc:	00000000 	nop
   1200040e0:	1c400003 	bgtz	v0,1200040f0 <__stdout_write+0x70>
   1200040e4:	00000000 	nop
   1200040e8:	10400004 	beqz	v0,1200040fc <__stdout_write+0x7c>
   1200040ec:	02003025 	move	a2,s0
   1200040f0:	2402ffff 	li	v0,-1
   1200040f4:	ad020090 	sw	v0,144(a4)
   1200040f8:	02003025 	move	a2,s0
   1200040fc:	03e02825 	move	a1,ra
   120004100:	0120c825 	move	t9,a5
   120004104:	04110326 	bal	120004da0 <__stdio_write>
   120004108:	01002025 	move	a0,a4
   12000410c:	dfbf0028 	ld	ra,40(sp)
   120004110:	dfbc0020 	ld	gp,32(sp)
   120004114:	dfb00018 	ld	s0,24(sp)
   120004118:	03e00008 	jr	ra
   12000411c:	67bd0030 	daddiu	sp,sp,48

0000000120004120 <__towrite>:
   120004120:	8c830088 	lw	v1,136(a0)
   120004124:	2462ffff 	addiu	v0,v1,-1
   120004128:	00431025 	or	v0,v0,v1
   12000412c:	ac820088 	sw	v0,136(a0)
   120004130:	8c820000 	lw	v0,0(a0)
   120004134:	30430008 	andi	v1,v0,0x8
   120004138:	10600005 	beqz	v1,120004150 <__towrite+0x30>
   12000413c:	00000000 	nop
   120004140:	34420020 	ori	v0,v0,0x20
   120004144:	ac820000 	sw	v0,0(a0)
   120004148:	03e00008 	jr	ra
   12000414c:	2402ffff 	li	v0,-1
   120004150:	dc820058 	ld	v0,88(a0)
   120004154:	dc830060 	ld	v1,96(a0)
   120004158:	fc800010 	sd	zero,16(a0)
   12000415c:	fc820038 	sd	v0,56(a0)
   120004160:	fc820028 	sd	v0,40(a0)
   120004164:	0043102d 	daddu	v0,v0,v1
   120004168:	fc820020 	sd	v0,32(a0)
   12000416c:	fc800008 	sd	zero,8(a0)
   120004170:	03e00008 	jr	ra
   120004174:	00001025 	move	v0,zero

0000000120004178 <__towrite_needs_stdio_exit>:
   120004178:	3c020002 	lui	v0,0x2
   12000417c:	0059102d 	daddu	v0,v0,t9
   120004180:	6442c398 	daddiu	v0,v0,-15464
   120004184:	dc598110 	ld	t9,-32496(v0)
   120004188:	100002de 	b	120004d04 <__stdio_exit>
   12000418c:	00000000 	nop

0000000120004190 <__fwritex>:
   120004190:	67bdffd0 	daddiu	sp,sp,-48
   120004194:	dcc20020 	ld	v0,32(a2)
   120004198:	ffbc0020 	sd	gp,32(sp)
   12000419c:	3c1c0002 	lui	gp,0x2
   1200041a0:	0399e02d 	daddu	gp,gp,t9
   1200041a4:	ffb30018 	sd	s3,24(sp)
   1200041a8:	ffb20010 	sd	s2,16(sp)
   1200041ac:	ffb00000 	sd	s0,0(sp)
   1200041b0:	ffbf0028 	sd	ra,40(sp)
   1200041b4:	ffb10008 	sd	s1,8(sp)
   1200041b8:	679cc380 	daddiu	gp,gp,-15488
   1200041bc:	00809825 	move	s3,a0
   1200041c0:	00a09025 	move	s2,a1
   1200041c4:	10400013 	beqz	v0,120004214 <__fwritex+0x84>
   1200041c8:	00c08025 	move	s0,a2
   1200041cc:	de020020 	ld	v0,32(s0)
   1200041d0:	de030028 	ld	v1,40(s0)
   1200041d4:	0043102f 	dsubu	v0,v0,v1
   1200041d8:	0052102b 	sltu	v0,v0,s2
   1200041dc:	10400014 	beqz	v0,120004230 <__fwritex+0xa0>
   1200041e0:	02408825 	move	s1,s2
   1200041e4:	dfbf0028 	ld	ra,40(sp)
   1200041e8:	dfbc0020 	ld	gp,32(sp)
   1200041ec:	dfb10008 	ld	s1,8(sp)
   1200041f0:	de190048 	ld	t9,72(s0)
   1200041f4:	02403025 	move	a2,s2
   1200041f8:	02602825 	move	a1,s3
   1200041fc:	dfb20010 	ld	s2,16(sp)
   120004200:	dfb30018 	ld	s3,24(sp)
   120004204:	02002025 	move	a0,s0
   120004208:	dfb00000 	ld	s0,0(sp)
   12000420c:	03200008 	jr	t9
   120004210:	67bd0030 	daddiu	sp,sp,48
   120004214:	df9981c0 	ld	t9,-32320(gp)
   120004218:	0411ffc1 	bal	120004120 <__towrite>
   12000421c:	00c02025 	move	a0,a2
   120004220:	1040ffea 	beqz	v0,1200041cc <__fwritex+0x3c>
   120004224:	00001025 	move	v0,zero
   120004228:	1000000e 	b	120004264 <__fwritex+0xd4>
   12000422c:	dfbf0028 	ld	ra,40(sp)
   120004230:	8e020090 	lw	v0,144(s0)
   120004234:	04410013 	bgez	v0,120004284 <__fwritex+0xf4>
   120004238:	2403000a 	li	v1,10
   12000423c:	df9981e8 	ld	t9,-32280(gp)
   120004240:	de040028 	ld	a0,40(s0)
   120004244:	02203025 	move	a2,s1
   120004248:	041100a1 	bal	1200044d0 <memcpy>
   12000424c:	02602825 	move	a1,s3
   120004250:	de060028 	ld	a2,40(s0)
   120004254:	02401025 	move	v0,s2
   120004258:	00d1882d 	daddu	s1,a2,s1
   12000425c:	fe110028 	sd	s1,40(s0)
   120004260:	dfbf0028 	ld	ra,40(sp)
   120004264:	dfbc0020 	ld	gp,32(sp)
   120004268:	dfb30018 	ld	s3,24(sp)
   12000426c:	dfb20010 	ld	s2,16(sp)
   120004270:	dfb10008 	ld	s1,8(sp)
   120004274:	dfb00000 	ld	s0,0(sp)
   120004278:	03e00008 	jr	ra
   12000427c:	67bd0030 	daddiu	sp,sp,48
   120004280:	00408825 	move	s1,v0
   120004284:	1220000e 	beqz	s1,1200042c0 <__fwritex+0x130>
   120004288:	6622ffff 	daddiu	v0,s1,-1
   12000428c:	0262202d 	daddu	a0,s3,v0
   120004290:	90840000 	lbu	a0,0(a0)
   120004294:	1483fffa 	bne	a0,v1,120004280 <__fwritex+0xf0>
   120004298:	02203025 	move	a2,s1
   12000429c:	de190048 	ld	t9,72(s0)
   1200042a0:	02602825 	move	a1,s3
   1200042a4:	0320f809 	jalr	t9
   1200042a8:	02002025 	move	a0,s0
   1200042ac:	0051182b 	sltu	v1,v0,s1
   1200042b0:	1460ffeb 	bnez	v1,120004260 <__fwritex+0xd0>
   1200042b4:	0271982d 	daddu	s3,s3,s1
   1200042b8:	1000ffe0 	b	12000423c <__fwritex+0xac>
   1200042bc:	0251882f 	dsubu	s1,s2,s1
   1200042c0:	1000ffde 	b	12000423c <__fwritex+0xac>
   1200042c4:	02408825 	move	s1,s2

00000001200042c8 <fwrite>:
   1200042c8:	00a6001c 	dmult	a1,a2
   1200042cc:	67bdffc0 	daddiu	sp,sp,-64
   1200042d0:	ffbc0030 	sd	gp,48(sp)
   1200042d4:	3c1c0002 	lui	gp,0x2
   1200042d8:	0399e02d 	daddu	gp,gp,t9
   1200042dc:	ffb50028 	sd	s5,40(sp)
   1200042e0:	ffb30018 	sd	s3,24(sp)
   1200042e4:	ffb20010 	sd	s2,16(sp)
   1200042e8:	ffb10008 	sd	s1,8(sp)
   1200042ec:	ffb00000 	sd	s0,0(sp)
   1200042f0:	ffbf0038 	sd	ra,56(sp)
   1200042f4:	ffb40020 	sd	s4,32(sp)
   1200042f8:	679cc248 	daddiu	gp,gp,-15800
   1200042fc:	00809025 	move	s2,a0
   120004300:	00a08825 	move	s1,a1
   120004304:	00e09825 	move	s3,a3
   120004308:	0000a812 	mflo	s5
   12000430c:	10a00002 	beqz	a1,120004318 <fwrite+0x50>
   120004310:	00008025 	move	s0,zero
   120004314:	00c08025 	move	s0,a2
   120004318:	8e62008c 	lw	v0,140(s3)
   12000431c:	04400005 	bltz	v0,120004334 <fwrite+0x6c>
   120004320:	0000a025 	move	s4,zero
   120004324:	df9981b8 	ld	t9,-32328(gp)
   120004328:	0411fec1 	bal	120003e30 <__lockfile>
   12000432c:	02602025 	move	a0,s3
   120004330:	0040a025 	move	s4,v0
   120004334:	df998138 	ld	t9,-32456(gp)
   120004338:	02402025 	move	a0,s2
   12000433c:	02603025 	move	a2,s3
   120004340:	0411ff93 	bal	120004190 <__fwritex>
   120004344:	02a02825 	move	a1,s5
   120004348:	12800004 	beqz	s4,12000435c <fwrite+0x94>
   12000434c:	00409025 	move	s2,v0
   120004350:	df9981c8 	ld	t9,-32312(gp)
   120004354:	0411ff03 	bal	120003f64 <__unlockfile>
   120004358:	02602025 	move	a0,s3
   12000435c:	12b20004 	beq	s5,s2,120004370 <fwrite+0xa8>
   120004360:	dfbf0038 	ld	ra,56(sp)
   120004364:	0251001f 	ddivu	zero,s2,s1
   120004368:	022001f4 	teq	s1,zero,0x7
   12000436c:	00008012 	mflo	s0
   120004370:	dfbc0030 	ld	gp,48(sp)
   120004374:	dfb50028 	ld	s5,40(sp)
   120004378:	dfb40020 	ld	s4,32(sp)
   12000437c:	dfb30018 	ld	s3,24(sp)
   120004380:	dfb20010 	ld	s2,16(sp)
   120004384:	dfb10008 	ld	s1,8(sp)
   120004388:	02001025 	move	v0,s0
   12000438c:	dfb00000 	ld	s0,0(sp)
   120004390:	03e00008 	jr	ra
   120004394:	67bd0040 	daddiu	sp,sp,64
	...

00000001200043a0 <memchr>:
   1200043a0:	30820007 	andi	v0,a0,0x7
   1200043a4:	1040001c 	beqz	v0,120004418 <memchr+0x78>
   1200043a8:	30a500ff 	andi	a1,a1,0xff
   1200043ac:	14c00009 	bnez	a2,1200043d4 <memchr+0x34>
   1200043b0:	00a01825 	move	v1,a1
   1200043b4:	03e00008 	jr	ra
   1200043b8:	00001025 	move	v0,zero
   1200043bc:	00000000 	nop
   1200043c0:	30820007 	andi	v0,a0,0x7
   1200043c4:	10400014 	beqz	v0,120004418 <memchr+0x78>
   1200043c8:	64c6ffff 	daddiu	a2,a2,-1
   1200043cc:	10c0000d 	beqz	a2,120004404 <memchr+0x64>
   1200043d0:	00001025 	move	v0,zero
   1200043d4:	90820000 	lbu	v0,0(a0)
   1200043d8:	5443fff9 	bnel	v0,v1,1200043c0 <memchr+0x20>
   1200043dc:	64840001 	daddiu	a0,a0,1
   1200043e0:	00801025 	move	v0,a0
   1200043e4:	10000004 	b	1200043f8 <memchr+0x58>
   1200043e8:	0086202d 	daddu	a0,a0,a2
   1200043ec:	00000000 	nop
   1200043f0:	50440004 	beql	v0,a0,120004404 <memchr+0x64>
   1200043f4:	00001025 	move	v0,zero
   1200043f8:	90430000 	lbu	v1,0(v0)
   1200043fc:	5465fffc 	bnel	v1,a1,1200043f0 <memchr+0x50>
   120004400:	64420001 	daddiu	v0,v0,1
   120004404:	03e00008 	jr	ra
   120004408:	00000000 	nop
   12000440c:	03e00008 	jr	ra
   120004410:	00000000 	nop
   120004414:	00000000 	nop
   120004418:	10c0fffa 	beqz	a2,120004404 <memchr+0x64>
   12000441c:	00001025 	move	v0,zero
   120004420:	90820000 	lbu	v0,0(a0)
   120004424:	1045ffee 	beq	v0,a1,1200043e0 <memchr+0x40>
   120004428:	00054a38 	dsll	a5,a1,0x8
   12000442c:	0125482d 	daddu	a5,a5,a1
   120004430:	00091438 	dsll	v0,a5,0x10
   120004434:	0122482d 	daddu	a5,a5,v0
   120004438:	0009183c 	dsll32	v1,a5,0x0
   12000443c:	2cc20008 	sltiu	v0,a2,8
   120004440:	1440ffe7 	bnez	v0,1200043e0 <memchr+0x40>
   120004444:	0123482d 	daddu	a5,a5,v1
   120004448:	3c08ff7f 	lui	a4,0xff7f
   12000444c:	3c07ff01 	lui	a3,0xff01
   120004450:	65087f7f 	daddiu	a4,a4,32639
   120004454:	64e70101 	daddiu	a3,a3,257
   120004458:	00084438 	dsll	a4,a4,0x10
   12000445c:	00073c38 	dsll	a3,a3,0x10
   120004460:	65087f7f 	daddiu	a4,a4,32639
   120004464:	64e70101 	daddiu	a3,a3,257
   120004468:	00084478 	dsll	a4,a4,0x11
   12000446c:	00073df8 	dsll	a3,a3,0x17
   120004470:	3508feff 	ori	a4,a4,0xfeff
   120004474:	10000005 	b	12000448c <memchr+0xec>
   120004478:	34e78080 	ori	a3,a3,0x8080
   12000447c:	00000000 	nop
   120004480:	2cc20008 	sltiu	v0,a2,8
   120004484:	1440000b 	bnez	v0,1200044b4 <memchr+0x114>
   120004488:	64840008 	daddiu	a0,a0,8
   12000448c:	dc820000 	ld	v0,0(a0)
   120004490:	01221026 	xor	v0,a5,v0
   120004494:	0048182d 	daddu	v1,v0,a4
   120004498:	00021027 	nor	v0,zero,v0
   12000449c:	00621024 	and	v0,v1,v0
   1200044a0:	00471024 	and	v0,v0,a3
   1200044a4:	5040fff6 	beqzl	v0,120004480 <memchr+0xe0>
   1200044a8:	64c6fff8 	daddiu	a2,a2,-8
   1200044ac:	1000ffcd 	b	1200043e4 <memchr+0x44>
   1200044b0:	00801025 	move	v0,a0
   1200044b4:	14c0ffca 	bnez	a2,1200043e0 <memchr+0x40>
   1200044b8:	00001025 	move	v0,zero
   1200044bc:	03e00008 	jr	ra
   1200044c0:	00000000 	nop
	...

00000001200044d0 <memcpy>:
   1200044d0:	30a30003 	andi	v1,a1,0x3
   1200044d4:	10600131 	beqz	v1,12000499c <memcpy+0x4cc>
   1200044d8:	00801025 	move	v0,a0
   1200044dc:	10c000a0 	beqz	a2,120004760 <memcpy+0x290>
   1200044e0:	00801825 	move	v1,a0
   1200044e4:	10000005 	b	1200044fc <memcpy+0x2c>
   1200044e8:	90a80000 	lbu	a4,0(a1)
   1200044ec:	00000000 	nop
   1200044f0:	10c0009b 	beqz	a2,120004760 <memcpy+0x290>
   1200044f4:	00000000 	nop
   1200044f8:	90a80000 	lbu	a4,0(a1)
   1200044fc:	64a50001 	daddiu	a1,a1,1
   120004500:	30a70003 	andi	a3,a1,0x3
   120004504:	64630001 	daddiu	v1,v1,1
   120004508:	64c6ffff 	daddiu	a2,a2,-1
   12000450c:	14e0fff8 	bnez	a3,1200044f0 <memcpy+0x20>
   120004510:	a068ffff 	sb	a4,-1(v1)
   120004514:	30690003 	andi	a5,v1,0x3
   120004518:	11200093 	beqz	a5,120004768 <memcpy+0x298>
   12000451c:	00603825 	move	a3,v1
   120004520:	67bdffe0 	daddiu	sp,sp,-32
   120004524:	2cc40020 	sltiu	a0,a2,32
   120004528:	ffb10010 	sd	s1,16(sp)
   12000452c:	14800034 	bnez	a0,120004600 <memcpy+0x130>
   120004530:	ffb00008 	sd	s0,8(sp)
   120004534:	24040002 	li	a0,2
   120004538:	90a80000 	lbu	a4,0(a1)
   12000453c:	112400ec 	beq	a5,a0,1200048f0 <memcpy+0x420>
   120004540:	8ca70000 	lw	a3,0(a1)
   120004544:	24040003 	li	a0,3
   120004548:	112400bf 	beq	a5,a0,120004848 <memcpy+0x378>
   12000454c:	64d9ffec 	daddiu	t9,a2,-20
   120004550:	90aa0001 	lbu	a6,1(a1)
   120004554:	90a90002 	lbu	a5,2(a1)
   120004558:	0019c93a 	dsrl	t9,t9,0x4
   12000455c:	00192138 	dsll	a0,t9,0x4
   120004560:	64700003 	daddiu	s0,v1,3
   120004564:	64a50003 	daddiu	a1,a1,3
   120004568:	64840013 	daddiu	a0,a0,19
   12000456c:	a0680000 	sb	a4,0(v1)
   120004570:	a06a0001 	sb	a6,1(v1)
   120004574:	a0690002 	sb	a5,2(v1)
   120004578:	00a05825 	move	a7,a1
   12000457c:	0064182d 	daddu	v1,v1,a0
   120004580:	02004025 	move	a4,s0
   120004584:	00000000 	nop
   120004588:	8d6a0001 	lw	a6,1(a7)
   12000458c:	8d690005 	lw	a5,5(a7)
   120004590:	8d640009 	lw	a0,9(a7)
   120004594:	00076602 	srl	t0,a3,0x18
   120004598:	8d67000d 	lw	a3,13(a7)
   12000459c:	000ac200 	sll	t8,a6,0x8
   1200045a0:	00097a00 	sll	t3,a5,0x8
   1200045a4:	00047200 	sll	t2,a0,0x8
   1200045a8:	000a5602 	srl	a6,a6,0x18
   1200045ac:	00094e02 	srl	a5,a5,0x18
   1200045b0:	00042602 	srl	a0,a0,0x18
   1200045b4:	00076a00 	sll	t1,a3,0x8
   1200045b8:	01986025 	or	t0,t0,t8
   1200045bc:	014f5025 	or	a6,a6,t3
   1200045c0:	012e4825 	or	a5,a5,t2
   1200045c4:	008d2025 	or	a0,a0,t1
   1200045c8:	ad0c0000 	sw	t0,0(a4)
   1200045cc:	ad0a0004 	sw	a6,4(a4)
   1200045d0:	ad090008 	sw	a5,8(a4)
   1200045d4:	ad04000c 	sw	a0,12(a4)
   1200045d8:	65080010 	daddiu	a4,a4,16
   1200045dc:	1503ffea 	bne	a4,v1,120004588 <memcpy+0xb8>
   1200045e0:	656b0010 	daddiu	a7,a7,16
   1200045e4:	67240001 	daddiu	a0,t9,1
   1200045e8:	00042138 	dsll	a0,a0,0x4
   1200045ec:	64c6ffed 	daddiu	a2,a2,-19
   1200045f0:	0019c938 	dsll	t9,t9,0x4
   1200045f4:	00d9302f 	dsubu	a2,a2,t9
   1200045f8:	0204182d 	daddu	v1,s0,a0
   1200045fc:	00a4282d 	daddu	a1,a1,a0
   120004600:	30c40010 	andi	a0,a2,0x10
   120004604:	30c90008 	andi	a5,a2,0x8
   120004608:	30c80004 	andi	a4,a2,0x4
   12000460c:	30c70002 	andi	a3,a2,0x2
   120004610:	108000f8 	beqz	a0,1200049f4 <memcpy+0x524>
   120004614:	30c60001 	andi	a2,a2,0x1
   120004618:	90b10000 	lbu	s1,0(a1)
   12000461c:	90a4000e 	lbu	a0,14(a1)
   120004620:	90b00006 	lbu	s0,6(a1)
   120004624:	a0710000 	sb	s1,0(v1)
   120004628:	90b10001 	lbu	s1,1(a1)
   12000462c:	90b90007 	lbu	t9,7(a1)
   120004630:	90b80008 	lbu	t8,8(a1)
   120004634:	a0710001 	sb	s1,1(v1)
   120004638:	90b10002 	lbu	s1,2(a1)
   12000463c:	90af0009 	lbu	t3,9(a1)
   120004640:	90ae000a 	lbu	t2,10(a1)
   120004644:	a0710002 	sb	s1,2(v1)
   120004648:	90b10003 	lbu	s1,3(a1)
   12000464c:	90ad000b 	lbu	t1,11(a1)
   120004650:	90ac000c 	lbu	t0,12(a1)
   120004654:	a0710003 	sb	s1,3(v1)
   120004658:	90b10004 	lbu	s1,4(a1)
   12000465c:	90ab000d 	lbu	a7,13(a1)
   120004660:	90aa000f 	lbu	a6,15(a1)
   120004664:	a0710004 	sb	s1,4(v1)
   120004668:	90b10005 	lbu	s1,5(a1)
   12000466c:	a064000e 	sb	a0,14(v1)
   120004670:	a0700006 	sb	s0,6(v1)
   120004674:	a0710005 	sb	s1,5(v1)
   120004678:	a0790007 	sb	t9,7(v1)
   12000467c:	a0780008 	sb	t8,8(v1)
   120004680:	a06f0009 	sb	t3,9(v1)
   120004684:	a06e000a 	sb	t2,10(v1)
   120004688:	a06d000b 	sb	t1,11(v1)
   12000468c:	a06c000c 	sb	t0,12(v1)
   120004690:	a06b000d 	sb	a7,13(v1)
   120004694:	64a50010 	daddiu	a1,a1,16
   120004698:	64640010 	daddiu	a0,v1,16
   12000469c:	a06a000f 	sb	a6,15(v1)
   1200046a0:	11200013 	beqz	a5,1200046f0 <memcpy+0x220>
   1200046a4:	00801825 	move	v1,a0
   1200046a8:	90a30006 	lbu	v1,6(a1)
   1200046ac:	90af0000 	lbu	t3,0(a1)
   1200046b0:	90ae0001 	lbu	t2,1(a1)
   1200046b4:	90ad0002 	lbu	t1,2(a1)
   1200046b8:	90ac0003 	lbu	t0,3(a1)
   1200046bc:	90ab0004 	lbu	a7,4(a1)
   1200046c0:	90aa0005 	lbu	a6,5(a1)
   1200046c4:	90a90007 	lbu	a5,7(a1)
   1200046c8:	a0830006 	sb	v1,6(a0)
   1200046cc:	a08f0000 	sb	t3,0(a0)
   1200046d0:	a08e0001 	sb	t2,1(a0)
   1200046d4:	a08d0002 	sb	t1,2(a0)
   1200046d8:	a08c0003 	sb	t0,3(a0)
   1200046dc:	a08b0004 	sb	a7,4(a0)
   1200046e0:	a08a0005 	sb	a6,5(a0)
   1200046e4:	64a50008 	daddiu	a1,a1,8
   1200046e8:	64830008 	daddiu	v1,a0,8
   1200046ec:	a0890007 	sb	a5,7(a0)
   1200046f0:	1100000b 	beqz	a4,120004720 <memcpy+0x250>
   1200046f4:	00602025 	move	a0,v1
   1200046f8:	90a40002 	lbu	a0,2(a1)
   1200046fc:	90aa0000 	lbu	a6,0(a1)
   120004700:	90a90001 	lbu	a5,1(a1)
   120004704:	90a80003 	lbu	a4,3(a1)
   120004708:	a0640002 	sb	a0,2(v1)
   12000470c:	a06a0000 	sb	a6,0(v1)
   120004710:	a0690001 	sb	a5,1(v1)
   120004714:	64a50004 	daddiu	a1,a1,4
   120004718:	64640004 	daddiu	a0,v1,4
   12000471c:	a0680003 	sb	a4,3(v1)
   120004720:	10e00007 	beqz	a3,120004740 <memcpy+0x270>
   120004724:	00801825 	move	v1,a0
   120004728:	90a30000 	lbu	v1,0(a1)
   12000472c:	90a70001 	lbu	a3,1(a1)
   120004730:	64a50002 	daddiu	a1,a1,2
   120004734:	a0830000 	sb	v1,0(a0)
   120004738:	a0870001 	sb	a3,1(a0)
   12000473c:	64830002 	daddiu	v1,a0,2
   120004740:	10c00004 	beqz	a2,120004754 <memcpy+0x284>
   120004744:	dfb10010 	ld	s1,16(sp)
   120004748:	90a40000 	lbu	a0,0(a1)
   12000474c:	a0640000 	sb	a0,0(v1)
   120004750:	dfb10010 	ld	s1,16(sp)
   120004754:	dfb00008 	ld	s0,8(sp)
   120004758:	03e00008 	jr	ra
   12000475c:	67bd0020 	daddiu	sp,sp,32
   120004760:	03e00008 	jr	ra
   120004764:	00000000 	nop
   120004768:	2cc40010 	sltiu	a0,a2,16
   12000476c:	14800018 	bnez	a0,1200047d0 <memcpy+0x300>
   120004770:	00652025 	or	a0,v1,a1
   120004774:	30840007 	andi	a0,a0,0x7
   120004778:	1480008a 	bnez	a0,1200049a4 <memcpy+0x4d4>
   12000477c:	64cdfff0 	daddiu	t1,a2,-16
   120004780:	2da40020 	sltiu	a0,t1,32
   120004784:	14800087 	bnez	a0,1200049a4 <memcpy+0x4d4>
   120004788:	00a04025 	move	a4,a1
   12000478c:	000d693a 	dsrl	t1,t1,0x4
   120004790:	65ac0001 	daddiu	t0,t1,1
   120004794:	00000000 	nop
   120004798:	dd0a0008 	ld	a6,8(a4)
   12000479c:	dd0b0000 	ld	a7,0(a4)
   1200047a0:	65290001 	daddiu	a5,a5,1
   1200047a4:	012c202b 	sltu	a0,a5,t0
   1200047a8:	fceb0000 	sd	a7,0(a3)
   1200047ac:	fcea0008 	sd	a6,8(a3)
   1200047b0:	65080010 	daddiu	a4,a4,16
   1200047b4:	1480fff8 	bnez	a0,120004798 <memcpy+0x2c8>
   1200047b8:	64e70010 	daddiu	a3,a3,16
   1200047bc:	65a40001 	daddiu	a0,t1,1
   1200047c0:	00042138 	dsll	a0,a0,0x4
   1200047c4:	30c6000f 	andi	a2,a2,0xf
   1200047c8:	0064182d 	daddu	v1,v1,a0
   1200047cc:	00a4282d 	daddu	a1,a1,a0
   1200047d0:	30c80008 	andi	a4,a2,0x8
   1200047d4:	30c70004 	andi	a3,a2,0x4
   1200047d8:	30c40002 	andi	a0,a2,0x2
   1200047dc:	11000007 	beqz	a4,1200047fc <memcpy+0x32c>
   1200047e0:	30c60001 	andi	a2,a2,0x1
   1200047e4:	8ca90000 	lw	a5,0(a1)
   1200047e8:	8ca80004 	lw	a4,4(a1)
   1200047ec:	64630008 	daddiu	v1,v1,8
   1200047f0:	64a50008 	daddiu	a1,a1,8
   1200047f4:	ac69fff8 	sw	a5,-8(v1)
   1200047f8:	ac68fffc 	sw	a4,-4(v1)
   1200047fc:	10e00005 	beqz	a3,120004814 <memcpy+0x344>
   120004800:	00000000 	nop
   120004804:	8ca70000 	lw	a3,0(a1)
   120004808:	64630004 	daddiu	v1,v1,4
   12000480c:	64a50004 	daddiu	a1,a1,4
   120004810:	ac67fffc 	sw	a3,-4(v1)
   120004814:	10800007 	beqz	a0,120004834 <memcpy+0x364>
   120004818:	00602025 	move	a0,v1
   12000481c:	90a40000 	lbu	a0,0(a1)
   120004820:	90a70001 	lbu	a3,1(a1)
   120004824:	64a50002 	daddiu	a1,a1,2
   120004828:	a0640000 	sb	a0,0(v1)
   12000482c:	a0670001 	sb	a3,1(v1)
   120004830:	64640002 	daddiu	a0,v1,2
   120004834:	10c0ffca 	beqz	a2,120004760 <memcpy+0x290>
   120004838:	00000000 	nop
   12000483c:	90a30000 	lbu	v1,0(a1)
   120004840:	03e00008 	jr	ra
   120004844:	a0830000 	sb	v1,0(a0)
   120004848:	0019c93a 	dsrl	t9,t9,0x4
   12000484c:	00192138 	dsll	a0,t9,0x4
   120004850:	64700001 	daddiu	s0,v1,1
   120004854:	64840011 	daddiu	a0,a0,17
   120004858:	64a50001 	daddiu	a1,a1,1
   12000485c:	a0680000 	sb	a4,0(v1)
   120004860:	0064182d 	daddu	v1,v1,a0
   120004864:	02004025 	move	a4,s0
   120004868:	00a02025 	move	a0,a1
   12000486c:	00000000 	nop
   120004870:	8c8b0003 	lw	a7,3(a0)
   120004874:	8c8a0007 	lw	a6,7(a0)
   120004878:	8c89000b 	lw	a5,11(a0)
   12000487c:	00076202 	srl	t0,a3,0x8
   120004880:	8c87000f 	lw	a3,15(a0)
   120004884:	000bc600 	sll	t8,a7,0x18
   120004888:	000a7e00 	sll	t3,a6,0x18
   12000488c:	00097600 	sll	t2,a5,0x18
   120004890:	000b5a02 	srl	a7,a7,0x8
   120004894:	000a5202 	srl	a6,a6,0x8
   120004898:	00094a02 	srl	a5,a5,0x8
   12000489c:	00076e00 	sll	t1,a3,0x18
   1200048a0:	01986025 	or	t0,t0,t8
   1200048a4:	016f5825 	or	a7,a7,t3
   1200048a8:	014e5025 	or	a6,a6,t2
   1200048ac:	012d4825 	or	a5,a5,t1
   1200048b0:	ad0c0000 	sw	t0,0(a4)
   1200048b4:	ad0b0004 	sw	a7,4(a4)
   1200048b8:	ad0a0008 	sw	a6,8(a4)
   1200048bc:	ad09000c 	sw	a5,12(a4)
   1200048c0:	65080010 	daddiu	a4,a4,16
   1200048c4:	1503ffea 	bne	a4,v1,120004870 <memcpy+0x3a0>
   1200048c8:	64840010 	daddiu	a0,a0,16
   1200048cc:	67240001 	daddiu	a0,t9,1
   1200048d0:	00042138 	dsll	a0,a0,0x4
   1200048d4:	64c6ffef 	daddiu	a2,a2,-17
   1200048d8:	0019c938 	dsll	t9,t9,0x4
   1200048dc:	00d9302f 	dsubu	a2,a2,t9
   1200048e0:	0204182d 	daddu	v1,s0,a0
   1200048e4:	1000ff46 	b	120004600 <memcpy+0x130>
   1200048e8:	00a4282d 	daddu	a1,a1,a0
   1200048ec:	00000000 	nop
   1200048f0:	64d9ffec 	daddiu	t9,a2,-20
   1200048f4:	90a90001 	lbu	a5,1(a1)
   1200048f8:	0019c93a 	dsrl	t9,t9,0x4
   1200048fc:	00192138 	dsll	a0,t9,0x4
   120004900:	64700002 	daddiu	s0,v1,2
   120004904:	64a50002 	daddiu	a1,a1,2
   120004908:	64840012 	daddiu	a0,a0,18
   12000490c:	a0680000 	sb	a4,0(v1)
   120004910:	a0690001 	sb	a5,1(v1)
   120004914:	00a05825 	move	a7,a1
   120004918:	0064182d 	daddu	v1,v1,a0
   12000491c:	02004025 	move	a4,s0
   120004920:	8d6a0002 	lw	a6,2(a7)
   120004924:	8d690006 	lw	a5,6(a7)
   120004928:	8d64000a 	lw	a0,10(a7)
   12000492c:	00076402 	srl	t0,a3,0x10
   120004930:	8d67000e 	lw	a3,14(a7)
   120004934:	000ac400 	sll	t8,a6,0x10
   120004938:	00097c00 	sll	t3,a5,0x10
   12000493c:	00047400 	sll	t2,a0,0x10
   120004940:	000a5402 	srl	a6,a6,0x10
   120004944:	00094c02 	srl	a5,a5,0x10
   120004948:	00042402 	srl	a0,a0,0x10
   12000494c:	00076c00 	sll	t1,a3,0x10
   120004950:	01986025 	or	t0,t0,t8
   120004954:	014f5025 	or	a6,a6,t3
   120004958:	012e4825 	or	a5,a5,t2
   12000495c:	008d2025 	or	a0,a0,t1
   120004960:	ad0c0000 	sw	t0,0(a4)
   120004964:	ad0a0004 	sw	a6,4(a4)
   120004968:	ad090008 	sw	a5,8(a4)
   12000496c:	ad04000c 	sw	a0,12(a4)
   120004970:	65080010 	daddiu	a4,a4,16
   120004974:	1503ffea 	bne	a4,v1,120004920 <memcpy+0x450>
   120004978:	656b0010 	daddiu	a7,a7,16
   12000497c:	67240001 	daddiu	a0,t9,1
   120004980:	00042138 	dsll	a0,a0,0x4
   120004984:	64c6ffee 	daddiu	a2,a2,-18
   120004988:	0019c938 	dsll	t9,t9,0x4
   12000498c:	00d9302f 	dsubu	a2,a2,t9
   120004990:	0204182d 	daddu	v1,s0,a0
   120004994:	1000ff1a 	b	120004600 <memcpy+0x130>
   120004998:	00a4282d 	daddu	a1,a1,a0
   12000499c:	1000fedd 	b	120004514 <memcpy+0x44>
   1200049a0:	00801825 	move	v1,a0
   1200049a4:	000d693a 	dsrl	t1,t1,0x4
   1200049a8:	65ac0001 	daddiu	t0,t1,1
   1200049ac:	000c6138 	dsll	t0,t0,0x4
   1200049b0:	00ac602d 	daddu	t0,a1,t0
   1200049b4:	00a02025 	move	a0,a1
   1200049b8:	00603825 	move	a3,v1
   1200049bc:	00000000 	nop
   1200049c0:	8c8b0000 	lw	a7,0(a0)
   1200049c4:	8c8a0004 	lw	a6,4(a0)
   1200049c8:	8c890008 	lw	a5,8(a0)
   1200049cc:	8c88000c 	lw	a4,12(a0)
   1200049d0:	64840010 	daddiu	a0,a0,16
   1200049d4:	aceb0000 	sw	a7,0(a3)
   1200049d8:	acea0004 	sw	a6,4(a3)
   1200049dc:	ace90008 	sw	a5,8(a3)
   1200049e0:	ace8000c 	sw	a4,12(a3)
   1200049e4:	1584fff6 	bne	t0,a0,1200049c0 <memcpy+0x4f0>
   1200049e8:	64e70010 	daddiu	a3,a3,16
   1200049ec:	1000ff74 	b	1200047c0 <memcpy+0x2f0>
   1200049f0:	65a40001 	daddiu	a0,t1,1
   1200049f4:	1000ff2a 	b	1200046a0 <memcpy+0x1d0>
   1200049f8:	00602025 	move	a0,v1
   1200049fc:	00000000 	nop

0000000120004a00 <__set_thread_area>:
   120004a00:	6402147a 	daddiu	v0,zero,5242
   120004a04:	0000000c 	syscall
   120004a08:	10e00004 	beqz	a3,120004a1c <__set_thread_area+0x1c>
   120004a0c:	00000000 	nop
   120004a10:	18400002 	blez	v0,120004a1c <__set_thread_area+0x1c>
   120004a14:	00000000 	nop
   120004a18:	0002102f 	dnegu	v0,v0
   120004a1c:	03e00008 	jr	ra
   120004a20:	00021000 	sll	v0,v0,0x0
	...

0000000120004a30 <lseek>:
   120004a30:	3c080002 	lui	a4,0x2
   120004a34:	0119402d 	daddu	a4,a4,t9
   120004a38:	6508bae0 	daddiu	a4,a4,-17696
   120004a3c:	64021390 	daddiu	v0,zero,5008
   120004a40:	0000000c 	syscall
   120004a44:	10e00007 	beqz	a3,120004a64 <lseek+0x34>
   120004a48:	00000000 	nop
   120004a4c:	18400005 	blez	v0,120004a64 <lseek+0x34>
   120004a50:	00000000 	nop
   120004a54:	0002202f 	dnegu	a0,v0
   120004a58:	dd198230 	ld	t9,-32208(a4)
   120004a5c:	10000004 	b	120004a70 <__syscall_ret>
   120004a60:	00000000 	nop
   120004a64:	1000fffc 	b	120004a58 <lseek+0x28>
   120004a68:	00402025 	move	a0,v0
   120004a6c:	00000000 	nop

0000000120004a70 <__syscall_ret>:
   120004a70:	2c82f001 	sltiu	v0,a0,-4095
   120004a74:	10400004 	beqz	v0,120004a88 <__syscall_ret+0x18>
   120004a78:	00801025 	move	v0,a0
   120004a7c:	03e00008 	jr	ra
   120004a80:	00000000 	nop
   120004a84:	00000000 	nop
   120004a88:	67bdffe0 	daddiu	sp,sp,-32
   120004a8c:	ffbc0010 	sd	gp,16(sp)
   120004a90:	3c1c0002 	lui	gp,0x2
   120004a94:	0399e02d 	daddu	gp,gp,t9
   120004a98:	679cbaa0 	daddiu	gp,gp,-17760
   120004a9c:	df998198 	ld	t9,-32360(gp)
   120004aa0:	ffbf0018 	sd	ra,24(sp)
   120004aa4:	0411fc22 	bal	120003b30 <__errno_location>
   120004aa8:	ffa40000 	sd	a0,0(sp)
   120004aac:	dfa40000 	ld	a0,0(sp)
   120004ab0:	dfbf0018 	ld	ra,24(sp)
   120004ab4:	dfbc0010 	ld	gp,16(sp)
   120004ab8:	00042000 	sll	a0,a0,0x0
   120004abc:	00042023 	negu	a0,a0
   120004ac0:	ac440000 	sw	a0,0(v0)
   120004ac4:	2404ffff 	li	a0,-1
   120004ac8:	00801025 	move	v0,a0
   120004acc:	03e00008 	jr	ra
   120004ad0:	67bd0020 	daddiu	sp,sp,32
	...

0000000120004ae0 <wcrtomb>:
   120004ae0:	10800005 	beqz	a0,120004af8 <wcrtomb+0x18>
   120004ae4:	24020001 	li	v0,1
   120004ae8:	2ca30080 	sltiu	v1,a1,128
   120004aec:	1060000a 	beqz	v1,120004b18 <wcrtomb+0x38>
   120004af0:	00000000 	nop
   120004af4:	a0850000 	sb	a1,0(a0)
   120004af8:	03e00008 	jr	ra
   120004afc:	00000000 	nop
   120004b00:	a0850000 	sb	a1,0(a0)
   120004b04:	24020001 	li	v0,1
   120004b08:	dfbf0008 	ld	ra,8(sp)
   120004b0c:	dfbc0000 	ld	gp,0(sp)
   120004b10:	03e00008 	jr	ra
   120004b14:	67bd0010 	daddiu	sp,sp,16
   120004b18:	7c03e83b 	0x7c03e83b
   120004b1c:	dc638fd0 	ld	v1,-28720(v1)
   120004b20:	67bdfff0 	daddiu	sp,sp,-16
   120004b24:	ffbc0000 	sd	gp,0(sp)
   120004b28:	dc630000 	ld	v1,0(v1)
   120004b2c:	3c1c0002 	lui	gp,0x2
   120004b30:	0399e02d 	daddu	gp,gp,t9
   120004b34:	ffbf0008 	sd	ra,8(sp)
   120004b38:	1460000d 	bnez	v1,120004b70 <wcrtomb+0x90>
   120004b3c:	679cba30 	daddiu	gp,gp,-17872
   120004b40:	3c03ffff 	lui	v1,0xffff
   120004b44:	24632080 	addiu	v1,v1,8320
   120004b48:	00a31021 	addu	v0,a1,v1
   120004b4c:	2c420080 	sltiu	v0,v0,128
   120004b50:	1440ffeb 	bnez	v0,120004b00 <wcrtomb+0x20>
   120004b54:	df998198 	ld	t9,-32360(gp)
   120004b58:	0411fbf5 	bal	120003b30 <__errno_location>
   120004b5c:	00000000 	nop
   120004b60:	24030058 	li	v1,88
   120004b64:	ac430000 	sw	v1,0(v0)
   120004b68:	1000ffe7 	b	120004b08 <wcrtomb+0x28>
   120004b6c:	2402ffff 	li	v0,-1
   120004b70:	2ca30800 	sltiu	v1,a1,2048
   120004b74:	1060000b 	beqz	v1,120004ba4 <wcrtomb+0xc4>
   120004b78:	3403d800 	li	v1,0xd800
   120004b7c:	00051183 	sra	v0,a1,0x6
   120004b80:	2403ffc0 	li	v1,-64
   120004b84:	00431025 	or	v0,v0,v1
   120004b88:	a0820000 	sb	v0,0(a0)
   120004b8c:	30a5003f 	andi	a1,a1,0x3f
   120004b90:	2402ff80 	li	v0,-128
   120004b94:	00a22825 	or	a1,a1,v0
   120004b98:	a0850001 	sb	a1,1(a0)
   120004b9c:	1000ffda 	b	120004b08 <wcrtomb+0x28>
   120004ba0:	24020002 	li	v0,2
   120004ba4:	00a3182b 	sltu	v1,a1,v1
   120004ba8:	14600006 	bnez	v1,120004bc4 <wcrtomb+0xe4>
   120004bac:	3c03ffff 	lui	v1,0xffff
   120004bb0:	24662000 	addiu	a2,v1,8192
   120004bb4:	00a63021 	addu	a2,a1,a2
   120004bb8:	2cc62000 	sltiu	a2,a2,8192
   120004bbc:	10c0000f 	beqz	a2,120004bfc <wcrtomb+0x11c>
   120004bc0:	00651821 	addu	v1,v1,a1
   120004bc4:	00051303 	sra	v0,a1,0xc
   120004bc8:	2403ffe0 	li	v1,-32
   120004bcc:	00431025 	or	v0,v0,v1
   120004bd0:	a0820000 	sb	v0,0(a0)
   120004bd4:	00051183 	sra	v0,a1,0x6
   120004bd8:	2403ff80 	li	v1,-128
   120004bdc:	3042003f 	andi	v0,v0,0x3f
   120004be0:	30a5003f 	andi	a1,a1,0x3f
   120004be4:	00431025 	or	v0,v0,v1
   120004be8:	00a32825 	or	a1,a1,v1
   120004bec:	a0820001 	sb	v0,1(a0)
   120004bf0:	a0850002 	sb	a1,2(a0)
   120004bf4:	1000ffc4 	b	120004b08 <wcrtomb+0x28>
   120004bf8:	24020003 	li	v0,3
   120004bfc:	3c020010 	lui	v0,0x10
   120004c00:	0062182b 	sltu	v1,v1,v0
   120004c04:	1060ffd4 	beqz	v1,120004b58 <wcrtomb+0x78>
   120004c08:	df998198 	ld	t9,-32360(gp)
   120004c0c:	00051483 	sra	v0,a1,0x12
   120004c10:	2403fff0 	li	v1,-16
   120004c14:	00431025 	or	v0,v0,v1
   120004c18:	a0820000 	sb	v0,0(a0)
   120004c1c:	00051303 	sra	v0,a1,0xc
   120004c20:	2403ff80 	li	v1,-128
   120004c24:	3042003f 	andi	v0,v0,0x3f
   120004c28:	00431025 	or	v0,v0,v1
   120004c2c:	a0820001 	sb	v0,1(a0)
   120004c30:	00051183 	sra	v0,a1,0x6
   120004c34:	3042003f 	andi	v0,v0,0x3f
   120004c38:	30a5003f 	andi	a1,a1,0x3f
   120004c3c:	00431025 	or	v0,v0,v1
   120004c40:	00a32825 	or	a1,a1,v1
   120004c44:	a0820002 	sb	v0,2(a0)
   120004c48:	a0850003 	sb	a1,3(a0)
   120004c4c:	1000ffae 	b	120004b08 <wcrtomb+0x28>
   120004c50:	24020004 	li	v0,4
	...

0000000120004c60 <close_file>:
   120004c60:	10800026 	beqz	a0,120004cfc <close_file+0x9c>
   120004c64:	00000000 	nop
   120004c68:	67bdffe0 	daddiu	sp,sp,-32
   120004c6c:	8c82008c 	lw	v0,140(a0)
   120004c70:	ffbc0010 	sd	gp,16(sp)
   120004c74:	3c1c0002 	lui	gp,0x2
   120004c78:	0399e02d 	daddu	gp,gp,t9
   120004c7c:	ffb00008 	sd	s0,8(sp)
   120004c80:	ffbf0018 	sd	ra,24(sp)
   120004c84:	679cb8b0 	daddiu	gp,gp,-18256
   120004c88:	04400004 	bltz	v0,120004c9c <close_file+0x3c>
   120004c8c:	00808025 	move	s0,a0
   120004c90:	df9981b8 	ld	t9,-32328(gp)
   120004c94:	0411fc66 	bal	120003e30 <__lockfile>
   120004c98:	00000000 	nop
   120004c9c:	de030028 	ld	v1,40(s0)
   120004ca0:	de020038 	ld	v0,56(s0)
   120004ca4:	10620005 	beq	v1,v0,120004cbc <close_file+0x5c>
   120004ca8:	00003025 	move	a2,zero
   120004cac:	de190048 	ld	t9,72(s0)
   120004cb0:	00002825 	move	a1,zero
   120004cb4:	0320f809 	jalr	t9
   120004cb8:	02002025 	move	a0,s0
   120004cbc:	de050008 	ld	a1,8(s0)
   120004cc0:	de020010 	ld	v0,16(s0)
   120004cc4:	10a20009 	beq	a1,v0,120004cec <close_file+0x8c>
   120004cc8:	dfbf0018 	ld	ra,24(sp)
   120004ccc:	de190050 	ld	t9,80(s0)
   120004cd0:	dfbc0010 	ld	gp,16(sp)
   120004cd4:	02002025 	move	a0,s0
   120004cd8:	dfb00008 	ld	s0,8(sp)
   120004cdc:	24060001 	li	a2,1
   120004ce0:	00a2282f 	dsubu	a1,a1,v0
   120004ce4:	03200008 	jr	t9
   120004ce8:	67bd0020 	daddiu	sp,sp,32
   120004cec:	dfbc0010 	ld	gp,16(sp)
   120004cf0:	dfb00008 	ld	s0,8(sp)
   120004cf4:	03e00008 	jr	ra
   120004cf8:	67bd0020 	daddiu	sp,sp,32
   120004cfc:	03e00008 	jr	ra
   120004d00:	00000000 	nop

0000000120004d04 <__stdio_exit>:
   120004d04:	67bdffe0 	daddiu	sp,sp,-32
   120004d08:	ffbc0010 	sd	gp,16(sp)
   120004d0c:	3c1c0002 	lui	gp,0x2
   120004d10:	0399e02d 	daddu	gp,gp,t9
   120004d14:	679cb80c 	daddiu	gp,gp,-18420
   120004d18:	df998248 	ld	t9,-32184(gp)
   120004d1c:	ffb10008 	sd	s1,8(sp)
   120004d20:	ffb00000 	sd	s0,0(sp)
   120004d24:	ffbf0018 	sd	ra,24(sp)
   120004d28:	04110079 	bal	120004f10 <__ofl_lock>
   120004d2c:	df908058 	ld	s0,-32680(gp)
   120004d30:	dc510000 	ld	s1,0(v0)
   120004d34:	66104c60 	daddiu	s0,s0,19552
   120004d38:	16200013 	bnez	s1,120004d88 <__stdio_exit+0x84>
   120004d3c:	0200c825 	move	t9,s0
   120004d40:	df828250 	ld	v0,-32176(gp)
   120004d44:	dc440000 	ld	a0,0(v0)
   120004d48:	0411ffc5 	bal	120004c60 <close_file>
   120004d4c:	00000000 	nop
   120004d50:	df828258 	ld	v0,-32168(gp)
   120004d54:	0200c825 	move	t9,s0
   120004d58:	dc440000 	ld	a0,0(v0)
   120004d5c:	0411ffc0 	bal	120004c60 <close_file>
   120004d60:	00000000 	nop
   120004d64:	df828250 	ld	v0,-32176(gp)
   120004d68:	dfbf0018 	ld	ra,24(sp)
   120004d6c:	dfbc0010 	ld	gp,16(sp)
   120004d70:	dfb10008 	ld	s1,8(sp)
   120004d74:	dc440000 	ld	a0,0(v0)
   120004d78:	0200c825 	move	t9,s0
   120004d7c:	dfb00000 	ld	s0,0(sp)
   120004d80:	1000ffb7 	b	120004c60 <close_file>
   120004d84:	67bd0020 	daddiu	sp,sp,32
   120004d88:	0411ffb5 	bal	120004c60 <close_file>
   120004d8c:	02202025 	move	a0,s1
   120004d90:	1000ffe9 	b	120004d38 <__stdio_exit+0x34>
   120004d94:	de310070 	ld	s1,112(s1)
	...

0000000120004da0 <__stdio_write>:
   120004da0:	67bdff90 	daddiu	sp,sp,-112
   120004da4:	ffbc0060 	sd	gp,96(sp)
   120004da8:	3c1c0002 	lui	gp,0x2
   120004dac:	dc830038 	ld	v1,56(a0)
   120004db0:	ffb30050 	sd	s3,80(sp)
   120004db4:	0399e02d 	daddu	gp,gp,t9
   120004db8:	dc930028 	ld	s3,40(a0)
   120004dbc:	679cb770 	daddiu	gp,gp,-18576
   120004dc0:	ffb20048 	sd	s2,72(sp)
   120004dc4:	df928230 	ld	s2,-32208(gp)
   120004dc8:	0263982f 	dsubu	s3,s3,v1
   120004dcc:	ffb40058 	sd	s4,88(sp)
   120004dd0:	ffb10040 	sd	s1,64(sp)
   120004dd4:	ffb00038 	sd	s0,56(sp)
   120004dd8:	ffb30008 	sd	s3,8(sp)
   120004ddc:	ffbf0068 	sd	ra,104(sp)
   120004de0:	00808025 	move	s0,a0
   120004de4:	00c08825 	move	s1,a2
   120004de8:	ffa30000 	sd	v1,0(sp)
   120004dec:	ffa50010 	sd	a1,16(sp)
   120004df0:	ffa60018 	sd	a2,24(sp)
   120004df4:	0266982d 	daddu	s3,s3,a2
   120004df8:	24140002 	li	s4,2
   120004dfc:	ffbd0020 	sd	sp,32(sp)
   120004e00:	8e040078 	lw	a0,120(s0)
   120004e04:	dfa50020 	ld	a1,32(sp)
   120004e08:	02803025 	move	a2,s4
   120004e0c:	6402139b 	daddiu	v0,zero,5019
   120004e10:	0000000c 	syscall
   120004e14:	10e00004 	beqz	a3,120004e28 <__stdio_write+0x88>
   120004e18:	00402025 	move	a0,v0
   120004e1c:	18400002 	blez	v0,120004e28 <__stdio_write+0x88>
   120004e20:	00000000 	nop
   120004e24:	0002202f 	dnegu	a0,v0
   120004e28:	0240c825 	move	t9,s2
   120004e2c:	0411ff10 	bal	120004a70 <__syscall_ret>
   120004e30:	00000000 	nop
   120004e34:	16620011 	bne	s3,v0,120004e7c <__stdio_write+0xdc>
   120004e38:	00401825 	move	v1,v0
   120004e3c:	de020058 	ld	v0,88(s0)
   120004e40:	de030060 	ld	v1,96(s0)
   120004e44:	fe020038 	sd	v0,56(s0)
   120004e48:	0043182d 	daddu	v1,v0,v1
   120004e4c:	fe030020 	sd	v1,32(s0)
   120004e50:	fe020028 	sd	v0,40(s0)
   120004e54:	dfbf0068 	ld	ra,104(sp)
   120004e58:	dfbc0060 	ld	gp,96(sp)
   120004e5c:	dfb40058 	ld	s4,88(sp)
   120004e60:	dfb30050 	ld	s3,80(sp)
   120004e64:	dfb20048 	ld	s2,72(sp)
   120004e68:	dfb00038 	ld	s0,56(sp)
   120004e6c:	02201025 	move	v0,s1
   120004e70:	dfb10040 	ld	s1,64(sp)
   120004e74:	03e00008 	jr	ra
   120004e78:	67bd0070 	daddiu	sp,sp,112
   120004e7c:	0441000d 	bgez	v0,120004eb4 <__stdio_write+0x114>
   120004e80:	dfa40020 	ld	a0,32(sp)
   120004e84:	8e020000 	lw	v0,0(s0)
   120004e88:	fe000020 	sd	zero,32(s0)
   120004e8c:	fe000038 	sd	zero,56(s0)
   120004e90:	34420020 	ori	v0,v0,0x20
   120004e94:	ae020000 	sw	v0,0(s0)
   120004e98:	24020002 	li	v0,2
   120004e9c:	12820017 	beq	s4,v0,120004efc <__stdio_write+0x15c>
   120004ea0:	fe000028 	sd	zero,40(s0)
   120004ea4:	dfa20020 	ld	v0,32(sp)
   120004ea8:	dc420008 	ld	v0,8(v0)
   120004eac:	1000ffe9 	b	120004e54 <__stdio_write+0xb4>
   120004eb0:	0222882f 	dsubu	s1,s1,v0
   120004eb4:	dc840008 	ld	a0,8(a0)
   120004eb8:	0082282b 	sltu	a1,a0,v0
   120004ebc:	10a00006 	beqz	a1,120004ed8 <__stdio_write+0x138>
   120004ec0:	0262982f 	dsubu	s3,s3,v0
   120004ec4:	0044182f 	dsubu	v1,v0,a0
   120004ec8:	dfa40020 	ld	a0,32(sp)
   120004ecc:	2694ffff 	addiu	s4,s4,-1
   120004ed0:	64840010 	daddiu	a0,a0,16
   120004ed4:	ffa40020 	sd	a0,32(sp)
   120004ed8:	dfa40020 	ld	a0,32(sp)
   120004edc:	dfa50020 	ld	a1,32(sp)
   120004ee0:	dc840000 	ld	a0,0(a0)
   120004ee4:	0083202d 	daddu	a0,a0,v1
   120004ee8:	fca40000 	sd	a0,0(a1)
   120004eec:	dca40008 	ld	a0,8(a1)
   120004ef0:	0083182f 	dsubu	v1,a0,v1
   120004ef4:	1000ffc2 	b	120004e00 <__stdio_write+0x60>
   120004ef8:	fca30008 	sd	v1,8(a1)
   120004efc:	1000ffd5 	b	120004e54 <__stdio_write+0xb4>
   120004f00:	00008825 	move	s1,zero
	...

0000000120004f10 <__ofl_lock>:
   120004f10:	67bdfff0 	daddiu	sp,sp,-16
   120004f14:	ffbc0000 	sd	gp,0(sp)
   120004f18:	3c1c0002 	lui	gp,0x2
   120004f1c:	0399e02d 	daddu	gp,gp,t9
   120004f20:	679cb600 	daddiu	gp,gp,-18944
   120004f24:	df848040 	ld	a0,-32704(gp)
   120004f28:	df998260 	ld	t9,-32160(gp)
   120004f2c:	ffbf0008 	sd	ra,8(sp)
   120004f30:	0411000f 	bal	120004f70 <__lock>
   120004f34:	64848e90 	daddiu	a0,a0,-29040
   120004f38:	df828040 	ld	v0,-32704(gp)
   120004f3c:	dfbf0008 	ld	ra,8(sp)
   120004f40:	dfbc0000 	ld	gp,0(sp)
   120004f44:	64428e98 	daddiu	v0,v0,-29032
   120004f48:	03e00008 	jr	ra
   120004f4c:	67bd0010 	daddiu	sp,sp,16

0000000120004f50 <__ofl_unlock>:
   120004f50:	3c020002 	lui	v0,0x2
   120004f54:	0059102d 	daddu	v0,v0,t9
   120004f58:	6442b5c0 	daddiu	v0,v0,-19008
   120004f5c:	dc448040 	ld	a0,-32704(v0)
   120004f60:	dc598268 	ld	t9,-32152(v0)
   120004f64:	10000062 	b	1200050f0 <__unlock>
   120004f68:	64848e90 	daddiu	a0,a0,-29040
   120004f6c:	00000000 	nop

0000000120004f70 <__lock>:
   120004f70:	67bdfff0 	daddiu	sp,sp,-16
   120004f74:	ffbc0008 	sd	gp,8(sp)
   120004f78:	3c1c0002 	lui	gp,0x2
   120004f7c:	0399e02d 	daddu	gp,gp,t9
   120004f80:	679cb5a0 	daddiu	gp,gp,-19040
   120004f84:	df8880a8 	ld	a4,-32600(gp)
   120004f88:	ffb00000 	sd	s0,0(sp)
   120004f8c:	91060003 	lbu	a2,3(a4)
   120004f90:	0006363c 	dsll32	a2,a2,0x18
   120004f94:	0006363f 	dsra32	a2,a2,0x18
   120004f98:	10c00051 	beqz	a2,1200050e0 <__lock+0x170>
   120004f9c:	00000000 	nop
   120004fa0:	0000000f 	sync
   120004fa4:	3c078000 	lui	a3,0x8000
   120004fa8:	24e70001 	addiu	a3,a3,1
   120004fac:	c0830000 	ll	v1,0(a0)
   120004fb0:	14600004 	bnez	v1,120004fc4 <__lock+0x54>
   120004fb4:	00e02825 	move	a1,a3
   120004fb8:	e0850000 	sc	a1,0(a0)
   120004fbc:	10a0fffb 	beqz	a1,120004fac <__lock+0x3c>
   120004fc0:	00000000 	nop
   120004fc4:	0000000f 	sync
   120004fc8:	04c10002 	bgez	a2,120004fd4 <__lock+0x64>
   120004fcc:	00000000 	nop
   120004fd0:	a1000003 	sb	zero,3(a4)
   120004fd4:	10600042 	beqz	v1,1200050e0 <__lock+0x170>
   120004fd8:	00000000 	nop
   120004fdc:	3c097fff 	lui	a5,0x7fff
   120004fe0:	3c088000 	lui	a4,0x8000
   120004fe4:	2407000a 	li	a3,10
   120004fe8:	3529ffff 	ori	a5,a5,0xffff
   120004fec:	25080001 	addiu	a4,a4,1
   120004ff0:	04610002 	bgez	v1,120004ffc <__lock+0x8c>
   120004ff4:	00602825 	move	a1,v1
   120004ff8:	01232821 	addu	a1,a5,v1
   120004ffc:	01055021 	addu	a6,a4,a1
   120005000:	0000000f 	sync
   120005004:	c0860000 	ll	a2,0(a0)
   120005008:	14c50005 	bne	a2,a1,120005020 <__lock+0xb0>
   12000500c:	00c01825 	move	v1,a2
   120005010:	01403025 	move	a2,a6
   120005014:	e0860000 	sc	a2,0(a0)
   120005018:	10c0fffa 	beqz	a2,120005004 <__lock+0x94>
   12000501c:	00000000 	nop
   120005020:	0000000f 	sync
   120005024:	10a3002e 	beq	a1,v1,1200050e0 <__lock+0x170>
   120005028:	00000000 	nop
   12000502c:	24e7ffff 	addiu	a3,a3,-1
   120005030:	14e0ffef 	bnez	a3,120004ff0 <__lock+0x80>
   120005034:	00000000 	nop
   120005038:	0000000f 	sync
   12000503c:	c0830000 	ll	v1,0(a0)
   120005040:	24660001 	addiu	a2,v1,1
   120005044:	24630001 	addiu	v1,v1,1
   120005048:	e0830000 	sc	v1,0(a0)
   12000504c:	1060fffb 	beqz	v1,12000503c <__lock+0xcc>
   120005050:	00000000 	nop
   120005054:	0000000f 	sync
   120005058:	3c087fff 	lui	a4,0x7fff
   12000505c:	2410ffa7 	li	s0,-89
   120005060:	3508ffff 	ori	a4,a4,0xffff
   120005064:	3c098000 	lui	a5,0x8000
   120005068:	04c10011 	bgez	a2,1200050b0 <__lock+0x140>
   12000506c:	00c02825 	move	a1,a2
   120005070:	24050080 	li	a1,128
   120005074:	00003825 	move	a3,zero
   120005078:	6402144a 	daddiu	v0,zero,5194
   12000507c:	0000000c 	syscall
   120005080:	10e00004 	beqz	a3,120005094 <__lock+0x124>
   120005084:	00401825 	move	v1,v0
   120005088:	18400002 	blez	v0,120005094 <__lock+0x124>
   12000508c:	00000000 	nop
   120005090:	0002182f 	dnegu	v1,v0
   120005094:	14700006 	bne	v1,s0,1200050b0 <__lock+0x140>
   120005098:	01062821 	addu	a1,a4,a2
   12000509c:	00002825 	move	a1,zero
   1200050a0:	00003825 	move	a3,zero
   1200050a4:	6402144a 	daddiu	v0,zero,5194
   1200050a8:	0000000c 	syscall
   1200050ac:	01062821 	addu	a1,a4,a2
   1200050b0:	01253821 	addu	a3,a5,a1
   1200050b4:	0000000f 	sync
   1200050b8:	c0830000 	ll	v1,0(a0)
   1200050bc:	14650005 	bne	v1,a1,1200050d4 <__lock+0x164>
   1200050c0:	00603025 	move	a2,v1
   1200050c4:	00e01825 	move	v1,a3
   1200050c8:	e0830000 	sc	v1,0(a0)
   1200050cc:	1060fffa 	beqz	v1,1200050b8 <__lock+0x148>
   1200050d0:	00000000 	nop
   1200050d4:	0000000f 	sync
   1200050d8:	14a6ffe3 	bne	a1,a2,120005068 <__lock+0xf8>
   1200050dc:	00000000 	nop
   1200050e0:	dfbc0008 	ld	gp,8(sp)
   1200050e4:	dfb00000 	ld	s0,0(sp)
   1200050e8:	03e00008 	jr	ra
   1200050ec:	67bd0010 	daddiu	sp,sp,16

00000001200050f0 <__unlock>:
   1200050f0:	8c830000 	lw	v1,0(a0)
   1200050f4:	0461001d 	bgez	v1,12000516c <__unlock+0x7c>
   1200050f8:	00000000 	nop
   1200050fc:	0000000f 	sync
   120005100:	3c057fff 	lui	a1,0x7fff
   120005104:	34a5ffff 	ori	a1,a1,0xffff
   120005108:	c0830000 	ll	v1,0(a0)
   12000510c:	00603025 	move	a2,v1
   120005110:	00651821 	addu	v1,v1,a1
   120005114:	e0830000 	sc	v1,0(a0)
   120005118:	1060fffb 	beqz	v1,120005108 <__unlock+0x18>
   12000511c:	00000000 	nop
   120005120:	0000000f 	sync
   120005124:	3c038000 	lui	v1,0x8000
   120005128:	24630001 	addiu	v1,v1,1
   12000512c:	10c3000f 	beq	a2,v1,12000516c <__unlock+0x7c>
   120005130:	24050081 	li	a1,129
   120005134:	24060001 	li	a2,1
   120005138:	6402144a 	daddiu	v0,zero,5194
   12000513c:	0000000c 	syscall
   120005140:	10e00004 	beqz	a3,120005154 <__unlock+0x64>
   120005144:	00401825 	move	v1,v0
   120005148:	18400003 	blez	v0,120005158 <__unlock+0x68>
   12000514c:	2405ffa7 	li	a1,-89
   120005150:	0002182f 	dnegu	v1,v0
   120005154:	2405ffa7 	li	a1,-89
   120005158:	14650004 	bne	v1,a1,12000516c <__unlock+0x7c>
   12000515c:	24050001 	li	a1,1
   120005160:	24060001 	li	a2,1
   120005164:	6402144a 	daddiu	v0,zero,5194
   120005168:	0000000c 	syscall
   12000516c:	03e00008 	jr	ra
   120005170:	00000000 	nop
	...

0000000120005180 <__addtf3>:
   120005180:	240a0001 	li	a6,1
   120005184:	000a143c 	dsll32	v0,a6,0x10
   120005188:	67bdffd0 	daddiu	sp,sp,-48
   12000518c:	6442ffff 	daddiu	v0,v0,-1
   120005190:	00451824 	and	v1,v0,a1
   120005194:	0007443e 	dsrl32	a4,a3,0x10
   120005198:	00471024 	and	v0,v0,a3
   12000519c:	ffbc0020 	sd	gp,32(sp)
   1200051a0:	ffb00000 	sd	s0,0(sp)
   1200051a4:	3c1c0002 	lui	gp,0x2
   1200051a8:	0005843e 	dsrl32	s0,a1,0x10
   1200051ac:	32107fff 	andi	s0,s0,0x7fff
   1200051b0:	31087fff 	andi	a4,a4,0x7fff
   1200051b4:	000210f8 	dsll	v0,v0,0x3
   1200051b8:	ffb30018 	sd	s3,24(sp)
   1200051bc:	0399e02d 	daddu	gp,gp,t9
   1200051c0:	000318f8 	dsll	v1,v1,0x3
   1200051c4:	00046f7e 	dsrl32	t1,a0,0x1d
   1200051c8:	00064f7e 	dsrl32	a5,a2,0x1d
   1200051cc:	00059ffe 	dsrl32	s3,a1,0x1f
   1200051d0:	00073ffe 	dsrl32	a3,a3,0x1f
   1200051d4:	01224825 	or	a5,a5,v0
   1200051d8:	ffbf0028 	sd	ra,40(sp)
   1200051dc:	ffb20010 	sd	s2,16(sp)
   1200051e0:	ffb10008 	sd	s1,8(sp)
   1200051e4:	679cb390 	daddiu	gp,gp,-19568
   1200051e8:	01a36825 	or	t1,t1,v1
   1200051ec:	000470f8 	dsll	t2,a0,0x3
   1200051f0:	000658f8 	dsll	a7,a2,0x3
   1200051f4:	0208602f 	dsubu	t0,s0,a4
   1200051f8:	12670083 	beq	s3,a3,120005408 <__addtf3+0x288>
   1200051fc:	02081023 	subu	v0,s0,a4
   120005200:	1980006b 	blez	t0,1200053b0 <__addtf3+0x230>
   120005204:	00000000 	nop
   120005208:	11000097 	beqz	a4,120005468 <__addtf3+0x2e8>
   12000520c:	012b1825 	or	v1,a5,a7
   120005210:	24037fff 	li	v1,32767
   120005214:	5203009d 	beql	s0,v1,12000548c <__addtf3+0x30c>
   120005218:	000a177c 	dsll32	v0,a6,0x1d
   12000521c:	000a54fc 	dsll32	a6,a6,0x13
   120005220:	012a4825 	or	a5,a5,a6
   120005224:	28430075 	slti	v1,v0,117
   120005228:	1060012b 	beqz	v1,1200056d8 <__addtf3+0x558>
   12000522c:	012b8825 	or	s1,a5,a7
   120005230:	28430040 	slti	v1,v0,64
   120005234:	10600186 	beqz	v1,120005850 <__addtf3+0x6d0>
   120005238:	24040040 	li	a0,64
   12000523c:	24030040 	li	v1,64
   120005240:	00621823 	subu	v1,v1,v0
   120005244:	004b2016 	dsrlv	a0,a7,v0
   120005248:	00698814 	dsllv	s1,a5,v1
   12000524c:	006b5814 	dsllv	a7,a7,v1
   120005250:	02248825 	or	s1,s1,a0
   120005254:	000b582b 	sltu	a7,zero,a7
   120005258:	00491016 	dsrlv	v0,a5,v0
   12000525c:	022b8825 	or	s1,s1,a7
   120005260:	01a2682f 	dsubu	t1,t1,v0
   120005264:	01d1882f 	dsubu	s1,t2,s1
   120005268:	01d1182b 	sltu	v1,t2,s1
   12000526c:	01a3182f 	dsubu	v1,t1,v1
   120005270:	24040001 	li	a0,1
   120005274:	000424fc 	dsll32	a0,a0,0x13
   120005278:	00641024 	and	v0,v1,a0
   12000527c:	104000d0 	beqz	v0,1200055c0 <__addtf3+0x440>
   120005280:	32220007 	andi	v0,s1,0x7
   120005284:	6484ffff 	daddiu	a0,a0,-1
   120005288:	00649024 	and	s2,v1,a0
   12000528c:	124000e2 	beqz	s2,120005618 <__addtf3+0x498>
   120005290:	df998270 	ld	t9,-32144(gp)
   120005294:	0411082a 	bal	120007340 <__clzdi2>
   120005298:	02402025 	move	a0,s2
   12000529c:	2446fff4 	addiu	a2,v0,-12
   1200052a0:	00062023 	negu	a0,a2
   1200052a4:	00912016 	dsrlv	a0,s1,a0
   1200052a8:	00d29014 	dsllv	s2,s2,a2
   1200052ac:	00d0102a 	slt	v0,a2,s0
   1200052b0:	00922025 	or	a0,a0,s2
   1200052b4:	144000e2 	bnez	v0,120005640 <__addtf3+0x4c0>
   1200052b8:	00d18814 	dsllv	s1,s1,a2
   1200052bc:	00108000 	sll	s0,s0,0x0
   1200052c0:	00d03023 	subu	a2,a2,s0
   1200052c4:	24c30001 	addiu	v1,a2,1
   1200052c8:	28620040 	slti	v0,v1,64
   1200052cc:	10400154 	beqz	v0,120005820 <__addtf3+0x6a0>
   1200052d0:	24c6ffc1 	addiu	a2,a2,-63
   1200052d4:	24020040 	li	v0,64
   1200052d8:	00431023 	subu	v0,v0,v1
   1200052dc:	00713016 	dsrlv	a2,s1,v1
   1200052e0:	00518814 	dsllv	s1,s1,v0
   1200052e4:	00441014 	dsllv	v0,a0,v0
   1200052e8:	00461025 	or	v0,v0,a2
   1200052ec:	0011882b 	sltu	s1,zero,s1
   1200052f0:	00518825 	or	s1,v0,s1
   1200052f4:	00641816 	dsrlv	v1,a0,v1
   1200052f8:	00008025 	move	s0,zero
   1200052fc:	32220007 	andi	v0,s1,0x7
   120005300:	10400009 	beqz	v0,120005328 <__addtf3+0x1a8>
   120005304:	24020001 	li	v0,1
   120005308:	3222000f 	andi	v0,s1,0xf
   12000530c:	24040004 	li	a0,4
   120005310:	10440004 	beq	v0,a0,120005324 <__addtf3+0x1a4>
   120005314:	66240004 	daddiu	a0,s1,4
   120005318:	0091882b 	sltu	s1,a0,s1
   12000531c:	0071182d 	daddu	v1,v1,s1
   120005320:	00808825 	move	s1,a0
   120005324:	24020001 	li	v0,1
   120005328:	000224fc 	dsll32	a0,v0,0x13
   12000532c:	00642024 	and	a0,v1,a0
   120005330:	108000a5 	beqz	a0,1200055c8 <__addtf3+0x448>
   120005334:	66040001 	daddiu	a0,s0,1
   120005338:	24067fff 	li	a2,32767
   12000533c:	108600b0 	beq	a0,a2,120005600 <__addtf3+0x480>
   120005340:	30907fff 	andi	s0,a0,0x7fff
   120005344:	2404ffff 	li	a0,-1
   120005348:	000424fc 	dsll32	a0,a0,0x13
   12000534c:	6484ffff 	daddiu	a0,a0,-1
   120005350:	00642024 	and	a0,v1,a0
   120005354:	00021c3c 	dsll32	v1,v0,0x10
   120005358:	001188fa 	dsrl	s1,s1,0x3
   12000535c:	0004177c 	dsll32	v0,a0,0x1d
   120005360:	6463ffff 	daddiu	v1,v1,-1
   120005364:	000420fa 	dsrl	a0,a0,0x3
   120005368:	00511025 	or	v0,v0,s1
   12000536c:	00832024 	and	a0,a0,v1
   120005370:	24030001 	li	v1,1
   120005374:	dfbf0028 	ld	ra,40(sp)
   120005378:	00132bc0 	sll	a1,s3,0xf
   12000537c:	00031c3c 	dsll32	v1,v1,0x10
   120005380:	00b02825 	or	a1,a1,s0
   120005384:	6463ffff 	daddiu	v1,v1,-1
   120005388:	00052c3c 	dsll32	a1,a1,0x10
   12000538c:	00832024 	and	a0,a0,v1
   120005390:	dfbc0020 	ld	gp,32(sp)
   120005394:	dfb30018 	ld	s3,24(sp)
   120005398:	dfb20010 	ld	s2,16(sp)
   12000539c:	dfb10008 	ld	s1,8(sp)
   1200053a0:	dfb00000 	ld	s0,0(sp)
   1200053a4:	00852025 	or	a0,a0,a1
   1200053a8:	03e00008 	jr	ra
   1200053ac:	67bd0030 	daddiu	sp,sp,48
   1200053b0:	51800049 	beqzl	t0,1200054d8 <__addtf3+0x358>
   1200053b4:	66020001 	daddiu	v0,s0,1
   1200053b8:	160000f1 	bnez	s0,120005780 <__addtf3+0x600>
   1200053bc:	24037fff 	li	v1,32767
   1200053c0:	01ae1825 	or	v1,t1,t2
   1200053c4:	50600158 	beqzl	v1,120005928 <__addtf3+0x7a8>
   1200053c8:	000a177c 	dsll32	v0,a6,0x1d
   1200053cc:	00021027 	nor	v0,zero,v0
   1200053d0:	10400197 	beqz	v0,120005a30 <__addtf3+0x8b0>
   1200053d4:	016e882f 	dsubu	s1,a7,t2
   1200053d8:	24037fff 	li	v1,32767
   1200053dc:	550300ee 	bnel	a4,v1,120005798 <__addtf3+0x618>
   1200053e0:	28430075 	slti	v1,v0,117
   1200053e4:	000a177c 	dsll32	v0,a6,0x1d
   1200053e8:	6442ffff 	daddiu	v0,v0,-1
   1200053ec:	00463024 	and	a2,v0,a2
   1200053f0:	0009177c 	dsll32	v0,a5,0x1d
   1200053f4:	00c21025 	or	v0,a2,v0
   1200053f8:	000918fa 	dsrl	v1,a5,0x3
   1200053fc:	10000028 	b	1200054a0 <__addtf3+0x320>
   120005400:	00e09825 	move	s3,a3
   120005404:	00000000 	nop
   120005408:	19800093 	blez	t0,120005658 <__addtf3+0x4d8>
   12000540c:	00000000 	nop
   120005410:	11000049 	beqz	a4,120005538 <__addtf3+0x3b8>
   120005414:	012b1825 	or	v1,a5,a7
   120005418:	24037fff 	li	v1,32767
   12000541c:	5203001b 	beql	s0,v1,12000548c <__addtf3+0x30c>
   120005420:	000a177c 	dsll32	v0,a6,0x1d
   120005424:	000a54fc 	dsll32	a6,a6,0x13
   120005428:	012a4825 	or	a5,a5,a6
   12000542c:	28430075 	slti	v1,v0,117
   120005430:	1060004b 	beqz	v1,120005560 <__addtf3+0x3e0>
   120005434:	012b8825 	or	s1,a5,a7
   120005438:	28430040 	slti	v1,v0,64
   12000543c:	54600124 	bnezl	v1,1200058d0 <__addtf3+0x750>
   120005440:	24030040 	li	v1,64
   120005444:	24040040 	li	a0,64
   120005448:	10440004 	beq	v0,a0,12000545c <__addtf3+0x2dc>
   12000544c:	00491816 	dsrlv	v1,a5,v0
   120005450:	00021023 	negu	v0,v0
   120005454:	00491014 	dsllv	v0,a5,v0
   120005458:	01625825 	or	a7,a7,v0
   12000545c:	000b882b 	sltu	s1,zero,a7
   120005460:	10000040 	b	120005564 <__addtf3+0x3e4>
   120005464:	02238825 	or	s1,s1,v1
   120005468:	506000e7 	beqzl	v1,120005808 <__addtf3+0x688>
   12000546c:	000a177c 	dsll32	v0,a6,0x1d
   120005470:	2442ffff 	addiu	v0,v0,-1
   120005474:	1040013e 	beqz	v0,120005970 <__addtf3+0x7f0>
   120005478:	01cb882f 	dsubu	s1,t2,a7
   12000547c:	24037fff 	li	v1,32767
   120005480:	1603ff69 	bne	s0,v1,120005228 <__addtf3+0xa8>
   120005484:	28430075 	slti	v1,v0,117
   120005488:	000a177c 	dsll32	v0,a6,0x1d
   12000548c:	6442ffff 	daddiu	v0,v0,-1
   120005490:	00442024 	and	a0,v0,a0
   120005494:	000d177c 	dsll32	v0,t1,0x1d
   120005498:	00821025 	or	v0,a0,v0
   12000549c:	000d18fa 	dsrl	v1,t1,0x3
   1200054a0:	00432025 	or	a0,v0,v1
   1200054a4:	50800058 	beqzl	a0,120005608 <__addtf3+0x488>
   1200054a8:	24107fff 	li	s0,32767
   1200054ac:	24040001 	li	a0,1
   1200054b0:	000423fc 	dsll32	a0,a0,0xf
   1200054b4:	6484ffff 	daddiu	a0,a0,-1
   1200054b8:	00641824 	and	v1,v1,a0
   1200054bc:	00433025 	or	a2,v0,v1
   1200054c0:	54c00091 	bnezl	a2,120005708 <__addtf3+0x588>
   1200054c4:	24040001 	li	a0,1
   1200054c8:	00009825 	move	s3,zero
   1200054cc:	24107fff 	li	s0,32767
   1200054d0:	1000ffa7 	b	120005370 <__addtf3+0x1f0>
   1200054d4:	2402ffff 	li	v0,-1
   1200054d8:	30427ffe 	andi	v0,v0,0x7ffe
   1200054dc:	144000be 	bnez	v0,1200057d8 <__addtf3+0x658>
   1200054e0:	01cb882f 	dsubu	s1,t2,a7
   1200054e4:	01ae1825 	or	v1,t1,t2
   1200054e8:	1600007d 	bnez	s0,1200056e0 <__addtf3+0x560>
   1200054ec:	012b1025 	or	v0,a5,a7
   1200054f0:	10600145 	beqz	v1,120005a08 <__addtf3+0x888>
   1200054f4:	00000000 	nop
   1200054f8:	10400127 	beqz	v0,120005998 <__addtf3+0x818>
   1200054fc:	000a177c 	dsll32	v0,a6,0x1d
   120005500:	01cb882f 	dsubu	s1,t2,a7
   120005504:	01a9202f 	dsubu	a0,t1,a5
   120005508:	01d1182b 	sltu	v1,t2,s1
   12000550c:	0083182f 	dsubu	v1,a0,v1
   120005510:	000a54fc 	dsll32	a6,a6,0x13
   120005514:	006a5024 	and	a6,v1,a6
   120005518:	1140015a 	beqz	a6,120005a84 <__addtf3+0x904>
   12000551c:	02231025 	or	v0,s1,v1
   120005520:	016e882f 	dsubu	s1,a7,t2
   120005524:	012d482f 	dsubu	a5,a5,t1
   120005528:	0171182b 	sltu	v1,a7,s1
   12000552c:	0123182f 	dsubu	v1,a5,v1
   120005530:	1000ff72 	b	1200052fc <__addtf3+0x17c>
   120005534:	00e09825 	move	s3,a3
   120005538:	50600111 	beqzl	v1,120005980 <__addtf3+0x800>
   12000553c:	000a577c 	dsll32	a6,a6,0x1d
   120005540:	2442ffff 	addiu	v0,v0,-1
   120005544:	10400106 	beqz	v0,120005960 <__addtf3+0x7e0>
   120005548:	01cb882d 	daddu	s1,t2,a7
   12000554c:	24037fff 	li	v1,32767
   120005550:	1603ffb7 	bne	s0,v1,120005430 <__addtf3+0x2b0>
   120005554:	28430075 	slti	v1,v0,117
   120005558:	1000ffcc 	b	12000548c <__addtf3+0x30c>
   12000555c:	000a177c 	dsll32	v0,a6,0x1d
   120005560:	0011882b 	sltu	s1,zero,s1
   120005564:	022e882d 	daddu	s1,s1,t2
   120005568:	022e182b 	sltu	v1,s1,t2
   12000556c:	006d182d 	daddu	v1,v1,t1
   120005570:	000314fe 	dsrl32	v0,v1,0x13
   120005574:	30420001 	andi	v0,v0,0x1
   120005578:	10400011 	beqz	v0,1200055c0 <__addtf3+0x440>
   12000557c:	32220007 	andi	v0,s1,0x7
   120005580:	66100001 	daddiu	s0,s0,1
   120005584:	24027fff 	li	v0,32767
   120005588:	5202001f 	beql	s0,v0,120005608 <__addtf3+0x488>
   12000558c:	24107fff 	li	s0,32767
   120005590:	2404ffff 	li	a0,-1
   120005594:	000424fc 	dsll32	a0,a0,0x13
   120005598:	6484ffff 	daddiu	a0,a0,-1
   12000559c:	0011107a 	dsrl	v0,s1,0x1
   1200055a0:	00641824 	and	v1,v1,a0
   1200055a4:	32310001 	andi	s1,s1,0x1
   1200055a8:	00518825 	or	s1,v0,s1
   1200055ac:	000317fc 	dsll32	v0,v1,0x1f
   1200055b0:	00518825 	or	s1,v0,s1
   1200055b4:	0003187a 	dsrl	v1,v1,0x1
   1200055b8:	32220007 	andi	v0,s1,0x7
   1200055bc:	00000000 	nop
   1200055c0:	1440ff52 	bnez	v0,12000530c <__addtf3+0x18c>
   1200055c4:	3222000f 	andi	v0,s1,0xf
   1200055c8:	0003177c 	dsll32	v0,v1,0x1d
   1200055cc:	001188fa 	dsrl	s1,s1,0x3
   1200055d0:	02221025 	or	v0,s1,v0
   1200055d4:	000318fa 	dsrl	v1,v1,0x3
   1200055d8:	24047fff 	li	a0,32767
   1200055dc:	5204ffb1 	beql	s0,a0,1200054a4 <__addtf3+0x324>
   1200055e0:	00432025 	or	a0,v0,v1
   1200055e4:	24040001 	li	a0,1
   1200055e8:	0004243c 	dsll32	a0,a0,0x10
   1200055ec:	6484ffff 	daddiu	a0,a0,-1
   1200055f0:	00642024 	and	a0,v1,a0
   1200055f4:	1000ff5e 	b	120005370 <__addtf3+0x1f0>
   1200055f8:	32107fff 	andi	s0,s0,0x7fff
   1200055fc:	00000000 	nop
   120005600:	24107fff 	li	s0,32767
   120005604:	00000000 	nop
   120005608:	00002025 	move	a0,zero
   12000560c:	1000ff58 	b	120005370 <__addtf3+0x1f0>
   120005610:	00001025 	move	v0,zero
   120005614:	00000000 	nop
   120005618:	04110749 	bal	120007340 <__clzdi2>
   12000561c:	02202025 	move	a0,s1
   120005620:	24460034 	addiu	a2,v0,52
   120005624:	28c30040 	slti	v1,a2,64
   120005628:	1460ff1d 	bnez	v1,1200052a0 <__addtf3+0x120>
   12000562c:	2442fff4 	addiu	v0,v0,-12
   120005630:	00512014 	dsllv	a0,s1,v0
   120005634:	00d0102a 	slt	v0,a2,s0
   120005638:	1040ff20 	beqz	v0,1200052bc <__addtf3+0x13c>
   12000563c:	00008825 	move	s1,zero
   120005640:	2403ffff 	li	v1,-1
   120005644:	00031cfc 	dsll32	v1,v1,0x13
   120005648:	6463ffff 	daddiu	v1,v1,-1
   12000564c:	0206802f 	dsubu	s0,s0,a2
   120005650:	1000ff2a 	b	1200052fc <__addtf3+0x17c>
   120005654:	00831824 	and	v1,a0,v1
   120005658:	11800031 	beqz	t0,120005720 <__addtf3+0x5a0>
   12000565c:	66070001 	daddiu	a3,s0,1
   120005660:	1200008b 	beqz	s0,120005890 <__addtf3+0x710>
   120005664:	01ae1825 	or	v1,t1,t2
   120005668:	24037fff 	li	v1,32767
   12000566c:	51030091 	beql	a4,v1,1200058b4 <__addtf3+0x734>
   120005670:	000a177c 	dsll32	v0,a6,0x1d
   120005674:	000a54fc 	dsll32	a6,a6,0x13
   120005678:	00021023 	negu	v0,v0
   12000567c:	01aa6825 	or	t1,t1,a6
   120005680:	28430075 	slti	v1,v0,117
   120005684:	506000ca 	beqzl	v1,1200059b0 <__addtf3+0x830>
   120005688:	01ae6825 	or	t1,t1,t2
   12000568c:	28430040 	slti	v1,v0,64
   120005690:	10600107 	beqz	v1,120005ab0 <__addtf3+0x930>
   120005694:	24040040 	li	a0,64
   120005698:	24030040 	li	v1,64
   12000569c:	00621823 	subu	v1,v1,v0
   1200056a0:	004e2016 	dsrlv	a0,t2,v0
   1200056a4:	006d8814 	dsllv	s1,t1,v1
   1200056a8:	006e7014 	dsllv	t2,t2,v1
   1200056ac:	02248825 	or	s1,s1,a0
   1200056b0:	000e702b 	sltu	t2,zero,t2
   1200056b4:	004d1016 	dsrlv	v0,t1,v0
   1200056b8:	022e8825 	or	s1,s1,t2
   1200056bc:	0122482d 	daddu	a5,a5,v0
   1200056c0:	022b882d 	daddu	s1,s1,a7
   1200056c4:	022b182b 	sltu	v1,s1,a7
   1200056c8:	0069182d 	daddu	v1,v1,a5
   1200056cc:	1000ffa8 	b	120005570 <__addtf3+0x3f0>
   1200056d0:	01008025 	move	s0,a4
   1200056d4:	00000000 	nop
   1200056d8:	1000fee2 	b	120005264 <__addtf3+0xe4>
   1200056dc:	0011882b 	sltu	s1,zero,s1
   1200056e0:	546000e1 	bnezl	v1,120005a68 <__addtf3+0x8e8>
   1200056e4:	000d377c 	dsll32	a2,t1,0x1d
   1200056e8:	5440ff3f 	bnezl	v0,1200053e8 <__addtf3+0x268>
   1200056ec:	000a177c 	dsll32	v0,a6,0x1d
   1200056f0:	000a1bfc 	dsll32	v1,a6,0xf
   1200056f4:	2402ffff 	li	v0,-1
   1200056f8:	00009825 	move	s3,zero
   1200056fc:	6463ffff 	daddiu	v1,v1,-1
   120005700:	24040001 	li	a0,1
   120005704:	00000000 	nop
   120005708:	0004243c 	dsll32	a0,a0,0x10
   12000570c:	6484ffff 	daddiu	a0,a0,-1
   120005710:	00642024 	and	a0,v1,a0
   120005714:	1000ff16 	b	120005370 <__addtf3+0x1f0>
   120005718:	24107fff 	li	s0,32767
   12000571c:	00000000 	nop
   120005720:	30e27ffe 	andi	v0,a3,0x7ffe
   120005724:	54400074 	bnezl	v0,1200058f8 <__addtf3+0x778>
   120005728:	24027fff 	li	v0,32767
   12000572c:	160000aa 	bnez	s0,1200059d8 <__addtf3+0x858>
   120005730:	01ae1025 	or	v0,t1,t2
   120005734:	104000d8 	beqz	v0,120005a98 <__addtf3+0x918>
   120005738:	000a177c 	dsll32	v0,a6,0x1d
   12000573c:	012b1025 	or	v0,a5,a7
   120005740:	10400095 	beqz	v0,120005998 <__addtf3+0x818>
   120005744:	000a177c 	dsll32	v0,a6,0x1d
   120005748:	01cb882d 	daddu	s1,t2,a7
   12000574c:	01a9482d 	daddu	a5,t1,a5
   120005750:	022e182b 	sltu	v1,s1,t2
   120005754:	0123182d 	daddu	v1,a5,v1
   120005758:	000a54fc 	dsll32	a6,a6,0x13
   12000575c:	006a5024 	and	a6,v1,a6
   120005760:	1140ff97 	beqz	a6,1200055c0 <__addtf3+0x440>
   120005764:	32220007 	andi	v0,s1,0x7
   120005768:	2402ffff 	li	v0,-1
   12000576c:	000214fc 	dsll32	v0,v0,0x13
   120005770:	6442ffff 	daddiu	v0,v0,-1
   120005774:	00621824 	and	v1,v1,v0
   120005778:	1000ff8f 	b	1200055b8 <__addtf3+0x438>
   12000577c:	24100001 	li	s0,1
   120005780:	5103ff19 	beql	a4,v1,1200053e8 <__addtf3+0x268>
   120005784:	000a177c 	dsll32	v0,a6,0x1d
   120005788:	000a54fc 	dsll32	a6,a6,0x13
   12000578c:	00021023 	negu	v0,v0
   120005790:	01aa6825 	or	t1,t1,a6
   120005794:	28430075 	slti	v1,v0,117
   120005798:	50600035 	beqzl	v1,120005870 <__addtf3+0x6f0>
   12000579c:	01ae6825 	or	t1,t1,t2
   1200057a0:	28430040 	slti	v1,v0,64
   1200057a4:	10600084 	beqz	v1,1200059b8 <__addtf3+0x838>
   1200057a8:	24040040 	li	a0,64
   1200057ac:	24030040 	li	v1,64
   1200057b0:	00621823 	subu	v1,v1,v0
   1200057b4:	004e2016 	dsrlv	a0,t2,v0
   1200057b8:	006d8814 	dsllv	s1,t1,v1
   1200057bc:	006e7014 	dsllv	t2,t2,v1
   1200057c0:	02248825 	or	s1,s1,a0
   1200057c4:	000e702b 	sltu	t2,zero,t2
   1200057c8:	004d1016 	dsrlv	v0,t1,v0
   1200057cc:	022e8825 	or	s1,s1,t2
   1200057d0:	10000028 	b	120005874 <__addtf3+0x6f4>
   1200057d4:	0122482f 	dsubu	a5,a5,v0
   1200057d8:	01a9902f 	dsubu	s2,t1,a5
   1200057dc:	01d1182b 	sltu	v1,t2,s1
   1200057e0:	0243902f 	dsubu	s2,s2,v1
   1200057e4:	000a54fc 	dsll32	a6,a6,0x13
   1200057e8:	024a5024 	and	a6,s2,a6
   1200057ec:	15400056 	bnez	a6,120005948 <__addtf3+0x7c8>
   1200057f0:	02321025 	or	v0,s1,s2
   1200057f4:	1440fea5 	bnez	v0,12000528c <__addtf3+0x10c>
   1200057f8:	00001825 	move	v1,zero
   1200057fc:	00008025 	move	s0,zero
   120005800:	1000ff78 	b	1200055e4 <__addtf3+0x464>
   120005804:	00009825 	move	s3,zero
   120005808:	6442ffff 	daddiu	v0,v0,-1
   12000580c:	00442024 	and	a0,v0,a0
   120005810:	000d177c 	dsll32	v0,t1,0x1d
   120005814:	00821025 	or	v0,a0,v0
   120005818:	1000ff6f 	b	1200055d8 <__addtf3+0x458>
   12000581c:	000d18fa 	dsrl	v1,t1,0x3
   120005820:	24020040 	li	v0,64
   120005824:	10620004 	beq	v1,v0,120005838 <__addtf3+0x6b8>
   120005828:	00c43016 	dsrlv	a2,a0,a2
   12000582c:	00031823 	negu	v1,v1
   120005830:	00641814 	dsllv	v1,a0,v1
   120005834:	02238825 	or	s1,s1,v1
   120005838:	0011882b 	sltu	s1,zero,s1
   12000583c:	02268825 	or	s1,s1,a2
   120005840:	00001825 	move	v1,zero
   120005844:	1000ff5c 	b	1200055b8 <__addtf3+0x438>
   120005848:	00008025 	move	s0,zero
   12000584c:	00000000 	nop
   120005850:	10440004 	beq	v0,a0,120005864 <__addtf3+0x6e4>
   120005854:	00491816 	dsrlv	v1,a5,v0
   120005858:	00021023 	negu	v0,v0
   12000585c:	00491014 	dsllv	v0,a5,v0
   120005860:	01625825 	or	a7,a7,v0
   120005864:	000b882b 	sltu	s1,zero,a7
   120005868:	1000fe7e 	b	120005264 <__addtf3+0xe4>
   12000586c:	02238825 	or	s1,s1,v1
   120005870:	000d882b 	sltu	s1,zero,t1
   120005874:	0171882f 	dsubu	s1,a7,s1
   120005878:	0171182b 	sltu	v1,a7,s1
   12000587c:	0123182f 	dsubu	v1,a5,v1
   120005880:	01008025 	move	s0,a4
   120005884:	1000fe7a 	b	120005270 <__addtf3+0xf0>
   120005888:	00e09825 	move	s3,a3
   12000588c:	00000000 	nop
   120005890:	5060006d 	beqzl	v1,120005a48 <__addtf3+0x8c8>
   120005894:	000a177c 	dsll32	v0,a6,0x1d
   120005898:	00021027 	nor	v0,zero,v0
   12000589c:	1040008c 	beqz	v0,120005ad0 <__addtf3+0x950>
   1200058a0:	01cb882d 	daddu	s1,t2,a7
   1200058a4:	24037fff 	li	v1,32767
   1200058a8:	5503ff76 	bnel	a4,v1,120005684 <__addtf3+0x504>
   1200058ac:	28430075 	slti	v1,v0,117
   1200058b0:	000a177c 	dsll32	v0,a6,0x1d
   1200058b4:	6442ffff 	daddiu	v0,v0,-1
   1200058b8:	00463024 	and	a2,v0,a2
   1200058bc:	0009177c 	dsll32	v0,a5,0x1d
   1200058c0:	00c21025 	or	v0,a2,v0
   1200058c4:	1000fef6 	b	1200054a0 <__addtf3+0x320>
   1200058c8:	000918fa 	dsrl	v1,a5,0x3
   1200058cc:	00000000 	nop
   1200058d0:	00621823 	subu	v1,v1,v0
   1200058d4:	004b2016 	dsrlv	a0,a7,v0
   1200058d8:	00698814 	dsllv	s1,a5,v1
   1200058dc:	006b5814 	dsllv	a7,a7,v1
   1200058e0:	02248825 	or	s1,s1,a0
   1200058e4:	000b582b 	sltu	a7,zero,a7
   1200058e8:	00491016 	dsrlv	v0,a5,v0
   1200058ec:	022b8825 	or	s1,s1,a7
   1200058f0:	1000ff1c 	b	120005564 <__addtf3+0x3e4>
   1200058f4:	01a2682d 	daddu	t1,t1,v0
   1200058f8:	10e2ff41 	beq	a3,v0,120005600 <__addtf3+0x480>
   1200058fc:	01cb582d 	daddu	a7,t2,a7
   120005900:	016e202b 	sltu	a0,a7,t2
   120005904:	01a9482d 	daddu	a5,t1,a5
   120005908:	0124202d 	daddu	a0,a5,a0
   12000590c:	00048ffc 	dsll32	s1,a0,0x1f
   120005910:	000b587a 	dsrl	a7,a7,0x1
   120005914:	022b8825 	or	s1,s1,a7
   120005918:	0004187a 	dsrl	v1,a0,0x1
   12000591c:	1000ff26 	b	1200055b8 <__addtf3+0x438>
   120005920:	00e08025 	move	s0,a3
   120005924:	00000000 	nop
   120005928:	6442ffff 	daddiu	v0,v0,-1
   12000592c:	00463024 	and	a2,v0,a2
   120005930:	0009177c 	dsll32	v0,a5,0x1d
   120005934:	00c21025 	or	v0,a2,v0
   120005938:	000918fa 	dsrl	v1,a5,0x3
   12000593c:	01008025 	move	s0,a4
   120005940:	1000ff25 	b	1200055d8 <__addtf3+0x458>
   120005944:	00e09825 	move	s3,a3
   120005948:	016e882f 	dsubu	s1,a7,t2
   12000594c:	012d482f 	dsubu	a5,a5,t1
   120005950:	0171582b 	sltu	a7,a7,s1
   120005954:	012b902f 	dsubu	s2,a5,a7
   120005958:	1000fe4c 	b	12000528c <__addtf3+0x10c>
   12000595c:	00e09825 	move	s3,a3
   120005960:	01a9482d 	daddu	a5,t1,a5
   120005964:	022e182b 	sltu	v1,s1,t2
   120005968:	1000ff01 	b	120005570 <__addtf3+0x3f0>
   12000596c:	0123182d 	daddu	v1,a5,v1
   120005970:	01a9482f 	dsubu	a5,t1,a5
   120005974:	01d1182b 	sltu	v1,t2,s1
   120005978:	1000fe3d 	b	120005270 <__addtf3+0xf0>
   12000597c:	0123182f 	dsubu	v1,a5,v1
   120005980:	654affff 	daddiu	a6,a6,-1
   120005984:	01442024 	and	a0,a6,a0
   120005988:	000d177c 	dsll32	v0,t1,0x1d
   12000598c:	00821025 	or	v0,a0,v0
   120005990:	1000ff11 	b	1200055d8 <__addtf3+0x458>
   120005994:	000d18fa 	dsrl	v1,t1,0x3
   120005998:	6442ffff 	daddiu	v0,v0,-1
   12000599c:	00442024 	and	a0,v0,a0
   1200059a0:	000d177c 	dsll32	v0,t1,0x1d
   1200059a4:	00821025 	or	v0,a0,v0
   1200059a8:	1000ff0e 	b	1200055e4 <__addtf3+0x464>
   1200059ac:	000d18fa 	dsrl	v1,t1,0x3
   1200059b0:	1000ff43 	b	1200056c0 <__addtf3+0x540>
   1200059b4:	000d882b 	sltu	s1,zero,t1
   1200059b8:	10440004 	beq	v0,a0,1200059cc <__addtf3+0x84c>
   1200059bc:	004d1816 	dsrlv	v1,t1,v0
   1200059c0:	00022823 	negu	a1,v0
   1200059c4:	00ad2814 	dsllv	a1,t1,a1
   1200059c8:	01c57025 	or	t2,t2,a1
   1200059cc:	000e882b 	sltu	s1,zero,t2
   1200059d0:	1000ffa8 	b	120005874 <__addtf3+0x6f4>
   1200059d4:	02238825 	or	s1,s1,v1
   1200059d8:	1040ffb6 	beqz	v0,1200058b4 <__addtf3+0x734>
   1200059dc:	000a177c 	dsll32	v0,a6,0x1d
   1200059e0:	012b5825 	or	a7,a5,a7
   1200059e4:	000d177c 	dsll32	v0,t1,0x1d
   1200059e8:	15600051 	bnez	a7,120005b30 <__addtf3+0x9b0>
   1200059ec:	000d18fa 	dsrl	v1,t1,0x3
   1200059f0:	000a577c 	dsll32	a6,a6,0x1d
   1200059f4:	654affff 	daddiu	a6,a6,-1
   1200059f8:	01442024 	and	a0,a6,a0
   1200059fc:	1000fea8 	b	1200054a0 <__addtf3+0x320>
   120005a00:	00821025 	or	v0,a0,v0
   120005a04:	00000000 	nop
   120005a08:	50400021 	beqzl	v0,120005a90 <__addtf3+0x910>
   120005a0c:	00001825 	move	v1,zero
   120005a10:	000a177c 	dsll32	v0,a6,0x1d
   120005a14:	6442ffff 	daddiu	v0,v0,-1
   120005a18:	00463024 	and	a2,v0,a2
   120005a1c:	0009177c 	dsll32	v0,a5,0x1d
   120005a20:	00c21025 	or	v0,a2,v0
   120005a24:	000918fa 	dsrl	v1,a5,0x3
   120005a28:	1000feee 	b	1200055e4 <__addtf3+0x464>
   120005a2c:	00e09825 	move	s3,a3
   120005a30:	012d482f 	dsubu	a5,a5,t1
   120005a34:	0171182b 	sltu	v1,a7,s1
   120005a38:	0123182f 	dsubu	v1,a5,v1
   120005a3c:	01008025 	move	s0,a4
   120005a40:	1000fe0b 	b	120005270 <__addtf3+0xf0>
   120005a44:	00e09825 	move	s3,a3
   120005a48:	6442ffff 	daddiu	v0,v0,-1
   120005a4c:	00463024 	and	a2,v0,a2
   120005a50:	0009177c 	dsll32	v0,a5,0x1d
   120005a54:	00c21025 	or	v0,a2,v0
   120005a58:	000918fa 	dsrl	v1,a5,0x3
   120005a5c:	1000fede 	b	1200055d8 <__addtf3+0x458>
   120005a60:	01008025 	move	s0,a4
   120005a64:	00000000 	nop
   120005a68:	1440001e 	bnez	v0,120005ae4 <__addtf3+0x964>
   120005a6c:	000d18fa 	dsrl	v1,t1,0x3
   120005a70:	000a177c 	dsll32	v0,a6,0x1d
   120005a74:	6442ffff 	daddiu	v0,v0,-1
   120005a78:	00441024 	and	v0,v0,a0
   120005a7c:	1000fe88 	b	1200054a0 <__addtf3+0x320>
   120005a80:	00461025 	or	v0,v0,a2
   120005a84:	5440fece 	bnezl	v0,1200055c0 <__addtf3+0x440>
   120005a88:	32220007 	andi	v0,s1,0x7
   120005a8c:	00001825 	move	v1,zero
   120005a90:	1000fed4 	b	1200055e4 <__addtf3+0x464>
   120005a94:	00009825 	move	s3,zero
   120005a98:	6442ffff 	daddiu	v0,v0,-1
   120005a9c:	00463024 	and	a2,v0,a2
   120005aa0:	0009177c 	dsll32	v0,a5,0x1d
   120005aa4:	00c21025 	or	v0,a2,v0
   120005aa8:	1000fece 	b	1200055e4 <__addtf3+0x464>
   120005aac:	000918fa 	dsrl	v1,a5,0x3
   120005ab0:	10440004 	beq	v0,a0,120005ac4 <__addtf3+0x944>
   120005ab4:	004d1816 	dsrlv	v1,t1,v0
   120005ab8:	00021023 	negu	v0,v0
   120005abc:	004d1014 	dsllv	v0,t1,v0
   120005ac0:	01c27025 	or	t2,t2,v0
   120005ac4:	000e882b 	sltu	s1,zero,t2
   120005ac8:	1000fefd 	b	1200056c0 <__addtf3+0x540>
   120005acc:	02238825 	or	s1,s1,v1
   120005ad0:	01a9482d 	daddu	a5,t1,a5
   120005ad4:	022b182b 	sltu	v1,s1,a7
   120005ad8:	0123182d 	daddu	v1,a5,v1
   120005adc:	1000fea4 	b	120005570 <__addtf3+0x3f0>
   120005ae0:	01008025 	move	s0,a4
   120005ae4:	000910fa 	dsrl	v0,a5,0x3
   120005ae8:	00431025 	or	v0,v0,v1
   120005aec:	000a1bfc 	dsll32	v1,a6,0xf
   120005af0:	00431024 	and	v0,v0,v1
   120005af4:	5440000b 	bnezl	v0,120005b24 <__addtf3+0x9a4>
   120005af8:	2402ffff 	li	v0,-1
   120005afc:	000a577c 	dsll32	a6,a6,0x1d
   120005b00:	654affff 	daddiu	a6,a6,-1
   120005b04:	01442024 	and	a0,a6,a0
   120005b08:	00863025 	or	a2,a0,a2
   120005b0c:	0006177e 	dsrl32	v0,a2,0x1d
   120005b10:	0002177c 	dsll32	v0,v0,0x1d
   120005b14:	00ca3024 	and	a2,a2,a6
   120005b18:	00461025 	or	v0,v0,a2
   120005b1c:	1000fe60 	b	1200054a0 <__addtf3+0x320>
   120005b20:	000d18fa 	dsrl	v1,t1,0x3
   120005b24:	00009825 	move	s3,zero
   120005b28:	1000fef5 	b	120005700 <__addtf3+0x580>
   120005b2c:	6463ffff 	daddiu	v1,v1,-1
   120005b30:	000930fa 	dsrl	a2,a5,0x3
   120005b34:	00c33025 	or	a2,a2,v1
   120005b38:	000a1bfc 	dsll32	v1,a6,0xf
   120005b3c:	00c33024 	and	a2,a2,v1
   120005b40:	54c0fff8 	bnezl	a2,120005b24 <__addtf3+0x9a4>
   120005b44:	2402ffff 	li	v0,-1
   120005b48:	000a577c 	dsll32	a6,a6,0x1d
   120005b4c:	654affff 	daddiu	a6,a6,-1
   120005b50:	01442024 	and	a0,a6,a0
   120005b54:	00822025 	or	a0,a0,v0
   120005b58:	0004177e 	dsrl32	v0,a0,0x1d
   120005b5c:	0002177c 	dsll32	v0,v0,0x1d
   120005b60:	008a2024 	and	a0,a0,a6
   120005b64:	00441025 	or	v0,v0,a0
   120005b68:	1000fe4d 	b	1200054a0 <__addtf3+0x320>
   120005b6c:	000d18fa 	dsrl	v1,t1,0x3

0000000120005b70 <__eqtf2>:
   120005b70:	24020001 	li	v0,1
   120005b74:	0005443e 	dsrl32	a4,a1,0x10
   120005b78:	0002143c 	dsll32	v0,v0,0x10
   120005b7c:	6442ffff 	daddiu	v0,v0,-1
   120005b80:	00074c3e 	dsrl32	a5,a3,0x10
   120005b84:	31087fff 	andi	a4,a4,0x7fff
   120005b88:	240a7fff 	li	a6,32767
   120005b8c:	00455824 	and	a7,v0,a1
   120005b90:	00471824 	and	v1,v0,a3
   120005b94:	00806025 	move	t0,a0
   120005b98:	00052ffe 	dsrl32	a1,a1,0x1f
   120005b9c:	00c06825 	move	t1,a2
   120005ba0:	31297fff 	andi	a5,a5,0x7fff
   120005ba4:	110a000c 	beq	a4,a6,120005bd8 <__eqtf2+0x68>
   120005ba8:	00073ffe 	dsrl32	a3,a3,0x1f
   120005bac:	112a0005 	beq	a5,a6,120005bc4 <__eqtf2+0x54>
   120005bb0:	24020001 	li	v0,1
   120005bb4:	15090005 	bne	a4,a5,120005bcc <__eqtf2+0x5c>
   120005bb8:	00000000 	nop
   120005bbc:	1163000d 	beq	a7,v1,120005bf4 <__eqtf2+0x84>
   120005bc0:	00000000 	nop
   120005bc4:	03e00008 	jr	ra
   120005bc8:	00000000 	nop
   120005bcc:	03e00008 	jr	ra
   120005bd0:	00000000 	nop
   120005bd4:	00000000 	nop
   120005bd8:	01645025 	or	a6,a7,a0
   120005bdc:	1540fff9 	bnez	a6,120005bc4 <__eqtf2+0x54>
   120005be0:	24020001 	li	v0,1
   120005be4:	1528fff7 	bne	a5,a4,120005bc4 <__eqtf2+0x54>
   120005be8:	00661825 	or	v1,v1,a2
   120005bec:	1460fff7 	bnez	v1,120005bcc <__eqtf2+0x5c>
   120005bf0:	00000000 	nop
   120005bf4:	158dfff3 	bne	t0,t1,120005bc4 <__eqtf2+0x54>
   120005bf8:	24020001 	li	v0,1
   120005bfc:	10a70006 	beq	a1,a3,120005c18 <__eqtf2+0xa8>
   120005c00:	00000000 	nop
   120005c04:	1500fff1 	bnez	a4,120005bcc <__eqtf2+0x5c>
   120005c08:	00000000 	nop
   120005c0c:	01641025 	or	v0,a7,a0
   120005c10:	03e00008 	jr	ra
   120005c14:	0002102b 	sltu	v0,zero,v0
   120005c18:	03e00008 	jr	ra
   120005c1c:	00001025 	move	v0,zero

0000000120005c20 <__multf3>:
   120005c20:	67bdff90 	daddiu	sp,sp,-112
   120005c24:	24020001 	li	v0,1
   120005c28:	ffbc0058 	sd	gp,88(sp)
   120005c2c:	ffb30030 	sd	s3,48(sp)
   120005c30:	ffb00018 	sd	s0,24(sp)
   120005c34:	3c1c0002 	lui	gp,0x2
   120005c38:	0002843c 	dsll32	s0,v0,0x10
   120005c3c:	00059c3e 	dsrl32	s3,a1,0x10
   120005c40:	ffbe0060 	sd	s8,96(sp)
   120005c44:	0399e02d 	daddu	gp,gp,t9
   120005c48:	6610ffff 	daddiu	s0,s0,-1
   120005c4c:	0005f7fe 	dsrl32	s8,a1,0x1f
   120005c50:	32737fff 	andi	s3,s3,0x7fff
   120005c54:	ffb70050 	sd	s7,80(sp)
   120005c58:	ffb60048 	sd	s6,72(sp)
   120005c5c:	ffb40038 	sd	s4,56(sp)
   120005c60:	ffb20028 	sd	s2,40(sp)
   120005c64:	ffbf0068 	sd	ra,104(sp)
   120005c68:	ffb50040 	sd	s5,64(sp)
   120005c6c:	ffb10020 	sd	s1,32(sp)
   120005c70:	679ca8f0 	daddiu	gp,gp,-22288
   120005c74:	00809025 	move	s2,a0
   120005c78:	00c0b825 	move	s7,a2
   120005c7c:	00e0a025 	move	s4,a3
   120005c80:	02058024 	and	s0,s0,a1
   120005c84:	1260012a 	beqz	s3,120006130 <__multf3+0x510>
   120005c88:	03c0b025 	move	s6,s8
   120005c8c:	24037fff 	li	v1,32767
   120005c90:	1263013d 	beq	s3,v1,120006188 <__multf3+0x568>
   120005c94:	02048825 	or	s1,s0,a0
   120005c98:	001028f8 	dsll	a1,s0,0x3
   120005c9c:	0004877e 	dsrl32	s0,a0,0x1d
   120005ca0:	02058025 	or	s0,s0,a1
   120005ca4:	000214fc 	dsll32	v0,v0,0x13
   120005ca8:	02028025 	or	s0,s0,v0
   120005cac:	000488f8 	dsll	s1,a0,0x3
   120005cb0:	6673c001 	daddiu	s3,s3,-16383
   120005cb4:	0000a825 	move	s5,zero
   120005cb8:	00002825 	move	a1,zero
   120005cbc:	24020001 	li	v0,1
   120005cc0:	00141c3e 	dsrl32	v1,s4,0x10
   120005cc4:	0002943c 	dsll32	s2,v0,0x10
   120005cc8:	6652ffff 	daddiu	s2,s2,-1
   120005ccc:	30637fff 	andi	v1,v1,0x7fff
   120005cd0:	02549024 	and	s2,s2,s4
   120005cd4:	10600100 	beqz	v1,1200060d8 <__multf3+0x4b8>
   120005cd8:	0014a7fe 	dsrl32	s4,s4,0x1f
   120005cdc:	24047fff 	li	a0,32767
   120005ce0:	10640131 	beq	v1,a0,1200061a8 <__multf3+0x588>
   120005ce4:	02572025 	or	a0,s2,s7
   120005ce8:	001220f8 	dsll	a0,s2,0x3
   120005cec:	0017977e 	dsrl32	s2,s7,0x1d
   120005cf0:	02449025 	or	s2,s2,a0
   120005cf4:	000214fc 	dsll32	v0,v0,0x13
   120005cf8:	6463c001 	daddiu	v1,v1,-16383
   120005cfc:	02429025 	or	s2,s2,v0
   120005d00:	001720f8 	dsll	a0,s7,0x3
   120005d04:	0263982d 	daddu	s3,s3,v1
   120005d08:	00004025 	move	a4,zero
   120005d0c:	03d41826 	xor	v1,s8,s4
   120005d10:	306300ff 	andi	v1,v1,0xff
   120005d14:	2ea20010 	sltiu	v0,s5,16
   120005d18:	00603825 	move	a3,v1
   120005d1c:	10400034 	beqz	v0,120005df0 <__multf3+0x1d0>
   120005d20:	66660001 	daddiu	a2,s3,1
   120005d24:	df828060 	ld	v0,-32672(gp)
   120005d28:	0015a8f8 	dsll	s5,s5,0x3
   120005d2c:	64428260 	daddiu	v0,v0,-32160
   120005d30:	0055102d 	daddu	v0,v0,s5
   120005d34:	dc420000 	ld	v0,0(v0)
   120005d38:	005c102d 	daddu	v0,v0,gp
   120005d3c:	00400008 	jr	v0
   120005d40:	00000000 	nop
   120005d44:	00000000 	nop
   120005d48:	02803825 	move	a3,s4
   120005d4c:	02408025 	move	s0,s2
   120005d50:	00808825 	move	s1,a0
   120005d54:	01002825 	move	a1,a4
   120005d58:	24020002 	li	v0,2
   120005d5c:	10a20020 	beq	a1,v0,120005de0 <__multf3+0x1c0>
   120005d60:	00e01825 	move	v1,a3
   120005d64:	24020003 	li	v0,3
   120005d68:	10a20154 	beq	a1,v0,1200062bc <__multf3+0x69c>
   120005d6c:	24020001 	li	v0,1
   120005d70:	14a200b6 	bne	a1,v0,12000604c <__multf3+0x42c>
   120005d74:	00e01825 	move	v1,a3
   120005d78:	00001025 	move	v0,zero
   120005d7c:	00002025 	move	a0,zero
   120005d80:	00008825 	move	s1,zero
   120005d84:	24100001 	li	s0,1
   120005d88:	dfbf0068 	ld	ra,104(sp)
   120005d8c:	00031bc0 	sll	v1,v1,0xf
   120005d90:	0010843c 	dsll32	s0,s0,0x10
   120005d94:	00621825 	or	v1,v1,v0
   120005d98:	6610ffff 	daddiu	s0,s0,-1
   120005d9c:	00902024 	and	a0,a0,s0
   120005da0:	00031c3c 	dsll32	v1,v1,0x10
   120005da4:	dfbe0060 	ld	s8,96(sp)
   120005da8:	dfbc0058 	ld	gp,88(sp)
   120005dac:	dfb70050 	ld	s7,80(sp)
   120005db0:	dfb60048 	ld	s6,72(sp)
   120005db4:	dfb50040 	ld	s5,64(sp)
   120005db8:	dfb40038 	ld	s4,56(sp)
   120005dbc:	dfb30030 	ld	s3,48(sp)
   120005dc0:	dfb20028 	ld	s2,40(sp)
   120005dc4:	dfb00018 	ld	s0,24(sp)
   120005dc8:	02201025 	move	v0,s1
   120005dcc:	00832025 	or	a0,a0,v1
   120005dd0:	dfb10020 	ld	s1,32(sp)
   120005dd4:	03e00008 	jr	ra
   120005dd8:	67bd0070 	daddiu	sp,sp,112
   120005ddc:	00000000 	nop
   120005de0:	24027fff 	li	v0,32767
   120005de4:	00002025 	move	a0,zero
   120005de8:	1000ffe6 	b	120005d84 <__multf3+0x164>
   120005dec:	00008825 	move	s1,zero
   120005df0:	0004603e 	dsrl32	t0,a0,0x0
   120005df4:	0004203c 	dsll32	a0,a0,0x0
   120005df8:	0011503e 	dsrl32	a6,s1,0x0
   120005dfc:	0004203e 	dsrl32	a0,a0,0x0
   120005e00:	0144001c 	dmult	a6,a0
   120005e04:	0011103c 	dsll32	v0,s1,0x0
   120005e08:	0002103e 	dsrl32	v0,v0,0x0
   120005e0c:	00004012 	mflo	a4
	...
   120005e18:	0044001c 	dmult	v0,a0
   120005e1c:	00003812 	mflo	a3
   120005e20:	0007283e 	dsrl32	a1,a3,0x0
   120005e24:	00000000 	nop
   120005e28:	0182001c 	dmult	t0,v0
   120005e2c:	00004812 	mflo	a5
   120005e30:	0128482d 	daddu	a5,a5,a4
   120005e34:	00a9282d 	daddu	a1,a1,a5
   120005e38:	014c001c 	dmult	a6,t0
   120005e3c:	00a8402b 	sltu	a4,a1,a4
   120005e40:	00007012 	mflo	t2
   120005e44:	11000004 	beqz	a4,120005e58 <__multf3+0x238>
   120005e48:	0012c03e 	dsrl32	t8,s2,0x0
   120005e4c:	24080001 	li	a4,1
   120005e50:	0008403c 	dsll32	a4,a4,0x0
   120005e54:	01c8702d 	daddu	t2,t2,a4
   120005e58:	0012903c 	dsll32	s2,s2,0x0
   120005e5c:	0012903e 	dsrl32	s2,s2,0x0
   120005e60:	0152001c 	dmult	a6,s2
   120005e64:	0007383c 	dsll32	a3,a3,0x0
   120005e68:	0005403c 	dsll32	a4,a1,0x0
   120005e6c:	0007383e 	dsrl32	a3,a3,0x0
   120005e70:	0107402d 	daddu	a4,a4,a3
   120005e74:	00004812 	mflo	a5
	...
   120005e80:	0242001c 	dmult	s2,v0
   120005e84:	00003812 	mflo	a3
	...
   120005e90:	0302001c 	dmult	t8,v0
   120005e94:	0007103e 	dsrl32	v0,a3,0x0
   120005e98:	00005812 	mflo	a7
   120005e9c:	0169582d 	daddu	a7,a7,a5
   120005ea0:	004b102d 	daddu	v0,v0,a7
   120005ea4:	0158001c 	dmult	a6,t8
   120005ea8:	0049482b 	sltu	a5,v0,a5
   120005eac:	00005012 	mflo	a6
   120005eb0:	11200004 	beqz	a5,120005ec4 <__multf3+0x2a4>
   120005eb4:	0005283e 	dsrl32	a1,a1,0x0
   120005eb8:	24090001 	li	a5,1
   120005ebc:	0009483c 	dsll32	a5,a5,0x0
   120005ec0:	0149502d 	daddu	a6,a6,a5
   120005ec4:	0010c83e 	dsrl32	t9,s0,0x0
   120005ec8:	0324001c 	dmult	t9,a0
   120005ecc:	0010803c 	dsll32	s0,s0,0x0
   120005ed0:	0010803e 	dsrl32	s0,s0,0x0
   120005ed4:	0007383c 	dsll32	a3,a3,0x0
   120005ed8:	0002583c 	dsll32	a7,v0,0x0
   120005edc:	0007383e 	dsrl32	a3,a3,0x0
   120005ee0:	0167582d 	daddu	a7,a7,a3
   120005ee4:	0002103e 	dsrl32	v0,v0,0x0
   120005ee8:	004a502d 	daddu	a6,v0,a6
   120005eec:	00ab482d 	daddu	a5,a1,a7
   120005ef0:	00006812 	mflo	t1
	...
   120005efc:	0204001c 	dmult	s0,a0
   120005f00:	00002012 	mflo	a0
   120005f04:	0004103e 	dsrl32	v0,a0,0x0
   120005f08:	00000000 	nop
   120005f0c:	0190001c 	dmult	t0,s0
   120005f10:	00003812 	mflo	a3
   120005f14:	00ed382d 	daddu	a3,a3,t1
   120005f18:	0047102d 	daddu	v0,v0,a3
   120005f1c:	0199001c 	dmult	t0,t9
   120005f20:	004d682b 	sltu	t1,v0,t1
   120005f24:	00002812 	mflo	a1
   120005f28:	00000000 	nop
   120005f2c:	11a00004 	beqz	t1,120005f40 <__multf3+0x320>
   120005f30:	0332001c 	dmult	t9,s2
   120005f34:	24070001 	li	a3,1
   120005f38:	0007383c 	dsll32	a3,a3,0x0
   120005f3c:	00a7282d 	daddu	a1,a1,a3
   120005f40:	0002783e 	dsrl32	t3,v0,0x0
   120005f44:	0002383c 	dsll32	a3,v0,0x0
   120005f48:	0004203c 	dsll32	a0,a0,0x0
   120005f4c:	0004203e 	dsrl32	a0,a0,0x0
   120005f50:	00e4382d 	daddu	a3,a3,a0
   120005f54:	00006012 	mflo	t0
	...
   120005f60:	0250001c 	dmult	s2,s0
   120005f64:	00001012 	mflo	v0
   120005f68:	0002683e 	dsrl32	t1,v0,0x0
   120005f6c:	00000000 	nop
   120005f70:	0310001c 	dmult	t8,s0
   120005f74:	00002012 	mflo	a0
   120005f78:	008c202d 	daddu	a0,a0,t0
   120005f7c:	01a4682d 	daddu	t1,t1,a0
   120005f80:	0319001c 	dmult	t8,t9
   120005f84:	01ac202b 	sltu	a0,t1,t0
   120005f88:	00006012 	mflo	t0
   120005f8c:	10800004 	beqz	a0,120005fa0 <__multf3+0x380>
   120005f90:	01e5782d 	daddu	t3,t3,a1
   120005f94:	24040001 	li	a0,1
   120005f98:	0004203c 	dsll32	a0,a0,0x0
   120005f9c:	0184602d 	daddu	t0,t0,a0
   120005fa0:	0002103c 	dsll32	v0,v0,0x0
   120005fa4:	000d203c 	dsll32	a0,t1,0x0
   120005fa8:	0002103e 	dsrl32	v0,v0,0x0
   120005fac:	01c9482d 	daddu	a5,t2,a5
   120005fb0:	0082202d 	daddu	a0,a0,v0
   120005fb4:	012b582b 	sltu	a7,a5,a7
   120005fb8:	008a202d 	daddu	a0,a0,a6
   120005fbc:	0127482d 	daddu	a5,a5,a3
   120005fc0:	008b802d 	daddu	s0,a0,a7
   120005fc4:	0127382b 	sltu	a3,a5,a3
   120005fc8:	020f282d 	daddu	a1,s0,t3
   120005fcc:	00a7102d 	daddu	v0,a1,a3
   120005fd0:	008a202b 	sltu	a0,a0,a6
   120005fd4:	020b802b 	sltu	s0,s0,a7
   120005fd8:	00908025 	or	s0,a0,s0
   120005fdc:	0047382b 	sltu	a3,v0,a3
   120005fe0:	00af282b 	sltu	a1,a1,t3
   120005fe4:	321000ff 	andi	s0,s0,0xff
   120005fe8:	000d683e 	dsrl32	t1,t1,0x0
   120005fec:	00a72825 	or	a1,a1,a3
   120005ff0:	30a500ff 	andi	a1,a1,0xff
   120005ff4:	020d802d 	daddu	s0,s0,t1
   120005ff8:	0205802d 	daddu	s0,s0,a1
   120005ffc:	00098b78 	dsll	s1,a5,0xd
   120006000:	020c802d 	daddu	s0,s0,t0
   120006004:	00108378 	dsll	s0,s0,0xd
   120006008:	02288825 	or	s1,s1,a4
   12000600c:	0010253e 	dsrl32	a0,s0,0x14
   120006010:	0011882b 	sltu	s1,zero,s1
   120006014:	00094cfe 	dsrl32	a5,a5,0x13
   120006018:	00022cfe 	dsrl32	a1,v0,0x13
   12000601c:	02298825 	or	s1,s1,a5
   120006020:	00021378 	dsll	v0,v0,0xd
   120006024:	30840001 	andi	a0,a0,0x1
   120006028:	02058025 	or	s0,s0,a1
   12000602c:	108000ea 	beqz	a0,1200063d8 <__multf3+0x7b8>
   120006030:	02228825 	or	s1,s1,v0
   120006034:	0011207a 	dsrl	a0,s1,0x1
   120006038:	32310001 	andi	s1,s1,0x1
   12000603c:	001017fc 	dsll32	v0,s0,0x1f
   120006040:	00918825 	or	s1,a0,s1
   120006044:	02228825 	or	s1,s1,v0
   120006048:	0010807a 	dsrl	s0,s0,0x1
   12000604c:	64c23fff 	daddiu	v0,a2,16383
   120006050:	18400079 	blez	v0,120006238 <__multf3+0x618>
   120006054:	24040001 	li	a0,1
   120006058:	32240007 	andi	a0,s1,0x7
   12000605c:	10800009 	beqz	a0,120006084 <__multf3+0x464>
   120006060:	0010253e 	dsrl32	a0,s0,0x14
   120006064:	3224000f 	andi	a0,s1,0xf
   120006068:	24050004 	li	a1,4
   12000606c:	10850004 	beq	a0,a1,120006080 <__multf3+0x460>
   120006070:	66240004 	daddiu	a0,s1,4
   120006074:	0091882b 	sltu	s1,a0,s1
   120006078:	0211802d 	daddu	s0,s0,s1
   12000607c:	00808825 	move	s1,a0
   120006080:	0010253e 	dsrl32	a0,s0,0x14
   120006084:	30840001 	andi	a0,a0,0x1
   120006088:	10800007 	beqz	a0,1200060a8 <__multf3+0x488>
   12000608c:	28447fff 	slti	a0,v0,32767
   120006090:	2402ffff 	li	v0,-1
   120006094:	0002153c 	dsll32	v0,v0,0x14
   120006098:	6442ffff 	daddiu	v0,v0,-1
   12000609c:	02028024 	and	s0,s0,v0
   1200060a0:	64c24000 	daddiu	v0,a2,16384
   1200060a4:	28447fff 	slti	a0,v0,32767
   1200060a8:	508000c7 	beqzl	a0,1200063c8 <__multf3+0x7a8>
   1200060ac:	24027fff 	li	v0,32767
   1200060b0:	24050001 	li	a1,1
   1200060b4:	00052c3c 	dsll32	a1,a1,0x10
   1200060b8:	001188fa 	dsrl	s1,s1,0x3
   1200060bc:	0010377c 	dsll32	a2,s0,0x1d
   1200060c0:	001020fa 	dsrl	a0,s0,0x3
   1200060c4:	64a5ffff 	daddiu	a1,a1,-1
   1200060c8:	00d18825 	or	s1,a2,s1
   1200060cc:	00852024 	and	a0,a0,a1
   1200060d0:	1000ff2c 	b	120005d84 <__multf3+0x164>
   1200060d4:	30427fff 	andi	v0,v0,0x7fff
   1200060d8:	02572025 	or	a0,s2,s7
   1200060dc:	5080004a 	beqzl	a0,120006208 <__multf3+0x5e8>
   1200060e0:	36b50001 	ori	s5,s5,0x1
   1200060e4:	df998270 	ld	t9,-32144(gp)
   1200060e8:	1240007f 	beqz	s2,1200062e8 <__multf3+0x6c8>
   1200060ec:	ffa50000 	sd	a1,0(sp)
   1200060f0:	04110493 	bal	120007340 <__clzdi2>
   1200060f4:	02402025 	move	a0,s2
   1200060f8:	dfa50000 	ld	a1,0(sp)
   1200060fc:	00401825 	move	v1,v0
   120006100:	2444fff1 	addiu	a0,v0,-15
   120006104:	2402003d 	li	v0,61
   120006108:	24860003 	addiu	a2,a0,3
   12000610c:	00442023 	subu	a0,v0,a0
   120006110:	00972016 	dsrlv	a0,s7,a0
   120006114:	00d29014 	dsllv	s2,s2,a2
   120006118:	00929025 	or	s2,a0,s2
   12000611c:	00d72014 	dsllv	a0,s7,a2
   120006120:	0263982f 	dsubu	s3,s3,v1
   120006124:	6673c011 	daddiu	s3,s3,-16367
   120006128:	1000fef8 	b	120005d0c <__multf3+0xec>
   12000612c:	00004025 	move	a4,zero
   120006130:	02048825 	or	s1,s0,a0
   120006134:	52200030 	beqzl	s1,1200061f8 <__multf3+0x5d8>
   120006138:	00008025 	move	s0,zero
   12000613c:	12000076 	beqz	s0,120006318 <__multf3+0x6f8>
   120006140:	df998270 	ld	t9,-32144(gp)
   120006144:	0411047e 	bal	120007340 <__clzdi2>
   120006148:	02002025 	move	a0,s0
   12000614c:	00409825 	move	s3,v0
   120006150:	2443fff1 	addiu	v1,v0,-15
   120006154:	2404003d 	li	a0,61
   120006158:	24710003 	addiu	s1,v1,3
   12000615c:	00831823 	subu	v1,a0,v1
   120006160:	02308014 	dsllv	s0,s0,s1
   120006164:	00721816 	dsrlv	v1,s2,v1
   120006168:	00708025 	or	s0,v1,s0
   12000616c:	02328814 	dsllv	s1,s2,s1
   120006170:	2402c011 	li	v0,-16367
   120006174:	0053982f 	dsubu	s3,v0,s3
   120006178:	0000a825 	move	s5,zero
   12000617c:	1000fecf 	b	120005cbc <__multf3+0x9c>
   120006180:	00002825 	move	a1,zero
   120006184:	00000000 	nop
   120006188:	56200017 	bnezl	s1,1200061e8 <__multf3+0x5c8>
   12000618c:	00808825 	move	s1,a0
   120006190:	00008025 	move	s0,zero
   120006194:	24150008 	li	s5,8
   120006198:	24137fff 	li	s3,32767
   12000619c:	1000fec7 	b	120005cbc <__multf3+0x9c>
   1200061a0:	24050002 	li	a1,2
   1200061a4:	00000000 	nop
   1200061a8:	1480000b 	bnez	a0,1200061d8 <__multf3+0x5b8>
   1200061ac:	66737fff 	daddiu	s3,s3,32767
   1200061b0:	36b50002 	ori	s5,s5,0x2
   1200061b4:	00009025 	move	s2,zero
   1200061b8:	1000fed4 	b	120005d0c <__multf3+0xec>
   1200061bc:	24080002 	li	a4,2
   1200061c0:	24020002 	li	v0,2
   1200061c4:	14a2fee7 	bne	a1,v0,120005d64 <__multf3+0x144>
   1200061c8:	03c03825 	move	a3,s8
   1200061cc:	1000ff04 	b	120005de0 <__multf3+0x1c0>
   1200061d0:	00e01825 	move	v1,a3
   1200061d4:	00000000 	nop
   1200061d8:	36b50003 	ori	s5,s5,0x3
   1200061dc:	02e02025 	move	a0,s7
   1200061e0:	1000feca 	b	120005d0c <__multf3+0xec>
   1200061e4:	24080003 	li	a4,3
   1200061e8:	2415000c 	li	s5,12
   1200061ec:	24137fff 	li	s3,32767
   1200061f0:	1000feb2 	b	120005cbc <__multf3+0x9c>
   1200061f4:	24050003 	li	a1,3
   1200061f8:	24150004 	li	s5,4
   1200061fc:	00009825 	move	s3,zero
   120006200:	1000feae 	b	120005cbc <__multf3+0x9c>
   120006204:	24050001 	li	a1,1
   120006208:	00009025 	move	s2,zero
   12000620c:	1000febf 	b	120005d0c <__multf3+0xec>
   120006210:	24080001 	li	a4,1
   120006214:	00000000 	nop
   120006218:	24100001 	li	s0,1
   12000621c:	001083fc 	dsll32	s0,s0,0xf
   120006220:	00001825 	move	v1,zero
   120006224:	24027fff 	li	v0,32767
   120006228:	6604ffff 	daddiu	a0,s0,-1
   12000622c:	1000fed5 	b	120005d84 <__multf3+0x164>
   120006230:	2411ffff 	li	s1,-1
   120006234:	00000000 	nop
   120006238:	14400041 	bnez	v0,120006340 <__multf3+0x720>
   12000623c:	0082202f 	dsubu	a0,a0,v0
   120006240:	00041000 	sll	v0,a0,0x0
   120006244:	24050040 	li	a1,64
   120006248:	00402025 	move	a0,v0
   12000624c:	00a22823 	subu	a1,a1,v0
   120006250:	00b01014 	dsllv	v0,s0,a1
   120006254:	00913016 	dsrlv	a2,s1,a0
   120006258:	00b12814 	dsllv	a1,s1,a1
   12000625c:	0005282b 	sltu	a1,zero,a1
   120006260:	00468825 	or	s1,v0,a2
   120006264:	02258825 	or	s1,s1,a1
   120006268:	32220007 	andi	v0,s1,0x7
   12000626c:	1040004e 	beqz	v0,1200063a8 <__multf3+0x788>
   120006270:	00908016 	dsrlv	s0,s0,a0
   120006274:	3222000f 	andi	v0,s1,0xf
   120006278:	24040004 	li	a0,4
   12000627c:	54440047 	bnel	v0,a0,12000639c <__multf3+0x77c>
   120006280:	66220004 	daddiu	v0,s1,4
   120006284:	10000049 	b	1200063ac <__multf3+0x78c>
   120006288:	001014fe 	dsrl32	v0,s0,0x13
   12000628c:	00000000 	nop
   120006290:	24040001 	li	a0,1
   120006294:	02509025 	or	s2,s2,s0
   120006298:	000423fc 	dsll32	a0,a0,0xf
   12000629c:	02449024 	and	s2,s2,a0
   1200062a0:	52400007 	beqzl	s2,1200062c0 <__multf3+0x6a0>
   1200062a4:	24020001 	li	v0,1
   1200062a8:	00001825 	move	v1,zero
   1200062ac:	24027fff 	li	v0,32767
   1200062b0:	6484ffff 	daddiu	a0,a0,-1
   1200062b4:	1000feb3 	b	120005d84 <__multf3+0x164>
   1200062b8:	2411ffff 	li	s1,-1
   1200062bc:	00e0b025 	move	s6,a3
   1200062c0:	000223fc 	dsll32	a0,v0,0xf
   1200062c4:	6484ffff 	daddiu	a0,a0,-1
   1200062c8:	02048024 	and	s0,s0,a0
   1200062cc:	02301825 	or	v1,s1,s0
   1200062d0:	5460004e 	bnezl	v1,12000640c <__multf3+0x7ec>
   1200062d4:	0002243c 	dsll32	a0,v0,0x10
   1200062d8:	00001825 	move	v1,zero
   1200062dc:	24027fff 	li	v0,32767
   1200062e0:	1000fea8 	b	120005d84 <__multf3+0x164>
   1200062e4:	2411ffff 	li	s1,-1
   1200062e8:	04110415 	bal	120007340 <__clzdi2>
   1200062ec:	02e02025 	move	a0,s7
   1200062f0:	24440031 	addiu	a0,v0,49
   1200062f4:	2887003d 	slti	a3,a0,61
   1200062f8:	dfa50000 	ld	a1,0(sp)
   1200062fc:	14e0ff81 	bnez	a3,120006104 <__multf3+0x4e4>
   120006300:	24430040 	addiu	v1,v0,64
   120006304:	2446fff4 	addiu	a2,v0,-12
   120006308:	00002025 	move	a0,zero
   12000630c:	1000ff84 	b	120006120 <__multf3+0x500>
   120006310:	00d79014 	dsllv	s2,s7,a2
   120006314:	00000000 	nop
   120006318:	04110409 	bal	120007340 <__clzdi2>
   12000631c:	00000000 	nop
   120006320:	24430031 	addiu	v1,v0,49
   120006324:	2865003d 	slti	a1,v1,61
   120006328:	14a0ff8a 	bnez	a1,120006154 <__multf3+0x534>
   12000632c:	24530040 	addiu	s3,v0,64
   120006330:	2444fff4 	addiu	a0,v0,-12
   120006334:	00008825 	move	s1,zero
   120006338:	1000ff8d 	b	120006170 <__multf3+0x550>
   12000633c:	00928014 	dsllv	s0,s2,a0
   120006340:	28820075 	slti	v0,a0,117
   120006344:	1040fe8d 	beqz	v0,120005d7c <__multf3+0x15c>
   120006348:	00001025 	move	v0,zero
   12000634c:	00041000 	sll	v0,a0,0x0
   120006350:	28860040 	slti	a2,a0,64
   120006354:	14c0ffbb 	bnez	a2,120006244 <__multf3+0x624>
   120006358:	00402825 	move	a1,v0
   12000635c:	24060040 	li	a2,64
   120006360:	10860004 	beq	a0,a2,120006374 <__multf3+0x754>
   120006364:	00501016 	dsrlv	v0,s0,v0
   120006368:	00052823 	negu	a1,a1
   12000636c:	00b08014 	dsllv	s0,s0,a1
   120006370:	02308825 	or	s1,s1,s0
   120006374:	0011882b 	sltu	s1,zero,s1
   120006378:	02228825 	or	s1,s1,v0
   12000637c:	32300007 	andi	s0,s1,0x7
   120006380:	1200001e 	beqz	s0,1200063fc <__multf3+0x7dc>
   120006384:	00002025 	move	a0,zero
   120006388:	3222000f 	andi	v0,s1,0xf
   12000638c:	24040004 	li	a0,4
   120006390:	10440013 	beq	v0,a0,1200063e0 <__multf3+0x7c0>
   120006394:	00008025 	move	s0,zero
   120006398:	66220004 	daddiu	v0,s1,4
   12000639c:	0051882b 	sltu	s1,v0,s1
   1200063a0:	0211802d 	daddu	s0,s0,s1
   1200063a4:	00408825 	move	s1,v0
   1200063a8:	001014fe 	dsrl32	v0,s0,0x13
   1200063ac:	30420001 	andi	v0,v0,0x1
   1200063b0:	1040000d 	beqz	v0,1200063e8 <__multf3+0x7c8>
   1200063b4:	24020001 	li	v0,1
   1200063b8:	00002025 	move	a0,zero
   1200063bc:	1000fe71 	b	120005d84 <__multf3+0x164>
   1200063c0:	00008825 	move	s1,zero
   1200063c4:	00000000 	nop
   1200063c8:	00002025 	move	a0,zero
   1200063cc:	1000fe6d 	b	120005d84 <__multf3+0x164>
   1200063d0:	00008825 	move	s1,zero
   1200063d4:	00000000 	nop
   1200063d8:	1000ff1c 	b	12000604c <__multf3+0x42c>
   1200063dc:	02603025 	move	a2,s3
   1200063e0:	24020001 	li	v0,1
   1200063e4:	00000000 	nop
   1200063e8:	0002143c 	dsll32	v0,v0,0x10
   1200063ec:	001020fa 	dsrl	a0,s0,0x3
   1200063f0:	6442ffff 	daddiu	v0,v0,-1
   1200063f4:	0010877c 	dsll32	s0,s0,0x1d
   1200063f8:	00822024 	and	a0,a0,v0
   1200063fc:	001188fa 	dsrl	s1,s1,0x3
   120006400:	02308825 	or	s1,s1,s0
   120006404:	1000fe5f 	b	120005d84 <__multf3+0x164>
   120006408:	00001025 	move	v0,zero
   12000640c:	6484ffff 	daddiu	a0,a0,-1
   120006410:	02042024 	and	a0,s0,a0
   120006414:	32c30001 	andi	v1,s6,0x1
   120006418:	1000fe5a 	b	120005d84 <__multf3+0x164>
   12000641c:	24027fff 	li	v0,32767

0000000120006420 <__subtf3>:
   120006420:	24020001 	li	v0,1
   120006424:	0002143c 	dsll32	v0,v0,0x10
   120006428:	67bdffd0 	daddiu	sp,sp,-48
   12000642c:	6442ffff 	daddiu	v0,v0,-1
   120006430:	00454824 	and	a5,v0,a1
   120006434:	00071c3e 	dsrl32	v1,a3,0x10
   120006438:	00471024 	and	v0,v0,a3
   12000643c:	ffbc0020 	sd	gp,32(sp)
   120006440:	ffb00000 	sd	s0,0(sp)
   120006444:	3c1c0002 	lui	gp,0x2
   120006448:	0005843e 	dsrl32	s0,a1,0x10
   12000644c:	32107fff 	andi	s0,s0,0x7fff
   120006450:	30637fff 	andi	v1,v1,0x7fff
   120006454:	000210f8 	dsll	v0,v0,0x3
   120006458:	ffb30018 	sd	s3,24(sp)
   12000645c:	0399e02d 	daddu	gp,gp,t9
   120006460:	000948f8 	dsll	a5,a5,0x3
   120006464:	00049f7e 	dsrl32	s3,a0,0x1d
   120006468:	0006477e 	dsrl32	a4,a2,0x1d
   12000646c:	240a7fff 	li	a6,32767
   120006470:	ffb20010 	sd	s2,16(sp)
   120006474:	01024025 	or	a4,a4,v0
   120006478:	000597fe 	dsrl32	s2,a1,0x1f
   12000647c:	ffbf0028 	sd	ra,40(sp)
   120006480:	ffb10008 	sd	s1,8(sp)
   120006484:	679ca0f0 	daddiu	gp,gp,-24336
   120006488:	02694825 	or	a5,s3,a5
   12000648c:	000458f8 	dsll	a7,a0,0x3
   120006490:	00073ffe 	dsrl32	a3,a3,0x1f
   120006494:	000660f8 	dsll	t0,a2,0x3
   120006498:	0203282f 	dsubu	a1,s0,v1
   12000649c:	106a0096 	beq	v1,a6,1200066f8 <__subtf3+0x2d8>
   1200064a0:	02031023 	subu	v0,s0,v1
   1200064a4:	38e70001 	xori	a3,a3,0x1
   1200064a8:	124700a5 	beq	s2,a3,120006740 <__subtf3+0x320>
   1200064ac:	00000000 	nop
   1200064b0:	18a0006d 	blez	a1,120006668 <__subtf3+0x248>
   1200064b4:	00000000 	nop
   1200064b8:	14600096 	bnez	v1,120006714 <__subtf3+0x2f4>
   1200064bc:	010c1825 	or	v1,a4,t0
   1200064c0:	5060013f 	beqzl	v1,1200069c0 <__subtf3+0x5a0>
   1200064c4:	24020001 	li	v0,1
   1200064c8:	2442ffff 	addiu	v0,v0,-1
   1200064cc:	104001e8 	beqz	v0,120006c70 <__subtf3+0x850>
   1200064d0:	24037fff 	li	v1,32767
   1200064d4:	10a300d2 	beq	a1,v1,120006820 <__subtf3+0x400>
   1200064d8:	28430075 	slti	v1,v0,117
   1200064dc:	10600096 	beqz	v1,120006738 <__subtf3+0x318>
   1200064e0:	010c8825 	or	s1,a4,t0
   1200064e4:	28430040 	slti	v1,v0,64
   1200064e8:	10600195 	beqz	v1,120006b40 <__subtf3+0x720>
   1200064ec:	24040040 	li	a0,64
   1200064f0:	00822023 	subu	a0,a0,v0
   1200064f4:	00881814 	dsllv	v1,a4,a0
   1200064f8:	004c8816 	dsrlv	s1,t0,v0
   1200064fc:	008c2014 	dsllv	a0,t0,a0
   120006500:	00718825 	or	s1,v1,s1
   120006504:	0004202b 	sltu	a0,zero,a0
   120006508:	00481016 	dsrlv	v0,a4,v0
   12000650c:	02248825 	or	s1,s1,a0
   120006510:	0122482f 	dsubu	a5,a5,v0
   120006514:	0171882f 	dsubu	s1,a7,s1
   120006518:	0171582b 	sltu	a7,a7,s1
   12000651c:	012b982f 	dsubu	s3,a5,a7
   120006520:	24020001 	li	v0,1
   120006524:	000214fc 	dsll32	v0,v0,0x13
   120006528:	02621824 	and	v1,s3,v0
   12000652c:	506000dc 	beqzl	v1,1200068a0 <__subtf3+0x480>
   120006530:	32220007 	andi	v0,s1,0x7
   120006534:	6442ffff 	daddiu	v0,v0,-1
   120006538:	02629824 	and	s3,s3,v0
   12000653c:	126000ee 	beqz	s3,1200068f8 <__subtf3+0x4d8>
   120006540:	df998270 	ld	t9,-32144(gp)
   120006544:	0411037e 	bal	120007340 <__clzdi2>
   120006548:	02602025 	move	a0,s3
   12000654c:	2443fff4 	addiu	v1,v0,-12
   120006550:	00035023 	negu	a6,v1
   120006554:	01515016 	dsrlv	a6,s1,a6
   120006558:	00739814 	dsllv	s3,s3,v1
   12000655c:	0070102a 	slt	v0,v1,s0
   120006560:	01539825 	or	s3,a6,s3
   120006564:	144000ef 	bnez	v0,120006924 <__subtf3+0x504>
   120006568:	00718814 	dsllv	s1,s1,v1
   12000656c:	00108000 	sll	s0,s0,0x0
   120006570:	00701823 	subu	v1,v1,s0
   120006574:	24640001 	addiu	a0,v1,1
   120006578:	28820040 	slti	v0,a0,64
   12000657c:	10400164 	beqz	v0,120006b10 <__subtf3+0x6f0>
   120006580:	2463ffc1 	addiu	v1,v1,-63
   120006584:	24020040 	li	v0,64
   120006588:	00441023 	subu	v0,v0,a0
   12000658c:	00911816 	dsrlv	v1,s1,a0
   120006590:	00518814 	dsllv	s1,s1,v0
   120006594:	00531014 	dsllv	v0,s3,v0
   120006598:	00431025 	or	v0,v0,v1
   12000659c:	0011882b 	sltu	s1,zero,s1
   1200065a0:	00518825 	or	s1,v0,s1
   1200065a4:	00939816 	dsrlv	s3,s3,a0
   1200065a8:	00008025 	move	s0,zero
   1200065ac:	32220007 	andi	v0,s1,0x7
   1200065b0:	10400009 	beqz	v0,1200065d8 <__subtf3+0x1b8>
   1200065b4:	24030001 	li	v1,1
   1200065b8:	3223000f 	andi	v1,s1,0xf
   1200065bc:	24020004 	li	v0,4
   1200065c0:	10620004 	beq	v1,v0,1200065d4 <__subtf3+0x1b4>
   1200065c4:	66230004 	daddiu	v1,s1,4
   1200065c8:	0071882b 	sltu	s1,v1,s1
   1200065cc:	0271982d 	daddu	s3,s3,s1
   1200065d0:	00608825 	move	s1,v1
   1200065d4:	24030001 	li	v1,1
   1200065d8:	00032cfc 	dsll32	a1,v1,0x13
   1200065dc:	02652824 	and	a1,s3,a1
   1200065e0:	10a000b1 	beqz	a1,1200068a8 <__subtf3+0x488>
   1200065e4:	24027fff 	li	v0,32767
   1200065e8:	66100001 	daddiu	s0,s0,1
   1200065ec:	32067fff 	andi	a2,s0,0x7fff
   1200065f0:	120200bd 	beq	s0,v0,1200068e8 <__subtf3+0x4c8>
   1200065f4:	32450001 	andi	a1,s2,0x1
   1200065f8:	2404ffff 	li	a0,-1
   1200065fc:	000424fc 	dsll32	a0,a0,0x13
   120006600:	6484ffff 	daddiu	a0,a0,-1
   120006604:	02642024 	and	a0,s3,a0
   120006608:	00031c3c 	dsll32	v1,v1,0x10
   12000660c:	0004177c 	dsll32	v0,a0,0x1d
   120006610:	001188fa 	dsrl	s1,s1,0x3
   120006614:	000420fa 	dsrl	a0,a0,0x3
   120006618:	6463ffff 	daddiu	v1,v1,-1
   12000661c:	00511025 	or	v0,v0,s1
   120006620:	00832024 	and	a0,a0,v1
   120006624:	24030001 	li	v1,1
   120006628:	dfbf0028 	ld	ra,40(sp)
   12000662c:	00052bc0 	sll	a1,a1,0xf
   120006630:	00031c3c 	dsll32	v1,v1,0x10
   120006634:	00a62825 	or	a1,a1,a2
   120006638:	6463ffff 	daddiu	v1,v1,-1
   12000663c:	00052c3c 	dsll32	a1,a1,0x10
   120006640:	00832024 	and	a0,a0,v1
   120006644:	dfbc0020 	ld	gp,32(sp)
   120006648:	dfb30018 	ld	s3,24(sp)
   12000664c:	dfb20010 	ld	s2,16(sp)
   120006650:	dfb10008 	ld	s1,8(sp)
   120006654:	dfb00000 	ld	s0,0(sp)
   120006658:	00852025 	or	a0,a0,a1
   12000665c:	03e00008 	jr	ra
   120006660:	67bd0030 	daddiu	sp,sp,48
   120006664:	00000000 	nop
   120006668:	50a0004d 	beqzl	a1,1200067a0 <__subtf3+0x380>
   12000666c:	66020001 	daddiu	v0,s0,1
   120006670:	16000105 	bnez	s0,120006a88 <__subtf3+0x668>
   120006674:	24047fff 	li	a0,32767
   120006678:	012b2025 	or	a0,a5,a7
   12000667c:	5080016c 	beqzl	a0,120006c30 <__subtf3+0x810>
   120006680:	24020001 	li	v0,1
   120006684:	00021027 	nor	v0,zero,v0
   120006688:	104001a9 	beqz	v0,120006d30 <__subtf3+0x910>
   12000668c:	24047fff 	li	a0,32767
   120006690:	14640103 	bne	v1,a0,120006aa0 <__subtf3+0x680>
   120006694:	28440075 	slti	a0,v0,117
   120006698:	24020001 	li	v0,1
   12000669c:	0002177c 	dsll32	v0,v0,0x1d
   1200066a0:	6442ffff 	daddiu	v0,v0,-1
   1200066a4:	00463024 	and	a2,v0,a2
   1200066a8:	0008177c 	dsll32	v0,a4,0x1d
   1200066ac:	00c21025 	or	v0,a2,v0
   1200066b0:	000898fa 	dsrl	s3,a4,0x3
   1200066b4:	00e09025 	move	s2,a3
   1200066b8:	00531825 	or	v1,v0,s3
   1200066bc:	00000000 	nop
   1200066c0:	106001ef 	beqz	v1,120006e80 <__subtf3+0xa60>
   1200066c4:	32450001 	andi	a1,s2,0x1
   1200066c8:	24040001 	li	a0,1
   1200066cc:	000423fc 	dsll32	a0,a0,0xf
   1200066d0:	6484ffff 	daddiu	a0,a0,-1
   1200066d4:	02649824 	and	s3,s3,a0
   1200066d8:	00531825 	or	v1,v0,s3
   1200066dc:	546000cc 	bnezl	v1,120006a10 <__subtf3+0x5f0>
   1200066e0:	24040001 	li	a0,1
   1200066e4:	00002825 	move	a1,zero
   1200066e8:	24067fff 	li	a2,32767
   1200066ec:	1000ffcd 	b	120006624 <__subtf3+0x204>
   1200066f0:	2402ffff 	li	v0,-1
   1200066f4:	00000000 	nop
   1200066f8:	010c5025 	or	a6,a4,t0
   1200066fc:	5140ff6a 	beqzl	a6,1200064a8 <__subtf3+0x88>
   120006700:	38e70001 	xori	a3,a3,0x1
   120006704:	1247008e 	beq	s2,a3,120006940 <__subtf3+0x520>
   120006708:	00000000 	nop
   12000670c:	18a0ffd6 	blez	a1,120006668 <__subtf3+0x248>
   120006710:	00000000 	nop
   120006714:	24037fff 	li	v1,32767
   120006718:	12030041 	beq	s0,v1,120006820 <__subtf3+0x400>
   12000671c:	24030001 	li	v1,1
   120006720:	00031cfc 	dsll32	v1,v1,0x13
   120006724:	01034025 	or	a4,a4,v1
   120006728:	28430075 	slti	v1,v0,117
   12000672c:	1460ff6e 	bnez	v1,1200064e8 <__subtf3+0xc8>
   120006730:	28430040 	slti	v1,v0,64
   120006734:	010c8825 	or	s1,a4,t0
   120006738:	1000ff76 	b	120006514 <__subtf3+0xf4>
   12000673c:	0011882b 	sltu	s1,zero,s1
   120006740:	18a0007f 	blez	a1,120006940 <__subtf3+0x520>
   120006744:	00000000 	nop
   120006748:	1060002d 	beqz	v1,120006800 <__subtf3+0x3e0>
   12000674c:	010c1825 	or	v1,a4,t0
   120006750:	24037fff 	li	v1,32767
   120006754:	12030032 	beq	s0,v1,120006820 <__subtf3+0x400>
   120006758:	24030001 	li	v1,1
   12000675c:	00031cfc 	dsll32	v1,v1,0x13
   120006760:	01034025 	or	a4,a4,v1
   120006764:	28430075 	slti	v1,v0,117
   120006768:	10600035 	beqz	v1,120006840 <__subtf3+0x420>
   12000676c:	010c8825 	or	s1,a4,t0
   120006770:	28430040 	slti	v1,v0,64
   120006774:	54600112 	bnezl	v1,120006bc0 <__subtf3+0x7a0>
   120006778:	24030040 	li	v1,64
   12000677c:	24040040 	li	a0,64
   120006780:	10440004 	beq	v0,a0,120006794 <__subtf3+0x374>
   120006784:	00481816 	dsrlv	v1,a4,v0
   120006788:	00021023 	negu	v0,v0
   12000678c:	00481014 	dsllv	v0,a4,v0
   120006790:	01826025 	or	t0,t0,v0
   120006794:	000c882b 	sltu	s1,zero,t0
   120006798:	1000002a 	b	120006844 <__subtf3+0x424>
   12000679c:	02238825 	or	s1,s1,v1
   1200067a0:	30427ffe 	andi	v0,v0,0x7ffe
   1200067a4:	144000ce 	bnez	v0,120006ae0 <__subtf3+0x6c0>
   1200067a8:	016c882f 	dsubu	s1,a7,t0
   1200067ac:	012b1825 	or	v1,a5,a7
   1200067b0:	1600008b 	bnez	s0,1200069e0 <__subtf3+0x5c0>
   1200067b4:	010c1025 	or	v0,a4,t0
   1200067b8:	10600165 	beqz	v1,120006d50 <__subtf3+0x930>
   1200067bc:	00000000 	nop
   1200067c0:	10400131 	beqz	v0,120006c88 <__subtf3+0x868>
   1200067c4:	24020001 	li	v0,1
   1200067c8:	016c882f 	dsubu	s1,a7,t0
   1200067cc:	0128502f 	dsubu	a6,a5,a4
   1200067d0:	0171982b 	sltu	s3,a7,s1
   1200067d4:	0153982f 	dsubu	s3,a6,s3
   1200067d8:	001314fe 	dsrl32	v0,s3,0x13
   1200067dc:	30420001 	andi	v0,v0,0x1
   1200067e0:	1040019e 	beqz	v0,120006e5c <__subtf3+0xa3c>
   1200067e4:	02331025 	or	v0,s1,s3
   1200067e8:	018b882f 	dsubu	s1,t0,a7
   1200067ec:	0109982f 	dsubu	s3,a4,a5
   1200067f0:	0191602b 	sltu	t0,t0,s1
   1200067f4:	026c982f 	dsubu	s3,s3,t0
   1200067f8:	1000ff6c 	b	1200065ac <__subtf3+0x18c>
   1200067fc:	00e09025 	move	s2,a3
   120006800:	5060006f 	beqzl	v1,1200069c0 <__subtf3+0x5a0>
   120006804:	24020001 	li	v0,1
   120006808:	2442ffff 	addiu	v0,v0,-1
   12000680c:	10400112 	beqz	v0,120006c58 <__subtf3+0x838>
   120006810:	24037fff 	li	v1,32767
   120006814:	14a3ffd4 	bne	a1,v1,120006768 <__subtf3+0x348>
   120006818:	28430075 	slti	v1,v0,117
   12000681c:	00000000 	nop
   120006820:	24020001 	li	v0,1
   120006824:	0002177c 	dsll32	v0,v0,0x1d
   120006828:	6442ffff 	daddiu	v0,v0,-1
   12000682c:	00442024 	and	a0,v0,a0
   120006830:	0009177c 	dsll32	v0,a5,0x1d
   120006834:	00821025 	or	v0,a0,v0
   120006838:	1000ff9f 	b	1200066b8 <__subtf3+0x298>
   12000683c:	000998fa 	dsrl	s3,a5,0x3
   120006840:	0011882b 	sltu	s1,zero,s1
   120006844:	022b882d 	daddu	s1,s1,a7
   120006848:	022b582b 	sltu	a7,s1,a7
   12000684c:	0169982d 	daddu	s3,a7,a5
   120006850:	001314fe 	dsrl32	v0,s3,0x13
   120006854:	30420001 	andi	v0,v0,0x1
   120006858:	10400011 	beqz	v0,1200068a0 <__subtf3+0x480>
   12000685c:	32220007 	andi	v0,s1,0x7
   120006860:	66100001 	daddiu	s0,s0,1
   120006864:	24027fff 	li	v0,32767
   120006868:	12020185 	beq	s0,v0,120006e80 <__subtf3+0xa60>
   12000686c:	32450001 	andi	a1,s2,0x1
   120006870:	2404ffff 	li	a0,-1
   120006874:	000424fc 	dsll32	a0,a0,0x13
   120006878:	6484ffff 	daddiu	a0,a0,-1
   12000687c:	0011107a 	dsrl	v0,s1,0x1
   120006880:	02649824 	and	s3,s3,a0
   120006884:	32310001 	andi	s1,s1,0x1
   120006888:	00518825 	or	s1,v0,s1
   12000688c:	001317fc 	dsll32	v0,s3,0x1f
   120006890:	00518825 	or	s1,v0,s1
   120006894:	0013987a 	dsrl	s3,s3,0x1
   120006898:	32220007 	andi	v0,s1,0x7
   12000689c:	00000000 	nop
   1200068a0:	1440ff46 	bnez	v0,1200065bc <__subtf3+0x19c>
   1200068a4:	3223000f 	andi	v1,s1,0xf
   1200068a8:	0013177c 	dsll32	v0,s3,0x1d
   1200068ac:	001188fa 	dsrl	s1,s1,0x3
   1200068b0:	02221025 	or	v0,s1,v0
   1200068b4:	001398fa 	dsrl	s3,s3,0x3
   1200068b8:	02002825 	move	a1,s0
   1200068bc:	24037fff 	li	v1,32767
   1200068c0:	10a3ff7f 	beq	a1,v1,1200066c0 <__subtf3+0x2a0>
   1200068c4:	00531825 	or	v1,v0,s3
   1200068c8:	24040001 	li	a0,1
   1200068cc:	0004243c 	dsll32	a0,a0,0x10
   1200068d0:	6484ffff 	daddiu	a0,a0,-1
   1200068d4:	30a67fff 	andi	a2,a1,0x7fff
   1200068d8:	02642024 	and	a0,s3,a0
   1200068dc:	1000ff51 	b	120006624 <__subtf3+0x204>
   1200068e0:	32450001 	andi	a1,s2,0x1
   1200068e4:	00000000 	nop
   1200068e8:	24067fff 	li	a2,32767
   1200068ec:	00002025 	move	a0,zero
   1200068f0:	1000ff4c 	b	120006624 <__subtf3+0x204>
   1200068f4:	00001025 	move	v0,zero
   1200068f8:	04110291 	bal	120007340 <__clzdi2>
   1200068fc:	02202025 	move	a0,s1
   120006900:	24430034 	addiu	v1,v0,52
   120006904:	28640040 	slti	a0,v1,64
   120006908:	1480ff12 	bnez	a0,120006554 <__subtf3+0x134>
   12000690c:	00035023 	negu	a6,v1
   120006910:	2453fff4 	addiu	s3,v0,-12
   120006914:	0070102a 	slt	v0,v1,s0
   120006918:	02719814 	dsllv	s3,s1,s3
   12000691c:	1040ff13 	beqz	v0,12000656c <__subtf3+0x14c>
   120006920:	00008825 	move	s1,zero
   120006924:	2404ffff 	li	a0,-1
   120006928:	000424fc 	dsll32	a0,a0,0x13
   12000692c:	6484ffff 	daddiu	a0,a0,-1
   120006930:	0203802f 	dsubu	s0,s0,v1
   120006934:	1000ff1d 	b	1200065ac <__subtf3+0x18c>
   120006938:	02649824 	and	s3,s3,a0
   12000693c:	00000000 	nop
   120006940:	50a00039 	beqzl	a1,120006a28 <__subtf3+0x608>
   120006944:	66030001 	daddiu	v1,s0,1
   120006948:	1200008d 	beqz	s0,120006b80 <__subtf3+0x760>
   12000694c:	012b2025 	or	a0,a5,a7
   120006950:	24047fff 	li	a0,32767
   120006954:	10640091 	beq	v1,a0,120006b9c <__subtf3+0x77c>
   120006958:	24040001 	li	a0,1
   12000695c:	000424fc 	dsll32	a0,a0,0x13
   120006960:	00021023 	negu	v0,v0
   120006964:	01244825 	or	a5,a5,a0
   120006968:	28440075 	slti	a0,v0,117
   12000696c:	508000ce 	beqzl	a0,120006ca8 <__subtf3+0x888>
   120006970:	012b4825 	or	a5,a5,a7
   120006974:	28440040 	slti	a0,v0,64
   120006978:	1080012a 	beqz	a0,120006e24 <__subtf3+0xa04>
   12000697c:	24050040 	li	a1,64
   120006980:	24040040 	li	a0,64
   120006984:	00822023 	subu	a0,a0,v0
   120006988:	004b2816 	dsrlv	a1,a7,v0
   12000698c:	00898814 	dsllv	s1,a5,a0
   120006990:	008b5814 	dsllv	a7,a7,a0
   120006994:	02258825 	or	s1,s1,a1
   120006998:	000b582b 	sltu	a7,zero,a7
   12000699c:	00491016 	dsrlv	v0,a5,v0
   1200069a0:	022b8825 	or	s1,s1,a7
   1200069a4:	0102402d 	daddu	a4,a4,v0
   1200069a8:	022c882d 	daddu	s1,s1,t0
   1200069ac:	022c602b 	sltu	t0,s1,t0
   1200069b0:	0188982d 	daddu	s3,t0,a4
   1200069b4:	1000ffa6 	b	120006850 <__subtf3+0x430>
   1200069b8:	00608025 	move	s0,v1
   1200069bc:	00000000 	nop
   1200069c0:	0002177c 	dsll32	v0,v0,0x1d
   1200069c4:	6442ffff 	daddiu	v0,v0,-1
   1200069c8:	00442024 	and	a0,v0,a0
   1200069cc:	0009177c 	dsll32	v0,a5,0x1d
   1200069d0:	00821025 	or	v0,a0,v0
   1200069d4:	1000ffb9 	b	1200068bc <__subtf3+0x49c>
   1200069d8:	000998fa 	dsrl	s3,a5,0x3
   1200069dc:	00000000 	nop
   1200069e0:	146000ef 	bnez	v1,120006da0 <__subtf3+0x980>
   1200069e4:	00092f7c 	dsll32	a1,a5,0x1d
   1200069e8:	5440ff2c 	bnezl	v0,12000669c <__subtf3+0x27c>
   1200069ec:	24020001 	li	v0,1
   1200069f0:	24130001 	li	s3,1
   1200069f4:	00139bfc 	dsll32	s3,s3,0xf
   1200069f8:	2402ffff 	li	v0,-1
   1200069fc:	00009025 	move	s2,zero
   120006a00:	6673ffff 	daddiu	s3,s3,-1
   120006a04:	00000000 	nop
   120006a08:	24040001 	li	a0,1
   120006a0c:	00000000 	nop
   120006a10:	0004243c 	dsll32	a0,a0,0x10
   120006a14:	6484ffff 	daddiu	a0,a0,-1
   120006a18:	02642024 	and	a0,s3,a0
   120006a1c:	32450001 	andi	a1,s2,0x1
   120006a20:	1000ff00 	b	120006624 <__subtf3+0x204>
   120006a24:	24067fff 	li	a2,32767
   120006a28:	30627ffe 	andi	v0,v1,0x7ffe
   120006a2c:	5440006e 	bnezl	v0,120006be8 <__subtf3+0x7c8>
   120006a30:	24027fff 	li	v0,32767
   120006a34:	160000a6 	bnez	s0,120006cd0 <__subtf3+0x8b0>
   120006a38:	012b1025 	or	v0,a5,a7
   120006a3c:	104000ec 	beqz	v0,120006df0 <__subtf3+0x9d0>
   120006a40:	24020001 	li	v0,1
   120006a44:	010c1025 	or	v0,a4,t0
   120006a48:	1040008f 	beqz	v0,120006c88 <__subtf3+0x868>
   120006a4c:	24020001 	li	v0,1
   120006a50:	016c882d 	daddu	s1,a7,t0
   120006a54:	0128982d 	daddu	s3,a5,a4
   120006a58:	022b582b 	sltu	a7,s1,a7
   120006a5c:	026b982d 	daddu	s3,s3,a7
   120006a60:	001314fe 	dsrl32	v0,s3,0x13
   120006a64:	30420001 	andi	v0,v0,0x1
   120006a68:	1040ff8d 	beqz	v0,1200068a0 <__subtf3+0x480>
   120006a6c:	32220007 	andi	v0,s1,0x7
   120006a70:	2402ffff 	li	v0,-1
   120006a74:	000214fc 	dsll32	v0,v0,0x13
   120006a78:	6442ffff 	daddiu	v0,v0,-1
   120006a7c:	02629824 	and	s3,s3,v0
   120006a80:	1000ff85 	b	120006898 <__subtf3+0x478>
   120006a84:	24100001 	li	s0,1
   120006a88:	1064ff03 	beq	v1,a0,120006698 <__subtf3+0x278>
   120006a8c:	24040001 	li	a0,1
   120006a90:	000424fc 	dsll32	a0,a0,0x13
   120006a94:	00021023 	negu	v0,v0
   120006a98:	01244825 	or	a5,a5,a0
   120006a9c:	28440075 	slti	a0,v0,117
   120006aa0:	5080002f 	beqzl	a0,120006b60 <__subtf3+0x740>
   120006aa4:	012b4825 	or	a5,a5,a7
   120006aa8:	28440040 	slti	a0,v0,64
   120006aac:	10800080 	beqz	a0,120006cb0 <__subtf3+0x890>
   120006ab0:	24050040 	li	a1,64
   120006ab4:	24040040 	li	a0,64
   120006ab8:	00822023 	subu	a0,a0,v0
   120006abc:	004b2816 	dsrlv	a1,a7,v0
   120006ac0:	00898814 	dsllv	s1,a5,a0
   120006ac4:	008b5814 	dsllv	a7,a7,a0
   120006ac8:	02258825 	or	s1,s1,a1
   120006acc:	000b582b 	sltu	a7,zero,a7
   120006ad0:	00491016 	dsrlv	v0,a5,v0
   120006ad4:	022b8825 	or	s1,s1,a7
   120006ad8:	10000022 	b	120006b64 <__subtf3+0x744>
   120006adc:	0102402f 	dsubu	a4,a4,v0
   120006ae0:	0128982f 	dsubu	s3,a5,a4
   120006ae4:	0171202b 	sltu	a0,a7,s1
   120006ae8:	0264982f 	dsubu	s3,s3,a0
   120006aec:	001314fe 	dsrl32	v0,s3,0x13
   120006af0:	30420001 	andi	v0,v0,0x1
   120006af4:	14400048 	bnez	v0,120006c18 <__subtf3+0x7f8>
   120006af8:	02331025 	or	v0,s1,s3
   120006afc:	1440fe8f 	bnez	v0,12000653c <__subtf3+0x11c>
   120006b00:	00000000 	nop
   120006b04:	00009825 	move	s3,zero
   120006b08:	1000ff6f 	b	1200068c8 <__subtf3+0x4a8>
   120006b0c:	00009025 	move	s2,zero
   120006b10:	24020040 	li	v0,64
   120006b14:	10820004 	beq	a0,v0,120006b28 <__subtf3+0x708>
   120006b18:	00731816 	dsrlv	v1,s3,v1
   120006b1c:	00042023 	negu	a0,a0
   120006b20:	00939814 	dsllv	s3,s3,a0
   120006b24:	02338825 	or	s1,s1,s3
   120006b28:	0011882b 	sltu	s1,zero,s1
   120006b2c:	02238825 	or	s1,s1,v1
   120006b30:	00009825 	move	s3,zero
   120006b34:	1000ff58 	b	120006898 <__subtf3+0x478>
   120006b38:	00008025 	move	s0,zero
   120006b3c:	00000000 	nop
   120006b40:	10440004 	beq	v0,a0,120006b54 <__subtf3+0x734>
   120006b44:	00481816 	dsrlv	v1,a4,v0
   120006b48:	00021023 	negu	v0,v0
   120006b4c:	00481014 	dsllv	v0,a4,v0
   120006b50:	01826025 	or	t0,t0,v0
   120006b54:	000c882b 	sltu	s1,zero,t0
   120006b58:	1000fe6e 	b	120006514 <__subtf3+0xf4>
   120006b5c:	02238825 	or	s1,s1,v1
   120006b60:	0009882b 	sltu	s1,zero,a5
   120006b64:	0191882f 	dsubu	s1,t0,s1
   120006b68:	0191602b 	sltu	t0,t0,s1
   120006b6c:	010c982f 	dsubu	s3,a4,t0
   120006b70:	00608025 	move	s0,v1
   120006b74:	1000fe6a 	b	120006520 <__subtf3+0x100>
   120006b78:	00e09025 	move	s2,a3
   120006b7c:	00000000 	nop
   120006b80:	5080007f 	beqzl	a0,120006d80 <__subtf3+0x960>
   120006b84:	24020001 	li	v0,1
   120006b88:	00021027 	nor	v0,zero,v0
   120006b8c:	104000ad 	beqz	v0,120006e44 <__subtf3+0xa24>
   120006b90:	24047fff 	li	a0,32767
   120006b94:	1464ff75 	bne	v1,a0,12000696c <__subtf3+0x54c>
   120006b98:	28440075 	slti	a0,v0,117
   120006b9c:	24020001 	li	v0,1
   120006ba0:	0002177c 	dsll32	v0,v0,0x1d
   120006ba4:	6442ffff 	daddiu	v0,v0,-1
   120006ba8:	00463024 	and	a2,v0,a2
   120006bac:	0008177c 	dsll32	v0,a4,0x1d
   120006bb0:	00c21025 	or	v0,a2,v0
   120006bb4:	1000fec0 	b	1200066b8 <__subtf3+0x298>
   120006bb8:	000898fa 	dsrl	s3,a4,0x3
   120006bbc:	00000000 	nop
   120006bc0:	00621823 	subu	v1,v1,v0
   120006bc4:	004c2016 	dsrlv	a0,t0,v0
   120006bc8:	00688814 	dsllv	s1,a4,v1
   120006bcc:	006c6014 	dsllv	t0,t0,v1
   120006bd0:	02248825 	or	s1,s1,a0
   120006bd4:	000c602b 	sltu	t0,zero,t0
   120006bd8:	00481016 	dsrlv	v0,a4,v0
   120006bdc:	022c8825 	or	s1,s1,t0
   120006be0:	1000ff18 	b	120006844 <__subtf3+0x424>
   120006be4:	0122482d 	daddu	a5,a5,v0
   120006be8:	106200a4 	beq	v1,v0,120006e7c <__subtf3+0xa5c>
   120006bec:	016c882d 	daddu	s1,a7,t0
   120006bf0:	022b202b 	sltu	a0,s1,a7
   120006bf4:	0128402d 	daddu	a4,a5,a4
   120006bf8:	0104202d 	daddu	a0,a4,a0
   120006bfc:	000417fc 	dsll32	v0,a0,0x1f
   120006c00:	0011887a 	dsrl	s1,s1,0x1
   120006c04:	00518825 	or	s1,v0,s1
   120006c08:	0004987a 	dsrl	s3,a0,0x1
   120006c0c:	1000ff22 	b	120006898 <__subtf3+0x478>
   120006c10:	00608025 	move	s0,v1
   120006c14:	00000000 	nop
   120006c18:	018b882f 	dsubu	s1,t0,a7
   120006c1c:	0109402f 	dsubu	a4,a4,a5
   120006c20:	0191602b 	sltu	t0,t0,s1
   120006c24:	010c982f 	dsubu	s3,a4,t0
   120006c28:	1000fe44 	b	12000653c <__subtf3+0x11c>
   120006c2c:	00e09025 	move	s2,a3
   120006c30:	0002177c 	dsll32	v0,v0,0x1d
   120006c34:	6442ffff 	daddiu	v0,v0,-1
   120006c38:	00463024 	and	a2,v0,a2
   120006c3c:	0008177c 	dsll32	v0,a4,0x1d
   120006c40:	00c21025 	or	v0,a2,v0
   120006c44:	000898fa 	dsrl	s3,a4,0x3
   120006c48:	00602825 	move	a1,v1
   120006c4c:	1000ff1b 	b	1200068bc <__subtf3+0x49c>
   120006c50:	00e09025 	move	s2,a3
   120006c54:	00000000 	nop
   120006c58:	016c882d 	daddu	s1,a7,t0
   120006c5c:	0128982d 	daddu	s3,a5,a4
   120006c60:	022b582b 	sltu	a7,s1,a7
   120006c64:	026b982d 	daddu	s3,s3,a7
   120006c68:	1000fef9 	b	120006850 <__subtf3+0x430>
   120006c6c:	00a08025 	move	s0,a1
   120006c70:	016c882f 	dsubu	s1,a7,t0
   120006c74:	0128982f 	dsubu	s3,a5,a4
   120006c78:	0171582b 	sltu	a7,a7,s1
   120006c7c:	026b982f 	dsubu	s3,s3,a7
   120006c80:	1000fe27 	b	120006520 <__subtf3+0x100>
   120006c84:	00a08025 	move	s0,a1
   120006c88:	0002177c 	dsll32	v0,v0,0x1d
   120006c8c:	6442ffff 	daddiu	v0,v0,-1
   120006c90:	00442024 	and	a0,v0,a0
   120006c94:	0009177c 	dsll32	v0,a5,0x1d
   120006c98:	00821025 	or	v0,a0,v0
   120006c9c:	1000ff0a 	b	1200068c8 <__subtf3+0x4a8>
   120006ca0:	000998fa 	dsrl	s3,a5,0x3
   120006ca4:	00000000 	nop
   120006ca8:	1000ff3f 	b	1200069a8 <__subtf3+0x588>
   120006cac:	0009882b 	sltu	s1,zero,a5
   120006cb0:	10450004 	beq	v0,a1,120006cc4 <__subtf3+0x8a4>
   120006cb4:	00492016 	dsrlv	a0,a5,v0
   120006cb8:	00021023 	negu	v0,v0
   120006cbc:	00494814 	dsllv	a5,a5,v0
   120006cc0:	01695825 	or	a7,a7,a5
   120006cc4:	000b882b 	sltu	s1,zero,a7
   120006cc8:	1000ffa6 	b	120006b64 <__subtf3+0x744>
   120006ccc:	02248825 	or	s1,s1,a0
   120006cd0:	5040ffb3 	beqzl	v0,120006ba0 <__subtf3+0x780>
   120006cd4:	24020001 	li	v0,1
   120006cd8:	010c6025 	or	t0,a4,t0
   120006cdc:	00092f7c 	dsll32	a1,a5,0x1d
   120006ce0:	1180004a 	beqz	t0,120006e0c <__subtf3+0x9ec>
   120006ce4:	000998fa 	dsrl	s3,a5,0x3
   120006ce8:	000850fa 	dsrl	a6,a4,0x3
   120006cec:	24030001 	li	v1,1
   120006cf0:	01535025 	or	a6,a6,s3
   120006cf4:	00039bfc 	dsll32	s3,v1,0xf
   120006cf8:	01535024 	and	a6,a6,s3
   120006cfc:	5540005c 	bnezl	a6,120006e70 <__subtf3+0xa50>
   120006d00:	2402ffff 	li	v0,-1
   120006d04:	00031f7c 	dsll32	v1,v1,0x1d
   120006d08:	6463ffff 	daddiu	v1,v1,-1
   120006d0c:	00642024 	and	a0,v1,a0
   120006d10:	00852025 	or	a0,a0,a1
   120006d14:	0004177e 	dsrl32	v0,a0,0x1d
   120006d18:	00831824 	and	v1,a0,v1
   120006d1c:	0002177c 	dsll32	v0,v0,0x1d
   120006d20:	00621025 	or	v0,v1,v0
   120006d24:	1000fe64 	b	1200066b8 <__subtf3+0x298>
   120006d28:	000998fa 	dsrl	s3,a5,0x3
   120006d2c:	00000000 	nop
   120006d30:	018b882f 	dsubu	s1,t0,a7
   120006d34:	0109982f 	dsubu	s3,a4,a5
   120006d38:	0191602b 	sltu	t0,t0,s1
   120006d3c:	026c982f 	dsubu	s3,s3,t0
   120006d40:	00608025 	move	s0,v1
   120006d44:	1000fdf6 	b	120006520 <__subtf3+0x100>
   120006d48:	00e09025 	move	s2,a3
   120006d4c:	00000000 	nop
   120006d50:	5040ff6d 	beqzl	v0,120006b08 <__subtf3+0x6e8>
   120006d54:	00009825 	move	s3,zero
   120006d58:	24020001 	li	v0,1
   120006d5c:	0002177c 	dsll32	v0,v0,0x1d
   120006d60:	6442ffff 	daddiu	v0,v0,-1
   120006d64:	00463024 	and	a2,v0,a2
   120006d68:	0008177c 	dsll32	v0,a4,0x1d
   120006d6c:	00c21025 	or	v0,a2,v0
   120006d70:	000898fa 	dsrl	s3,a4,0x3
   120006d74:	1000fed4 	b	1200068c8 <__subtf3+0x4a8>
   120006d78:	00e09025 	move	s2,a3
   120006d7c:	00000000 	nop
   120006d80:	0002177c 	dsll32	v0,v0,0x1d
   120006d84:	6442ffff 	daddiu	v0,v0,-1
   120006d88:	00463024 	and	a2,v0,a2
   120006d8c:	0008177c 	dsll32	v0,a4,0x1d
   120006d90:	00c21025 	or	v0,a2,v0
   120006d94:	000898fa 	dsrl	s3,a4,0x3
   120006d98:	1000fec8 	b	1200068bc <__subtf3+0x49c>
   120006d9c:	00602825 	move	a1,v1
   120006da0:	1040001a 	beqz	v0,120006e0c <__subtf3+0x9ec>
   120006da4:	000998fa 	dsrl	s3,a5,0x3
   120006da8:	000850fa 	dsrl	a6,a4,0x3
   120006dac:	24020001 	li	v0,1
   120006db0:	01535025 	or	a6,a6,s3
   120006db4:	00029bfc 	dsll32	s3,v0,0xf
   120006db8:	01535024 	and	a6,a6,s3
   120006dbc:	5540002c 	bnezl	a6,120006e70 <__subtf3+0xa50>
   120006dc0:	2402ffff 	li	v0,-1
   120006dc4:	0002177c 	dsll32	v0,v0,0x1d
   120006dc8:	6443ffff 	daddiu	v1,v0,-1
   120006dcc:	00642024 	and	a0,v1,a0
   120006dd0:	00852825 	or	a1,a0,a1
   120006dd4:	0005177e 	dsrl32	v0,a1,0x1d
   120006dd8:	0002177c 	dsll32	v0,v0,0x1d
   120006ddc:	00a32824 	and	a1,a1,v1
   120006de0:	00451025 	or	v0,v0,a1
   120006de4:	1000fe34 	b	1200066b8 <__subtf3+0x298>
   120006de8:	000998fa 	dsrl	s3,a5,0x3
   120006dec:	00000000 	nop
   120006df0:	0002177c 	dsll32	v0,v0,0x1d
   120006df4:	6442ffff 	daddiu	v0,v0,-1
   120006df8:	00463024 	and	a2,v0,a2
   120006dfc:	0008177c 	dsll32	v0,a4,0x1d
   120006e00:	00c21025 	or	v0,a2,v0
   120006e04:	1000feb0 	b	1200068c8 <__subtf3+0x4a8>
   120006e08:	000898fa 	dsrl	s3,a4,0x3
   120006e0c:	24020001 	li	v0,1
   120006e10:	0002177c 	dsll32	v0,v0,0x1d
   120006e14:	6442ffff 	daddiu	v0,v0,-1
   120006e18:	00441024 	and	v0,v0,a0
   120006e1c:	1000fe26 	b	1200066b8 <__subtf3+0x298>
   120006e20:	00451025 	or	v0,v0,a1
   120006e24:	10450004 	beq	v0,a1,120006e38 <__subtf3+0xa18>
   120006e28:	00492016 	dsrlv	a0,a5,v0
   120006e2c:	00021023 	negu	v0,v0
   120006e30:	00494814 	dsllv	a5,a5,v0
   120006e34:	01695825 	or	a7,a7,a5
   120006e38:	000b882b 	sltu	s1,zero,a7
   120006e3c:	1000feda 	b	1200069a8 <__subtf3+0x588>
   120006e40:	02248825 	or	s1,s1,a0
   120006e44:	016c882d 	daddu	s1,a7,t0
   120006e48:	0128982d 	daddu	s3,a5,a4
   120006e4c:	022c602b 	sltu	t0,s1,t0
   120006e50:	026c982d 	daddu	s3,s3,t0
   120006e54:	1000fe7e 	b	120006850 <__subtf3+0x430>
   120006e58:	00608025 	move	s0,v1
   120006e5c:	5440fe90 	bnezl	v0,1200068a0 <__subtf3+0x480>
   120006e60:	32220007 	andi	v0,s1,0x7
   120006e64:	00009825 	move	s3,zero
   120006e68:	1000fe97 	b	1200068c8 <__subtf3+0x4a8>
   120006e6c:	00009025 	move	s2,zero
   120006e70:	00009025 	move	s2,zero
   120006e74:	1000fee4 	b	120006a08 <__subtf3+0x5e8>
   120006e78:	6673ffff 	daddiu	s3,s3,-1
   120006e7c:	32450001 	andi	a1,s2,0x1
   120006e80:	24067fff 	li	a2,32767
   120006e84:	00002025 	move	a0,zero
   120006e88:	1000fde6 	b	120006624 <__subtf3+0x204>
   120006e8c:	00001025 	move	v0,zero

0000000120006e90 <__fixtfsi>:
   120006e90:	0005243e 	dsrl32	a0,a1,0x10
   120006e94:	30847fff 	andi	a0,a0,0x7fff
   120006e98:	28833fff 	slti	v1,a0,16383
   120006e9c:	14600013 	bnez	v1,120006eec <__fixtfsi+0x5c>
   120006ea0:	00001025 	move	v0,zero
   120006ea4:	2882401e 	slti	v0,a0,16414
   120006ea8:	14400005 	bnez	v0,120006ec0 <__fixtfsi+0x30>
   120006eac:	000537fe 	dsrl32	a2,a1,0x1f
   120006eb0:	3c027fff 	lui	v0,0x7fff
   120006eb4:	3442ffff 	ori	v0,v0,0xffff
   120006eb8:	03e00008 	jr	ra
   120006ebc:	00461021 	addu	v0,v0,a2
   120006ec0:	24070001 	li	a3,1
   120006ec4:	00073c3c 	dsll32	a3,a3,0x10
   120006ec8:	64e2ffff 	daddiu	v0,a3,-1
   120006ecc:	00451024 	and	v0,v0,a1
   120006ed0:	2403402f 	li	v1,16431
   120006ed4:	00471025 	or	v0,v0,a3
   120006ed8:	00642023 	subu	a0,v1,a0
   120006edc:	00821016 	dsrlv	v0,v0,a0
   120006ee0:	10c00002 	beqz	a2,120006eec <__fixtfsi+0x5c>
   120006ee4:	00021000 	sll	v0,v0,0x0
   120006ee8:	00021023 	negu	v0,v0
   120006eec:	03e00008 	jr	ra
   120006ef0:	00000000 	nop
	...

0000000120006f00 <__fixunstfsi>:
   120006f00:	00051c3e 	dsrl32	v1,a1,0x10
   120006f04:	30637fff 	andi	v1,v1,0x7fff
   120006f08:	28643fff 	slti	a0,v1,16383
   120006f0c:	14800014 	bnez	a0,120006f60 <__fixunstfsi+0x60>
   120006f10:	00001025 	move	v0,zero
   120006f14:	000537fe 	dsrl32	a2,a1,0x1f
   120006f18:	2cc40001 	sltiu	a0,a2,1
   120006f1c:	6484401e 	daddiu	a0,a0,16414
   120006f20:	0064202a 	slt	a0,v1,a0
   120006f24:	14800004 	bnez	a0,120006f38 <__fixunstfsi+0x38>
   120006f28:	00000000 	nop
   120006f2c:	03e00008 	jr	ra
   120006f30:	24c2ffff 	addiu	v0,a2,-1
   120006f34:	00000000 	nop
   120006f38:	14c00009 	bnez	a2,120006f60 <__fixunstfsi+0x60>
   120006f3c:	24040001 	li	a0,1
   120006f40:	0004243c 	dsll32	a0,a0,0x10
   120006f44:	6482ffff 	daddiu	v0,a0,-1
   120006f48:	00451024 	and	v0,v0,a1
   120006f4c:	2405402f 	li	a1,16431
   120006f50:	00441025 	or	v0,v0,a0
   120006f54:	00a31823 	subu	v1,a1,v1
   120006f58:	00621016 	dsrlv	v0,v0,v1
   120006f5c:	00021000 	sll	v0,v0,0x0
   120006f60:	03e00008 	jr	ra
   120006f64:	00000000 	nop
	...

0000000120006f70 <__floatsitf>:
   120006f70:	67bdffe0 	daddiu	sp,sp,-32
   120006f74:	ffbc0010 	sd	gp,16(sp)
   120006f78:	3c1c0002 	lui	gp,0x2
   120006f7c:	0399e02d 	daddu	gp,gp,t9
   120006f80:	ffbf0018 	sd	ra,24(sp)
   120006f84:	ffb10008 	sd	s1,8(sp)
   120006f88:	ffb00000 	sd	s0,0(sp)
   120006f8c:	10800022 	beqz	a0,120007018 <__floatsitf+0xa8>
   120006f90:	679c95a0 	daddiu	gp,gp,-27232
   120006f94:	00808025 	move	s0,a0
   120006f98:	04800031 	bltz	a0,120007060 <__floatsitf+0xf0>
   120006f9c:	28910000 	slti	s1,a0,0
   120006fa0:	df998270 	ld	t9,-32144(gp)
   120006fa4:	0010803c 	dsll32	s0,s0,0x0
   120006fa8:	0010803e 	dsrl32	s0,s0,0x0
   120006fac:	041100e4 	bal	120007340 <__clzdi2>
   120006fb0:	02002025 	move	a0,s0
   120006fb4:	24050001 	li	a1,1
   120006fb8:	2403403e 	li	v1,16446
   120006fbc:	2444fff1 	addiu	a0,v0,-15
   120006fc0:	00621823 	subu	v1,v1,v0
   120006fc4:	00052c3c 	dsll32	a1,a1,0x10
   120006fc8:	24020001 	li	v0,1
   120006fcc:	dfbf0018 	ld	ra,24(sp)
   120006fd0:	00902014 	dsllv	a0,s0,a0
   120006fd4:	64a5ffff 	daddiu	a1,a1,-1
   120006fd8:	30637fff 	andi	v1,v1,0x7fff
   120006fdc:	00118bc0 	sll	s1,s1,0xf
   120006fe0:	0002143c 	dsll32	v0,v0,0x10
   120006fe4:	6442ffff 	daddiu	v0,v0,-1
   120006fe8:	00852024 	and	a0,a0,a1
   120006fec:	02238825 	or	s1,s1,v1
   120006ff0:	00118c3c 	dsll32	s1,s1,0x10
   120006ff4:	00822024 	and	a0,a0,v0
   120006ff8:	dfbc0010 	ld	gp,16(sp)
   120006ffc:	dfb00000 	ld	s0,0(sp)
   120007000:	00912025 	or	a0,a0,s1
   120007004:	00001025 	move	v0,zero
   120007008:	dfb10008 	ld	s1,8(sp)
   12000700c:	03e00008 	jr	ra
   120007010:	67bd0020 	daddiu	sp,sp,32
   120007014:	00000000 	nop
   120007018:	00008825 	move	s1,zero
   12000701c:	24020001 	li	v0,1
   120007020:	dfbf0018 	ld	ra,24(sp)
   120007024:	00001825 	move	v1,zero
   120007028:	00118bc0 	sll	s1,s1,0xf
   12000702c:	0002143c 	dsll32	v0,v0,0x10
   120007030:	6442ffff 	daddiu	v0,v0,-1
   120007034:	00002025 	move	a0,zero
   120007038:	02238825 	or	s1,s1,v1
   12000703c:	00118c3c 	dsll32	s1,s1,0x10
   120007040:	00822024 	and	a0,a0,v0
   120007044:	dfbc0010 	ld	gp,16(sp)
   120007048:	dfb00000 	ld	s0,0(sp)
   12000704c:	00912025 	or	a0,a0,s1
   120007050:	00001025 	move	v0,zero
   120007054:	dfb10008 	ld	s1,8(sp)
   120007058:	03e00008 	jr	ra
   12000705c:	67bd0020 	daddiu	sp,sp,32
   120007060:	1000ffcf 	b	120006fa0 <__floatsitf+0x30>
   120007064:	00048023 	negu	s0,a0
	...

0000000120007070 <__floatunsitf>:
   120007070:	10800023 	beqz	a0,120007100 <__floatunsitf+0x90>
   120007074:	24030001 	li	v1,1
   120007078:	67bdffe0 	daddiu	sp,sp,-32
   12000707c:	ffbc0010 	sd	gp,16(sp)
   120007080:	3c1c0002 	lui	gp,0x2
   120007084:	0399e02d 	daddu	gp,gp,t9
   120007088:	679c94a0 	daddiu	gp,gp,-27488
   12000708c:	ffb00008 	sd	s0,8(sp)
   120007090:	df998270 	ld	t9,-32144(gp)
   120007094:	0004803c 	dsll32	s0,a0,0x0
   120007098:	0010803e 	dsrl32	s0,s0,0x0
   12000709c:	ffbf0018 	sd	ra,24(sp)
   1200070a0:	041100a7 	bal	120007340 <__clzdi2>
   1200070a4:	02002025 	move	a0,s0
   1200070a8:	2403403e 	li	v1,16446
   1200070ac:	24050001 	li	a1,1
   1200070b0:	2444fff1 	addiu	a0,v0,-15
   1200070b4:	00052c3c 	dsll32	a1,a1,0x10
   1200070b8:	00621023 	subu	v0,v1,v0
   1200070bc:	24030001 	li	v1,1
   1200070c0:	dfbf0018 	ld	ra,24(sp)
   1200070c4:	00902014 	dsllv	a0,s0,a0
   1200070c8:	64a5ffff 	daddiu	a1,a1,-1
   1200070cc:	00031c3c 	dsll32	v1,v1,0x10
   1200070d0:	00852024 	and	a0,a0,a1
   1200070d4:	30427fff 	andi	v0,v0,0x7fff
   1200070d8:	6463ffff 	daddiu	v1,v1,-1
   1200070dc:	0002143c 	dsll32	v0,v0,0x10
   1200070e0:	00832024 	and	a0,a0,v1
   1200070e4:	dfbc0010 	ld	gp,16(sp)
   1200070e8:	dfb00008 	ld	s0,8(sp)
   1200070ec:	00822025 	or	a0,a0,v0
   1200070f0:	00001025 	move	v0,zero
   1200070f4:	03e00008 	jr	ra
   1200070f8:	67bd0020 	daddiu	sp,sp,32
   1200070fc:	00000000 	nop
   120007100:	00031c3c 	dsll32	v1,v1,0x10
   120007104:	6463ffff 	daddiu	v1,v1,-1
   120007108:	00001025 	move	v0,zero
   12000710c:	00002025 	move	a0,zero
   120007110:	0002143c 	dsll32	v0,v0,0x10
   120007114:	00832024 	and	a0,a0,v1
   120007118:	00822025 	or	a0,a0,v0
   12000711c:	03e00008 	jr	ra
   120007120:	00001025 	move	v0,zero
	...

0000000120007130 <__extenddftf2>:
   120007130:	00042d3e 	dsrl32	a1,a0,0x14
   120007134:	67bdffe0 	daddiu	sp,sp,-32
   120007138:	24060001 	li	a2,1
   12000713c:	30a507ff 	andi	a1,a1,0x7ff
   120007140:	0006153c 	dsll32	v0,a2,0x14
   120007144:	ffbc0010 	sd	gp,16(sp)
   120007148:	64a70001 	daddiu	a3,a1,1
   12000714c:	3c1c0002 	lui	gp,0x2
   120007150:	0399e02d 	daddu	gp,gp,t9
   120007154:	6442ffff 	daddiu	v0,v0,-1
   120007158:	30e707fe 	andi	a3,a3,0x7fe
   12000715c:	ffb10008 	sd	s1,8(sp)
   120007160:	ffb00000 	sd	s0,0(sp)
   120007164:	ffbf0018 	sd	ra,24(sp)
   120007168:	679c93e0 	daddiu	gp,gp,-27680
   12000716c:	00448824 	and	s1,v0,a0
   120007170:	10e00017 	beqz	a3,1200071d0 <__extenddftf2+0xa0>
   120007174:	000487fe 	dsrl32	s0,a0,0x1f
   120007178:	0006243c 	dsll32	a0,a2,0x10
   12000717c:	0011113a 	dsrl	v0,s1,0x4
   120007180:	6484ffff 	daddiu	a0,a0,-1
   120007184:	00442024 	and	a0,v0,a0
   120007188:	00118f3c 	dsll32	s1,s1,0x1c
   12000718c:	64a53c00 	daddiu	a1,a1,15360
   120007190:	00101bc0 	sll	v1,s0,0xf
   120007194:	24060001 	li	a2,1
   120007198:	dfbf0018 	ld	ra,24(sp)
   12000719c:	00651825 	or	v1,v1,a1
   1200071a0:	00062c3c 	dsll32	a1,a2,0x10
   1200071a4:	64a5ffff 	daddiu	a1,a1,-1
   1200071a8:	00031c3c 	dsll32	v1,v1,0x10
   1200071ac:	00852024 	and	a0,a0,a1
   1200071b0:	dfbc0010 	ld	gp,16(sp)
   1200071b4:	dfb00000 	ld	s0,0(sp)
   1200071b8:	02201025 	move	v0,s1
   1200071bc:	00832025 	or	a0,a0,v1
   1200071c0:	dfb10008 	ld	s1,8(sp)
   1200071c4:	03e00008 	jr	ra
   1200071c8:	67bd0020 	daddiu	sp,sp,32
   1200071cc:	00000000 	nop
   1200071d0:	14a00025 	bnez	a1,120007268 <__extenddftf2+0x138>
   1200071d4:	00000000 	nop
   1200071d8:	12200031 	beqz	s1,1200072a0 <__extenddftf2+0x170>
   1200071dc:	00002825 	move	a1,zero
   1200071e0:	df998270 	ld	t9,-32144(gp)
   1200071e4:	04110056 	bal	120007340 <__clzdi2>
   1200071e8:	02202025 	move	a0,s1
   1200071ec:	2843000f 	slti	v1,v0,15
   1200071f0:	1060004b 	beqz	v1,120007320 <__extenddftf2+0x1f0>
   1200071f4:	2443fff1 	addiu	v1,v0,-15
   1200071f8:	2403000f 	li	v1,15
   1200071fc:	00621823 	subu	v1,v1,v0
   120007200:	24440031 	addiu	a0,v0,49
   120007204:	00711816 	dsrlv	v1,s1,v1
   120007208:	00918814 	dsllv	s1,s1,a0
   12000720c:	24040001 	li	a0,1
   120007210:	24053c0c 	li	a1,15372
   120007214:	0004243c 	dsll32	a0,a0,0x10
   120007218:	00a22823 	subu	a1,a1,v0
   12000721c:	6484ffff 	daddiu	a0,a0,-1
   120007220:	00642024 	and	a0,v1,a0
   120007224:	30a57fff 	andi	a1,a1,0x7fff
   120007228:	00101bc0 	sll	v1,s0,0xf
   12000722c:	24060001 	li	a2,1
   120007230:	dfbf0018 	ld	ra,24(sp)
   120007234:	00651825 	or	v1,v1,a1
   120007238:	00062c3c 	dsll32	a1,a2,0x10
   12000723c:	64a5ffff 	daddiu	a1,a1,-1
   120007240:	00031c3c 	dsll32	v1,v1,0x10
   120007244:	00852024 	and	a0,a0,a1
   120007248:	dfbc0010 	ld	gp,16(sp)
   12000724c:	dfb00000 	ld	s0,0(sp)
   120007250:	02201025 	move	v0,s1
   120007254:	00832025 	or	a0,a0,v1
   120007258:	dfb10008 	ld	s1,8(sp)
   12000725c:	03e00008 	jr	ra
   120007260:	67bd0020 	daddiu	sp,sp,32
   120007264:	00000000 	nop
   120007268:	1220001d 	beqz	s1,1200072e0 <__extenddftf2+0x1b0>
   12000726c:	24057fff 	li	a1,32767
   120007270:	000613fc 	dsll32	v0,a2,0xf
   120007274:	0011193a 	dsrl	v1,s1,0x4
   120007278:	6442ffff 	daddiu	v0,v0,-1
   12000727c:	00118f3c 	dsll32	s1,s1,0x1c
   120007280:	00621824 	and	v1,v1,v0
   120007284:	02232025 	or	a0,s1,v1
   120007288:	50800029 	beqzl	a0,120007330 <__extenddftf2+0x200>
   12000728c:	00008025 	move	s0,zero
   120007290:	0006243c 	dsll32	a0,a2,0x10
   120007294:	6484ffff 	daddiu	a0,a0,-1
   120007298:	1000ffbd 	b	120007190 <__extenddftf2+0x60>
   12000729c:	00642024 	and	a0,v1,a0
   1200072a0:	00101bc0 	sll	v1,s0,0xf
   1200072a4:	24060001 	li	a2,1
   1200072a8:	dfbf0018 	ld	ra,24(sp)
   1200072ac:	00651825 	or	v1,v1,a1
   1200072b0:	00062c3c 	dsll32	a1,a2,0x10
   1200072b4:	00002025 	move	a0,zero
   1200072b8:	64a5ffff 	daddiu	a1,a1,-1
   1200072bc:	00031c3c 	dsll32	v1,v1,0x10
   1200072c0:	00852024 	and	a0,a0,a1
   1200072c4:	dfbc0010 	ld	gp,16(sp)
   1200072c8:	dfb00000 	ld	s0,0(sp)
   1200072cc:	02201025 	move	v0,s1
   1200072d0:	00832025 	or	a0,a0,v1
   1200072d4:	dfb10008 	ld	s1,8(sp)
   1200072d8:	03e00008 	jr	ra
   1200072dc:	67bd0020 	daddiu	sp,sp,32
   1200072e0:	00101bc0 	sll	v1,s0,0xf
   1200072e4:	24060001 	li	a2,1
   1200072e8:	dfbf0018 	ld	ra,24(sp)
   1200072ec:	00651825 	or	v1,v1,a1
   1200072f0:	00062c3c 	dsll32	a1,a2,0x10
   1200072f4:	00002025 	move	a0,zero
   1200072f8:	64a5ffff 	daddiu	a1,a1,-1
   1200072fc:	00031c3c 	dsll32	v1,v1,0x10
   120007300:	00852024 	and	a0,a0,a1
   120007304:	dfbc0010 	ld	gp,16(sp)
   120007308:	dfb00000 	ld	s0,0(sp)
   12000730c:	02201025 	move	v0,s1
   120007310:	00832025 	or	a0,a0,v1
   120007314:	dfb10008 	ld	s1,8(sp)
   120007318:	03e00008 	jr	ra
   12000731c:	67bd0020 	daddiu	sp,sp,32
   120007320:	00711814 	dsllv	v1,s1,v1
   120007324:	1000ffb9 	b	12000720c <__extenddftf2+0xdc>
   120007328:	00008825 	move	s1,zero
   12000732c:	00000000 	nop
   120007330:	24057fff 	li	a1,32767
   120007334:	00402025 	move	a0,v0
   120007338:	1000ff95 	b	120007190 <__extenddftf2+0x60>
   12000733c:	2411ffff 	li	s1,-1

0000000120007340 <__clzdi2>:
   120007340:	3c060002 	lui	a2,0x2
   120007344:	00d9302d 	daddu	a2,a2,t9
   120007348:	64c691d0 	daddiu	a2,a2,-28208
   12000734c:	24020038 	li	v0,56
   120007350:	00021800 	sll	v1,v0,0x0
   120007354:	00000000 	nop
   120007358:	00641816 	dsrlv	v1,a0,v1
   12000735c:	306500ff 	andi	a1,v1,0xff
   120007360:	54a0000b 	bnezl	a1,120007390 <__clzdi2+0x50>
   120007364:	24040040 	li	a0,64
   120007368:	6442fff8 	daddiu	v0,v0,-8
   12000736c:	1440fffa 	bnez	v0,120007358 <__clzdi2+0x18>
   120007370:	00021800 	sll	v1,v0,0x0
   120007374:	dcc38278 	ld	v1,-32136(a2)
   120007378:	24020040 	li	v0,64
   12000737c:	00021000 	sll	v0,v0,0x0
   120007380:	0064202d 	daddu	a0,v1,a0
   120007384:	90830000 	lbu	v1,0(a0)
   120007388:	03e00008 	jr	ra
   12000738c:	00431023 	subu	v0,v0,v1
   120007390:	0082102f 	dsubu	v0,a0,v0
   120007394:	00602025 	move	a0,v1
   120007398:	dcc38278 	ld	v1,-32136(a2)
   12000739c:	00021000 	sll	v0,v0,0x0
   1200073a0:	0064202d 	daddu	a0,v1,a0
   1200073a4:	90830000 	lbu	v1,0(a0)
   1200073a8:	03e00008 	jr	ra
   1200073ac:	00431023 	subu	v0,v0,v1

00000001200073b0 <__do_global_ctors_aux>:
   1200073b0:	67bdffe0 	daddiu	sp,sp,-32
   1200073b4:	ffbc0010 	sd	gp,16(sp)
   1200073b8:	3c1c0002 	lui	gp,0x2
   1200073bc:	0399e02d 	daddu	gp,gp,t9
   1200073c0:	679c9160 	daddiu	gp,gp,-28320
   1200073c4:	df838040 	ld	v1,-32704(gp)
   1200073c8:	2402ffff 	li	v0,-1
   1200073cc:	ffbf0018 	sd	ra,24(sp)
   1200073d0:	dc7983e8 	ld	t9,-31768(v1)
   1200073d4:	ffb10008 	sd	s1,8(sp)
   1200073d8:	13220008 	beq	t9,v0,1200073fc <__do_global_ctors_aux+0x4c>
   1200073dc:	ffb00000 	sd	s0,0(sp)
   1200073e0:	2411ffff 	li	s1,-1
   1200073e4:	647083e8 	daddiu	s0,v1,-31768
   1200073e8:	0320f809 	jalr	t9
   1200073ec:	6610fff8 	daddiu	s0,s0,-8
   1200073f0:	de190000 	ld	t9,0(s0)
   1200073f4:	1731fffc 	bne	t9,s1,1200073e8 <__do_global_ctors_aux+0x38>
   1200073f8:	00000000 	nop
   1200073fc:	dfbf0018 	ld	ra,24(sp)
   120007400:	dfbc0010 	ld	gp,16(sp)
   120007404:	dfb10008 	ld	s1,8(sp)
   120007408:	dfb00000 	ld	s0,0(sp)
   12000740c:	03e00008 	jr	ra
   120007410:	67bd0020 	daddiu	sp,sp,32
	...

Disassembly of section .fini:

0000000120007420 <_fini>:
   120007420:	67bdffe0 	daddiu	sp,sp,-32
   120007424:	ffbc0010 	sd	gp,16(sp)
   120007428:	ffbf0018 	sd	ra,24(sp)
   12000742c:	00000000 	nop
   120007430:	04110001 	bal	120007438 <_fini+0x18>
   120007434:	00000000 	nop
   120007438:	03801025 	move	v0,gp
   12000743c:	3c1c0002 	lui	gp,0x2
   120007440:	279c90d8 	addiu	gp,gp,-28456
   120007444:	039fe02d 	daddu	gp,gp,ra
   120007448:	df998068 	ld	t9,-32664(gp)
   12000744c:	0320f809 	jalr	t9
   120007450:	00000000 	nop
   120007454:	dfbc0010 	ld	gp,16(sp)
   120007458:	dfbf0018 	ld	ra,24(sp)
   12000745c:	03e00008 	jr	ra
   120007460:	67bd0020 	daddiu	sp,sp,32
